
/home/sanjay/Code/Ardwiino/buildDebug/firmware/ardwiino-mini-main-atmega328p-8000000-rf.elf:     file format elf32-avr

Sections:
Idx Name          Size      VMA       LMA       File off  Algn
  0 .data         000000c0  00800100  00005892  00005966  2**0
                  CONTENTS, ALLOC, LOAD, DATA
  1 .rfrecv       00000008  00007b00  00007b00  00005a26  2**0
                  CONTENTS, ALLOC, LOAD, DATA
  2 .text         00005892  00000000  00000000  000000d4  2**1
                  CONTENTS, ALLOC, LOAD, READONLY, CODE
  3 .bss          0000029d  008001c0  008001c0  00005a2e  2**0
                  ALLOC
  4 .eeprom       00000113  00810000  00810000  00005a2e  2**0
                  CONTENTS, ALLOC, LOAD, DATA
  5 .stab         000094a4  00000000  00000000  00005b44  2**2
                  CONTENTS, READONLY, DEBUGGING
  6 .stabstr      0000239b  00000000  00000000  0000efe8  2**0
                  CONTENTS, READONLY, DEBUGGING
  7 .comment      00000012  00000000  00000000  00011383  2**0
                  CONTENTS, READONLY
  8 .note.gnu.avr.deviceinfo 00000040  00000000  00000000  00011398  2**2
                  CONTENTS, READONLY, OCTETS
  9 .debug_info   000005f4  00000000  00000000  000113d8  2**0
                  CONTENTS, READONLY, DEBUGGING, OCTETS
 10 .debug_abbrev 000005a2  00000000  00000000  000119cc  2**0
                  CONTENTS, READONLY, DEBUGGING, OCTETS
 11 .debug_line   0000001d  00000000  00000000  00011f6e  2**0
                  CONTENTS, READONLY, DEBUGGING, OCTETS
 12 .debug_str    00000208  00000000  00000000  00011f8b  2**0
                  CONTENTS, READONLY, DEBUGGING, OCTETS

Disassembly of section .text:

00000000 <__vectors>:
       0:	0c c7       	rjmp	.+3608   	; 0xe1a <__ctors_end>
       2:	00 00       	nop
       4:	0c 94 c8 25 	jmp	0x4b90	; 0x4b90 <__vector_1>
       8:	0c 94 bc 24 	jmp	0x4978	; 0x4978 <__vector_2>
       c:	23 c7       	rjmp	.+3654   	; 0xe54 <__bad_interrupt>
       e:	00 00       	nop
      10:	21 c7       	rjmp	.+3650   	; 0xe54 <__bad_interrupt>
      12:	00 00       	nop
      14:	1f c7       	rjmp	.+3646   	; 0xe54 <__bad_interrupt>
      16:	00 00       	nop
      18:	1d c7       	rjmp	.+3642   	; 0xe54 <__bad_interrupt>
      1a:	00 00       	nop
      1c:	1b c7       	rjmp	.+3638   	; 0xe54 <__bad_interrupt>
      1e:	00 00       	nop
      20:	19 c7       	rjmp	.+3634   	; 0xe54 <__bad_interrupt>
      22:	00 00       	nop
      24:	17 c7       	rjmp	.+3630   	; 0xe54 <__bad_interrupt>
      26:	00 00       	nop
      28:	15 c7       	rjmp	.+3626   	; 0xe54 <__bad_interrupt>
      2a:	00 00       	nop
      2c:	13 c7       	rjmp	.+3622   	; 0xe54 <__bad_interrupt>
      2e:	00 00       	nop
      30:	11 c7       	rjmp	.+3618   	; 0xe54 <__bad_interrupt>
      32:	00 00       	nop
      34:	0f c7       	rjmp	.+3614   	; 0xe54 <__bad_interrupt>
      36:	00 00       	nop
      38:	0d c7       	rjmp	.+3610   	; 0xe54 <__bad_interrupt>
      3a:	00 00       	nop
      3c:	0b c7       	rjmp	.+3606   	; 0xe54 <__bad_interrupt>
      3e:	00 00       	nop
      40:	0c 94 0e 25 	jmp	0x4a1c	; 0x4a1c <__vector_16>
      44:	07 c7       	rjmp	.+3598   	; 0xe54 <__bad_interrupt>
      46:	00 00       	nop
      48:	05 c7       	rjmp	.+3594   	; 0xe54 <__bad_interrupt>
      4a:	00 00       	nop
      4c:	03 c7       	rjmp	.+3590   	; 0xe54 <__bad_interrupt>
      4e:	00 00       	nop
      50:	01 c7       	rjmp	.+3586   	; 0xe54 <__bad_interrupt>
      52:	00 00       	nop
      54:	ff c6       	rjmp	.+3582   	; 0xe54 <__bad_interrupt>
      56:	00 00       	nop
      58:	fd c6       	rjmp	.+3578   	; 0xe54 <__bad_interrupt>
      5a:	00 00       	nop
      5c:	fb c6       	rjmp	.+3574   	; 0xe54 <__bad_interrupt>
      5e:	00 00       	nop
      60:	0c 94 31 25 	jmp	0x4a62	; 0x4a62 <__vector_24>
      64:	f7 c6       	rjmp	.+3566   	; 0xe54 <__bad_interrupt>
      66:	00 00       	nop

00000068 <port_to_mode_PGM>:
      68:	00 00 00 00 24 00 27 00 2a 00                       ....$.'.*.

00000072 <port_to_input_PGM>:
      72:	00 00 00 00 23 00 26 00 29 00                       ....#.&.).

0000007c <port_to_output_PGM>:
      7c:	00 00 00 00 25 00 28 00 2b 00                       ....%.(.+.

00000086 <digital_pin_to_bit_mask_PGM>:
      86:	01 02 04 08 10 20 40 80 01 02 04 08 10 20 01 02     ..... @...... ..
      96:	04 08 10 20                                         ... 

0000009a <digital_pin_to_port_PGM>:
      9a:	04 04 04 04 04 04 04 04 02 02 02 02 02 02 03 03     ................
      aa:	03 03 03 03                                         ....

000000ae <ghAxisBindings2>:
      ae:	ff 08 0f 0c                                         ....

000000b2 <id>:
      b2:	21 26 01 07 00 00 00 00                             !&......

000000ba <__c.0>:
      ba:	6d 69 6e 69 00                                      mini.

000000bf <default_config>:
      bf:	02 0f 00 00 00 01 01 01 15 d4 a2 00 0e 00 00 00     ................
      cf:	ff ff ff ff ff ff ff ff ff ff ff ff ff ff ff ff     ................
      df:	ff 00 ff 00 ff 00 ff 00 ff 00 ff 00 40 40 40 00     ............@@@.
      ef:	b8 0b 04 16 0d 0e 0f 33 28 0b 50 4f 52 51 51 ff     .......3(.PORQQ.
      ff:	ff ff ff ff ff 00 ff 00 ff 00 ff 00 0d 00 80 00     ................
     10f:	0e ff 00 00 10 ff ff 00 0f 00 00 ff 09 ff 45 00     ..............E.
     11f:	00 00 00 00 00 00 00 00 00 00 00 00 00 00 00 00     ................
     12f:	00 00 00 00 00 00 00 00 00 00 00 00 00 00 00 00     ................
     13f:	00 00 00 00 00 00 00 00 00 00 00 00 00 00 00 00     ................
     14f:	00 00 00 00 00 00 00 00 00 00 00 00 00 00 00 00     ................
     15f:	00 00 00 00 00 00 00 00 00 00 00 00 00 00 00 00     ................
     16f:	00 00 00 00 00 00 00 00 00 00 00 00 00 00 00 00     ................
     17f:	00 00 00 00 00 00 00 00 00 00 00 00 00 00 00 00     ................
     18f:	00 00 00 00 00 00 00 00 00 00 00 00 00 00 00 00     ................
     19f:	00 00 00 00 00 00 00 00 00 00 00 ff 01 00 00 80     ................
     1af:	00 80 01 00 00 80 00 80 01 00 00 80 00 00 01 00     ................
     1bf:	00 80 00 00 01 00 00 80 00 00 01 00 00 80 00 00     ................
     1cf:	05 14                                               ..

000001d1 <types>:
     1d1:	00 00 00 00 00 00 00 00 00 02 00 00 01 01 02 02     ................
     1e1:	00 00 00 00 00 02 02 02 01 01 00 02 01 02 01 00     ................
     1f1:	02 01 00 00 02 02 02 01 01                          .........

000001fa <dmp_memory>:
     1fa:	00 00 70 00 00 00 00 24 00 00 00 02 00 03 00 00     ..p....$........
     20a:	00 65 00 54 ff ef 00 00 fa 80 00 0b 12 82 00 01     .e.T............
     21a:	03 0c 30 c3 0e 8c 8c e9 14 d5 40 02 13 71 0f 8e     ..0.......@..q..
     22a:	38 83 f8 83 30 00 f8 83 25 8e f8 83 30 00 f8 83     8...0...%...0...
     23a:	ff ff ff ff 0f fe a9 d6 24 00 04 00 1a 82 79 a1     ........$.....y.
     24a:	00 00 00 3c ff ff 00 00 00 10 00 00 38 83 6f a2     ...<........8.o.
     25a:	00 3e 03 30 40 00 00 00 02 ca e3 09 3e 80 00 00     .>.0@.......>...
     26a:	20 00 00 00 00 00 00 00 40 00 00 00 60 00 00 00      .......@...`...
     27a:	00 0c 00 00 00 0c 18 6e 00 00 06 92 0a 16 c0 df     .......n........
     28a:	ff ff 02 56 fd 8c d3 77 ff e1 c4 96 e0 c5 be aa     ...V...w........
     29a:	00 00 00 00 ff ff 0b 2b 00 00 16 57 00 00 03 59     .......+...W...Y
     2aa:	40 00 00 00 00 00 1d fa 00 02 6c 1d 00 00 00 00     @.........l.....
     2ba:	3f ff df eb 00 3e b3 b6 00 0d 22 78 00 00 2f 3c     ?....>...."x../<
     2ca:	00 00 00 00 00 19 42 b5 00 00 39 a2 00 00 b3 65     ......B...9....e
     2da:	d9 0e 9f c9 1d cf 4c 34 30 00 00 00 50 00 00 00     ......L40...P...
     2ea:	3b b6 7a e8 00 64 00 00 00 c8 00 00 00 00 00 00     ;.z..d..........
     2fa:	10 00 00 00 10 00 fa 92 10 00 22 5e 00 0d 22 9f     .........."^..".
     30a:	00 01 00 00 00 32 00 00 ff 46 00 00 63 d4 00 00     .....2...F..c...
     31a:	10 00 00 00 04 d6 00 00 04 cc 00 00 04 cc 00 00     ................
     32a:	00 00 10 72 00 00 00 40 00 00 00 00 00 00 00 00     ...r...@........
     33a:	00 06 00 02 00 05 00 07 00 00 00 00 00 64 00 00     .............d..
     34a:	00 00 00 00 00 00 00 05 00 05 00 64 00 20 00 00     ...........d. ..
     35a:	00 00 00 00 00 00 00 00 00 00 40 00 00 00 03 00     ..........@.....
     36a:	00 00 00 32 f8 98 00 00 ff 65 00 00 83 0f 00 00     ...2.....e......
     37a:	ff 9b fc 00 00 00 00 00 00 00 00 00 00 00 00 00     ................
     38a:	00 00 00 00 00 00 00 00 00 00 00 00 00 00 00 00     ................
     39a:	00 00 00 00 00 00 00 00 00 00 00 00 00 00 10 00     ................
     3aa:	40 00 00 00 00 00 00 06 00 00 b2 6a 00 02 00 00     @..........j....
     3ba:	00 01 fb 83 00 68 00 00 00 d9 fc 00 7c f1 ff 83     .....h......|...
     3ca:	00 00 00 00 00 65 00 00 00 64 03 e8 00 64 00 28     .....e...d...d.(
     3da:	00 00 00 25 00 00 00 00 16 a0 00 00 00 00 10 00     ...%............
     3ea:	00 00 10 00 00 2f 00 00 00 00 01 f4 00 00 10 00     ...../..........
     3fa:	00 28 00 00 ff ff 45 81 ff ff fa 72 00 00 00 00     .(....E....r....
     40a:	00 00 00 00 00 44 00 05 00 05 ba c6 00 47 78 a2     .....D.......Gx.
     41a:	00 00 00 01 00 00 00 00 00 00 06 00 00 00 00 14     ................
     42a:	00 00 25 4d 00 2f 70 6d 00 00 05 ae 00 0c 02 d0     ..%M./pm........
     43a:	00 00 00 00 00 00 00 00 00 00 00 00 00 00 00 00     ................
     44a:	00 1b 00 00 00 00 00 00 00 00 00 00 00 00 00 00     ................
     45a:	00 64 00 00 00 08 00 00 00 00 00 00 00 00 00 00     .d..............
     46a:	00 00 00 00 00 00 00 00 00 00 00 00 00 00 00 00     ................
     47a:	00 00 00 00 00 00 00 00 00 00 00 00 00 00 00 00     ................
     48a:	00 00 00 00 00 00 00 00 00 00 00 00 00 00 00 00     ................
     49a:	00 00 00 00 00 00 00 00 00 00 00 00 00 00 00 00     ................
     4aa:	00 00 00 00 00 00 00 00 00 00 00 00 00 00 00 00     ................
     4ba:	00 1b 00 00 00 00 00 00 00 00 00 00 00 0e 00 0e     ................
     4ca:	00 00 0a c7 00 04 00 00 00 00 00 32 ff ff ff 9c     ...........2....
     4da:	00 00 0b 2b 00 00 00 02 00 00 00 01 00 00 00 64     ...+...........d
     4ea:	ff e5 00 00 00 00 00 00 00 00 00 00 00 00 00 00     ................
     4fa:	00 00 00 01 00 00 00 00 00 01 00 00 00 00 00 00     ................
     50a:	00 01 80 00 00 01 80 00 00 01 80 00 00 24 26 d3     .............$&.
     51a:	00 00 00 00 00 00 00 00 00 06 00 10 00 96 00 3c     ...............<
     52a:	00 00 00 00 00 00 00 00 00 00 00 00 00 00 00 00     ................
     53a:	0c 0a 4e 68 cd cf 77 09 50 16 67 59 c6 19 ce 82     ..Nh..w.P.gY....
     54a:	00 00 00 00 00 00 00 00 00 00 00 00 00 00 00 00     ................
     55a:	00 00 00 00 00 00 00 00 17 d7 84 00 03 00 00 00     ................
     56a:	00 00 00 00 00 00 00 00 c7 93 8f 9d 1e 1b 1c 19     ................
     57a:	00 00 00 00 00 00 00 00 00 00 00 00 00 00 00 00     ................
     58a:	00 00 00 00 00 00 00 00 02 03 18 85 00 00 40 00     ..............@.
     59a:	00 00 00 03 00 00 00 03 00 00 00 00 00 00 00 00     ................
     5aa:	40 00 00 00 00 00 00 00 00 00 00 00 00 00 00 00     @...............
     5ba:	00 00 00 00 00 00 00 00 00 00 00 00 00 00 00 00     ................
     5ca:	00 00 00 00 00 00 00 00 00 00 00 00 00 00 00 00     ................
     5da:	00 00 00 00 67 7d df 7e 72 90 2e 55 4c f6 e6 88     ....g}.~r..UL...
     5ea:	00 00 00 00 00 00 00 00 00 00 00 00 00 00 00 00     ................
     5fa:	d8 dc b4 b8 b0 d8 b9 ab f3 f8 fa b3 b7 bb 8e 9e     ................
     60a:	ae f1 32 f5 1b f1 b4 b8 b0 80 97 f1 a9 df df df     ..2.............
     61a:	aa df df df f2 aa c5 cd c7 a9 0c c9 2c 97 f1 a9     ............,...
     62a:	89 26 46 66 b2 89 99 a9 2d 55 7d b0 b0 8a a8 96     .&Ff....-U}.....
     63a:	36 56 76 f1 ba a3 b4 b2 80 c0 b8 a8 97 11 b2 83     6Vv.............
     64a:	98 ba a3 f0 24 08 44 10 64 18 b2 b9 b4 98 83 f1     ....$.D.d.......
     65a:	a3 29 55 7d ba b5 b1 a3 83 93 f0 00 28 50 f5 b2     .)U}........(P..
     66a:	b6 aa 83 93 28 54 7c f1 b9 a3 82 93 61 ba a2 da     ....(T|.....a...
     67a:	de df db 81 9a b9 ae f5 60 68 70 f1 da ba a2 df     ........`hp.....
     68a:	d9 ba a2 fa b9 a3 82 92 db 31 ba a2 d9 ba a2 f8     .........1......
     69a:	df 85 a4 d0 c1 bb ad 83 c2 c5 c7 b8 a2 df df df     ................
     6aa:	ba a0 df df df d8 d8 f1 b8 aa b3 8d b4 98 0d 35     ...............5
     6ba:	5d b2 b6 ba af 8c 96 19 8f 9f a7 0e 16 1e b4 9a     ]...............
     6ca:	b8 aa 87 2c 54 7c ba a4 b0 8a b6 91 32 56 76 b2     ...,T|......2Vv.
     6da:	84 94 a4 c8 08 cd d8 b8 b4 b0 f1 99 82 a8 2d 55     ..............-U
     6ea:	7d 98 a8 0e 16 1e a2 2c 54 7c 92 a4 f0 2c 50 78     }......,T|...,Px
     6fa:	f1 84 a8 98 c4 cd fc d8 0d db a8 fc 2d f3 d9 ba     ............-...
     70a:	a6 f8 da ba a6 de d8 ba b2 b6 86 96 a6 d0 f3 c8     ................
     71a:	41 da a6 c8 f8 d8 b0 b4 b8 82 a8 92 f5 2c 54 88     A............,T.
     72a:	98 f1 35 d9 f4 18 d8 f1 a2 d0 f8 f9 a8 84 d9 c7     ..5.............
     73a:	df f8 f8 83 c5 da df 69 df 83 c1 d8 f4 01 14 f1     .......i........
     74a:	a8 82 4e a8 84 f3 11 d1 82 f5 d9 92 28 97 88 f1     ..N.........(...
     75a:	09 f4 1c 1c d8 84 a8 f3 c0 f9 d1 d9 97 82 f1 29     ...............)
     76a:	f4 0d d8 f3 f9 f9 d1 d9 82 f4 c2 03 d8 de df 1a     ................
     77a:	d8 f1 a2 fa f9 a8 84 98 d9 c7 df f8 f8 f8 83 c7     ................
     78a:	da df 69 df f8 83 c3 d8 f4 01 14 f1 98 a8 82 2e     ..i.............
     79a:	a8 84 f3 11 d1 82 f5 d9 92 50 97 88 f1 09 f4 1c     .........P......
     7aa:	d8 84 a8 f3 c0 f8 f9 d1 d9 97 82 f1 49 f4 0d d8     ............I...
     7ba:	f3 f9 f9 d1 d9 82 f4 c4 03 d8 de df d8 f1 ad 88     ................
     7ca:	98 cc a8 09 f9 d9 82 92 a8 f5 7c f1 88 3a cf 94     ..........|..:..
     7da:	4a 6e 98 db 69 31 da ad f2 de f9 d8 87 95 a8 f2     Jn..i1..........
     7ea:	21 d1 da a5 f9 f4 17 d9 f1 ae 8e d0 c0 c3 ae 82     !...............
     7fa:	c6 84 c3 a8 85 95 c8 a5 88 f2 c0 f1 f4 01 0e f1     ................
     80a:	8e 9e a8 c6 3e 56 f5 54 f1 88 72 f4 01 15 f1 98     ....>V.T..r.....
     81a:	45 85 6e f5 8e 9e 04 88 f1 42 98 5a 8e 9e 06 88     E.n......B.Z....
     82a:	69 f4 01 1c f1 98 1e 11 08 d0 f5 04 f1 1e 97 02     i...............
     83a:	02 98 36 25 db f9 d9 85 a5 f3 c1 da 85 a5 f3 df     ..6%............
     84a:	d8 85 95 a8 f3 09 da a5 fa d8 82 92 a8 f5 78 f1     ..............x.
     85a:	88 1a 84 9f 26 88 98 21 da f4 1d f3 d8 87 9f 39     ....&..!.......9
     86a:	d1 af d9 df df fb f9 f4 0c f3 d8 fa d0 f8 da f9     ................
     87a:	f9 d0 df d9 f9 d8 f4 0b d8 f3 87 9f 39 d1 af d9     ............9...
     88a:	df df f4 1d f3 d8 fa fc a8 69 f9 f9 af d0 da de     .........i......
     89a:	fa d9 f8 8f 9f a8 f1 cc f3 98 db 45 d9 af df d0     ...........E....
     8aa:	f8 d8 f1 8f 9f a8 ca f3 88 09 da af 8f cb f8 d8     ................
     8ba:	f2 ad 97 8d 0c d9 a5 df f9 ba a6 f3 fa f4 12 f2     ................
     8ca:	d8 95 0d d1 d9 ba a6 f3 fa da a5 f2 c1 ba a6 f3     ................
     8da:	df d8 f1 ba b2 b6 86 96 a6 d0 ca f3 49 da a6 cb     ............I...
     8ea:	f8 d8 b0 b4 b8 d8 ad 84 f2 c0 df f1 8f cb c3 a8     ................
     8fa:	b2 b6 86 96 c8 c1 cb c3 f3 b0 b4 88 98 a8 21 db     ..............!.
     90a:	71 8d 9d 71 85 95 21 d9 ad f2 fa d8 85 97 a8 28     q..q..!........(
     91a:	d9 f4 08 d8 f2 8d 29 da f4 05 d9 f2 85 a4 c2 f2     ......).........
     92a:	d8 a8 8d 94 01 d1 d9 f4 11 f2 d8 87 21 d8 f4 0a     ............!...
     93a:	d8 f2 84 98 a8 c8 01 d1 d9 f4 11 d8 f3 a4 c8 bb     ................
     94a:	af d0 f2 de f8 f8 f8 f8 f8 f8 f8 f8 d8 f1 b8 f6     ................
     95a:	b5 b9 b0 8a 95 a3 de 3c a3 d9 f8 d8 5c a3 d9 f8     .......<....\...
     96a:	d8 7c a3 d9 f8 d8 f8 f9 d1 a5 d9 df da fa d8 b1     .|..............
     97a:	85 30 f7 d9 de d8 f8 30 ad da de d8 f2 b4 8c 99     .0.....0........
     98a:	a3 2d 55 7d a0 83 df df df b5 91 a0 f6 29 d9 fb     .-U}.........)..
     99a:	d8 a0 fc 29 d9 fa d8 a0 d0 51 d9 f8 d8 fc 51 d9     ...).....Q....Q.
     9aa:	f9 d8 79 d9 fb d8 a0 d0 fc 79 d9 fa d8 a1 f9 f9     ..y......y......
     9ba:	f9 f9 f9 a0 da df df df d8 a1 f8 f8 f8 f8 f8 ac     ................
     9ca:	de f8 ad de 83 93 ac 2c 54 7c f1 a8 df df df f6     .......,T|......
     9da:	9d 2c da a0 df d9 fa db 2d f8 d8 a8 50 da a0 d0     .,......-...P...
     9ea:	de d9 d0 f8 f8 f8 db 55 f8 d8 a8 78 da a0 d0 df     .......U...x....
     9fa:	d9 d0 fa f8 f8 f8 f8 db 7d f8 d8 9c a8 8c f5 30     ........}......0
     a0a:	db 38 d9 d0 de df a0 d0 de df d8 a8 48 db 58 d9     .8..........H.X.
     a1a:	df d0 de a0 df d0 de d8 a8 68 db 70 d9 df df a0     .........h.p....
     a2a:	df df d8 f1 a8 88 90 2c 54 7c 98 a8 d0 5c 38 d1     .......,T|...\8.
     a3a:	da f2 ae 8c df f9 d8 b0 87 a8 c1 c1 b1 88 a8 c6     ................
     a4a:	f9 f9 da 36 d8 a8 f9 da 36 d8 a8 f9 da 36 d8 a8     ...6....6....6..
     a5a:	f9 da 36 d8 a8 f9 da 36 d8 f7 8d 9d ad f8 18 da     ..6....6........
     a6a:	f2 ae df d8 f7 ad fa 30 d9 a4 de f9 d8 f2 ae de     .......0........
     a7a:	fa f9 83 a7 d9 c3 c5 c7 f1 88 9b a7 7a ad f7 de     ............z...
     a8a:	df a4 f8 84 94 08 a7 97 f3 00 ae f2 98 19 a4 88     ................
     a9a:	c6 a3 94 88 f6 32 df f2 83 93 db 09 d9 f2 aa df     .....2..........
     aaa:	d8 d8 ae f8 f9 d1 da f3 a4 de a7 f1 88 9b 7a d8     ..............z.
     aba:	f3 84 94 ae 19 f9 da aa f1 df d8 a8 81 c0 c3 c5     ................
     aca:	c7 a3 92 83 f6 28 ad de d9 f8 d8 a3 50 ad d9 f8     .....(......P...
     ada:	d8 a3 78 ad d9 f8 d8 f8 f9 d1 a1 da de c3 c5 c7     ..x.............
     aea:	d8 a1 81 94 f8 18 f2 b0 89 ac c3 c5 c7 f1 d8 b8     ................
     afa:	b4 b0 97 86 a8 31 9b 06 99 07 ab 97 28 88 9b f0     .....1......(...
     b0a:	0c 20 14 40 b0 b4 b8 f0 a8 8a 9a 28 50 78 b7 9b     . .@.......(Px..
     b1a:	a8 29 51 79 24 70 59 44 69 38 64 48 31 f1 bb ab     .)Qy$pYDi8dH1...
     b2a:	88 00 2c 54 7c f0 b3 8b b8 a8 04 28 50 78 f1 b0     ..,T|......(Px..
     b3a:	88 b4 97 26 a8 59 98 bb ab b3 8b 02 26 46 66 b0     ...&.Y......&Ff.
     b4a:	b8 f0 8a 9c a8 29 51 79 8b 29 51 79 8a 24 70 59     .....)Qy.)Qy.$pY
     b5a:	8b 20 58 71 8a 44 69 38 8b 39 40 68 8a 64 48 31     . Xq.Di8.9@h.dH1
     b6a:	8b 30 49 60 88 f1 ac 00 2c 54 7c f0 8c a8 04 28     .0I`....,T|....(
     b7a:	50 78 f1 88 97 26 a8 59 98 ac 8c 02 26 46 66 f0     Px...&.Y....&Ff.
     b8a:	89 9c a8 29 51 79 24 70 59 44 69 38 64 48 31 a9     ...)Qy$pYDi8dH1.
     b9a:	88 09 20 59 70 ab 11 38 40 69 a8 19 31 48 60 8c     .. Yp..8@i..1H`.
     baa:	a8 3c 41 5c 20 7c 00 f1 87 98 19 86 a8 6e 76 7e     .<A\ |.......nv~
     bba:	a9 99 88 2d 55 7d d8 b1 b5 b9 a3 df df df ae d0     ...-U}..........
     bca:	df aa d0 de f2 ab f8 f9 d9 b0 87 c4 aa f1 df df     ................
     bda:	bb af df df b9 d8 b1 f1 a3 97 8e 60 df b0 84 f2     ...........`....
     bea:	c8 f8 f9 d9 de d8 93 85 f1 4a b1 83 a3 08 b5 83     .........J......
     bfa:	9a 08 10 b7 9f 10 d8 f1 b0 ba ae b0 8a c2 b2 b6     ................
     c0a:	8e 9e f1 fb d9 f4 1d d8 f9 d9 0c f1 d8 f8 f8 ad     ................
     c1a:	61 d9 ae fb d8 f4 0c f1 d8 f8 f8 ad 19 d9 ae fb     a...............
     c2a:	df d8 f4 16 f1 d8 f8 ad 8d 61 d9 f4 f4 ac f5 9c     .........a......
     c3a:	9c 8d df 2b ba b6 ae fa f8 f4 0b d8 f1 ae d0 f8     ...+............
     c4a:	ad 51 da ae fa f8 f1 d8 b9 b1 b6 a3 83 9c 08 b9     .Q..............
     c5a:	b1 83 9a b5 aa c0 fd 30 83 b7 9f 10 b5 8b 93 f2     .......0........
     c6a:	02 02 d1 ab da de d8 f1 b0 80 ba ab c0 c3 b2 84     ................
     c7a:	c1 c3 d8 b1 b9 f3 8b a3 91 b6 09 b4 d9 ab de b0     ................
     c8a:	87 9c b9 a3 dd f1 b3 8b 8b 8b 8b 8b b0 87 a3 a3     ................
     c9a:	a3 a3 b2 8b b6 9b f2 a3 a3 a3 a3 a3 a3 a3 a3 a3     ................
     caa:	a3 f1 b0 87 b5 9a a3 f3 9b a3 a3 dc ba ac df b9     ................
     cba:	a3 a3 a3 a3 a3 a3 a3 a3 a3 a3 a3 a3 a3 a3 a3 a3     ................
     cca:	d8 d8 d8 bb b3 b7 f1 aa f9 da ff d9 80 9a aa 28     ...............(
     cda:	b4 80 98 a7 20 b7 97 87 a8 66 88 f0 79 51 f1 90     .... ....f..yQ..
     cea:	2c 87 0c a7 81 97 62 93 f0 71 71 60 85 94 01 29     ,.....b..qq`...)
     cfa:	51 79 90 a5 f1 28 4c 6c 87 0c 95 18 85 78 a3 83     Qy...(Ll.....x..
     d0a:	90 28 4c 6c 88 6c d8 f3 a2 82 00 f2 10 a8 92 19     .(Ll.l..........
     d1a:	80 a2 f2 d9 26 d8 f1 88 a8 4d d9 48 d8 96 a8 39     ....&....M.H...9
     d2a:	80 d9 3c d8 95 80 a8 39 a6 86 98 d9 2c da 87 a7     ..<....9....,...
     d3a:	2c d8 a8 89 95 19 a9 80 d9 38 d8 a8 89 39 a9 80     ,........8...9..
     d4a:	da 3c d8 a8 2e a8 39 90 d9 0c d8 a8 95 31 98 d9     .<....9......1..
     d5a:	0c d8 a8 09 d9 ff d8 01 da ff d8 95 39 a9 da 26     ............9..&
     d6a:	ff d8 90 a8 0d 89 99 a8 10 80 98 21 da 2e d8 89     ...........!....
     d7a:	99 a8 31 80 da 2e d8 a8 86 96 31 80 da 2e d8 a8     ..1.......1.....
     d8a:	87 31 80 da 2e d8 a8 82 92 f3 41 80 f1 d9 2e d8     .1........A.....
     d9a:	a8 82 f3 19 80 f1 d9 2e d8 82 ac f3 c0 a2 80 22     ..............."
     daa:	f1 a6 2e a7 2e a9 22 98 a8 29 da ac de ff d8 a2     ......"..)......
     dba:	f2 2a f1 a9 2e 82 92 a8 f2 31 80 a6 96 f1 d9 00     .*.......1......
     dca:	ac 8c 9c 0c 30 ac de d0 de ff d8 8c 9c ac d0 10     ....0...........
     dda:	ac de 80 92 a2 f2 4c 82 a8 f1 ca f2 35 f1 96 88     ......L.....5...
     dea:	a6 d9 00 d8 f1 ff                                   ......

00000df0 <psRBButonBindings>:
     df0:	0e 0c 0d 0f 08 ff ff 09 05 04 06 07 0a 0b           ..............

00000dfe <psGHButtonBindings>:
     dfe:	0f 0c 0d 0e 08 ff ff 09 05 04 06 07 0a 0b           ..............

00000e0c <ps3DrumButtonBindings>:
     e0c:	0f 0c 0d 0e 09 08 ff ff 05 04 06 07 0a 0b           ..............

00000e1a <__ctors_end>:
     e1a:	11 24       	eor	r1, r1
     e1c:	1f be       	out	0x3f, r1	; 63
     e1e:	cf ef       	ldi	r28, 0xFF	; 255
     e20:	d8 e0       	ldi	r29, 0x08	; 8
     e22:	de bf       	out	0x3e, r29	; 62
     e24:	cd bf       	out	0x3d, r28	; 61

00000e26 <__do_copy_data>:
     e26:	11 e0       	ldi	r17, 0x01	; 1
     e28:	a0 e0       	ldi	r26, 0x00	; 0
     e2a:	b1 e0       	ldi	r27, 0x01	; 1
     e2c:	e2 e9       	ldi	r30, 0x92	; 146
     e2e:	f8 e5       	ldi	r31, 0x58	; 88
     e30:	02 c0       	rjmp	.+4      	; 0xe36 <__do_copy_data+0x10>
     e32:	05 90       	lpm	r0, Z+
     e34:	0d 92       	st	X+, r0
     e36:	a0 3c       	cpi	r26, 0xC0	; 192
     e38:	b1 07       	cpc	r27, r17
     e3a:	d9 f7       	brne	.-10     	; 0xe32 <__do_copy_data+0xc>

00000e3c <__do_clear_bss>:
     e3c:	24 e0       	ldi	r18, 0x04	; 4
     e3e:	a0 ec       	ldi	r26, 0xC0	; 192
     e40:	b1 e0       	ldi	r27, 0x01	; 1
     e42:	01 c0       	rjmp	.+2      	; 0xe46 <.do_clear_bss_start>

00000e44 <.do_clear_bss_loop>:
     e44:	1d 92       	st	X+, r1

00000e46 <.do_clear_bss_start>:
     e46:	ad 35       	cpi	r26, 0x5D	; 93
     e48:	b2 07       	cpc	r27, r18
     e4a:	e1 f7       	brne	.-8      	; 0xe44 <.do_clear_bss_loop>
     e4c:	0e 94 ce 25 	call	0x4b9c	; 0x4b9c <main>
     e50:	0c 94 47 2c 	jmp	0x588e	; 0x588e <_exit>

00000e54 <__bad_interrupt>:
     e54:	d5 c8       	rjmp	.-3670   	; 0x0 <__vectors>

00000e56 <fillMouseReport>:
     e56:	cf 93       	push	r28
     e58:	df 93       	push	r29
     e5a:	fc 01       	movw	r30, r24
     e5c:	da 01       	movw	r26, r20
     e5e:	86 e0       	ldi	r24, 0x06	; 6
     e60:	eb 01       	movw	r28, r22
     e62:	88 83       	st	Y, r24
     e64:	85 e0       	ldi	r24, 0x05	; 5
     e66:	80 83       	st	Z, r24
     e68:	15 96       	adiw	r26, 0x05	; 5
     e6a:	2c 91       	ld	r18, X
     e6c:	15 97       	sbiw	r26, 0x05	; 5
     e6e:	82 2f       	mov	r24, r18
     e70:	92 2f       	mov	r25, r18
     e72:	99 0f       	add	r25, r25
     e74:	99 0b       	sbc	r25, r25
     e76:	97 fd       	sbrc	r25, 7
     e78:	07 96       	adiw	r24, 0x07	; 7
     e7a:	53 e0       	ldi	r21, 0x03	; 3
     e7c:	95 95       	asr	r25
     e7e:	87 95       	ror	r24
     e80:	5a 95       	dec	r21
     e82:	e1 f7       	brne	.-8      	; 0xe7c <fillMouseReport+0x26>
     e84:	82 83       	std	Z+2, r24	; 0x02
     e86:	17 96       	adiw	r26, 0x07	; 7
     e88:	2c 91       	ld	r18, X
     e8a:	17 97       	sbiw	r26, 0x07	; 7
     e8c:	82 2f       	mov	r24, r18
     e8e:	92 2f       	mov	r25, r18
     e90:	99 0f       	add	r25, r25
     e92:	99 0b       	sbc	r25, r25
     e94:	91 95       	neg	r25
     e96:	81 95       	neg	r24
     e98:	91 09       	sbc	r25, r1
     e9a:	97 fd       	sbrc	r25, 7
     e9c:	07 96       	adiw	r24, 0x07	; 7
     e9e:	43 e0       	ldi	r20, 0x03	; 3
     ea0:	95 95       	asr	r25
     ea2:	87 95       	ror	r24
     ea4:	4a 95       	dec	r20
     ea6:	e1 f7       	brne	.-8      	; 0xea0 <fillMouseReport+0x4a>
     ea8:	83 83       	std	Z+3, r24	; 0x03
     eaa:	1b 96       	adiw	r26, 0x0b	; 11
     eac:	2c 91       	ld	r18, X
     eae:	1b 97       	sbiw	r26, 0x0b	; 11
     eb0:	82 2f       	mov	r24, r18
     eb2:	92 2f       	mov	r25, r18
     eb4:	99 0f       	add	r25, r25
     eb6:	99 0b       	sbc	r25, r25
     eb8:	97 fd       	sbrc	r25, 7
     eba:	07 96       	adiw	r24, 0x07	; 7
     ebc:	33 e0       	ldi	r19, 0x03	; 3
     ebe:	95 95       	asr	r25
     ec0:	87 95       	ror	r24
     ec2:	3a 95       	dec	r19
     ec4:	e1 f7       	brne	.-8      	; 0xebe <fillMouseReport+0x68>
     ec6:	84 83       	std	Z+4, r24	; 0x04
     ec8:	19 96       	adiw	r26, 0x09	; 9
     eca:	2c 91       	ld	r18, X
     ecc:	19 97       	sbiw	r26, 0x09	; 9
     ece:	82 2f       	mov	r24, r18
     ed0:	92 2f       	mov	r25, r18
     ed2:	99 0f       	add	r25, r25
     ed4:	99 0b       	sbc	r25, r25
     ed6:	97 fd       	sbrc	r25, 7
     ed8:	07 96       	adiw	r24, 0x07	; 7
     eda:	23 e0       	ldi	r18, 0x03	; 3
     edc:	95 95       	asr	r25
     ede:	87 95       	ror	r24
     ee0:	2a 95       	dec	r18
     ee2:	e1 f7       	brne	.-8      	; 0xedc <fillMouseReport+0x86>
     ee4:	85 83       	std	Z+5, r24	; 0x05
     ee6:	11 96       	adiw	r26, 0x01	; 1
     ee8:	9c 91       	ld	r25, X
     eea:	11 97       	sbiw	r26, 0x01	; 1
     eec:	92 95       	swap	r25
     eee:	91 70       	andi	r25, 0x01	; 1
     ef0:	81 81       	ldd	r24, Z+1	; 0x01
     ef2:	8e 7f       	andi	r24, 0xFE	; 254
     ef4:	98 2b       	or	r25, r24
     ef6:	91 83       	std	Z+1, r25	; 0x01
     ef8:	11 96       	adiw	r26, 0x01	; 1
     efa:	8c 91       	ld	r24, X
     efc:	11 97       	sbiw	r26, 0x01	; 1
     efe:	82 95       	swap	r24
     f00:	82 70       	andi	r24, 0x02	; 2
     f02:	9d 7f       	andi	r25, 0xFD	; 253
     f04:	89 2b       	or	r24, r25
     f06:	81 83       	std	Z+1, r24	; 0x01
     f08:	11 96       	adiw	r26, 0x01	; 1
     f0a:	9c 91       	ld	r25, X
     f0c:	96 95       	lsr	r25
     f0e:	96 95       	lsr	r25
     f10:	96 95       	lsr	r25
     f12:	98 70       	andi	r25, 0x08	; 8
     f14:	87 7f       	andi	r24, 0xF7	; 247
     f16:	89 2b       	or	r24, r25
     f18:	81 83       	std	Z+1, r24	; 0x01
     f1a:	df 91       	pop	r29
     f1c:	cf 91       	pop	r28
     f1e:	08 95       	ret

00000f20 <fillPS3Report>:
     f20:	9f 92       	push	r9
     f22:	af 92       	push	r10
     f24:	bf 92       	push	r11
     f26:	cf 92       	push	r12
     f28:	df 92       	push	r13
     f2a:	ef 92       	push	r14
     f2c:	ff 92       	push	r15
     f2e:	0f 93       	push	r16
     f30:	1f 93       	push	r17
     f32:	cf 93       	push	r28
     f34:	df 93       	push	r29
     f36:	00 d0       	rcall	.+0      	; 0xf38 <fillPS3Report+0x18>
     f38:	00 d0       	rcall	.+0      	; 0xf3a <fillPS3Report+0x1a>
     f3a:	cd b7       	in	r28, 0x3d	; 61
     f3c:	de b7       	in	r29, 0x3e	; 62
     f3e:	fc 01       	movw	r30, r24
     f40:	4b 83       	std	Y+3, r20	; 0x03
     f42:	5c 83       	std	Y+4, r21	; 0x04
     f44:	8c e1       	ldi	r24, 0x1C	; 28
     f46:	db 01       	movw	r26, r22
     f48:	8c 93       	st	X, r24
     f4a:	84 e0       	ldi	r24, 0x04	; 4
     f4c:	80 83       	st	Z, r24
     f4e:	90 90 56 04 	lds	r9, 0x0456	; 0x800456 <currentAxisBindingsLen>
     f52:	b0 90 5c 04 	lds	r11, 0x045C	; 0x80045c <fullDeviceType>
     f56:	89 e2       	ldi	r24, 0x29	; 41
     f58:	c8 2e       	mov	r12, r24
     f5a:	81 e0       	ldi	r24, 0x01	; 1
     f5c:	d8 2e       	mov	r13, r24
     f5e:	fa 83       	std	Y+2, r31	; 0x02
     f60:	e9 83       	std	Y+1, r30	; 0x01
     f62:	90 e0       	ldi	r25, 0x00	; 0
     f64:	80 e0       	ldi	r24, 0x00	; 0
     f66:	61 e0       	ldi	r22, 0x01	; 1
     f68:	70 e0       	ldi	r23, 0x00	; 0
     f6a:	a8 2e       	mov	r10, r24
     f6c:	d6 01       	movw	r26, r12
     f6e:	2d 91       	ld	r18, X+
     f70:	6d 01       	movw	r12, r26
     f72:	2f 3f       	cpi	r18, 0xFF	; 255
     f74:	09 f4       	brne	.+2      	; 0xf78 <fillPS3Report+0x58>
     f76:	4d c0       	rjmp	.+154    	; 0x1012 <fillPS3Report+0xf2>
     f78:	ab 01       	movw	r20, r22
     f7a:	02 c0       	rjmp	.+4      	; 0xf80 <fillPS3Report+0x60>
     f7c:	44 0f       	add	r20, r20
     f7e:	55 1f       	adc	r21, r21
     f80:	2a 95       	dec	r18
     f82:	e2 f7       	brpl	.-8      	; 0xf7c <fillPS3Report+0x5c>
     f84:	ab 81       	ldd	r26, Y+3	; 0x03
     f86:	bc 81       	ldd	r27, Y+4	; 0x04
     f88:	2d 91       	ld	r18, X+
     f8a:	3c 91       	ld	r19, X
     f8c:	24 23       	and	r18, r20
     f8e:	35 23       	and	r19, r21
     f90:	41 e0       	ldi	r20, 0x01	; 1
     f92:	21 15       	cp	r18, r1
     f94:	31 05       	cpc	r19, r1
     f96:	09 f4       	brne	.+2      	; 0xf9a <fillPS3Report+0x7a>
     f98:	40 e0       	ldi	r20, 0x00	; 0
     f9a:	8b 01       	movw	r16, r22
     f9c:	0a 2c       	mov	r0, r10
     f9e:	02 c0       	rjmp	.+4      	; 0xfa4 <fillPS3Report+0x84>
     fa0:	00 0f       	add	r16, r16
     fa2:	11 1f       	adc	r17, r17
     fa4:	0a 94       	dec	r0
     fa6:	e2 f7       	brpl	.-8      	; 0xfa0 <fillPS3Report+0x80>
     fa8:	00 95       	com	r16
     faa:	10 95       	com	r17
     fac:	e1 80       	ldd	r14, Z+1	; 0x01
     fae:	f2 80       	ldd	r15, Z+2	; 0x02
     fb0:	e0 22       	and	r14, r16
     fb2:	f1 22       	and	r15, r17
     fb4:	50 e0       	ldi	r21, 0x00	; 0
     fb6:	8a 01       	movw	r16, r20
     fb8:	02 c0       	rjmp	.+4      	; 0xfbe <fillPS3Report+0x9e>
     fba:	00 0f       	add	r16, r16
     fbc:	11 1f       	adc	r17, r17
     fbe:	aa 94       	dec	r10
     fc0:	e2 f7       	brpl	.-8      	; 0xfba <fillPS3Report+0x9a>
     fc2:	0e 29       	or	r16, r14
     fc4:	1f 29       	or	r17, r15
     fc6:	12 83       	std	Z+2, r17	; 0x02
     fc8:	01 83       	std	Z+1, r16	; 0x01
     fca:	89 15       	cp	r24, r9
     fcc:	10 f5       	brcc	.+68     	; 0x1012 <fillPS3Report+0xf2>
     fce:	bb e1       	ldi	r27, 0x1B	; 27
     fd0:	bb 12       	cpse	r11, r27
     fd2:	15 c0       	rjmp	.+42     	; 0xffe <fillPS3Report+0xde>
     fd4:	84 30       	cpi	r24, 0x04	; 4
     fd6:	98 f4       	brcc	.+38     	; 0xffe <fillPS3Report+0xde>
     fd8:	9c 01       	movw	r18, r24
     fda:	22 55       	subi	r18, 0x52	; 82
     fdc:	3f 4f       	sbci	r19, 0xFF	; 255
     fde:	d9 01       	movw	r26, r18
     fe0:	2c 91       	ld	r18, X
     fe2:	8b 01       	movw	r16, r22
     fe4:	02 c0       	rjmp	.+4      	; 0xfea <fillPS3Report+0xca>
     fe6:	00 0f       	add	r16, r16
     fe8:	11 1f       	adc	r17, r17
     fea:	2a 95       	dec	r18
     fec:	e2 f7       	brpl	.-8      	; 0xfe6 <fillPS3Report+0xc6>
     fee:	ab 81       	ldd	r26, Y+3	; 0x03
     ff0:	bc 81       	ldd	r27, Y+4	; 0x04
     ff2:	2d 91       	ld	r18, X+
     ff4:	3c 91       	ld	r19, X
     ff6:	20 23       	and	r18, r16
     ff8:	31 23       	and	r19, r17
     ffa:	24 2b       	or	r18, r20
     ffc:	35 2b       	or	r19, r21
     ffe:	41 e0       	ldi	r20, 0x01	; 1
    1000:	23 2b       	or	r18, r19
    1002:	09 f4       	brne	.+2      	; 0x1006 <fillPS3Report+0xe6>
    1004:	40 e0       	ldi	r20, 0x00	; 0
    1006:	24 2f       	mov	r18, r20
    1008:	21 95       	neg	r18
    100a:	a9 81       	ldd	r26, Y+1	; 0x01
    100c:	ba 81       	ldd	r27, Y+2	; 0x02
    100e:	18 96       	adiw	r26, 0x08	; 8
    1010:	2c 93       	st	X, r18
    1012:	01 96       	adiw	r24, 0x01	; 1
    1014:	29 81       	ldd	r18, Y+1	; 0x01
    1016:	3a 81       	ldd	r19, Y+2	; 0x02
    1018:	2f 5f       	subi	r18, 0xFF	; 255
    101a:	3f 4f       	sbci	r19, 0xFF	; 255
    101c:	3a 83       	std	Y+2, r19	; 0x02
    101e:	29 83       	std	Y+1, r18	; 0x01
    1020:	8e 30       	cpi	r24, 0x0E	; 14
    1022:	91 05       	cpc	r25, r1
    1024:	09 f0       	breq	.+2      	; 0x1028 <fillPS3Report+0x108>
    1026:	a1 cf       	rjmp	.-190    	; 0xf6a <fillPS3Report+0x4a>
    1028:	ab 81       	ldd	r26, Y+3	; 0x03
    102a:	bc 81       	ldd	r27, Y+4	; 0x04
    102c:	2c 91       	ld	r18, X
    102e:	2f 70       	andi	r18, 0x0F	; 15
    1030:	88 e0       	ldi	r24, 0x08	; 8
    1032:	2b 30       	cpi	r18, 0x0B	; 11
    1034:	28 f4       	brcc	.+10     	; 0x1040 <fillPS3Report+0x120>
    1036:	30 e0       	ldi	r19, 0x00	; 0
    1038:	29 56       	subi	r18, 0x69	; 105
    103a:	3e 4f       	sbci	r19, 0xFE	; 254
    103c:	d9 01       	movw	r26, r18
    103e:	8c 91       	ld	r24, X
    1040:	83 83       	std	Z+3, r24	; 0x03
    1042:	ab 81       	ldd	r26, Y+3	; 0x03
    1044:	bc 81       	ldd	r27, Y+4	; 0x04
    1046:	1a 96       	adiw	r26, 0x0a	; 10
    1048:	2d 91       	ld	r18, X+
    104a:	3c 91       	ld	r19, X
    104c:	bb e1       	ldi	r27, 0x1B	; 27
    104e:	bb 12       	cpse	r11, r27
    1050:	16 c0       	rjmp	.+44     	; 0x107e <fillPS3Report+0x15e>
    1052:	ab 81       	ldd	r26, Y+3	; 0x03
    1054:	bc 81       	ldd	r27, Y+4	; 0x04
    1056:	19 96       	adiw	r26, 0x09	; 9
    1058:	8c 91       	ld	r24, X
    105a:	85 95       	asr	r24
    105c:	80 54       	subi	r24, 0x40	; 64
    105e:	86 83       	std	Z+6, r24	; 0x06
    1060:	87 ef       	ldi	r24, 0xF7	; 247
    1062:	91 e0       	ldi	r25, 0x01	; 1
    1064:	2f 3f       	cpi	r18, 0xFF	; 255
    1066:	3f 47       	sbci	r19, 0x7F	; 127
    1068:	11 f4       	brne	.+4      	; 0x106e <fillPS3Report+0x14e>
    106a:	84 e8       	ldi	r24, 0x84	; 132
    106c:	91 e0       	ldi	r25, 0x01	; 1
    106e:	95 8b       	std	Z+21, r25	; 0x15
    1070:	84 8b       	std	Z+20, r24	; 0x14
    1072:	8d e7       	ldi	r24, 0x7D	; 125
    1074:	87 83       	std	Z+7, r24	; 0x07
    1076:	80 e8       	ldi	r24, 0x80	; 128
    1078:	84 83       	std	Z+4, r24	; 0x04
    107a:	85 83       	std	Z+5, r24	; 0x05
    107c:	63 c0       	rjmp	.+198    	; 0x1144 <fillPS3Report+0x224>
    107e:	4d e1       	ldi	r20, 0x1D	; 29
    1080:	b4 16       	cp	r11, r20
    1082:	19 f0       	breq	.+6      	; 0x108a <fillPS3Report+0x16a>
    1084:	80 e2       	ldi	r24, 0x20	; 32
    1086:	b8 12       	cpse	r11, r24
    1088:	1a c0       	rjmp	.+52     	; 0x10be <fillPS3Report+0x19e>
    108a:	ab 81       	ldd	r26, Y+3	; 0x03
    108c:	bc 81       	ldd	r27, Y+4	; 0x04
    108e:	19 96       	adiw	r26, 0x09	; 9
    1090:	8c 91       	ld	r24, X
    1092:	80 58       	subi	r24, 0x80	; 128
    1094:	86 83       	std	Z+6, r24	; 0x06
    1096:	81 81       	ldd	r24, Z+1	; 0x01
    1098:	92 81       	ldd	r25, Z+2	; 0x02
    109a:	8f 7d       	andi	r24, 0xDF	; 223
    109c:	2f 3f       	cpi	r18, 0xFF	; 255
    109e:	3f 47       	sbci	r19, 0x7F	; 127
    10a0:	09 f4       	brne	.+2      	; 0x10a4 <fillPS3Report+0x184>
    10a2:	60 c0       	rjmp	.+192    	; 0x1164 <fillPS3Report+0x244>
    10a4:	30 e0       	ldi	r19, 0x00	; 0
    10a6:	20 e0       	ldi	r18, 0x00	; 0
    10a8:	82 2b       	or	r24, r18
    10aa:	93 2b       	or	r25, r19
    10ac:	92 83       	std	Z+2, r25	; 0x02
    10ae:	81 83       	std	Z+1, r24	; 0x01
    10b0:	ab 81       	ldd	r26, Y+3	; 0x03
    10b2:	bc 81       	ldd	r27, Y+4	; 0x04
    10b4:	12 96       	adiw	r26, 0x02	; 2
    10b6:	9c 91       	ld	r25, X
    10b8:	80 e8       	ldi	r24, 0x80	; 128
    10ba:	89 1b       	sub	r24, r25
    10bc:	87 83       	std	Z+7, r24	; 0x07
    10be:	bf e1       	ldi	r27, 0x1F	; 31
    10c0:	bb 16       	cp	r11, r27
    10c2:	19 f0       	breq	.+6      	; 0x10ca <fillPS3Report+0x1aa>
    10c4:	2a e1       	ldi	r18, 0x1A	; 26
    10c6:	b2 12       	cpse	r11, r18
    10c8:	d6 cf       	rjmp	.-84     	; 0x1076 <fillPS3Report+0x156>
    10ca:	81 81       	ldd	r24, Z+1	; 0x01
    10cc:	92 81       	ldd	r25, Z+2	; 0x02
    10ce:	8f 7e       	andi	r24, 0xEF	; 239
    10d0:	ab 81       	ldd	r26, Y+3	; 0x03
    10d2:	bc 81       	ldd	r27, Y+4	; 0x04
    10d4:	12 96       	adiw	r26, 0x02	; 2
    10d6:	2c 91       	ld	r18, X
    10d8:	23 33       	cpi	r18, 0x33	; 51
    10da:	08 f0       	brcs	.+2      	; 0x10de <fillPS3Report+0x1be>
    10dc:	46 c0       	rjmp	.+140    	; 0x116a <fillPS3Report+0x24a>
    10de:	30 e0       	ldi	r19, 0x00	; 0
    10e0:	20 e0       	ldi	r18, 0x00	; 0
    10e2:	82 2b       	or	r24, r18
    10e4:	93 2b       	or	r25, r19
    10e6:	92 83       	std	Z+2, r25	; 0x02
    10e8:	81 83       	std	Z+1, r24	; 0x01
    10ea:	8f 7d       	andi	r24, 0xDF	; 223
    10ec:	ab 81       	ldd	r26, Y+3	; 0x03
    10ee:	bc 81       	ldd	r27, Y+4	; 0x04
    10f0:	13 96       	adiw	r26, 0x03	; 3
    10f2:	2c 91       	ld	r18, X
    10f4:	23 33       	cpi	r18, 0x33	; 51
    10f6:	e0 f5       	brcc	.+120    	; 0x1170 <fillPS3Report+0x250>
    10f8:	30 e0       	ldi	r19, 0x00	; 0
    10fa:	20 e0       	ldi	r18, 0x00	; 0
    10fc:	82 2b       	or	r24, r18
    10fe:	93 2b       	or	r25, r19
    1100:	92 83       	std	Z+2, r25	; 0x02
    1102:	81 83       	std	Z+1, r24	; 0x01
    1104:	ab 81       	ldd	r26, Y+3	; 0x03
    1106:	bc 81       	ldd	r27, Y+4	; 0x04
    1108:	12 96       	adiw	r26, 0x02	; 2
    110a:	8c 91       	ld	r24, X
    110c:	12 97       	sbiw	r26, 0x02	; 2
    110e:	84 87       	std	Z+12, r24	; 0x0c
    1110:	13 96       	adiw	r26, 0x03	; 3
    1112:	8c 91       	ld	r24, X
    1114:	13 97       	sbiw	r26, 0x03	; 3
    1116:	85 87       	std	Z+13, r24	; 0x0d
    1118:	15 96       	adiw	r26, 0x05	; 5
    111a:	8c 91       	ld	r24, X
    111c:	15 97       	sbiw	r26, 0x05	; 5
    111e:	80 58       	subi	r24, 0x80	; 128
    1120:	84 83       	std	Z+4, r24	; 0x04
    1122:	17 96       	adiw	r26, 0x07	; 7
    1124:	9c 91       	ld	r25, X
    1126:	17 97       	sbiw	r26, 0x07	; 7
    1128:	90 58       	subi	r25, 0x80	; 128
    112a:	95 83       	std	Z+5, r25	; 0x05
    112c:	19 96       	adiw	r26, 0x09	; 9
    112e:	8c 91       	ld	r24, X
    1130:	19 97       	sbiw	r26, 0x09	; 9
    1132:	80 58       	subi	r24, 0x80	; 128
    1134:	86 83       	std	Z+6, r24	; 0x06
    1136:	1b 96       	adiw	r26, 0x0b	; 11
    1138:	8c 91       	ld	r24, X
    113a:	80 58       	subi	r24, 0x80	; 128
    113c:	87 83       	std	Z+7, r24	; 0x07
    113e:	ba e1       	ldi	r27, 0x1A	; 26
    1140:	bb 16       	cp	r11, r27
    1142:	c9 f0       	breq	.+50     	; 0x1176 <fillPS3Report+0x256>
    1144:	0f 90       	pop	r0
    1146:	0f 90       	pop	r0
    1148:	0f 90       	pop	r0
    114a:	0f 90       	pop	r0
    114c:	df 91       	pop	r29
    114e:	cf 91       	pop	r28
    1150:	1f 91       	pop	r17
    1152:	0f 91       	pop	r16
    1154:	ff 90       	pop	r15
    1156:	ef 90       	pop	r14
    1158:	df 90       	pop	r13
    115a:	cf 90       	pop	r12
    115c:	bf 90       	pop	r11
    115e:	af 90       	pop	r10
    1160:	9f 90       	pop	r9
    1162:	08 95       	ret
    1164:	20 e2       	ldi	r18, 0x20	; 32
    1166:	30 e0       	ldi	r19, 0x00	; 0
    1168:	9f cf       	rjmp	.-194    	; 0x10a8 <fillPS3Report+0x188>
    116a:	20 e1       	ldi	r18, 0x10	; 16
    116c:	30 e0       	ldi	r19, 0x00	; 0
    116e:	b9 cf       	rjmp	.-142    	; 0x10e2 <fillPS3Report+0x1c2>
    1170:	20 e2       	ldi	r18, 0x20	; 32
    1172:	30 e0       	ldi	r19, 0x00	; 0
    1174:	c3 cf       	rjmp	.-122    	; 0x10fc <fillPS3Report+0x1dc>
    1176:	90 95       	com	r25
    1178:	95 83       	std	Z+5, r25	; 0x05
    117a:	80 95       	com	r24
    117c:	87 83       	std	Z+7, r24	; 0x07
    117e:	e2 cf       	rjmp	.-60     	; 0x1144 <fillPS3Report+0x224>

00001180 <readWiiButton>:
    1180:	0f 93       	push	r16
    1182:	1f 93       	push	r17
    1184:	cf 93       	push	r28
    1186:	df 93       	push	r29
    1188:	cd b7       	in	r28, 0x3d	; 61
    118a:	de b7       	in	r29, 0x3e	; 62
    118c:	29 97       	sbiw	r28, 0x09	; 9
    118e:	0f b6       	in	r0, 0x3f	; 63
    1190:	f8 94       	cli
    1192:	de bf       	out	0x3e, r29	; 62
    1194:	0f be       	out	0x3f, r0	; 63
    1196:	cd bf       	out	0x3d, r28	; 61
    1198:	e5 2f       	mov	r30, r21
    119a:	f0 e0       	ldi	r31, 0x00	; 0
    119c:	e5 59       	subi	r30, 0x95	; 149
    119e:	fe 4f       	sbci	r31, 0xFE	; 254
    11a0:	80 81       	ld	r24, Z
    11a2:	8f 3f       	cpi	r24, 0xFF	; 255
    11a4:	81 f0       	breq	.+32     	; 0x11c6 <readWiiButton+0x46>
    11a6:	21 e0       	ldi	r18, 0x01	; 1
    11a8:	30 e0       	ldi	r19, 0x00	; 0
    11aa:	02 c0       	rjmp	.+4      	; 0x11b0 <readWiiButton+0x30>
    11ac:	22 0f       	add	r18, r18
    11ae:	33 1f       	adc	r19, r19
    11b0:	8a 95       	dec	r24
    11b2:	e2 f7       	brpl	.-8      	; 0x11ac <readWiiButton+0x2c>
    11b4:	80 91 c3 01 	lds	r24, 0x01C3	; 0x8001c3 <buttons>
    11b8:	90 91 c4 01 	lds	r25, 0x01C4	; 0x8001c4 <buttons+0x1>
    11bc:	28 23       	and	r18, r24
    11be:	39 23       	and	r19, r25
    11c0:	81 e0       	ldi	r24, 0x01	; 1
    11c2:	23 2b       	or	r18, r19
    11c4:	09 f4       	brne	.+2      	; 0x11c8 <readWiiButton+0x48>
    11c6:	80 e0       	ldi	r24, 0x00	; 0
    11c8:	29 96       	adiw	r28, 0x09	; 9
    11ca:	0f b6       	in	r0, 0x3f	; 63
    11cc:	f8 94       	cli
    11ce:	de bf       	out	0x3e, r29	; 62
    11d0:	0f be       	out	0x3f, r0	; 63
    11d2:	cd bf       	out	0x3d, r28	; 61
    11d4:	df 91       	pop	r29
    11d6:	cf 91       	pop	r28
    11d8:	1f 91       	pop	r17
    11da:	0f 91       	pop	r16
    11dc:	08 95       	ret

000011de <digitalReadPin>:
    11de:	0f 93       	push	r16
    11e0:	1f 93       	push	r17
    11e2:	cf 93       	push	r28
    11e4:	df 93       	push	r29
    11e6:	cd b7       	in	r28, 0x3d	; 61
    11e8:	de b7       	in	r29, 0x3e	; 62
    11ea:	61 97       	sbiw	r28, 0x11	; 17
    11ec:	0f b6       	in	r0, 0x3f	; 63
    11ee:	f8 94       	cli
    11f0:	de bf       	out	0x3e, r29	; 62
    11f2:	0f be       	out	0x3f, r0	; 63
    11f4:	cd bf       	out	0x3d, r28	; 61
    11f6:	09 87       	std	Y+9, r16	; 0x09
    11f8:	1a 87       	std	Y+10, r17	; 0x0a
    11fa:	2b 87       	std	Y+11, r18	; 0x0b
    11fc:	3c 87       	std	Y+12, r19	; 0x0c
    11fe:	4d 87       	std	Y+13, r20	; 0x0d
    1200:	5e 87       	std	Y+14, r21	; 0x0e
    1202:	6f 87       	std	Y+15, r22	; 0x0f
    1204:	78 8b       	std	Y+16, r23	; 0x10
    1206:	e8 2f       	mov	r30, r24
    1208:	89 8b       	std	Y+17, r24	; 0x11
    120a:	8f 3f       	cpi	r24, 0xFF	; 255
    120c:	69 f4       	brne	.+26     	; 0x1228 <digitalReadPin+0x4a>
    120e:	ea 85       	ldd	r30, Y+10	; 0x0a
    1210:	fb 85       	ldd	r31, Y+11	; 0x0b
    1212:	80 81       	ld	r24, Z
    1214:	80 23       	and	r24, r16
    1216:	91 e0       	ldi	r25, 0x01	; 1
    1218:	09 f4       	brne	.+2      	; 0x121c <digitalReadPin+0x3e>
    121a:	90 e0       	ldi	r25, 0x00	; 0
    121c:	81 e0       	ldi	r24, 0x01	; 1
    121e:	2c 85       	ldd	r18, Y+12	; 0x0c
    1220:	92 17       	cp	r25, r18
    1222:	b9 f0       	breq	.+46     	; 0x1252 <digitalReadPin+0x74>
    1224:	80 e0       	ldi	r24, 0x00	; 0
    1226:	15 c0       	rjmp	.+42     	; 0x1252 <digitalReadPin+0x74>
    1228:	88 e0       	ldi	r24, 0x08	; 8
    122a:	e8 9f       	mul	r30, r24
    122c:	f0 01       	movw	r30, r0
    122e:	11 24       	eor	r1, r1
    1230:	e4 51       	subi	r30, 0x14	; 20
    1232:	fd 4f       	sbci	r31, 0xFD	; 253
    1234:	88 e0       	ldi	r24, 0x08	; 8
    1236:	de 01       	movw	r26, r28
    1238:	11 96       	adiw	r26, 0x01	; 1
    123a:	01 90       	ld	r0, Z+
    123c:	0d 92       	st	X+, r0
    123e:	8a 95       	dec	r24
    1240:	e1 f7       	brne	.-8      	; 0x123a <digitalReadPin+0x5c>
    1242:	4c 81       	ldd	r20, Y+4	; 0x04
    1244:	5d 81       	ldd	r21, Y+5	; 0x05
    1246:	81 e0       	ldi	r24, 0x01	; 1
    1248:	2e 81       	ldd	r18, Y+6	; 0x06
    124a:	3f 81       	ldd	r19, Y+7	; 0x07
    124c:	24 17       	cp	r18, r20
    124e:	35 07       	cpc	r19, r21
    1250:	48 f7       	brcc	.-46     	; 0x1224 <digitalReadPin+0x46>
    1252:	61 96       	adiw	r28, 0x11	; 17
    1254:	0f b6       	in	r0, 0x3f	; 63
    1256:	f8 94       	cli
    1258:	de bf       	out	0x3e, r29	; 62
    125a:	0f be       	out	0x3f, r0	; 63
    125c:	cd bf       	out	0x3d, r28	; 61
    125e:	df 91       	pop	r29
    1260:	cf 91       	pop	r28
    1262:	1f 91       	pop	r17
    1264:	0f 91       	pop	r16
    1266:	08 95       	ret

00001268 <readPS2Button>:
    1268:	0f 93       	push	r16
    126a:	1f 93       	push	r17
    126c:	cf 93       	push	r28
    126e:	df 93       	push	r29
    1270:	cd b7       	in	r28, 0x3d	; 61
    1272:	de b7       	in	r29, 0x3e	; 62
    1274:	29 97       	sbiw	r28, 0x09	; 9
    1276:	0f b6       	in	r0, 0x3f	; 63
    1278:	f8 94       	cli
    127a:	de bf       	out	0x3e, r29	; 62
    127c:	0f be       	out	0x3f, r0	; 63
    127e:	cd bf       	out	0x3d, r28	; 61
    1280:	80 e0       	ldi	r24, 0x00	; 0
    1282:	29 96       	adiw	r28, 0x09	; 9
    1284:	0f b6       	in	r0, 0x3f	; 63
    1286:	f8 94       	cli
    1288:	de bf       	out	0x3e, r29	; 62
    128a:	0f be       	out	0x3f, r0	; 63
    128c:	cd bf       	out	0x3d, r28	; 61
    128e:	df 91       	pop	r29
    1290:	cf 91       	pop	r28
    1292:	1f 91       	pop	r17
    1294:	0f 91       	pop	r16
    1296:	08 95       	ret

00001298 <millis>:
    1298:	cf 93       	push	r28
    129a:	df 93       	push	r29
    129c:	00 d0       	rcall	.+0      	; 0x129e <millis+0x6>
    129e:	00 d0       	rcall	.+0      	; 0x12a0 <millis+0x8>
    12a0:	cd b7       	in	r28, 0x3d	; 61
    12a2:	de b7       	in	r29, 0x3e	; 62
    12a4:	2f b7       	in	r18, 0x3f	; 63
    12a6:	f8 94       	cli
    12a8:	80 91 34 02 	lds	r24, 0x0234	; 0x800234 <timer0_overflow_count>
    12ac:	90 91 35 02 	lds	r25, 0x0235	; 0x800235 <timer0_overflow_count+0x1>
    12b0:	a0 91 36 02 	lds	r26, 0x0236	; 0x800236 <timer0_overflow_count+0x2>
    12b4:	b0 91 37 02 	lds	r27, 0x0237	; 0x800237 <timer0_overflow_count+0x3>
    12b8:	2f bf       	out	0x3f, r18	; 63
    12ba:	22 27       	eor	r18, r18
    12bc:	38 2f       	mov	r19, r24
    12be:	49 2f       	mov	r20, r25
    12c0:	5a 2f       	mov	r21, r26
    12c2:	ca 01       	movw	r24, r20
    12c4:	b9 01       	movw	r22, r18
    12c6:	2d e7       	ldi	r18, 0x7D	; 125
    12c8:	30 e0       	ldi	r19, 0x00	; 0
    12ca:	40 e0       	ldi	r20, 0x00	; 0
    12cc:	50 e0       	ldi	r21, 0x00	; 0
    12ce:	0e 94 79 2b 	call	0x56f2	; 0x56f2 <__udivmodsi4>
    12d2:	ca 01       	movw	r24, r20
    12d4:	b9 01       	movw	r22, r18
    12d6:	0f 90       	pop	r0
    12d8:	0f 90       	pop	r0
    12da:	0f 90       	pop	r0
    12dc:	0f 90       	pop	r0
    12de:	df 91       	pop	r29
    12e0:	cf 91       	pop	r28
    12e2:	08 95       	ret

000012e4 <checkJoyKey>:
    12e4:	cf 92       	push	r12
    12e6:	df 92       	push	r13
    12e8:	ef 92       	push	r14
    12ea:	ff 92       	push	r15
    12ec:	0f 93       	push	r16
    12ee:	1f 93       	push	r17
    12f0:	cf 93       	push	r28
    12f2:	df 93       	push	r29
    12f4:	ec 01       	movw	r28, r24
    12f6:	6b 01       	movw	r12, r22
    12f8:	ba 01       	movw	r22, r20
    12fa:	a9 01       	movw	r20, r18
    12fc:	f8 01       	movw	r30, r16
    12fe:	c7 01       	movw	r24, r14
    1300:	20 81       	ld	r18, Z
    1302:	26 30       	cpi	r18, 0x06	; 6
    1304:	e0 f4       	brcc	.+56     	; 0x133e <checkJoyKey+0x5a>
    1306:	20 97       	sbiw	r28, 0x00	; 0
    1308:	71 f0       	breq	.+28     	; 0x1326 <checkJoyKey+0x42>
    130a:	00 27       	eor	r16, r16
    130c:	11 27       	eor	r17, r17
    130e:	04 1b       	sub	r16, r20
    1310:	15 0b       	sbc	r17, r21
    1312:	60 17       	cp	r22, r16
    1314:	71 07       	cpc	r23, r17
    1316:	3c f4       	brge	.+14     	; 0x1326 <checkJoyKey+0x42>
    1318:	31 96       	adiw	r30, 0x01	; 1
    131a:	2e 0d       	add	r18, r14
    131c:	3f 2d       	mov	r19, r15
    131e:	31 1d       	adc	r19, r1
    1320:	d9 01       	movw	r26, r18
    1322:	13 96       	adiw	r26, 0x03	; 3
    1324:	cc 93       	st	X, r28
    1326:	c1 14       	cp	r12, r1
    1328:	d1 04       	cpc	r13, r1
    132a:	49 f0       	breq	.+18     	; 0x133e <checkJoyKey+0x5a>
    132c:	46 17       	cp	r20, r22
    132e:	57 07       	cpc	r21, r23
    1330:	34 f4       	brge	.+12     	; 0x133e <checkJoyKey+0x5a>
    1332:	20 81       	ld	r18, Z
    1334:	82 0f       	add	r24, r18
    1336:	91 1d       	adc	r25, r1
    1338:	dc 01       	movw	r26, r24
    133a:	13 96       	adiw	r26, 0x03	; 3
    133c:	cc 92       	st	X, r12
    133e:	df 91       	pop	r29
    1340:	cf 91       	pop	r28
    1342:	1f 91       	pop	r17
    1344:	0f 91       	pop	r16
    1346:	ff 90       	pop	r15
    1348:	ef 90       	pop	r14
    134a:	df 90       	pop	r13
    134c:	cf 90       	pop	r12
    134e:	08 95       	ret

00001350 <fillKeyboardReport>:
    1350:	8f 92       	push	r8
    1352:	9f 92       	push	r9
    1354:	af 92       	push	r10
    1356:	bf 92       	push	r11
    1358:	cf 92       	push	r12
    135a:	df 92       	push	r13
    135c:	ef 92       	push	r14
    135e:	ff 92       	push	r15
    1360:	0f 93       	push	r16
    1362:	1f 93       	push	r17
    1364:	cf 93       	push	r28
    1366:	df 93       	push	r29
    1368:	0f 92       	push	r0
    136a:	cd b7       	in	r28, 0x3d	; 61
    136c:	de b7       	in	r29, 0x3e	; 62
    136e:	6c 01       	movw	r12, r24
    1370:	4a 01       	movw	r8, r20
    1372:	89 e0       	ldi	r24, 0x09	; 9
    1374:	db 01       	movw	r26, r22
    1376:	8c 93       	st	X, r24
    1378:	86 e0       	ldi	r24, 0x06	; 6
    137a:	f6 01       	movw	r30, r12
    137c:	80 83       	st	Z, r24
    137e:	ec e3       	ldi	r30, 0x3C	; 60
    1380:	f4 e0       	ldi	r31, 0x04	; 4
    1382:	50 e0       	ldi	r21, 0x00	; 0
    1384:	40 e0       	ldi	r20, 0x00	; 0
    1386:	80 e0       	ldi	r24, 0x00	; 0
    1388:	61 e0       	ldi	r22, 0x01	; 1
    138a:	70 e0       	ldi	r23, 0x00	; 0
    138c:	91 91       	ld	r25, Z+
    138e:	99 23       	and	r25, r25
    1390:	a1 f0       	breq	.+40     	; 0x13ba <fillKeyboardReport+0x6a>
    1392:	d4 01       	movw	r26, r8
    1394:	ad 90       	ld	r10, X+
    1396:	bc 90       	ld	r11, X
    1398:	9b 01       	movw	r18, r22
    139a:	04 2e       	mov	r0, r20
    139c:	02 c0       	rjmp	.+4      	; 0x13a2 <fillKeyboardReport+0x52>
    139e:	22 0f       	add	r18, r18
    13a0:	33 1f       	adc	r19, r19
    13a2:	0a 94       	dec	r0
    13a4:	e2 f7       	brpl	.-8      	; 0x139e <fillKeyboardReport+0x4e>
    13a6:	2a 21       	and	r18, r10
    13a8:	3b 21       	and	r19, r11
    13aa:	23 2b       	or	r18, r19
    13ac:	31 f0       	breq	.+12     	; 0x13ba <fillKeyboardReport+0x6a>
    13ae:	d6 01       	movw	r26, r12
    13b0:	a8 0f       	add	r26, r24
    13b2:	b1 1d       	adc	r27, r1
    13b4:	13 96       	adiw	r26, 0x03	; 3
    13b6:	9c 93       	st	X, r25
    13b8:	8f 5f       	subi	r24, 0xFF	; 255
    13ba:	4f 5f       	subi	r20, 0xFF	; 255
    13bc:	5f 4f       	sbci	r21, 0xFF	; 255
    13be:	40 31       	cpi	r20, 0x10	; 16
    13c0:	51 05       	cpc	r21, r1
    13c2:	09 f0       	breq	.+2      	; 0x13c6 <fillKeyboardReport+0x76>
    13c4:	5e c0       	rjmp	.+188    	; 0x1482 <fillKeyboardReport+0x132>
    13c6:	89 83       	std	Y+1, r24	; 0x01
    13c8:	a0 90 3a 04 	lds	r10, 0x043A	; 0x80043a <joyThresholdKb>
    13cc:	b0 90 3b 04 	lds	r11, 0x043B	; 0x80043b <joyThresholdKb+0x1>
    13d0:	f4 01       	movw	r30, r8
    13d2:	44 81       	ldd	r20, Z+4	; 0x04
    13d4:	55 81       	ldd	r21, Z+5	; 0x05
    13d6:	60 91 4f 04 	lds	r22, 0x044F	; 0x80044f <keysConfig+0x13>
    13da:	70 e0       	ldi	r23, 0x00	; 0
    13dc:	80 91 4e 04 	lds	r24, 0x044E	; 0x80044e <keysConfig+0x12>
    13e0:	76 01       	movw	r14, r12
    13e2:	8e 01       	movw	r16, r28
    13e4:	0f 5f       	subi	r16, 0xFF	; 255
    13e6:	1f 4f       	sbci	r17, 0xFF	; 255
    13e8:	95 01       	movw	r18, r10
    13ea:	90 e0       	ldi	r25, 0x00	; 0
    13ec:	7b df       	rcall	.-266    	; 0x12e4 <checkJoyKey>
    13ee:	d4 01       	movw	r26, r8
    13f0:	16 96       	adiw	r26, 0x06	; 6
    13f2:	4d 91       	ld	r20, X+
    13f4:	5c 91       	ld	r21, X
    13f6:	60 91 51 04 	lds	r22, 0x0451	; 0x800451 <keysConfig+0x15>
    13fa:	70 e0       	ldi	r23, 0x00	; 0
    13fc:	80 91 50 04 	lds	r24, 0x0450	; 0x800450 <keysConfig+0x14>
    1400:	95 01       	movw	r18, r10
    1402:	90 e0       	ldi	r25, 0x00	; 0
    1404:	6f df       	rcall	.-290    	; 0x12e4 <checkJoyKey>
    1406:	f4 01       	movw	r30, r8
    1408:	40 85       	ldd	r20, Z+8	; 0x08
    140a:	51 85       	ldd	r21, Z+9	; 0x09
    140c:	60 91 53 04 	lds	r22, 0x0453	; 0x800453 <keysConfig+0x17>
    1410:	70 e0       	ldi	r23, 0x00	; 0
    1412:	80 91 52 04 	lds	r24, 0x0452	; 0x800452 <keysConfig+0x16>
    1416:	95 01       	movw	r18, r10
    1418:	90 e0       	ldi	r25, 0x00	; 0
    141a:	64 df       	rcall	.-312    	; 0x12e4 <checkJoyKey>
    141c:	d4 01       	movw	r26, r8
    141e:	1a 96       	adiw	r26, 0x0a	; 10
    1420:	4d 91       	ld	r20, X+
    1422:	5c 91       	ld	r21, X
    1424:	60 91 55 04 	lds	r22, 0x0455	; 0x800455 <keysConfig+0x19>
    1428:	70 e0       	ldi	r23, 0x00	; 0
    142a:	80 91 54 04 	lds	r24, 0x0454	; 0x800454 <keysConfig+0x18>
    142e:	95 01       	movw	r18, r10
    1430:	90 e0       	ldi	r25, 0x00	; 0
    1432:	58 df       	rcall	.-336    	; 0x12e4 <checkJoyKey>
    1434:	a0 90 38 04 	lds	r10, 0x0438	; 0x800438 <triggerThresholdKb>
    1438:	b0 90 39 04 	lds	r11, 0x0439	; 0x800439 <triggerThresholdKb+0x1>
    143c:	f4 01       	movw	r30, r8
    143e:	42 81       	ldd	r20, Z+2	; 0x02
    1440:	50 e0       	ldi	r21, 0x00	; 0
    1442:	60 91 4c 04 	lds	r22, 0x044C	; 0x80044c <keysConfig+0x10>
    1446:	70 e0       	ldi	r23, 0x00	; 0
    1448:	95 01       	movw	r18, r10
    144a:	90 e0       	ldi	r25, 0x00	; 0
    144c:	80 e0       	ldi	r24, 0x00	; 0
    144e:	4a df       	rcall	.-364    	; 0x12e4 <checkJoyKey>
    1450:	d4 01       	movw	r26, r8
    1452:	13 96       	adiw	r26, 0x03	; 3
    1454:	4c 91       	ld	r20, X
    1456:	50 e0       	ldi	r21, 0x00	; 0
    1458:	60 91 4d 04 	lds	r22, 0x044D	; 0x80044d <keysConfig+0x11>
    145c:	70 e0       	ldi	r23, 0x00	; 0
    145e:	95 01       	movw	r18, r10
    1460:	90 e0       	ldi	r25, 0x00	; 0
    1462:	80 e0       	ldi	r24, 0x00	; 0
    1464:	3f df       	rcall	.-386    	; 0x12e4 <checkJoyKey>
    1466:	0f 90       	pop	r0
    1468:	df 91       	pop	r29
    146a:	cf 91       	pop	r28
    146c:	1f 91       	pop	r17
    146e:	0f 91       	pop	r16
    1470:	ff 90       	pop	r15
    1472:	ef 90       	pop	r14
    1474:	df 90       	pop	r13
    1476:	cf 90       	pop	r12
    1478:	bf 90       	pop	r11
    147a:	af 90       	pop	r10
    147c:	9f 90       	pop	r9
    147e:	8f 90       	pop	r8
    1480:	08 95       	ret
    1482:	86 30       	cpi	r24, 0x06	; 6
    1484:	09 f0       	breq	.+2      	; 0x1488 <fillKeyboardReport+0x138>
    1486:	82 cf       	rjmp	.-252    	; 0x138c <fillKeyboardReport+0x3c>
    1488:	9e cf       	rjmp	.-196    	; 0x13c6 <fillKeyboardReport+0x76>

0000148a <fillMIDIReport>:
    148a:	7f 92       	push	r7
    148c:	8f 92       	push	r8
    148e:	9f 92       	push	r9
    1490:	af 92       	push	r10
    1492:	bf 92       	push	r11
    1494:	cf 92       	push	r12
    1496:	df 92       	push	r13
    1498:	ef 92       	push	r14
    149a:	ff 92       	push	r15
    149c:	0f 93       	push	r16
    149e:	1f 93       	push	r17
    14a0:	cf 93       	push	r28
    14a2:	df 93       	push	r29
    14a4:	00 d0       	rcall	.+0      	; 0x14a6 <fillMIDIReport+0x1c>
    14a6:	00 d0       	rcall	.+0      	; 0x14a8 <fillMIDIReport+0x1e>
    14a8:	00 d0       	rcall	.+0      	; 0x14aa <fillMIDIReport+0x20>
    14aa:	cd b7       	in	r28, 0x3d	; 61
    14ac:	de b7       	in	r29, 0x3e	; 62
    14ae:	8d 83       	std	Y+5, r24	; 0x05
    14b0:	9e 83       	std	Y+6, r25	; 0x06
    14b2:	69 83       	std	Y+1, r22	; 0x01
    14b4:	7a 83       	std	Y+2, r23	; 0x02
    14b6:	da 01       	movw	r26, r20
    14b8:	87 e0       	ldi	r24, 0x07	; 7
    14ba:	ed 81       	ldd	r30, Y+5	; 0x05
    14bc:	fe 81       	ldd	r31, Y+6	; 0x06
    14be:	80 83       	st	Z, r24
    14c0:	a0 90 ec 03 	lds	r10, 0x03EC	; 0x8003ec <triggerThreshold>
    14c4:	b0 90 ed 03 	lds	r11, 0x03ED	; 0x8003ed <triggerThreshold+0x1>
    14c8:	d0 90 58 04 	lds	r13, 0x0458	; 0x800458 <typeIsDrum>
    14cc:	46 ef       	ldi	r20, 0xF6	; 246
    14ce:	53 e0       	ldi	r21, 0x03	; 3
    14d0:	8e e1       	ldi	r24, 0x1E	; 30
    14d2:	92 e0       	ldi	r25, 0x02	; 2
    14d4:	9c 83       	std	Y+4, r25	; 0x04
    14d6:	8b 83       	std	Y+3, r24	; 0x03
    14d8:	bd 01       	movw	r22, r26
    14da:	60 52       	subi	r22, 0x20	; 32
    14dc:	71 09       	sbc	r23, r1
    14de:	30 e0       	ldi	r19, 0x00	; 0
    14e0:	20 e0       	ldi	r18, 0x00	; 0
    14e2:	f1 2c       	mov	r15, r1
    14e4:	fa 01       	movw	r30, r20
    14e6:	81 91       	ld	r24, Z+
    14e8:	af 01       	movw	r20, r30
    14ea:	88 23       	and	r24, r24
    14ec:	09 f4       	brne	.+2      	; 0x14f0 <fillMIDIReport+0x66>
    14ee:	41 c0       	rjmp	.+130    	; 0x1572 <fillMIDIReport+0xe8>
    14f0:	00 eb       	ldi	r16, 0xB0	; 176
    14f2:	e0 2e       	mov	r14, r16
    14f4:	81 30       	cpi	r24, 0x01	; 1
    14f6:	11 f4       	brne	.+4      	; 0x14fc <fillMIDIReport+0x72>
    14f8:	10 e9       	ldi	r17, 0x90	; 144
    14fa:	e1 2e       	mov	r14, r17
    14fc:	20 31       	cpi	r18, 0x10	; 16
    14fe:	08 f0       	brcs	.+2      	; 0x1502 <fillMIDIReport+0x78>
    1500:	70 c0       	rjmp	.+224    	; 0x15e2 <fillMIDIReport+0x158>
    1502:	dd 20       	and	r13, r13
    1504:	09 f4       	brne	.+2      	; 0x1508 <fillMIDIReport+0x7e>
    1506:	5c c0       	rjmp	.+184    	; 0x15c0 <fillMIDIReport+0x136>
    1508:	29 30       	cpi	r18, 0x09	; 9
    150a:	08 f4       	brcc	.+2      	; 0x150e <fillMIDIReport+0x84>
    150c:	59 c0       	rjmp	.+178    	; 0x15c0 <fillMIDIReport+0x136>
    150e:	c9 01       	movw	r24, r18
    1510:	80 5d       	subi	r24, 0xD0	; 208
    1512:	9d 4f       	sbci	r25, 0xFD	; 253
    1514:	fc 01       	movw	r30, r24
    1516:	80 81       	ld	r24, Z
    1518:	86 95       	lsr	r24
    151a:	eb 81       	ldd	r30, Y+3	; 0x03
    151c:	fc 81       	ldd	r31, Y+4	; 0x04
    151e:	90 81       	ld	r25, Z
    1520:	98 17       	cp	r25, r24
    1522:	39 f1       	breq	.+78     	; 0x1572 <fillMIDIReport+0xe8>
    1524:	fa 01       	movw	r30, r20
    1526:	c3 a4       	ldd	r12, Z+43	; 0x2b
    1528:	95 89       	ldd	r25, Z+21	; 0x15
    152a:	eb 81       	ldd	r30, Y+3	; 0x03
    152c:	fc 81       	ldd	r31, Y+4	; 0x04
    152e:	80 83       	st	Z, r24
    1530:	8f 2c       	mov	r8, r15
    1532:	91 2c       	mov	r9, r1
    1534:	f4 e0       	ldi	r31, 0x04	; 4
    1536:	ff 9e       	mul	r15, r31
    1538:	80 01       	movw	r16, r0
    153a:	11 24       	eor	r1, r1
    153c:	ed 81       	ldd	r30, Y+5	; 0x05
    153e:	fe 81       	ldd	r31, Y+6	; 0x06
    1540:	0e 0f       	add	r16, r30
    1542:	1f 1f       	adc	r17, r31
    1544:	7e 2c       	mov	r7, r14
    1546:	72 94       	swap	r7
    1548:	ef e0       	ldi	r30, 0x0F	; 15
    154a:	7e 22       	and	r7, r30
    154c:	f8 01       	movw	r30, r16
    154e:	71 82       	std	Z+1, r7	; 0x01
    1550:	ec 28       	or	r14, r12
    1552:	e2 82       	std	Z+2, r14	; 0x02
    1554:	93 83       	std	Z+3, r25	; 0x03
    1556:	84 01       	movw	r16, r8
    1558:	0f 5f       	subi	r16, 0xFF	; 255
    155a:	1f 4f       	sbci	r17, 0xFF	; 255
    155c:	00 0f       	add	r16, r16
    155e:	11 1f       	adc	r17, r17
    1560:	00 0f       	add	r16, r16
    1562:	11 1f       	adc	r17, r17
    1564:	ed 81       	ldd	r30, Y+5	; 0x05
    1566:	fe 81       	ldd	r31, Y+6	; 0x06
    1568:	0e 0f       	add	r16, r30
    156a:	1f 1f       	adc	r17, r31
    156c:	f8 01       	movw	r30, r16
    156e:	80 83       	st	Z, r24
    1570:	f3 94       	inc	r15
    1572:	2f 5f       	subi	r18, 0xFF	; 255
    1574:	3f 4f       	sbci	r19, 0xFF	; 255
    1576:	8b 81       	ldd	r24, Y+3	; 0x03
    1578:	9c 81       	ldd	r25, Y+4	; 0x04
    157a:	01 96       	adiw	r24, 0x01	; 1
    157c:	9c 83       	std	Y+4, r25	; 0x04
    157e:	8b 83       	std	Y+3, r24	; 0x03
    1580:	6e 5f       	subi	r22, 0xFE	; 254
    1582:	7f 4f       	sbci	r23, 0xFF	; 255
    1584:	26 31       	cpi	r18, 0x16	; 22
    1586:	31 05       	cpc	r19, r1
    1588:	09 f0       	breq	.+2      	; 0x158c <fillMIDIReport+0x102>
    158a:	ac cf       	rjmp	.-168    	; 0x14e4 <fillMIDIReport+0x5a>
    158c:	ff 0c       	add	r15, r15
    158e:	ff 0c       	add	r15, r15
    1590:	f3 94       	inc	r15
    1592:	e9 81       	ldd	r30, Y+1	; 0x01
    1594:	fa 81       	ldd	r31, Y+2	; 0x02
    1596:	f0 82       	st	Z, r15
    1598:	26 96       	adiw	r28, 0x06	; 6
    159a:	0f b6       	in	r0, 0x3f	; 63
    159c:	f8 94       	cli
    159e:	de bf       	out	0x3e, r29	; 62
    15a0:	0f be       	out	0x3f, r0	; 63
    15a2:	cd bf       	out	0x3d, r28	; 61
    15a4:	df 91       	pop	r29
    15a6:	cf 91       	pop	r28
    15a8:	1f 91       	pop	r17
    15aa:	0f 91       	pop	r16
    15ac:	ff 90       	pop	r15
    15ae:	ef 90       	pop	r14
    15b0:	df 90       	pop	r13
    15b2:	cf 90       	pop	r12
    15b4:	bf 90       	pop	r11
    15b6:	af 90       	pop	r10
    15b8:	9f 90       	pop	r9
    15ba:	8f 90       	pop	r8
    15bc:	7f 90       	pop	r7
    15be:	08 95       	ret
    15c0:	0d 91       	ld	r16, X+
    15c2:	1c 91       	ld	r17, X
    15c4:	11 97       	sbiw	r26, 0x01	; 1
    15c6:	81 e0       	ldi	r24, 0x01	; 1
    15c8:	90 e0       	ldi	r25, 0x00	; 0
    15ca:	02 2e       	mov	r0, r18
    15cc:	02 c0       	rjmp	.+4      	; 0x15d2 <fillMIDIReport+0x148>
    15ce:	88 0f       	add	r24, r24
    15d0:	99 1f       	adc	r25, r25
    15d2:	0a 94       	dec	r0
    15d4:	e2 f7       	brpl	.-8      	; 0x15ce <fillMIDIReport+0x144>
    15d6:	80 23       	and	r24, r16
    15d8:	91 23       	and	r25, r17
    15da:	89 2b       	or	r24, r25
    15dc:	d1 f4       	brne	.+52     	; 0x1612 <fillMIDIReport+0x188>
    15de:	80 e0       	ldi	r24, 0x00	; 0
    15e0:	9b cf       	rjmp	.-202    	; 0x1518 <fillMIDIReport+0x8e>
    15e2:	23 31       	cpi	r18, 0x13	; 19
    15e4:	48 f0       	brcs	.+18     	; 0x15f8 <fillMIDIReport+0x16e>
    15e6:	81 e0       	ldi	r24, 0x01	; 1
    15e8:	fb 01       	movw	r30, r22
    15ea:	00 81       	ld	r16, Z
    15ec:	11 81       	ldd	r17, Z+1	; 0x01
    15ee:	a0 16       	cp	r10, r16
    15f0:	b1 06       	cpc	r11, r17
    15f2:	08 f4       	brcc	.+2      	; 0x15f6 <fillMIDIReport+0x16c>
    15f4:	91 cf       	rjmp	.-222    	; 0x1518 <fillMIDIReport+0x8e>
    15f6:	f3 cf       	rjmp	.-26     	; 0x15de <fillMIDIReport+0x154>
    15f8:	c9 01       	movw	r24, r18
    15fa:	0e 97       	sbiw	r24, 0x0e	; 14
    15fc:	8a 0f       	add	r24, r26
    15fe:	9b 1f       	adc	r25, r27
    1600:	fc 01       	movw	r30, r24
    1602:	90 81       	ld	r25, Z
    1604:	81 e0       	ldi	r24, 0x01	; 1
    1606:	9a 15       	cp	r25, r10
    1608:	1b 04       	cpc	r1, r11
    160a:	11 f0       	breq	.+4      	; 0x1610 <fillMIDIReport+0x186>
    160c:	0c f0       	brlt	.+2      	; 0x1610 <fillMIDIReport+0x186>
    160e:	84 cf       	rjmp	.-248    	; 0x1518 <fillMIDIReport+0x8e>
    1610:	e6 cf       	rjmp	.-52     	; 0x15de <fillMIDIReport+0x154>
    1612:	80 e4       	ldi	r24, 0x40	; 64
    1614:	81 cf       	rjmp	.-254    	; 0x1518 <fillMIDIReport+0x8e>

00001616 <spi_transfer>:
    1616:	8e bd       	out	0x2e, r24	; 46
    1618:	00 00       	nop
    161a:	0d b4       	in	r0, 0x2d	; 45
    161c:	07 fe       	sbrs	r0, 7
    161e:	fd cf       	rjmp	.-6      	; 0x161a <spi_transfer+0x4>
    1620:	8e b5       	in	r24, 0x2e	; 46
    1622:	08 95       	ret

00001624 <setUpDigital>:
    1624:	ef 92       	push	r14
    1626:	0f 93       	push	r16
    1628:	dc 01       	movw	r26, r24
    162a:	cb 01       	movw	r24, r22
    162c:	16 96       	adiw	r26, 0x06	; 6
    162e:	1c 92       	st	X, r1
    1630:	16 97       	sbiw	r26, 0x06	; 6
    1632:	64 2f       	mov	r22, r20
    1634:	70 e0       	ldi	r23, 0x00	; 0
    1636:	fb 01       	movw	r30, r22
    1638:	e6 56       	subi	r30, 0x66	; 102
    163a:	ff 4f       	sbci	r31, 0xFF	; 255
    163c:	34 91       	lpm	r19, Z
    163e:	fb 01       	movw	r30, r22
    1640:	ea 57       	subi	r30, 0x7A	; 122
    1642:	ff 4f       	sbci	r31, 0xFF	; 255
    1644:	54 91       	lpm	r21, Z
    1646:	e3 2f       	mov	r30, r19
    1648:	f0 e0       	ldi	r31, 0x00	; 0
    164a:	ee 0f       	add	r30, r30
    164c:	ff 1f       	adc	r31, r31
    164e:	ee 20       	and	r14, r14
    1650:	19 f1       	breq	.+70     	; 0x1698 <setUpDigital+0x74>
    1652:	e4 58       	subi	r30, 0x84	; 132
    1654:	ff 4f       	sbci	r31, 0xFF	; 255
    1656:	65 91       	lpm	r22, Z+
    1658:	74 91       	lpm	r23, Z
    165a:	80 5f       	subi	r24, 0xF0	; 240
    165c:	9e 4f       	sbci	r25, 0xFE	; 254
    165e:	fc 01       	movw	r30, r24
    1660:	80 81       	ld	r24, Z
    1662:	5c 93       	st	X, r21
    1664:	11 96       	adiw	r26, 0x01	; 1
    1666:	6c 93       	st	X, r22
    1668:	11 97       	sbiw	r26, 0x01	; 1
    166a:	12 96       	adiw	r26, 0x02	; 2
    166c:	7c 93       	st	X, r23
    166e:	12 97       	sbiw	r26, 0x02	; 2
    1670:	13 96       	adiw	r26, 0x03	; 3
    1672:	0c 93       	st	X, r16
    1674:	13 97       	sbiw	r26, 0x03	; 3
    1676:	14 96       	adiw	r26, 0x04	; 4
    1678:	4c 93       	st	X, r20
    167a:	14 97       	sbiw	r26, 0x04	; 4
    167c:	15 96       	adiw	r26, 0x05	; 5
    167e:	2c 93       	st	X, r18
    1680:	15 97       	sbiw	r26, 0x05	; 5
    1682:	17 96       	adiw	r26, 0x07	; 7
    1684:	8c 93       	st	X, r24
    1686:	17 97       	sbiw	r26, 0x07	; 7
    1688:	8f ef       	ldi	r24, 0xFF	; 255
    168a:	18 96       	adiw	r26, 0x08	; 8
    168c:	8c 93       	st	X, r24
    168e:	18 97       	sbiw	r26, 0x08	; 8
    1690:	cd 01       	movw	r24, r26
    1692:	0f 91       	pop	r16
    1694:	ef 90       	pop	r14
    1696:	08 95       	ret
    1698:	ee 58       	subi	r30, 0x8E	; 142
    169a:	ff 4f       	sbci	r31, 0xFF	; 255
    169c:	dc cf       	rjmp	.-72     	; 0x1656 <setUpDigital+0x32>

0000169e <digitalWrite>:
    169e:	90 e0       	ldi	r25, 0x00	; 0
    16a0:	fc 01       	movw	r30, r24
    16a2:	ea 57       	subi	r30, 0x7A	; 122
    16a4:	ff 4f       	sbci	r31, 0xFF	; 255
    16a6:	24 91       	lpm	r18, Z
    16a8:	fc 01       	movw	r30, r24
    16aa:	e6 56       	subi	r30, 0x66	; 102
    16ac:	ff 4f       	sbci	r31, 0xFF	; 255
    16ae:	e4 91       	lpm	r30, Z
    16b0:	ee 23       	and	r30, r30
    16b2:	89 f0       	breq	.+34     	; 0x16d6 <digitalWrite+0x38>
    16b4:	f0 e0       	ldi	r31, 0x00	; 0
    16b6:	ee 0f       	add	r30, r30
    16b8:	ff 1f       	adc	r31, r31
    16ba:	e4 58       	subi	r30, 0x84	; 132
    16bc:	ff 4f       	sbci	r31, 0xFF	; 255
    16be:	a5 91       	lpm	r26, Z+
    16c0:	b4 91       	lpm	r27, Z
    16c2:	8f b7       	in	r24, 0x3f	; 63
    16c4:	f8 94       	cli
    16c6:	61 11       	cpse	r22, r1
    16c8:	07 c0       	rjmp	.+14     	; 0x16d8 <digitalWrite+0x3a>
    16ca:	9c 91       	ld	r25, X
    16cc:	e2 2f       	mov	r30, r18
    16ce:	e0 95       	com	r30
    16d0:	e9 23       	and	r30, r25
    16d2:	ec 93       	st	X, r30
    16d4:	8f bf       	out	0x3f, r24	; 63
    16d6:	08 95       	ret
    16d8:	ec 91       	ld	r30, X
    16da:	e2 2b       	or	r30, r18
    16dc:	fa cf       	rjmp	.-12     	; 0x16d2 <digitalWrite+0x34>

000016de <digitalRead>:
    16de:	90 e0       	ldi	r25, 0x00	; 0
    16e0:	fc 01       	movw	r30, r24
    16e2:	ea 57       	subi	r30, 0x7A	; 122
    16e4:	ff 4f       	sbci	r31, 0xFF	; 255
    16e6:	24 91       	lpm	r18, Z
    16e8:	fc 01       	movw	r30, r24
    16ea:	e6 56       	subi	r30, 0x66	; 102
    16ec:	ff 4f       	sbci	r31, 0xFF	; 255
    16ee:	e4 91       	lpm	r30, Z
    16f0:	ee 23       	and	r30, r30
    16f2:	59 f0       	breq	.+22     	; 0x170a <digitalRead+0x2c>
    16f4:	f0 e0       	ldi	r31, 0x00	; 0
    16f6:	ee 0f       	add	r30, r30
    16f8:	ff 1f       	adc	r31, r31
    16fa:	ee 58       	subi	r30, 0x8E	; 142
    16fc:	ff 4f       	sbci	r31, 0xFF	; 255
    16fe:	a5 91       	lpm	r26, Z+
    1700:	b4 91       	lpm	r27, Z
    1702:	ec 91       	ld	r30, X
    1704:	e2 23       	and	r30, r18
    1706:	81 e0       	ldi	r24, 0x01	; 1
    1708:	09 f4       	brne	.+2      	; 0x170c <digitalRead+0x2e>
    170a:	80 e0       	ldi	r24, 0x00	; 0
    170c:	08 95       	ret

0000170e <tickDigitalTilt>:
    170e:	cf 93       	push	r28
    1710:	df 93       	push	r29
    1712:	ec 01       	movw	r28, r24
    1714:	80 91 e8 03 	lds	r24, 0x03E8	; 0x8003e8 <tiltPin>
    1718:	e2 df       	rcall	.-60     	; 0x16de <digitalRead>
    171a:	91 e0       	ldi	r25, 0x01	; 1
    171c:	89 27       	eor	r24, r25
    171e:	4f ef       	ldi	r20, 0xFF	; 255
    1720:	5f e7       	ldi	r21, 0x7F	; 127
    1722:	84 9f       	mul	r24, r20
    1724:	90 01       	movw	r18, r0
    1726:	85 9f       	mul	r24, r21
    1728:	30 0d       	add	r19, r0
    172a:	11 24       	eor	r1, r1
    172c:	3b 87       	std	Y+11, r19	; 0x0b
    172e:	2a 87       	std	Y+10, r18	; 0x0a
    1730:	df 91       	pop	r29
    1732:	cf 91       	pop	r28
    1734:	08 95       	ret

00001736 <analogRead>:
    1736:	80 64       	ori	r24, 0x40	; 64
    1738:	80 93 7c 00 	sts	0x007C, r24	; 0x80007c <__TEXT_REGION_LENGTH__+0x7e007c>
    173c:	80 91 7a 00 	lds	r24, 0x007A	; 0x80007a <__TEXT_REGION_LENGTH__+0x7e007a>
    1740:	80 64       	ori	r24, 0x40	; 64
    1742:	80 93 7a 00 	sts	0x007A, r24	; 0x80007a <__TEXT_REGION_LENGTH__+0x7e007a>
    1746:	80 91 7a 00 	lds	r24, 0x007A	; 0x80007a <__TEXT_REGION_LENGTH__+0x7e007a>
    174a:	86 fd       	sbrc	r24, 6
    174c:	fc cf       	rjmp	.-8      	; 0x1746 <analogRead+0x10>
    174e:	80 91 78 00 	lds	r24, 0x0078	; 0x800078 <__TEXT_REGION_LENGTH__+0x7e0078>
    1752:	90 91 79 00 	lds	r25, 0x0079	; 0x800079 <__TEXT_REGION_LENGTH__+0x7e0079>
    1756:	08 95       	ret

00001758 <stopReading>:
    1758:	80 91 7a 00 	lds	r24, 0x007A	; 0x80007a <__TEXT_REGION_LENGTH__+0x7e007a>
    175c:	86 fd       	sbrc	r24, 6
    175e:	fc cf       	rjmp	.-8      	; 0x1758 <stopReading>
    1760:	81 e0       	ldi	r24, 0x01	; 1
    1762:	80 93 01 01 	sts	0x0101, r24	; 0x800101 <first>
    1766:	08 95       	ret

00001768 <pinMode>:
    1768:	cf 93       	push	r28
    176a:	df 93       	push	r29
    176c:	90 e0       	ldi	r25, 0x00	; 0
    176e:	fc 01       	movw	r30, r24
    1770:	ea 57       	subi	r30, 0x7A	; 122
    1772:	ff 4f       	sbci	r31, 0xFF	; 255
    1774:	24 91       	lpm	r18, Z
    1776:	86 56       	subi	r24, 0x66	; 102
    1778:	9f 4f       	sbci	r25, 0xFF	; 255
    177a:	fc 01       	movw	r30, r24
    177c:	84 91       	lpm	r24, Z
    177e:	88 23       	and	r24, r24
    1780:	d1 f0       	breq	.+52     	; 0x17b6 <pinMode+0x4e>
    1782:	90 e0       	ldi	r25, 0x00	; 0
    1784:	88 0f       	add	r24, r24
    1786:	99 1f       	adc	r25, r25
    1788:	fc 01       	movw	r30, r24
    178a:	e8 59       	subi	r30, 0x98	; 152
    178c:	ff 4f       	sbci	r31, 0xFF	; 255
    178e:	a5 91       	lpm	r26, Z+
    1790:	b4 91       	lpm	r27, Z
    1792:	fc 01       	movw	r30, r24
    1794:	e4 58       	subi	r30, 0x84	; 132
    1796:	ff 4f       	sbci	r31, 0xFF	; 255
    1798:	c5 91       	lpm	r28, Z+
    179a:	d4 91       	lpm	r29, Z
    179c:	61 30       	cpi	r22, 0x01	; 1
    179e:	71 f4       	brne	.+28     	; 0x17bc <pinMode+0x54>
    17a0:	9f b7       	in	r25, 0x3f	; 63
    17a2:	f8 94       	cli
    17a4:	8c 91       	ld	r24, X
    17a6:	20 95       	com	r18
    17a8:	82 23       	and	r24, r18
    17aa:	8c 93       	st	X, r24
    17ac:	88 81       	ld	r24, Y
    17ae:	28 23       	and	r18, r24
    17b0:	28 83       	st	Y, r18
    17b2:	9f bf       	out	0x3f, r25	; 63
    17b4:	78 94       	sei
    17b6:	df 91       	pop	r29
    17b8:	cf 91       	pop	r28
    17ba:	08 95       	ret
    17bc:	62 30       	cpi	r22, 0x02	; 2
    17be:	51 f4       	brne	.+20     	; 0x17d4 <pinMode+0x6c>
    17c0:	9f b7       	in	r25, 0x3f	; 63
    17c2:	f8 94       	cli
    17c4:	3c 91       	ld	r19, X
    17c6:	82 2f       	mov	r24, r18
    17c8:	80 95       	com	r24
    17ca:	83 23       	and	r24, r19
    17cc:	8c 93       	st	X, r24
    17ce:	e8 81       	ld	r30, Y
    17d0:	2e 2b       	or	r18, r30
    17d2:	ee cf       	rjmp	.-36     	; 0x17b0 <pinMode+0x48>
    17d4:	8f b7       	in	r24, 0x3f	; 63
    17d6:	f8 94       	cli
    17d8:	ec 91       	ld	r30, X
    17da:	2e 2b       	or	r18, r30
    17dc:	2c 93       	st	X, r18
    17de:	8f bf       	out	0x3f, r24	; 63
    17e0:	e9 cf       	rjmp	.-46     	; 0x17b4 <pinMode+0x4c>

000017e2 <spi_begin>:
    17e2:	cf 92       	push	r12
    17e4:	df 92       	push	r13
    17e6:	ef 92       	push	r14
    17e8:	ff 92       	push	r15
    17ea:	1f 93       	push	r17
    17ec:	cf 93       	push	r28
    17ee:	df 93       	push	r29
    17f0:	6b 01       	movw	r12, r22
    17f2:	7c 01       	movw	r14, r24
    17f4:	14 2f       	mov	r17, r20
    17f6:	d2 2f       	mov	r29, r18
    17f8:	60 e0       	ldi	r22, 0x00	; 0
    17fa:	8b e0       	ldi	r24, 0x0B	; 11
    17fc:	b5 df       	rcall	.-150    	; 0x1768 <pinMode>
    17fe:	62 e0       	ldi	r22, 0x02	; 2
    1800:	8c e0       	ldi	r24, 0x0C	; 12
    1802:	b2 df       	rcall	.-156    	; 0x1768 <pinMode>
    1804:	60 e0       	ldi	r22, 0x00	; 0
    1806:	8d e0       	ldi	r24, 0x0D	; 13
    1808:	af df       	rcall	.-162    	; 0x1768 <pinMode>
    180a:	61 e0       	ldi	r22, 0x01	; 1
    180c:	8a e0       	ldi	r24, 0x0A	; 10
    180e:	47 df       	rcall	.-370    	; 0x169e <digitalWrite>
    1810:	60 e0       	ldi	r22, 0x00	; 0
    1812:	8a e0       	ldi	r24, 0x0A	; 10
    1814:	a9 df       	rcall	.-174    	; 0x1768 <pinMode>
    1816:	11 11       	cpse	r17, r1
    1818:	c8 e0       	ldi	r28, 0x08	; 8
    181a:	d1 11       	cpse	r29, r1
    181c:	c4 60       	ori	r28, 0x04	; 4
    181e:	c1 14       	cp	r12, r1
    1820:	89 e0       	ldi	r24, 0x09	; 9
    1822:	d8 06       	cpc	r13, r24
    1824:	8d e3       	ldi	r24, 0x3D	; 61
    1826:	e8 06       	cpc	r14, r24
    1828:	f1 04       	cpc	r15, r1
    182a:	d0 f5       	brcc	.+116    	; 0x18a0 <spi_begin+0xbe>
    182c:	80 e8       	ldi	r24, 0x80	; 128
    182e:	c8 16       	cp	r12, r24
    1830:	84 e8       	ldi	r24, 0x84	; 132
    1832:	d8 06       	cpc	r13, r24
    1834:	8e e1       	ldi	r24, 0x1E	; 30
    1836:	e8 06       	cpc	r14, r24
    1838:	f1 04       	cpc	r15, r1
    183a:	a0 f5       	brcc	.+104    	; 0x18a4 <spi_begin+0xc2>
    183c:	80 e4       	ldi	r24, 0x40	; 64
    183e:	c8 16       	cp	r12, r24
    1840:	82 e4       	ldi	r24, 0x42	; 66
    1842:	d8 06       	cpc	r13, r24
    1844:	8f e0       	ldi	r24, 0x0F	; 15
    1846:	e8 06       	cpc	r14, r24
    1848:	f1 04       	cpc	r15, r1
    184a:	70 f5       	brcc	.+92     	; 0x18a8 <spi_begin+0xc6>
    184c:	80 e2       	ldi	r24, 0x20	; 32
    184e:	c8 16       	cp	r12, r24
    1850:	81 ea       	ldi	r24, 0xA1	; 161
    1852:	d8 06       	cpc	r13, r24
    1854:	87 e0       	ldi	r24, 0x07	; 7
    1856:	e8 06       	cpc	r14, r24
    1858:	f1 04       	cpc	r15, r1
    185a:	40 f5       	brcc	.+80     	; 0x18ac <spi_begin+0xca>
    185c:	80 e9       	ldi	r24, 0x90	; 144
    185e:	c8 16       	cp	r12, r24
    1860:	80 ed       	ldi	r24, 0xD0	; 208
    1862:	d8 06       	cpc	r13, r24
    1864:	83 e0       	ldi	r24, 0x03	; 3
    1866:	e8 06       	cpc	r14, r24
    1868:	f1 04       	cpc	r15, r1
    186a:	10 f5       	brcc	.+68     	; 0x18b0 <spi_begin+0xce>
    186c:	88 e4       	ldi	r24, 0x48	; 72
    186e:	c8 16       	cp	r12, r24
    1870:	88 ee       	ldi	r24, 0xE8	; 232
    1872:	d8 06       	cpc	r13, r24
    1874:	81 e0       	ldi	r24, 0x01	; 1
    1876:	e8 06       	cpc	r14, r24
    1878:	f1 04       	cpc	r15, r1
    187a:	e0 f4       	brcc	.+56     	; 0x18b4 <spi_begin+0xd2>
    187c:	87 e0       	ldi	r24, 0x07	; 7
    187e:	91 e0       	ldi	r25, 0x01	; 1
    1880:	89 27       	eor	r24, r25
    1882:	98 2f       	mov	r25, r24
    1884:	96 95       	lsr	r25
    1886:	9c 2b       	or	r25, r28
    1888:	90 65       	ori	r25, 0x50	; 80
    188a:	9c bd       	out	0x2c, r25	; 44
    188c:	81 70       	andi	r24, 0x01	; 1
    188e:	8d bd       	out	0x2d, r24	; 45
    1890:	df 91       	pop	r29
    1892:	cf 91       	pop	r28
    1894:	1f 91       	pop	r17
    1896:	ff 90       	pop	r15
    1898:	ef 90       	pop	r14
    189a:	df 90       	pop	r13
    189c:	cf 90       	pop	r12
    189e:	08 95       	ret
    18a0:	80 e0       	ldi	r24, 0x00	; 0
    18a2:	ed cf       	rjmp	.-38     	; 0x187e <spi_begin+0x9c>
    18a4:	81 e0       	ldi	r24, 0x01	; 1
    18a6:	eb cf       	rjmp	.-42     	; 0x187e <spi_begin+0x9c>
    18a8:	82 e0       	ldi	r24, 0x02	; 2
    18aa:	e9 cf       	rjmp	.-46     	; 0x187e <spi_begin+0x9c>
    18ac:	83 e0       	ldi	r24, 0x03	; 3
    18ae:	e7 cf       	rjmp	.-50     	; 0x187e <spi_begin+0x9c>
    18b0:	84 e0       	ldi	r24, 0x04	; 4
    18b2:	e5 cf       	rjmp	.-54     	; 0x187e <spi_begin+0x9c>
    18b4:	85 e0       	ldi	r24, 0x05	; 5
    18b6:	e3 cf       	rjmp	.-58     	; 0x187e <spi_begin+0x9c>

000018b8 <setupADC>:
    18b8:	ea e7       	ldi	r30, 0x7A	; 122
    18ba:	f0 e0       	ldi	r31, 0x00	; 0
    18bc:	80 81       	ld	r24, Z
    18be:	84 60       	ori	r24, 0x04	; 4
    18c0:	80 83       	st	Z, r24
    18c2:	80 81       	ld	r24, Z
    18c4:	82 60       	ori	r24, 0x02	; 2
    18c6:	80 83       	st	Z, r24
    18c8:	80 81       	ld	r24, Z
    18ca:	8e 7f       	andi	r24, 0xFE	; 254
    18cc:	80 83       	st	Z, r24
    18ce:	80 81       	ld	r24, Z
    18d0:	80 68       	ori	r24, 0x80	; 128
    18d2:	80 83       	st	Z, r24
    18d4:	08 95       	ret

000018d6 <nrf24_csn_digitalWrite>:
    18d6:	68 2f       	mov	r22, r24
    18d8:	8a e0       	ldi	r24, 0x0A	; 10
    18da:	e1 ce       	rjmp	.-574    	; 0x169e <digitalWrite>

000018dc <shouldSkipPin>:
    18dc:	98 2f       	mov	r25, r24
    18de:	8d 30       	cpi	r24, 0x0D	; 13
    18e0:	a9 f0       	breq	.+42     	; 0x190c <shouldSkipPin+0x30>
    18e2:	82 30       	cpi	r24, 0x02	; 2
    18e4:	98 f0       	brcs	.+38     	; 0x190c <shouldSkipPin+0x30>
    18e6:	80 91 d5 03 	lds	r24, 0x03D5	; 0x8003d5 <usingI2C>
    18ea:	88 23       	and	r24, r24
    18ec:	21 f0       	breq	.+8      	; 0x18f6 <shouldSkipPin+0x1a>
    18ee:	2e ee       	ldi	r18, 0xEE	; 238
    18f0:	29 0f       	add	r18, r25
    18f2:	22 30       	cpi	r18, 0x02	; 2
    18f4:	68 f0       	brcs	.+26     	; 0x1910 <shouldSkipPin+0x34>
    18f6:	86 ef       	ldi	r24, 0xF6	; 246
    18f8:	89 0f       	add	r24, r25
    18fa:	84 30       	cpi	r24, 0x04	; 4
    18fc:	38 f0       	brcs	.+14     	; 0x190c <shouldSkipPin+0x30>
    18fe:	81 e0       	ldi	r24, 0x01	; 1
    1900:	98 30       	cpi	r25, 0x08	; 8
    1902:	31 f0       	breq	.+12     	; 0x1910 <shouldSkipPin+0x34>
    1904:	92 30       	cpi	r25, 0x02	; 2
    1906:	21 f0       	breq	.+8      	; 0x1910 <shouldSkipPin+0x34>
    1908:	80 e0       	ldi	r24, 0x00	; 0
    190a:	08 95       	ret
    190c:	81 e0       	ldi	r24, 0x01	; 1
    190e:	08 95       	ret
    1910:	08 95       	ret

00001912 <stopSearching>:
    1912:	0f 93       	push	r16
    1914:	1f 93       	push	r17
    1916:	cf 93       	push	r28
    1918:	80 91 ae 02 	lds	r24, 0x02AE	; 0x8002ae <lookingForDigital>
    191c:	88 23       	and	r24, r24
    191e:	91 f0       	breq	.+36     	; 0x1944 <stopSearching+0x32>
    1920:	0a e9       	ldi	r16, 0x9A	; 154
    1922:	12 e0       	ldi	r17, 0x02	; 2
    1924:	c0 e0       	ldi	r28, 0x00	; 0
    1926:	8c 2f       	mov	r24, r28
    1928:	d9 df       	rcall	.-78     	; 0x18dc <shouldSkipPin>
    192a:	81 11       	cpse	r24, r1
    192c:	03 c0       	rjmp	.+6      	; 0x1934 <stopSearching+0x22>
    192e:	61 e0       	ldi	r22, 0x01	; 1
    1930:	8c 2f       	mov	r24, r28
    1932:	1a df       	rcall	.-460    	; 0x1768 <pinMode>
    1934:	8c 2f       	mov	r24, r28
    1936:	d3 de       	rcall	.-602    	; 0x16de <digitalRead>
    1938:	f8 01       	movw	r30, r16
    193a:	81 93       	st	Z+, r24
    193c:	8f 01       	movw	r16, r30
    193e:	cf 5f       	subi	r28, 0xFF	; 255
    1940:	c4 31       	cpi	r28, 0x14	; 20
    1942:	89 f7       	brne	.-30     	; 0x1926 <stopSearching+0x14>
    1944:	10 92 99 02 	sts	0x0299, r1	; 0x800299 <lookingForAnalog>
    1948:	10 92 ae 02 	sts	0x02AE, r1	; 0x8002ae <lookingForDigital>
    194c:	cf 91       	pop	r28
    194e:	1f 91       	pop	r17
    1950:	0f 91       	pop	r16
    1952:	08 95       	ret

00001954 <readDrumExt>:
    1954:	cf 93       	push	r28
    1956:	df 93       	push	r29
    1958:	ec 01       	movw	r28, r24
    195a:	fb 01       	movw	r30, r22
    195c:	80 81       	ld	r24, Z
    195e:	80 52       	subi	r24, 0x20	; 32
    1960:	99 0b       	sbc	r25, r25
    1962:	88 0f       	add	r24, r24
    1964:	88 0f       	add	r24, r24
    1966:	1c 82       	std	Y+4, r1	; 0x04
    1968:	8d 83       	std	Y+5, r24	; 0x05
    196a:	81 81       	ldd	r24, Z+1	; 0x01
    196c:	80 52       	subi	r24, 0x20	; 32
    196e:	99 0b       	sbc	r25, r25
    1970:	88 0f       	add	r24, r24
    1972:	88 0f       	add	r24, r24
    1974:	1e 82       	std	Y+6, r1	; 0x06
    1976:	8f 83       	std	Y+7, r24	; 0x07
    1978:	24 81       	ldd	r18, Z+4	; 0x04
    197a:	35 81       	ldd	r19, Z+5	; 0x05
    197c:	20 95       	com	r18
    197e:	30 95       	com	r19
    1980:	80 91 5c 04 	lds	r24, 0x045C	; 0x80045c <fullDeviceType>
    1984:	83 32       	cpi	r24, 0x23	; 35
    1986:	60 f0       	brcs	.+24     	; 0x19a0 <readDrumExt+0x4c>
    1988:	83 81       	ldd	r24, Z+3	; 0x03
    198a:	81 ff       	sbrs	r24, 1
    198c:	09 c0       	rjmp	.+18     	; 0x19a0 <readDrumExt+0x4c>
    198e:	80 95       	com	r24
    1990:	80 7e       	andi	r24, 0xE0	; 224
    1992:	92 81       	ldd	r25, Z+2	; 0x02
    1994:	96 95       	lsr	r25
    1996:	9e 73       	andi	r25, 0x3E	; 62
    1998:	9a 31       	cpi	r25, 0x1A	; 26
    199a:	28 f5       	brcc	.+74     	; 0x19e6 <readDrumExt+0x92>
    199c:	92 31       	cpi	r25, 0x12	; 18
    199e:	41 f1       	breq	.+80     	; 0x19f0 <readDrumExt+0x9c>
    19a0:	85 81       	ldd	r24, Z+5	; 0x05
    19a2:	98 2f       	mov	r25, r24
    19a4:	96 95       	lsr	r25
    19a6:	96 95       	lsr	r25
    19a8:	96 95       	lsr	r25
    19aa:	61 e0       	ldi	r22, 0x01	; 1
    19ac:	96 27       	eor	r25, r22
    19ae:	91 70       	andi	r25, 0x01	; 1
    19b0:	b9 2f       	mov	r27, r25
    19b2:	b2 95       	swap	r27
    19b4:	bb 0f       	add	r27, r27
    19b6:	b0 7e       	andi	r27, 0xE0	; 224
    19b8:	a0 e0       	ldi	r26, 0x00	; 0
    19ba:	36 7d       	andi	r19, 0xD6	; 214
    19bc:	2a 2b       	or	r18, r26
    19be:	3b 2b       	or	r19, r27
    19c0:	82 95       	swap	r24
    19c2:	86 95       	lsr	r24
    19c4:	87 70       	andi	r24, 0x07	; 7
    19c6:	86 27       	eor	r24, r22
    19c8:	81 70       	andi	r24, 0x01	; 1
    19ca:	58 2f       	mov	r21, r24
    19cc:	55 0f       	add	r21, r21
    19ce:	55 0f       	add	r21, r21
    19d0:	55 0f       	add	r21, r21
    19d2:	40 e0       	ldi	r20, 0x00	; 0
    19d4:	24 2b       	or	r18, r20
    19d6:	35 2b       	or	r19, r21
    19d8:	30 93 c4 01 	sts	0x01C4, r19	; 0x8001c4 <buttons+0x1>
    19dc:	20 93 c3 01 	sts	0x01C3, r18	; 0x8001c3 <buttons>
    19e0:	df 91       	pop	r29
    19e2:	cf 91       	pop	r28
    19e4:	08 95       	ret
    19e6:	9e 31       	cpi	r25, 0x1E	; 30
    19e8:	d9 f6       	brne	.-74     	; 0x19a0 <readDrumExt+0x4c>
    19ea:	80 93 38 02 	sts	0x0238, r24	; 0x800238 <drumVelocity>
    19ee:	d8 cf       	rjmp	.-80     	; 0x19a0 <readDrumExt+0x4c>
    19f0:	80 93 3c 02 	sts	0x023C, r24	; 0x80023c <drumVelocity+0x4>
    19f4:	d5 cf       	rjmp	.-86     	; 0x19a0 <readDrumExt+0x4c>

000019f6 <readGuitarExt>:
    19f6:	fc 01       	movw	r30, r24
    19f8:	db 01       	movw	r26, r22
    19fa:	8c 91       	ld	r24, X
    19fc:	88 0f       	add	r24, r24
    19fe:	88 0f       	add	r24, r24
    1a00:	80 58       	subi	r24, 0x80	; 128
    1a02:	14 82       	std	Z+4, r1	; 0x04
    1a04:	85 83       	std	Z+5, r24	; 0x05
    1a06:	11 96       	adiw	r26, 0x01	; 1
    1a08:	8c 91       	ld	r24, X
    1a0a:	11 97       	sbiw	r26, 0x01	; 1
    1a0c:	88 0f       	add	r24, r24
    1a0e:	88 0f       	add	r24, r24
    1a10:	80 58       	subi	r24, 0x80	; 128
    1a12:	16 82       	std	Z+6, r1	; 0x06
    1a14:	87 83       	std	Z+7, r24	; 0x07
    1a16:	13 96       	adiw	r26, 0x03	; 3
    1a18:	8c 91       	ld	r24, X
    1a1a:	13 97       	sbiw	r26, 0x03	; 3
    1a1c:	8f 71       	andi	r24, 0x1F	; 31
    1a1e:	8e 50       	subi	r24, 0x0E	; 14
    1a20:	99 0b       	sbc	r25, r25
    1a22:	97 fd       	sbrc	r25, 7
    1a24:	20 c0       	rjmp	.+64     	; 0x1a66 <readGuitarExt+0x70>
    1a26:	91 87       	std	Z+9, r25	; 0x09
    1a28:	80 87       	std	Z+8, r24	; 0x08
    1a2a:	20 85       	ldd	r18, Z+8	; 0x08
    1a2c:	31 85       	ldd	r19, Z+9	; 0x09
    1a2e:	c9 01       	movw	r24, r18
    1a30:	88 0f       	add	r24, r24
    1a32:	99 1f       	adc	r25, r25
    1a34:	82 0f       	add	r24, r18
    1a36:	93 1f       	adc	r25, r19
    1a38:	80 32       	cpi	r24, 0x20	; 32
    1a3a:	91 05       	cpc	r25, r1
    1a3c:	bc f4       	brge	.+46     	; 0x1a6c <readGuitarExt+0x76>
    1a3e:	91 87       	std	Z+9, r25	; 0x09
    1a40:	80 87       	std	Z+8, r24	; 0x08
    1a42:	80 85       	ldd	r24, Z+8	; 0x08
    1a44:	91 85       	ldd	r25, Z+9	; 0x09
    1a46:	40 97       	sbiw	r24, 0x10	; 16
    1a48:	88 0f       	add	r24, r24
    1a4a:	88 0f       	add	r24, r24
    1a4c:	88 0f       	add	r24, r24
    1a4e:	10 86       	std	Z+8, r1	; 0x08
    1a50:	81 87       	std	Z+9, r24	; 0x09
    1a52:	14 96       	adiw	r26, 0x04	; 4
    1a54:	8d 91       	ld	r24, X+
    1a56:	9c 91       	ld	r25, X
    1a58:	80 95       	com	r24
    1a5a:	90 95       	com	r25
    1a5c:	90 93 c4 01 	sts	0x01C4, r25	; 0x8001c4 <buttons+0x1>
    1a60:	80 93 c3 01 	sts	0x01C3, r24	; 0x8001c3 <buttons>
    1a64:	08 95       	ret
    1a66:	11 86       	std	Z+9, r1	; 0x09
    1a68:	10 86       	std	Z+8, r1	; 0x08
    1a6a:	df cf       	rjmp	.-66     	; 0x1a2a <readGuitarExt+0x34>
    1a6c:	8f e1       	ldi	r24, 0x1F	; 31
    1a6e:	90 e0       	ldi	r25, 0x00	; 0
    1a70:	e6 cf       	rjmp	.-52     	; 0x1a3e <readGuitarExt+0x48>

00001a72 <readClassicExtHighRes>:
    1a72:	fc 01       	movw	r30, r24
    1a74:	db 01       	movw	r26, r22
    1a76:	8c 91       	ld	r24, X
    1a78:	80 58       	subi	r24, 0x80	; 128
    1a7a:	99 0b       	sbc	r25, r25
    1a7c:	14 82       	std	Z+4, r1	; 0x04
    1a7e:	85 83       	std	Z+5, r24	; 0x05
    1a80:	12 96       	adiw	r26, 0x02	; 2
    1a82:	8c 91       	ld	r24, X
    1a84:	12 97       	sbiw	r26, 0x02	; 2
    1a86:	80 58       	subi	r24, 0x80	; 128
    1a88:	99 0b       	sbc	r25, r25
    1a8a:	16 82       	std	Z+6, r1	; 0x06
    1a8c:	87 83       	std	Z+7, r24	; 0x07
    1a8e:	11 96       	adiw	r26, 0x01	; 1
    1a90:	8c 91       	ld	r24, X
    1a92:	11 97       	sbiw	r26, 0x01	; 1
    1a94:	80 58       	subi	r24, 0x80	; 128
    1a96:	99 0b       	sbc	r25, r25
    1a98:	10 86       	std	Z+8, r1	; 0x08
    1a9a:	81 87       	std	Z+9, r24	; 0x09
    1a9c:	13 96       	adiw	r26, 0x03	; 3
    1a9e:	8c 91       	ld	r24, X
    1aa0:	13 97       	sbiw	r26, 0x03	; 3
    1aa2:	80 58       	subi	r24, 0x80	; 128
    1aa4:	99 0b       	sbc	r25, r25
    1aa6:	12 86       	std	Z+10, r1	; 0x0a
    1aa8:	83 87       	std	Z+11, r24	; 0x0b
    1aaa:	14 96       	adiw	r26, 0x04	; 4
    1aac:	8c 91       	ld	r24, X
    1aae:	14 97       	sbiw	r26, 0x04	; 4
    1ab0:	82 83       	std	Z+2, r24	; 0x02
    1ab2:	15 96       	adiw	r26, 0x05	; 5
    1ab4:	8c 91       	ld	r24, X
    1ab6:	15 97       	sbiw	r26, 0x05	; 5
    1ab8:	83 83       	std	Z+3, r24	; 0x03
    1aba:	16 96       	adiw	r26, 0x06	; 6
    1abc:	8d 91       	ld	r24, X+
    1abe:	9c 91       	ld	r25, X
    1ac0:	80 95       	com	r24
    1ac2:	90 95       	com	r25
    1ac4:	90 93 c4 01 	sts	0x01C4, r25	; 0x8001c4 <buttons+0x1>
    1ac8:	80 93 c3 01 	sts	0x01C3, r24	; 0x8001c3 <buttons>
    1acc:	08 95       	ret

00001ace <readClassicExt>:
    1ace:	fc 01       	movw	r30, r24
    1ad0:	db 01       	movw	r26, r22
    1ad2:	8c 91       	ld	r24, X
    1ad4:	8f 73       	andi	r24, 0x3F	; 63
    1ad6:	80 52       	subi	r24, 0x20	; 32
    1ad8:	99 0b       	sbc	r25, r25
    1ada:	95 83       	std	Z+5, r25	; 0x05
    1adc:	84 83       	std	Z+4, r24	; 0x04
    1ade:	11 96       	adiw	r26, 0x01	; 1
    1ae0:	8c 91       	ld	r24, X
    1ae2:	11 97       	sbiw	r26, 0x01	; 1
    1ae4:	8f 73       	andi	r24, 0x3F	; 63
    1ae6:	80 52       	subi	r24, 0x20	; 32
    1ae8:	99 0b       	sbc	r25, r25
    1aea:	97 83       	std	Z+7, r25	; 0x07
    1aec:	86 83       	std	Z+6, r24	; 0x06
    1aee:	8c 91       	ld	r24, X
    1af0:	90 e0       	ldi	r25, 0x00	; 0
    1af2:	23 e0       	ldi	r18, 0x03	; 3
    1af4:	95 95       	asr	r25
    1af6:	87 95       	ror	r24
    1af8:	2a 95       	dec	r18
    1afa:	e1 f7       	brne	.-8      	; 0x1af4 <readClassicExt+0x26>
    1afc:	88 71       	andi	r24, 0x18	; 24
    1afe:	99 27       	eor	r25, r25
    1b00:	11 96       	adiw	r26, 0x01	; 1
    1b02:	2c 91       	ld	r18, X
    1b04:	11 97       	sbiw	r26, 0x01	; 1
    1b06:	30 e0       	ldi	r19, 0x00	; 0
    1b08:	45 e0       	ldi	r20, 0x05	; 5
    1b0a:	35 95       	asr	r19
    1b0c:	27 95       	ror	r18
    1b0e:	4a 95       	dec	r20
    1b10:	e1 f7       	brne	.-8      	; 0x1b0a <readClassicExt+0x3c>
    1b12:	26 70       	andi	r18, 0x06	; 6
    1b14:	33 27       	eor	r19, r19
    1b16:	82 2b       	or	r24, r18
    1b18:	93 2b       	or	r25, r19
    1b1a:	12 96       	adiw	r26, 0x02	; 2
    1b1c:	2c 91       	ld	r18, X
    1b1e:	12 97       	sbiw	r26, 0x02	; 2
    1b20:	22 1f       	adc	r18, r18
    1b22:	22 27       	eor	r18, r18
    1b24:	22 1f       	adc	r18, r18
    1b26:	82 2b       	or	r24, r18
    1b28:	40 97       	sbiw	r24, 0x10	; 16
    1b2a:	91 87       	std	Z+9, r25	; 0x09
    1b2c:	80 87       	std	Z+8, r24	; 0x08
    1b2e:	12 96       	adiw	r26, 0x02	; 2
    1b30:	8c 91       	ld	r24, X
    1b32:	12 97       	sbiw	r26, 0x02	; 2
    1b34:	8f 71       	andi	r24, 0x1F	; 31
    1b36:	80 51       	subi	r24, 0x10	; 16
    1b38:	99 0b       	sbc	r25, r25
    1b3a:	93 87       	std	Z+11, r25	; 0x0b
    1b3c:	82 87       	std	Z+10, r24	; 0x0a
    1b3e:	12 96       	adiw	r26, 0x02	; 2
    1b40:	8c 91       	ld	r24, X
    1b42:	12 97       	sbiw	r26, 0x02	; 2
    1b44:	86 95       	lsr	r24
    1b46:	86 95       	lsr	r24
    1b48:	88 71       	andi	r24, 0x18	; 24
    1b4a:	13 96       	adiw	r26, 0x03	; 3
    1b4c:	9c 91       	ld	r25, X
    1b4e:	13 97       	sbiw	r26, 0x03	; 3
    1b50:	92 95       	swap	r25
    1b52:	96 95       	lsr	r25
    1b54:	97 70       	andi	r25, 0x07	; 7
    1b56:	89 2b       	or	r24, r25
    1b58:	82 83       	std	Z+2, r24	; 0x02
    1b5a:	13 96       	adiw	r26, 0x03	; 3
    1b5c:	8c 91       	ld	r24, X
    1b5e:	13 97       	sbiw	r26, 0x03	; 3
    1b60:	8f 71       	andi	r24, 0x1F	; 31
    1b62:	83 83       	std	Z+3, r24	; 0x03
    1b64:	14 96       	adiw	r26, 0x04	; 4
    1b66:	8d 91       	ld	r24, X+
    1b68:	9c 91       	ld	r25, X
    1b6a:	80 95       	com	r24
    1b6c:	90 95       	com	r25
    1b6e:	90 93 c4 01 	sts	0x01C4, r25	; 0x8001c4 <buttons+0x1>
    1b72:	80 93 c3 01 	sts	0x01C3, r24	; 0x8001c3 <buttons>
    1b76:	08 95       	ret

00001b78 <readDJExt>:
    1b78:	dc 01       	movw	r26, r24
    1b7a:	fb 01       	movw	r30, r22
    1b7c:	90 81       	ld	r25, Z
    1b7e:	81 81       	ldd	r24, Z+1	; 0x01
    1b80:	82 95       	swap	r24
    1b82:	86 95       	lsr	r24
    1b84:	86 70       	andi	r24, 0x06	; 6
    1b86:	29 2f       	mov	r18, r25
    1b88:	26 95       	lsr	r18
    1b8a:	26 95       	lsr	r18
    1b8c:	26 95       	lsr	r18
    1b8e:	28 71       	andi	r18, 0x18	; 24
    1b90:	82 2b       	or	r24, r18
    1b92:	22 81       	ldd	r18, Z+2	; 0x02
    1b94:	22 1f       	adc	r18, r18
    1b96:	22 27       	eor	r18, r18
    1b98:	22 1f       	adc	r18, r18
    1b9a:	82 2b       	or	r24, r18
    1b9c:	99 0f       	add	r25, r25
    1b9e:	99 0f       	add	r25, r25
    1ba0:	90 58       	subi	r25, 0x80	; 128
    1ba2:	14 96       	adiw	r26, 0x04	; 4
    1ba4:	1c 92       	st	X, r1
    1ba6:	14 97       	sbiw	r26, 0x04	; 4
    1ba8:	15 96       	adiw	r26, 0x05	; 5
    1baa:	9c 93       	st	X, r25
    1bac:	15 97       	sbiw	r26, 0x05	; 5
    1bae:	91 81       	ldd	r25, Z+1	; 0x01
    1bb0:	99 0f       	add	r25, r25
    1bb2:	99 0f       	add	r25, r25
    1bb4:	90 58       	subi	r25, 0x80	; 128
    1bb6:	16 96       	adiw	r26, 0x06	; 6
    1bb8:	1c 92       	st	X, r1
    1bba:	16 97       	sbiw	r26, 0x06	; 6
    1bbc:	17 96       	adiw	r26, 0x07	; 7
    1bbe:	9c 93       	st	X, r25
    1bc0:	17 97       	sbiw	r26, 0x07	; 7
    1bc2:	94 81       	ldd	r25, Z+4	; 0x04
    1bc4:	23 81       	ldd	r18, Z+3	; 0x03
    1bc6:	90 ff       	sbrs	r25, 0
    1bc8:	3a c0       	rjmp	.+116    	; 0x1c3e <readDJExt+0xc6>
    1bca:	30 e0       	ldi	r19, 0x00	; 0
    1bcc:	20 95       	com	r18
    1bce:	30 95       	com	r19
    1bd0:	2f 71       	andi	r18, 0x1F	; 31
    1bd2:	33 27       	eor	r19, r19
    1bd4:	20 5e       	subi	r18, 0xE0	; 224
    1bd6:	3f 4f       	sbci	r19, 0xFF	; 255
    1bd8:	19 96       	adiw	r26, 0x09	; 9
    1bda:	3c 93       	st	X, r19
    1bdc:	2e 93       	st	-X, r18
    1bde:	18 97       	sbiw	r26, 0x08	; 8
    1be0:	08 2e       	mov	r0, r24
    1be2:	00 0c       	add	r0, r0
    1be4:	99 0b       	sbc	r25, r25
    1be6:	22 81       	ldd	r18, Z+2	; 0x02
    1be8:	20 ff       	sbrs	r18, 0
    1bea:	30 c0       	rjmp	.+96     	; 0x1c4c <readDJExt+0xd4>
    1bec:	2f e3       	ldi	r18, 0x3F	; 63
    1bee:	30 e0       	ldi	r19, 0x00	; 0
    1bf0:	28 1b       	sub	r18, r24
    1bf2:	39 0b       	sbc	r19, r25
    1bf4:	1b 96       	adiw	r26, 0x0b	; 11
    1bf6:	3c 93       	st	X, r19
    1bf8:	2e 93       	st	-X, r18
    1bfa:	1a 97       	sbiw	r26, 0x0a	; 10
    1bfc:	82 81       	ldd	r24, Z+2	; 0x02
    1bfe:	86 95       	lsr	r24
    1c00:	86 95       	lsr	r24
    1c02:	88 71       	andi	r24, 0x18	; 24
    1c04:	93 81       	ldd	r25, Z+3	; 0x03
    1c06:	92 95       	swap	r25
    1c08:	96 95       	lsr	r25
    1c0a:	97 70       	andi	r25, 0x07	; 7
    1c0c:	89 2b       	or	r24, r25
    1c0e:	12 96       	adiw	r26, 0x02	; 2
    1c10:	8c 93       	st	X, r24
    1c12:	12 97       	sbiw	r26, 0x02	; 2
    1c14:	82 81       	ldd	r24, Z+2	; 0x02
    1c16:	90 e0       	ldi	r25, 0x00	; 0
    1c18:	95 95       	asr	r25
    1c1a:	87 95       	ror	r24
    1c1c:	8f 70       	andi	r24, 0x0F	; 15
    1c1e:	13 96       	adiw	r26, 0x03	; 3
    1c20:	8c 93       	st	X, r24
    1c22:	84 81       	ldd	r24, Z+4	; 0x04
    1c24:	95 81       	ldd	r25, Z+5	; 0x05
    1c26:	98 27       	eor	r25, r24
    1c28:	89 27       	eor	r24, r25
    1c2a:	98 27       	eor	r25, r24
    1c2c:	80 95       	com	r24
    1c2e:	90 95       	com	r25
    1c30:	8d 7c       	andi	r24, 0xCD	; 205
    1c32:	93 76       	andi	r25, 0x63	; 99
    1c34:	90 93 c4 01 	sts	0x01C4, r25	; 0x8001c4 <buttons+0x1>
    1c38:	80 93 c3 01 	sts	0x01C3, r24	; 0x8001c3 <buttons>
    1c3c:	08 95       	ret
    1c3e:	92 2f       	mov	r25, r18
    1c40:	9f 71       	andi	r25, 0x1F	; 31
    1c42:	20 e2       	ldi	r18, 0x20	; 32
    1c44:	30 e0       	ldi	r19, 0x00	; 0
    1c46:	29 1b       	sub	r18, r25
    1c48:	31 09       	sbc	r19, r1
    1c4a:	c6 cf       	rjmp	.-116    	; 0x1bd8 <readDJExt+0x60>
    1c4c:	20 e2       	ldi	r18, 0x20	; 32
    1c4e:	30 e0       	ldi	r19, 0x00	; 0
    1c50:	cf cf       	rjmp	.-98     	; 0x1bf0 <readDJExt+0x78>

00001c52 <readUDrawExt>:
    1c52:	cf 93       	push	r28
    1c54:	df 93       	push	r29
    1c56:	fc 01       	movw	r30, r24
    1c58:	eb 01       	movw	r28, r22
    1c5a:	8a 81       	ldd	r24, Y+2	; 0x02
    1c5c:	90 e0       	ldi	r25, 0x00	; 0
    1c5e:	98 2f       	mov	r25, r24
    1c60:	88 27       	eor	r24, r24
    1c62:	88 27       	eor	r24, r24
    1c64:	9f 70       	andi	r25, 0x0F	; 15
    1c66:	68 81       	ld	r22, Y
    1c68:	86 2b       	or	r24, r22
    1c6a:	95 83       	std	Z+5, r25	; 0x05
    1c6c:	84 83       	std	Z+4, r24	; 0x04
    1c6e:	8a 81       	ldd	r24, Y+2	; 0x02
    1c70:	20 e1       	ldi	r18, 0x10	; 16
    1c72:	82 9f       	mul	r24, r18
    1c74:	c0 01       	movw	r24, r0
    1c76:	11 24       	eor	r1, r1
    1c78:	88 27       	eor	r24, r24
    1c7a:	9f 70       	andi	r25, 0x0F	; 15
    1c7c:	69 81       	ldd	r22, Y+1	; 0x01
    1c7e:	86 2b       	or	r24, r22
    1c80:	97 83       	std	Z+7, r25	; 0x07
    1c82:	86 83       	std	Z+6, r24	; 0x06
    1c84:	8b 81       	ldd	r24, Y+3	; 0x03
    1c86:	83 83       	std	Z+3, r24	; 0x03
    1c88:	8d 81       	ldd	r24, Y+5	; 0x05
    1c8a:	81 fb       	bst	r24, 1
    1c8c:	99 27       	eor	r25, r25
    1c8e:	90 f9       	bld	r25, 0
    1c90:	39 2f       	mov	r19, r25
    1c92:	32 95       	swap	r19
    1c94:	33 0f       	add	r19, r19
    1c96:	33 0f       	add	r19, r19
    1c98:	30 7c       	andi	r19, 0xC0	; 192
    1c9a:	20 e0       	ldi	r18, 0x00	; 0
    1c9c:	98 2f       	mov	r25, r24
    1c9e:	96 95       	lsr	r25
    1ca0:	96 95       	lsr	r25
    1ca2:	61 e0       	ldi	r22, 0x01	; 1
    1ca4:	96 27       	eor	r25, r22
    1ca6:	91 70       	andi	r25, 0x01	; 1
    1ca8:	b9 2f       	mov	r27, r25
    1caa:	b2 95       	swap	r27
    1cac:	bb 0f       	add	r27, r27
    1cae:	b0 7e       	andi	r27, 0xE0	; 224
    1cb0:	a0 e0       	ldi	r26, 0x00	; 0
    1cb2:	2a 2b       	or	r18, r26
    1cb4:	3b 2b       	or	r19, r27
    1cb6:	81 70       	andi	r24, 0x01	; 1
    1cb8:	58 2f       	mov	r21, r24
    1cba:	52 95       	swap	r21
    1cbc:	50 7f       	andi	r21, 0xF0	; 240
    1cbe:	42 2f       	mov	r20, r18
    1cc0:	53 2b       	or	r21, r19
    1cc2:	50 93 c4 01 	sts	0x01C4, r21	; 0x8001c4 <buttons+0x1>
    1cc6:	40 93 c3 01 	sts	0x01C3, r20	; 0x8001c3 <buttons>
    1cca:	df 91       	pop	r29
    1ccc:	cf 91       	pop	r28
    1cce:	08 95       	ret

00001cd0 <readDrawsomeExt>:
    1cd0:	fc 01       	movw	r30, r24
    1cd2:	db 01       	movw	r26, r22
    1cd4:	8d 91       	ld	r24, X+
    1cd6:	9c 91       	ld	r25, X
    1cd8:	11 97       	sbiw	r26, 0x01	; 1
    1cda:	95 83       	std	Z+5, r25	; 0x05
    1cdc:	84 83       	std	Z+4, r24	; 0x04
    1cde:	12 96       	adiw	r26, 0x02	; 2
    1ce0:	8d 91       	ld	r24, X+
    1ce2:	9c 91       	ld	r25, X
    1ce4:	13 97       	sbiw	r26, 0x03	; 3
    1ce6:	97 83       	std	Z+7, r25	; 0x07
    1ce8:	86 83       	std	Z+6, r24	; 0x06
    1cea:	14 96       	adiw	r26, 0x04	; 4
    1cec:	8c 91       	ld	r24, X
    1cee:	83 83       	std	Z+3, r24	; 0x03
    1cf0:	08 95       	ret

00001cf2 <readTataconExt>:
    1cf2:	fb 01       	movw	r30, r22
    1cf4:	84 81       	ldd	r24, Z+4	; 0x04
    1cf6:	95 81       	ldd	r25, Z+5	; 0x05
    1cf8:	98 27       	eor	r25, r24
    1cfa:	89 27       	eor	r24, r25
    1cfc:	98 27       	eor	r25, r24
    1cfe:	80 95       	com	r24
    1d00:	90 95       	com	r25
    1d02:	90 93 c4 01 	sts	0x01C4, r25	; 0x8001c4 <buttons+0x1>
    1d06:	80 93 c3 01 	sts	0x01C3, r24	; 0x8001c3 <buttons>
    1d0a:	08 95       	ret

00001d0c <nrf24_flush_tx>:
    1d0c:	80 e0       	ldi	r24, 0x00	; 0
    1d0e:	e3 dd       	rcall	.-1082   	; 0x18d6 <nrf24_csn_digitalWrite>
    1d10:	81 ee       	ldi	r24, 0xE1	; 225
    1d12:	81 dc       	rcall	.-1790   	; 0x1616 <spi_transfer>
    1d14:	81 e0       	ldi	r24, 0x01	; 1
    1d16:	df cd       	rjmp	.-1090   	; 0x18d6 <nrf24_csn_digitalWrite>

00001d18 <nrf24_flush_rx>:
    1d18:	80 e0       	ldi	r24, 0x00	; 0
    1d1a:	dd dd       	rcall	.-1094   	; 0x18d6 <nrf24_csn_digitalWrite>
    1d1c:	82 ee       	ldi	r24, 0xE2	; 226
    1d1e:	7b dc       	rcall	.-1802   	; 0x1616 <spi_transfer>
    1d20:	81 e0       	ldi	r24, 0x01	; 1
    1d22:	d9 cd       	rjmp	.-1102   	; 0x18d6 <nrf24_csn_digitalWrite>

00001d24 <nrf24_toggle_features>:
    1d24:	80 e0       	ldi	r24, 0x00	; 0
    1d26:	d7 dd       	rcall	.-1106   	; 0x18d6 <nrf24_csn_digitalWrite>
    1d28:	80 e5       	ldi	r24, 0x50	; 80
    1d2a:	75 dc       	rcall	.-1814   	; 0x1616 <spi_transfer>
    1d2c:	83 e7       	ldi	r24, 0x73	; 115
    1d2e:	73 dc       	rcall	.-1818   	; 0x1616 <spi_transfer>
    1d30:	81 e0       	ldi	r24, 0x01	; 1
    1d32:	d1 cd       	rjmp	.-1118   	; 0x18d6 <nrf24_csn_digitalWrite>

00001d34 <nrf24_getStatus>:
    1d34:	cf 93       	push	r28
    1d36:	80 e0       	ldi	r24, 0x00	; 0
    1d38:	ce dd       	rcall	.-1124   	; 0x18d6 <nrf24_csn_digitalWrite>
    1d3a:	8f ef       	ldi	r24, 0xFF	; 255
    1d3c:	6c dc       	rcall	.-1832   	; 0x1616 <spi_transfer>
    1d3e:	c8 2f       	mov	r28, r24
    1d40:	81 e0       	ldi	r24, 0x01	; 1
    1d42:	c9 dd       	rcall	.-1134   	; 0x18d6 <nrf24_csn_digitalWrite>
    1d44:	8c 2f       	mov	r24, r28
    1d46:	cf 91       	pop	r28
    1d48:	08 95       	ret

00001d4a <nrf24_transmitSync>:
    1d4a:	0f 93       	push	r16
    1d4c:	1f 93       	push	r17
    1d4e:	cf 93       	push	r28
    1d50:	df 93       	push	r29
    1d52:	ec 01       	movw	r28, r24
    1d54:	8c 01       	movw	r16, r24
    1d56:	06 0f       	add	r16, r22
    1d58:	11 1d       	adc	r17, r1
    1d5a:	c0 17       	cp	r28, r16
    1d5c:	d1 07       	cpc	r29, r17
    1d5e:	29 f4       	brne	.+10     	; 0x1d6a <nrf24_transmitSync+0x20>
    1d60:	df 91       	pop	r29
    1d62:	cf 91       	pop	r28
    1d64:	1f 91       	pop	r17
    1d66:	0f 91       	pop	r16
    1d68:	08 95       	ret
    1d6a:	89 91       	ld	r24, Y+
    1d6c:	54 dc       	rcall	.-1880   	; 0x1616 <spi_transfer>
    1d6e:	f5 cf       	rjmp	.-22     	; 0x1d5a <nrf24_transmitSync+0x10>

00001d70 <nrf24_configRegister>:
    1d70:	cf 93       	push	r28
    1d72:	df 93       	push	r29
    1d74:	d8 2f       	mov	r29, r24
    1d76:	c6 2f       	mov	r28, r22
    1d78:	80 e0       	ldi	r24, 0x00	; 0
    1d7a:	ad dd       	rcall	.-1190   	; 0x18d6 <nrf24_csn_digitalWrite>
    1d7c:	8d 2f       	mov	r24, r29
    1d7e:	80 62       	ori	r24, 0x20	; 32
    1d80:	4a dc       	rcall	.-1900   	; 0x1616 <spi_transfer>
    1d82:	8c 2f       	mov	r24, r28
    1d84:	48 dc       	rcall	.-1904   	; 0x1616 <spi_transfer>
    1d86:	81 e0       	ldi	r24, 0x01	; 1
    1d88:	df 91       	pop	r29
    1d8a:	cf 91       	pop	r28
    1d8c:	a4 cd       	rjmp	.-1208   	; 0x18d6 <nrf24_csn_digitalWrite>

00001d8e <q15_mul>:
    1d8e:	cf 93       	push	r28
    1d90:	df 93       	push	r29
    1d92:	00 d0       	rcall	.+0      	; 0x1d94 <q15_mul+0x6>
    1d94:	00 d0       	rcall	.+0      	; 0x1d96 <q15_mul+0x8>
    1d96:	cd b7       	in	r28, 0x3d	; 61
    1d98:	de b7       	in	r29, 0x3e	; 62
    1d9a:	db 01       	movw	r26, r22
    1d9c:	9c 01       	movw	r18, r24
    1d9e:	0e 94 be 2b 	call	0x577c	; 0x577c <__mulhisi3>
    1da2:	69 83       	std	Y+1, r22	; 0x01
    1da4:	7a 83       	std	Y+2, r23	; 0x02
    1da6:	8b 83       	std	Y+3, r24	; 0x03
    1da8:	9c 83       	std	Y+4, r25	; 0x04
    1daa:	dc 01       	movw	r26, r24
    1dac:	cb 01       	movw	r24, r22
    1dae:	9f 77       	andi	r25, 0x7F	; 127
    1db0:	aa 27       	eor	r26, r26
    1db2:	bb 27       	eor	r27, r27
    1db4:	81 15       	cp	r24, r1
    1db6:	90 44       	sbci	r25, 0x40	; 64
    1db8:	a1 05       	cpc	r26, r1
    1dba:	b1 05       	cpc	r27, r1
    1dbc:	d1 f0       	breq	.+52     	; 0x1df2 <q15_mul+0x64>
    1dbe:	80 e0       	ldi	r24, 0x00	; 0
    1dc0:	90 e4       	ldi	r25, 0x40	; 64
    1dc2:	a0 e0       	ldi	r26, 0x00	; 0
    1dc4:	b0 e0       	ldi	r27, 0x00	; 0
    1dc6:	29 81       	ldd	r18, Y+1	; 0x01
    1dc8:	3a 81       	ldd	r19, Y+2	; 0x02
    1dca:	4b 81       	ldd	r20, Y+3	; 0x03
    1dcc:	5c 81       	ldd	r21, Y+4	; 0x04
    1dce:	82 0f       	add	r24, r18
    1dd0:	93 1f       	adc	r25, r19
    1dd2:	a4 1f       	adc	r26, r20
    1dd4:	b5 1f       	adc	r27, r21
    1dd6:	2f e0       	ldi	r18, 0x0F	; 15
    1dd8:	b5 95       	asr	r27
    1dda:	a7 95       	ror	r26
    1ddc:	97 95       	ror	r25
    1dde:	87 95       	ror	r24
    1de0:	2a 95       	dec	r18
    1de2:	d1 f7       	brne	.-12     	; 0x1dd8 <q15_mul+0x4a>
    1de4:	0f 90       	pop	r0
    1de6:	0f 90       	pop	r0
    1de8:	0f 90       	pop	r0
    1dea:	0f 90       	pop	r0
    1dec:	df 91       	pop	r29
    1dee:	cf 91       	pop	r28
    1df0:	08 95       	ret
    1df2:	80 e0       	ldi	r24, 0x00	; 0
    1df4:	90 e0       	ldi	r25, 0x00	; 0
    1df6:	dc 01       	movw	r26, r24
    1df8:	e6 cf       	rjmp	.-52     	; 0x1dc6 <q15_mul+0x38>

00001dfa <reboot>:
    1dfa:	f8 94       	cli
    1dfc:	88 e1       	ldi	r24, 0x18	; 24
    1dfe:	98 e0       	ldi	r25, 0x08	; 8
    1e00:	0f b6       	in	r0, 0x3f	; 63
    1e02:	f8 94       	cli
    1e04:	a8 95       	wdr
    1e06:	80 93 60 00 	sts	0x0060, r24	; 0x800060 <__TEXT_REGION_LENGTH__+0x7e0060>
    1e0a:	0f be       	out	0x3f, r0	; 63
    1e0c:	90 93 60 00 	sts	0x0060, r25	; 0x800060 <__TEXT_REGION_LENGTH__+0x7e0060>
    1e10:	ff cf       	rjmp	.-2      	; 0x1e10 <reboot+0x16>

00001e12 <nrf24_writeRegister.constprop.0>:
    1e12:	1f 93       	push	r17
    1e14:	cf 93       	push	r28
    1e16:	df 93       	push	r29
    1e18:	18 2f       	mov	r17, r24
    1e1a:	d6 2f       	mov	r29, r22
    1e1c:	c7 2f       	mov	r28, r23
    1e1e:	80 e0       	ldi	r24, 0x00	; 0
    1e20:	5a dd       	rcall	.-1356   	; 0x18d6 <nrf24_csn_digitalWrite>
    1e22:	81 2f       	mov	r24, r17
    1e24:	80 62       	ori	r24, 0x20	; 32
    1e26:	f7 db       	rcall	.-2066   	; 0x1616 <spi_transfer>
    1e28:	64 e0       	ldi	r22, 0x04	; 4
    1e2a:	8d 2f       	mov	r24, r29
    1e2c:	9c 2f       	mov	r25, r28
    1e2e:	8d df       	rcall	.-230    	; 0x1d4a <nrf24_transmitSync>
    1e30:	81 e0       	ldi	r24, 0x01	; 1
    1e32:	df 91       	pop	r29
    1e34:	cf 91       	pop	r28
    1e36:	1f 91       	pop	r17
    1e38:	4e cd       	rjmp	.-1380   	; 0x18d6 <nrf24_csn_digitalWrite>

00001e3a <nrf24_readRegister.constprop.0>:
    1e3a:	1f 93       	push	r17
    1e3c:	cf 93       	push	r28
    1e3e:	df 93       	push	r29
    1e40:	18 2f       	mov	r17, r24
    1e42:	eb 01       	movw	r28, r22
    1e44:	80 e0       	ldi	r24, 0x00	; 0
    1e46:	47 dd       	rcall	.-1394   	; 0x18d6 <nrf24_csn_digitalWrite>
    1e48:	81 2f       	mov	r24, r17
    1e4a:	e5 db       	rcall	.-2102   	; 0x1616 <spi_transfer>
    1e4c:	88 81       	ld	r24, Y
    1e4e:	e3 db       	rcall	.-2106   	; 0x1616 <spi_transfer>
    1e50:	88 83       	st	Y, r24
    1e52:	81 e0       	ldi	r24, 0x01	; 1
    1e54:	df 91       	pop	r29
    1e56:	cf 91       	pop	r28
    1e58:	1f 91       	pop	r17
    1e5a:	3d cd       	rjmp	.-1414   	; 0x18d6 <nrf24_csn_digitalWrite>

00001e5c <nrf24_readRegister1>:
    1e5c:	cf 93       	push	r28
    1e5e:	df 93       	push	r29
    1e60:	0f 92       	push	r0
    1e62:	cd b7       	in	r28, 0x3d	; 61
    1e64:	de b7       	in	r29, 0x3e	; 62
    1e66:	be 01       	movw	r22, r28
    1e68:	6f 5f       	subi	r22, 0xFF	; 255
    1e6a:	7f 4f       	sbci	r23, 0xFF	; 255
    1e6c:	e6 df       	rcall	.-52     	; 0x1e3a <nrf24_readRegister.constprop.0>
    1e6e:	89 81       	ldd	r24, Y+1	; 0x01
    1e70:	0f 90       	pop	r0
    1e72:	df 91       	pop	r29
    1e74:	cf 91       	pop	r28
    1e76:	08 95       	ret

00001e78 <nrf24_getData.constprop.0>:
    1e78:	ff 92       	push	r15
    1e7a:	0f 93       	push	r16
    1e7c:	1f 93       	push	r17
    1e7e:	cf 93       	push	r28
    1e80:	df 93       	push	r29
    1e82:	08 2f       	mov	r16, r24
    1e84:	f9 2e       	mov	r15, r25
    1e86:	60 e4       	ldi	r22, 0x40	; 64
    1e88:	87 e0       	ldi	r24, 0x07	; 7
    1e8a:	72 df       	rcall	.-284    	; 0x1d70 <nrf24_configRegister>
    1e8c:	80 e0       	ldi	r24, 0x00	; 0
    1e8e:	23 dd       	rcall	.-1466   	; 0x18d6 <nrf24_csn_digitalWrite>
    1e90:	80 e6       	ldi	r24, 0x60	; 96
    1e92:	c1 db       	rcall	.-2174   	; 0x1616 <spi_transfer>
    1e94:	80 e0       	ldi	r24, 0x00	; 0
    1e96:	bf db       	rcall	.-2178   	; 0x1616 <spi_transfer>
    1e98:	18 2f       	mov	r17, r24
    1e9a:	81 e0       	ldi	r24, 0x01	; 1
    1e9c:	1c dd       	rcall	.-1480   	; 0x18d6 <nrf24_csn_digitalWrite>
    1e9e:	80 e0       	ldi	r24, 0x00	; 0
    1ea0:	1a dd       	rcall	.-1484   	; 0x18d6 <nrf24_csn_digitalWrite>
    1ea2:	81 e6       	ldi	r24, 0x61	; 97
    1ea4:	b8 db       	rcall	.-2192   	; 0x1616 <spi_transfer>
    1ea6:	c0 2f       	mov	r28, r16
    1ea8:	df 2d       	mov	r29, r15
    1eaa:	8c 2f       	mov	r24, r28
    1eac:	80 1b       	sub	r24, r16
    1eae:	81 17       	cp	r24, r17
    1eb0:	50 f0       	brcs	.+20     	; 0x1ec6 <nrf24_getData.constprop.0+0x4e>
    1eb2:	81 e0       	ldi	r24, 0x01	; 1
    1eb4:	10 dd       	rcall	.-1504   	; 0x18d6 <nrf24_csn_digitalWrite>
    1eb6:	81 2f       	mov	r24, r17
    1eb8:	90 e0       	ldi	r25, 0x00	; 0
    1eba:	df 91       	pop	r29
    1ebc:	cf 91       	pop	r28
    1ebe:	1f 91       	pop	r17
    1ec0:	0f 91       	pop	r16
    1ec2:	ff 90       	pop	r15
    1ec4:	08 95       	ret
    1ec6:	89 91       	ld	r24, Y+
    1ec8:	a6 db       	rcall	.-2228   	; 0x1616 <spi_transfer>
    1eca:	fe 01       	movw	r30, r28
    1ecc:	31 97       	sbiw	r30, 0x01	; 1
    1ece:	80 83       	st	Z, r24
    1ed0:	ec cf       	rjmp	.-40     	; 0x1eaa <nrf24_getData.constprop.0+0x32>

00001ed2 <tickRFTX>:
    1ed2:	ff 92       	push	r15
    1ed4:	0f 93       	push	r16
    1ed6:	1f 93       	push	r17
    1ed8:	cf 93       	push	r28
    1eda:	df 93       	push	r29
    1edc:	d8 2f       	mov	r29, r24
    1ede:	c9 2f       	mov	r28, r25
    1ee0:	f6 2e       	mov	r15, r22
    1ee2:	07 2f       	mov	r16, r23
    1ee4:	14 2f       	mov	r17, r20
    1ee6:	10 92 8c 02 	sts	0x028C, r1	; 0x80028c <rf_interrupt>
    1eea:	24 df       	rcall	.-440    	; 0x1d34 <nrf24_getStatus>
    1eec:	28 2f       	mov	r18, r24
    1eee:	30 e0       	ldi	r19, 0x00	; 0
    1ef0:	35 95       	asr	r19
    1ef2:	27 95       	ror	r18
    1ef4:	27 70       	andi	r18, 0x07	; 7
    1ef6:	33 27       	eor	r19, r19
    1ef8:	23 2b       	or	r18, r19
    1efa:	e1 f4       	brne	.+56     	; 0x1f34 <tickRFTX+0x62>
    1efc:	8f 2d       	mov	r24, r15
    1efe:	90 2f       	mov	r25, r16
    1f00:	bb df       	rcall	.-138    	; 0x1e78 <nrf24_getData.constprop.0>
    1f02:	60 e4       	ldi	r22, 0x40	; 64
    1f04:	87 e0       	ldi	r24, 0x07	; 7
    1f06:	34 df       	rcall	.-408    	; 0x1d70 <nrf24_configRegister>
    1f08:	01 e0       	ldi	r16, 0x01	; 1
    1f0a:	60 e3       	ldi	r22, 0x30	; 48
    1f0c:	87 e0       	ldi	r24, 0x07	; 7
    1f0e:	30 df       	rcall	.-416    	; 0x1d70 <nrf24_configRegister>
    1f10:	80 e0       	ldi	r24, 0x00	; 0
    1f12:	e1 dc       	rcall	.-1598   	; 0x18d6 <nrf24_csn_digitalWrite>
    1f14:	80 ea       	ldi	r24, 0xA0	; 160
    1f16:	7f db       	rcall	.-2306   	; 0x1616 <spi_transfer>
    1f18:	61 2f       	mov	r22, r17
    1f1a:	8d 2f       	mov	r24, r29
    1f1c:	9c 2f       	mov	r25, r28
    1f1e:	15 df       	rcall	.-470    	; 0x1d4a <nrf24_transmitSync>
    1f20:	81 e0       	ldi	r24, 0x01	; 1
    1f22:	d9 dc       	rcall	.-1614   	; 0x18d6 <nrf24_csn_digitalWrite>
    1f24:	80 2f       	mov	r24, r16
    1f26:	90 e0       	ldi	r25, 0x00	; 0
    1f28:	df 91       	pop	r29
    1f2a:	cf 91       	pop	r28
    1f2c:	1f 91       	pop	r17
    1f2e:	0f 91       	pop	r16
    1f30:	ff 90       	pop	r15
    1f32:	08 95       	ret
    1f34:	00 e0       	ldi	r16, 0x00	; 0
    1f36:	e9 cf       	rjmp	.-46     	; 0x1f0a <tickRFTX+0x38>

00001f38 <twi_stop.isra.0>:
    1f38:	85 ed       	ldi	r24, 0xD5	; 213
    1f3a:	80 93 bc 00 	sts	0x00BC, r24	; 0x8000bc <__TEXT_REGION_LENGTH__+0x7e00bc>
    1f3e:	8f ef       	ldi	r24, 0xFF	; 255
    1f40:	9f e7       	ldi	r25, 0x7F	; 127
    1f42:	20 91 bc 00 	lds	r18, 0x00BC	; 0x8000bc <__TEXT_REGION_LENGTH__+0x7e00bc>
    1f46:	24 fd       	sbrc	r18, 4
    1f48:	03 c0       	rjmp	.+6      	; 0x1f50 <twi_stop.isra.0+0x18>
    1f4a:	10 92 e9 02 	sts	0x02E9, r1	; 0x8002e9 <twi_state>
    1f4e:	02 c0       	rjmp	.+4      	; 0x1f54 <twi_stop.isra.0+0x1c>
    1f50:	01 97       	sbiw	r24, 0x01	; 1
    1f52:	b9 f7       	brne	.-18     	; 0x1f42 <twi_stop.isra.0+0xa>
    1f54:	08 95       	ret

00001f56 <fillXInputReport>:
    1f56:	cf 93       	push	r28
    1f58:	df 93       	push	r29
    1f5a:	dc 01       	movw	r26, r24
    1f5c:	fa 01       	movw	r30, r20
    1f5e:	84 e1       	ldi	r24, 0x14	; 20
    1f60:	eb 01       	movw	r28, r22
    1f62:	88 83       	st	Y, r24
    1f64:	1c 92       	st	X, r1
    1f66:	11 96       	adiw	r26, 0x01	; 1
    1f68:	8c 93       	st	X, r24
    1f6a:	11 97       	sbiw	r26, 0x01	; 1
    1f6c:	12 96       	adiw	r26, 0x02	; 2
    1f6e:	8c e0       	ldi	r24, 0x0C	; 12
    1f70:	01 90       	ld	r0, Z+
    1f72:	0d 92       	st	X+, r0
    1f74:	8a 95       	dec	r24
    1f76:	e1 f7       	brne	.-8      	; 0x1f70 <fillXInputReport+0x1a>
    1f78:	df 91       	pop	r29
    1f7a:	cf 91       	pop	r28
    1f7c:	08 95       	ret

00001f7e <twi_readFrom.constprop.0>:
    1f7e:	cf 93       	push	r28
    1f80:	28 2f       	mov	r18, r24
    1f82:	cb 01       	movw	r24, r22
    1f84:	c4 2f       	mov	r28, r20
    1f86:	4f ef       	ldi	r20, 0xFF	; 255
    1f88:	5f e7       	ldi	r21, 0x7F	; 127
    1f8a:	c1 32       	cpi	r28, 0x21	; 33
    1f8c:	28 f0       	brcs	.+10     	; 0x1f98 <twi_readFrom.constprop.0+0x1a>
    1f8e:	80 e0       	ldi	r24, 0x00	; 0
    1f90:	45 c0       	rjmp	.+138    	; 0x201c <twi_readFrom.constprop.0+0x9e>
    1f92:	41 50       	subi	r20, 0x01	; 1
    1f94:	51 09       	sbc	r21, r1
    1f96:	d9 f3       	breq	.-10     	; 0x1f8e <twi_readFrom.constprop.0+0x10>
    1f98:	30 91 e9 02 	lds	r19, 0x02E9	; 0x8002e9 <twi_state>
    1f9c:	31 11       	cpse	r19, r1
    1f9e:	f9 cf       	rjmp	.-14     	; 0x1f92 <twi_readFrom.constprop.0+0x14>
    1fa0:	31 e0       	ldi	r19, 0x01	; 1
    1fa2:	30 93 e9 02 	sts	0x02E9, r19	; 0x8002e9 <twi_state>
    1fa6:	30 93 e8 02 	sts	0x02E8, r19	; 0x8002e8 <twi_sendStop>
    1faa:	4f ef       	ldi	r20, 0xFF	; 255
    1fac:	40 93 fa 01 	sts	0x01FA, r20	; 0x8001fa <twi_error>
    1fb0:	10 92 1c 02 	sts	0x021C, r1	; 0x80021c <twi_masterBufferIndex>
    1fb4:	4c 0f       	add	r20, r28
    1fb6:	40 93 1b 02 	sts	0x021B, r20	; 0x80021b <twi_masterBufferLength>
    1fba:	30 93 1d 02 	sts	0x021D, r19	; 0x80021d <twi_slarw>
    1fbe:	30 91 1d 02 	lds	r19, 0x021D	; 0x80021d <twi_slarw>
    1fc2:	22 0f       	add	r18, r18
    1fc4:	23 2b       	or	r18, r19
    1fc6:	20 93 1d 02 	sts	0x021D, r18	; 0x80021d <twi_slarw>
    1fca:	20 91 e7 02 	lds	r18, 0x02E7	; 0x8002e7 <twi_inRepStart>
    1fce:	22 23       	and	r18, r18
    1fd0:	81 f1       	breq	.+96     	; 0x2032 <twi_readFrom.constprop.0+0xb4>
    1fd2:	10 92 e7 02 	sts	0x02E7, r1	; 0x8002e7 <twi_inRepStart>
    1fd6:	20 91 1d 02 	lds	r18, 0x021D	; 0x80021d <twi_slarw>
    1fda:	20 93 bb 00 	sts	0x00BB, r18	; 0x8000bb <__TEXT_REGION_LENGTH__+0x7e00bb>
    1fde:	2f ef       	ldi	r18, 0xFF	; 255
    1fe0:	3f e7       	ldi	r19, 0x7F	; 127
    1fe2:	40 91 bc 00 	lds	r20, 0x00BC	; 0x8000bc <__TEXT_REGION_LENGTH__+0x7e00bc>
    1fe6:	43 fd       	sbrc	r20, 3
    1fe8:	1b c0       	rjmp	.+54     	; 0x2020 <twi_readFrom.constprop.0+0xa2>
    1fea:	25 ec       	ldi	r18, 0xC5	; 197
    1fec:	20 93 bc 00 	sts	0x00BC, r18	; 0x8000bc <__TEXT_REGION_LENGTH__+0x7e00bc>
    1ff0:	2f ef       	ldi	r18, 0xFF	; 255
    1ff2:	3f e7       	ldi	r19, 0x7F	; 127
    1ff4:	40 91 e9 02 	lds	r20, 0x02E9	; 0x8002e9 <twi_state>
    1ff8:	41 30       	cpi	r20, 0x01	; 1
    1ffa:	e9 f0       	breq	.+58     	; 0x2036 <twi_readFrom.constprop.0+0xb8>
    1ffc:	20 91 1c 02 	lds	r18, 0x021C	; 0x80021c <twi_masterBufferIndex>
    2000:	2c 17       	cp	r18, r28
    2002:	10 f4       	brcc	.+4      	; 0x2008 <twi_readFrom.constprop.0+0x8a>
    2004:	c0 91 1c 02 	lds	r28, 0x021C	; 0x80021c <twi_masterBufferIndex>
    2008:	4c 2f       	mov	r20, r28
    200a:	50 e0       	ldi	r21, 0x00	; 0
    200c:	6b ef       	ldi	r22, 0xFB	; 251
    200e:	71 e0       	ldi	r23, 0x01	; 1
    2010:	0e 94 06 2c 	call	0x580c	; 0x580c <memcpy>
    2014:	81 e0       	ldi	r24, 0x01	; 1
    2016:	cc 23       	and	r28, r28
    2018:	09 f4       	brne	.+2      	; 0x201c <twi_readFrom.constprop.0+0x9e>
    201a:	b9 cf       	rjmp	.-142    	; 0x1f8e <twi_readFrom.constprop.0+0x10>
    201c:	cf 91       	pop	r28
    201e:	08 95       	ret
    2020:	21 50       	subi	r18, 0x01	; 1
    2022:	31 09       	sbc	r19, r1
    2024:	09 f4       	brne	.+2      	; 0x2028 <twi_readFrom.constprop.0+0xaa>
    2026:	b3 cf       	rjmp	.-154    	; 0x1f8e <twi_readFrom.constprop.0+0x10>
    2028:	40 91 1d 02 	lds	r20, 0x021D	; 0x80021d <twi_slarw>
    202c:	40 93 bb 00 	sts	0x00BB, r20	; 0x8000bb <__TEXT_REGION_LENGTH__+0x7e00bb>
    2030:	d8 cf       	rjmp	.-80     	; 0x1fe2 <twi_readFrom.constprop.0+0x64>
    2032:	25 ee       	ldi	r18, 0xE5	; 229
    2034:	db cf       	rjmp	.-74     	; 0x1fec <twi_readFrom.constprop.0+0x6e>
    2036:	21 50       	subi	r18, 0x01	; 1
    2038:	31 09       	sbc	r19, r1
    203a:	e1 f6       	brne	.-72     	; 0x1ff4 <twi_readFrom.constprop.0+0x76>
    203c:	a8 cf       	rjmp	.-176    	; 0x1f8e <twi_readFrom.constprop.0+0x10>

0000203e <twi_writeTo.constprop.0>:
    203e:	cf 93       	push	r28
    2040:	c8 2f       	mov	r28, r24
    2042:	8f ef       	ldi	r24, 0xFF	; 255
    2044:	9f e7       	ldi	r25, 0x7F	; 127
    2046:	41 32       	cpi	r20, 0x21	; 33
    2048:	20 f0       	brcs	.+8      	; 0x2052 <twi_writeTo.constprop.0+0x14>
    204a:	80 e0       	ldi	r24, 0x00	; 0
    204c:	3f c0       	rjmp	.+126    	; 0x20cc <twi_writeTo.constprop.0+0x8e>
    204e:	01 97       	sbiw	r24, 0x01	; 1
    2050:	e1 f3       	breq	.-8      	; 0x204a <twi_writeTo.constprop.0+0xc>
    2052:	20 91 e9 02 	lds	r18, 0x02E9	; 0x8002e9 <twi_state>
    2056:	21 11       	cpse	r18, r1
    2058:	fa cf       	rjmp	.-12     	; 0x204e <twi_writeTo.constprop.0+0x10>
    205a:	82 e0       	ldi	r24, 0x02	; 2
    205c:	80 93 e9 02 	sts	0x02E9, r24	; 0x8002e9 <twi_state>
    2060:	81 e0       	ldi	r24, 0x01	; 1
    2062:	80 93 e8 02 	sts	0x02E8, r24	; 0x8002e8 <twi_sendStop>
    2066:	8f ef       	ldi	r24, 0xFF	; 255
    2068:	80 93 fa 01 	sts	0x01FA, r24	; 0x8001fa <twi_error>
    206c:	10 92 1c 02 	sts	0x021C, r1	; 0x80021c <twi_masterBufferIndex>
    2070:	40 93 1b 02 	sts	0x021B, r20	; 0x80021b <twi_masterBufferLength>
    2074:	50 e0       	ldi	r21, 0x00	; 0
    2076:	8b ef       	ldi	r24, 0xFB	; 251
    2078:	91 e0       	ldi	r25, 0x01	; 1
    207a:	0e 94 06 2c 	call	0x580c	; 0x580c <memcpy>
    207e:	10 92 1d 02 	sts	0x021D, r1	; 0x80021d <twi_slarw>
    2082:	80 91 1d 02 	lds	r24, 0x021D	; 0x80021d <twi_slarw>
    2086:	cc 0f       	add	r28, r28
    2088:	c8 2b       	or	r28, r24
    208a:	c0 93 1d 02 	sts	0x021D, r28	; 0x80021d <twi_slarw>
    208e:	80 91 e7 02 	lds	r24, 0x02E7	; 0x8002e7 <twi_inRepStart>
    2092:	88 23       	and	r24, r24
    2094:	29 f1       	breq	.+74     	; 0x20e0 <twi_writeTo.constprop.0+0xa2>
    2096:	10 92 e7 02 	sts	0x02E7, r1	; 0x8002e7 <twi_inRepStart>
    209a:	80 91 1d 02 	lds	r24, 0x021D	; 0x80021d <twi_slarw>
    209e:	80 93 bb 00 	sts	0x00BB, r24	; 0x8000bb <__TEXT_REGION_LENGTH__+0x7e00bb>
    20a2:	8f ef       	ldi	r24, 0xFF	; 255
    20a4:	9f e7       	ldi	r25, 0x7F	; 127
    20a6:	20 91 bc 00 	lds	r18, 0x00BC	; 0x8000bc <__TEXT_REGION_LENGTH__+0x7e00bc>
    20aa:	23 fd       	sbrc	r18, 3
    20ac:	11 c0       	rjmp	.+34     	; 0x20d0 <twi_writeTo.constprop.0+0x92>
    20ae:	85 ec       	ldi	r24, 0xC5	; 197
    20b0:	80 93 bc 00 	sts	0x00BC, r24	; 0x8000bc <__TEXT_REGION_LENGTH__+0x7e00bc>
    20b4:	8f ef       	ldi	r24, 0xFF	; 255
    20b6:	9f e7       	ldi	r25, 0x7F	; 127
    20b8:	20 91 e9 02 	lds	r18, 0x02E9	; 0x8002e9 <twi_state>
    20bc:	22 30       	cpi	r18, 0x02	; 2
    20be:	91 f0       	breq	.+36     	; 0x20e4 <twi_writeTo.constprop.0+0xa6>
    20c0:	90 91 fa 01 	lds	r25, 0x01FA	; 0x8001fa <twi_error>
    20c4:	81 e0       	ldi	r24, 0x01	; 1
    20c6:	9f 3f       	cpi	r25, 0xFF	; 255
    20c8:	09 f0       	breq	.+2      	; 0x20cc <twi_writeTo.constprop.0+0x8e>
    20ca:	bf cf       	rjmp	.-130    	; 0x204a <twi_writeTo.constprop.0+0xc>
    20cc:	cf 91       	pop	r28
    20ce:	08 95       	ret
    20d0:	01 97       	sbiw	r24, 0x01	; 1
    20d2:	09 f4       	brne	.+2      	; 0x20d6 <twi_writeTo.constprop.0+0x98>
    20d4:	ba cf       	rjmp	.-140    	; 0x204a <twi_writeTo.constprop.0+0xc>
    20d6:	20 91 1d 02 	lds	r18, 0x021D	; 0x80021d <twi_slarw>
    20da:	20 93 bb 00 	sts	0x00BB, r18	; 0x8000bb <__TEXT_REGION_LENGTH__+0x7e00bb>
    20de:	e3 cf       	rjmp	.-58     	; 0x20a6 <twi_writeTo.constprop.0+0x68>
    20e0:	85 ee       	ldi	r24, 0xE5	; 229
    20e2:	e6 cf       	rjmp	.-52     	; 0x20b0 <twi_writeTo.constprop.0+0x72>
    20e4:	01 97       	sbiw	r24, 0x01	; 1
    20e6:	41 f7       	brne	.-48     	; 0x20b8 <twi_writeTo.constprop.0+0x7a>
    20e8:	b0 cf       	rjmp	.-160    	; 0x204a <twi_writeTo.constprop.0+0xc>

000020ea <twi_readFromPointer>:
    20ea:	ef 92       	push	r14
    20ec:	ff 92       	push	r15
    20ee:	0f 93       	push	r16
    20f0:	1f 93       	push	r17
    20f2:	cf 93       	push	r28
    20f4:	df 93       	push	r29
    20f6:	0f 92       	push	r0
    20f8:	cd b7       	in	r28, 0x3d	; 61
    20fa:	de b7       	in	r29, 0x3e	; 62
    20fc:	18 2f       	mov	r17, r24
    20fe:	69 83       	std	Y+1, r22	; 0x01
    2100:	e4 2e       	mov	r14, r20
    2102:	f2 2e       	mov	r15, r18
    2104:	03 2f       	mov	r16, r19
    2106:	41 e0       	ldi	r20, 0x01	; 1
    2108:	be 01       	movw	r22, r28
    210a:	6f 5f       	subi	r22, 0xFF	; 255
    210c:	7f 4f       	sbci	r23, 0xFF	; 255
    210e:	97 df       	rcall	.-210    	; 0x203e <twi_writeTo.constprop.0>
    2110:	88 23       	and	r24, r24
    2112:	71 f0       	breq	.+28     	; 0x2130 <twi_readFromPointer+0x46>
    2114:	4e 2d       	mov	r20, r14
    2116:	6f 2d       	mov	r22, r15
    2118:	70 2f       	mov	r23, r16
    211a:	81 2f       	mov	r24, r17
    211c:	30 df       	rcall	.-416    	; 0x1f7e <twi_readFrom.constprop.0>
    211e:	81 70       	andi	r24, 0x01	; 1
    2120:	0f 90       	pop	r0
    2122:	df 91       	pop	r29
    2124:	cf 91       	pop	r28
    2126:	1f 91       	pop	r17
    2128:	0f 91       	pop	r16
    212a:	ff 90       	pop	r15
    212c:	ef 90       	pop	r14
    212e:	08 95       	ret
    2130:	80 e0       	ldi	r24, 0x00	; 0
    2132:	f5 cf       	rjmp	.-22     	; 0x211e <twi_readFromPointer+0x34>

00002134 <noAttention>:
    2134:	a5 ed       	ldi	r26, 0xD5	; 213
    2136:	b2 e0       	ldi	r27, 0x02	; 2
    2138:	11 96       	adiw	r26, 0x01	; 1
    213a:	ed 91       	ld	r30, X+
    213c:	fc 91       	ld	r31, X
    213e:	12 97       	sbiw	r26, 0x02	; 2
    2140:	80 81       	ld	r24, Z
    2142:	9c 91       	ld	r25, X
    2144:	89 2b       	or	r24, r25
    2146:	80 83       	st	Z, r24
    2148:	ac ec       	ldi	r26, 0xCC	; 204
    214a:	b2 e0       	ldi	r27, 0x02	; 2
    214c:	11 96       	adiw	r26, 0x01	; 1
    214e:	ed 91       	ld	r30, X+
    2150:	fc 91       	ld	r31, X
    2152:	12 97       	sbiw	r26, 0x02	; 2
    2154:	80 81       	ld	r24, Z
    2156:	9c 91       	ld	r25, X
    2158:	89 2b       	or	r24, r25
    215a:	80 83       	st	Z, r24
    215c:	ae ed       	ldi	r26, 0xDE	; 222
    215e:	b2 e0       	ldi	r27, 0x02	; 2
    2160:	11 96       	adiw	r26, 0x01	; 1
    2162:	ed 91       	ld	r30, X+
    2164:	fc 91       	ld	r31, X
    2166:	12 97       	sbiw	r26, 0x02	; 2
    2168:	80 81       	ld	r24, Z
    216a:	9c 91       	ld	r25, X
    216c:	89 2b       	or	r24, r25
    216e:	80 83       	st	Z, r24
    2170:	88 e2       	ldi	r24, 0x28	; 40
    2172:	8a 95       	dec	r24
    2174:	f1 f7       	brne	.-4      	; 0x2172 <noAttention+0x3e>
    2176:	08 95       	ret

00002178 <shiftDataInOut>:
    2178:	cf 92       	push	r12
    217a:	df 92       	push	r13
    217c:	ef 92       	push	r14
    217e:	ff 92       	push	r15
    2180:	0f 93       	push	r16
    2182:	1f 93       	push	r17
    2184:	cf 93       	push	r28
    2186:	df 93       	push	r29
    2188:	8c 01       	movw	r16, r24
    218a:	eb 01       	movw	r28, r22
    218c:	6c 01       	movw	r12, r24
    218e:	7b 01       	movw	r14, r22
    2190:	e4 0e       	add	r14, r20
    2192:	f1 1c       	adc	r15, r1
    2194:	ce 15       	cp	r28, r14
    2196:	df 05       	cpc	r29, r15
    2198:	49 f4       	brne	.+18     	; 0x21ac <shiftDataInOut+0x34>
    219a:	df 91       	pop	r29
    219c:	cf 91       	pop	r28
    219e:	1f 91       	pop	r17
    21a0:	0f 91       	pop	r16
    21a2:	ff 90       	pop	r15
    21a4:	ef 90       	pop	r14
    21a6:	df 90       	pop	r13
    21a8:	cf 90       	pop	r12
    21aa:	08 95       	ret
    21ac:	8a e5       	ldi	r24, 0x5A	; 90
    21ae:	01 15       	cp	r16, r1
    21b0:	11 05       	cpc	r17, r1
    21b2:	89 f0       	breq	.+34     	; 0x21d6 <shiftDataInOut+0x5e>
    21b4:	f6 01       	movw	r30, r12
    21b6:	90 81       	ld	r25, Z
    21b8:	89 2f       	mov	r24, r25
    21ba:	86 95       	lsr	r24
    21bc:	85 75       	andi	r24, 0x55	; 85
    21be:	99 0f       	add	r25, r25
    21c0:	9a 7a       	andi	r25, 0xAA	; 170
    21c2:	89 2b       	or	r24, r25
    21c4:	98 2f       	mov	r25, r24
    21c6:	96 95       	lsr	r25
    21c8:	96 95       	lsr	r25
    21ca:	93 73       	andi	r25, 0x33	; 51
    21cc:	88 0f       	add	r24, r24
    21ce:	88 0f       	add	r24, r24
    21d0:	8c 7c       	andi	r24, 0xCC	; 204
    21d2:	89 2b       	or	r24, r25
    21d4:	82 95       	swap	r24
    21d6:	1f da       	rcall	.-3010   	; 0x1616 <spi_transfer>
    21d8:	98 2f       	mov	r25, r24
    21da:	86 95       	lsr	r24
    21dc:	85 75       	andi	r24, 0x55	; 85
    21de:	99 0f       	add	r25, r25
    21e0:	9a 7a       	andi	r25, 0xAA	; 170
    21e2:	89 2b       	or	r24, r25
    21e4:	98 2f       	mov	r25, r24
    21e6:	96 95       	lsr	r25
    21e8:	96 95       	lsr	r25
    21ea:	93 73       	andi	r25, 0x33	; 51
    21ec:	88 0f       	add	r24, r24
    21ee:	88 0f       	add	r24, r24
    21f0:	8c 7c       	andi	r24, 0xCC	; 204
    21f2:	89 2b       	or	r24, r25
    21f4:	82 95       	swap	r24
    21f6:	89 93       	st	Y+, r24
    21f8:	f8 e2       	ldi	r31, 0x28	; 40
    21fa:	fa 95       	dec	r31
    21fc:	f1 f7       	brne	.-4      	; 0x21fa <shiftDataInOut+0x82>
    21fe:	8f ef       	ldi	r24, 0xFF	; 255
    2200:	c8 1a       	sub	r12, r24
    2202:	d8 0a       	sbc	r13, r24
    2204:	c7 cf       	rjmp	.-114    	; 0x2194 <shiftDataInOut+0x1c>

00002206 <autoShiftData>:
    2206:	0f 93       	push	r16
    2208:	1f 93       	push	r17
    220a:	cf 93       	push	r28
    220c:	df 93       	push	r29
    220e:	8c 01       	movw	r16, r24
    2210:	c6 2f       	mov	r28, r22
    2212:	e0 91 df 02 	lds	r30, 0x02DF	; 0x8002df <attention+0x1>
    2216:	f0 91 e0 02 	lds	r31, 0x02E0	; 0x8002e0 <attention+0x2>
    221a:	90 81       	ld	r25, Z
    221c:	80 91 de 02 	lds	r24, 0x02DE	; 0x8002de <attention>
    2220:	80 95       	com	r24
    2222:	89 23       	and	r24, r25
    2224:	80 83       	st	Z, r24
    2226:	e0 91 cd 02 	lds	r30, 0x02CD	; 0x8002cd <clock+0x1>
    222a:	f0 91 ce 02 	lds	r31, 0x02CE	; 0x8002ce <clock+0x2>
    222e:	90 81       	ld	r25, Z
    2230:	80 91 cc 02 	lds	r24, 0x02CC	; 0x8002cc <clock>
    2234:	80 95       	com	r24
    2236:	89 23       	and	r24, r25
    2238:	80 83       	st	Z, r24
    223a:	e0 91 d6 02 	lds	r30, 0x02D6	; 0x8002d6 <command+0x1>
    223e:	f0 91 d7 02 	lds	r31, 0x02D7	; 0x8002d7 <command+0x2>
    2242:	90 81       	ld	r25, Z
    2244:	80 91 d5 02 	lds	r24, 0x02D5	; 0x8002d5 <command>
    2248:	80 95       	com	r24
    224a:	89 23       	and	r24, r25
    224c:	80 83       	st	Z, r24
    224e:	88 e2       	ldi	r24, 0x28	; 40
    2250:	8a 95       	dec	r24
    2252:	f1 f7       	brne	.-4      	; 0x2250 <autoShiftData+0x4a>
    2254:	43 e0       	ldi	r20, 0x03	; 3
    2256:	65 ec       	ldi	r22, 0xC5	; 197
    2258:	71 e0       	ldi	r23, 0x01	; 1
    225a:	c8 01       	movw	r24, r16
    225c:	8d df       	rcall	.-230    	; 0x2178 <shiftDataInOut>
    225e:	80 91 c6 01 	lds	r24, 0x01C6	; 0x8001c6 <inputBuffer.0+0x1>
    2262:	8f 3f       	cpi	r24, 0xFF	; 255
    2264:	49 f4       	brne	.+18     	; 0x2278 <autoShiftData+0x72>
    2266:	d0 e0       	ldi	r29, 0x00	; 0
    2268:	c0 e0       	ldi	r28, 0x00	; 0
    226a:	64 df       	rcall	.-312    	; 0x2134 <noAttention>
    226c:	ce 01       	movw	r24, r28
    226e:	df 91       	pop	r29
    2270:	cf 91       	pop	r28
    2272:	1f 91       	pop	r17
    2274:	0f 91       	pop	r16
    2276:	08 95       	ret
    2278:	90 91 c7 01 	lds	r25, 0x01C7	; 0x8001c7 <inputBuffer.0+0x2>
    227c:	9a 35       	cpi	r25, 0x5A	; 90
    227e:	11 f0       	breq	.+4      	; 0x2284 <autoShiftData+0x7e>
    2280:	91 11       	cpse	r25, r1
    2282:	f1 cf       	rjmp	.-30     	; 0x2266 <autoShiftData+0x60>
    2284:	8f 70       	andi	r24, 0x0F	; 15
    2286:	d8 2f       	mov	r29, r24
    2288:	dd 0f       	add	r29, r29
    228a:	c3 30       	cpi	r28, 0x03	; 3
    228c:	39 f0       	breq	.+14     	; 0x229c <autoShiftData+0x96>
    228e:	4d ef       	ldi	r20, 0xFD	; 253
    2290:	4c 0f       	add	r20, r28
    2292:	68 ec       	ldi	r22, 0xC8	; 200
    2294:	71 e0       	ldi	r23, 0x01	; 1
    2296:	c8 01       	movw	r24, r16
    2298:	03 96       	adiw	r24, 0x03	; 3
    229a:	6e df       	rcall	.-292    	; 0x2178 <shiftDataInOut>
    229c:	dd 5f       	subi	r29, 0xFD	; 253
    229e:	4d 2f       	mov	r20, r29
    22a0:	4c 1b       	sub	r20, r28
    22a2:	dc 17       	cp	r29, r28
    22a4:	61 f0       	breq	.+24     	; 0x22be <autoShiftData+0xb8>
    22a6:	6c 2f       	mov	r22, r28
    22a8:	70 e0       	ldi	r23, 0x00	; 0
    22aa:	cb 01       	movw	r24, r22
    22ac:	84 0f       	add	r24, r20
    22ae:	91 1d       	adc	r25, r1
    22b0:	81 97       	sbiw	r24, 0x21	; 33
    22b2:	cc f6       	brge	.-78     	; 0x2266 <autoShiftData+0x60>
    22b4:	6b 53       	subi	r22, 0x3B	; 59
    22b6:	7e 4f       	sbci	r23, 0xFE	; 254
    22b8:	90 e0       	ldi	r25, 0x00	; 0
    22ba:	80 e0       	ldi	r24, 0x00	; 0
    22bc:	5d df       	rcall	.-326    	; 0x2178 <shiftDataInOut>
    22be:	c5 ec       	ldi	r28, 0xC5	; 197
    22c0:	d1 e0       	ldi	r29, 0x01	; 1
    22c2:	d3 cf       	rjmp	.-90     	; 0x226a <autoShiftData+0x64>

000022c4 <sendCommand>:
    22c4:	cf 92       	push	r12
    22c6:	df 92       	push	r13
    22c8:	ef 92       	push	r14
    22ca:	ff 92       	push	r15
    22cc:	0f 93       	push	r16
    22ce:	1f 93       	push	r17
    22d0:	cf 93       	push	r28
    22d2:	df 93       	push	r29
    22d4:	00 d0       	rcall	.+0      	; 0x22d6 <sendCommand+0x12>
    22d6:	00 d0       	rcall	.+0      	; 0x22d8 <sendCommand+0x14>
    22d8:	00 d0       	rcall	.+0      	; 0x22da <sendCommand+0x16>
    22da:	cd b7       	in	r28, 0x3d	; 61
    22dc:	de b7       	in	r29, 0x3e	; 62
    22de:	8d 83       	std	Y+5, r24	; 0x05
    22e0:	9e 83       	std	Y+6, r25	; 0x06
    22e2:	06 2f       	mov	r16, r22
    22e4:	0e 94 4c 09 	call	0x1298	; 0x1298 <millis>
    22e8:	6b 01       	movw	r12, r22
    22ea:	7c 01       	movw	r14, r24
    22ec:	10 e0       	ldi	r17, 0x00	; 0
    22ee:	60 2f       	mov	r22, r16
    22f0:	8d 81       	ldd	r24, Y+5	; 0x05
    22f2:	9e 81       	ldd	r25, Y+6	; 0x06
    22f4:	88 df       	rcall	.-240    	; 0x2206 <autoShiftData>
    22f6:	fc 01       	movw	r30, r24
    22f8:	89 2b       	or	r24, r25
    22fa:	51 f0       	breq	.+20     	; 0x2310 <sendCommand+0x4c>
    22fc:	1f 5f       	subi	r17, 0xFF	; 255
    22fe:	8d 81       	ldd	r24, Y+5	; 0x05
    2300:	9e 81       	ldd	r25, Y+6	; 0x06
    2302:	83 59       	subi	r24, 0x93	; 147
    2304:	91 40       	sbci	r25, 0x01	; 1
    2306:	59 f5       	brne	.+86     	; 0x235e <sendCommand+0x9a>
    2308:	81 81       	ldd	r24, Z+1	; 0x01
    230a:	80 7f       	andi	r24, 0xF0	; 240
    230c:	80 3f       	cpi	r24, 0xF0	; 240
    230e:	81 f1       	breq	.+96     	; 0x2370 <sendCommand+0xac>
    2310:	8f e1       	ldi	r24, 0x1F	; 31
    2312:	9e e4       	ldi	r25, 0x4E	; 78
    2314:	01 97       	sbiw	r24, 0x01	; 1
    2316:	f1 f7       	brne	.-4      	; 0x2314 <sendCommand+0x50>
    2318:	00 c0       	rjmp	.+0      	; 0x231a <sendCommand+0x56>
    231a:	00 00       	nop
    231c:	0e 94 4c 09 	call	0x1298	; 0x1298 <millis>
    2320:	69 83       	std	Y+1, r22	; 0x01
    2322:	7a 83       	std	Y+2, r23	; 0x02
    2324:	8b 83       	std	Y+3, r24	; 0x03
    2326:	9c 83       	std	Y+4, r25	; 0x04
    2328:	dc 01       	movw	r26, r24
    232a:	cb 01       	movw	r24, r22
    232c:	8c 19       	sub	r24, r12
    232e:	9d 09       	sbc	r25, r13
    2330:	ae 09       	sbc	r26, r14
    2332:	bf 09       	sbc	r27, r15
    2334:	8b 3f       	cpi	r24, 0xFB	; 251
    2336:	91 05       	cpc	r25, r1
    2338:	a1 05       	cpc	r26, r1
    233a:	b1 05       	cpc	r27, r1
    233c:	c0 f2       	brcs	.-80     	; 0x22ee <sendCommand+0x2a>
    233e:	80 e0       	ldi	r24, 0x00	; 0
    2340:	26 96       	adiw	r28, 0x06	; 6
    2342:	0f b6       	in	r0, 0x3f	; 63
    2344:	f8 94       	cli
    2346:	de bf       	out	0x3e, r29	; 62
    2348:	0f be       	out	0x3f, r0	; 63
    234a:	cd bf       	out	0x3d, r28	; 61
    234c:	df 91       	pop	r29
    234e:	cf 91       	pop	r28
    2350:	1f 91       	pop	r17
    2352:	0f 91       	pop	r16
    2354:	ff 90       	pop	r15
    2356:	ef 90       	pop	r14
    2358:	df 90       	pop	r13
    235a:	cf 90       	pop	r12
    235c:	08 95       	ret
    235e:	8d 81       	ldd	r24, Y+5	; 0x05
    2360:	9e 81       	ldd	r25, Y+6	; 0x06
    2362:	8f 58       	subi	r24, 0x8F	; 143
    2364:	91 40       	sbci	r25, 0x01	; 1
    2366:	31 f4       	brne	.+12     	; 0x2374 <sendCommand+0xb0>
    2368:	81 81       	ldd	r24, Z+1	; 0x01
    236a:	80 7f       	andi	r24, 0xF0	; 240
    236c:	80 3f       	cpi	r24, 0xF0	; 240
    236e:	81 f2       	breq	.-96     	; 0x2310 <sendCommand+0x4c>
    2370:	81 e0       	ldi	r24, 0x01	; 1
    2372:	e6 cf       	rjmp	.-52     	; 0x2340 <sendCommand+0x7c>
    2374:	13 30       	cpi	r17, 0x03	; 3
    2376:	e0 f7       	brcc	.-8      	; 0x2370 <sendCommand+0xac>
    2378:	cb cf       	rjmp	.-106    	; 0x2310 <sendCommand+0x4c>

0000237a <read>:
    237a:	cf 93       	push	r28
    237c:	df 93       	push	r29
    237e:	ec 01       	movw	r28, r24
    2380:	63 e0       	ldi	r22, 0x03	; 3
    2382:	8c e8       	ldi	r24, 0x8C	; 140
    2384:	91 e0       	ldi	r25, 0x01	; 1
    2386:	3f df       	rcall	.-386    	; 0x2206 <autoShiftData>
    2388:	fc 01       	movw	r30, r24
    238a:	89 2b       	or	r24, r25
    238c:	49 f0       	breq	.+18     	; 0x23a0 <read+0x26>
    238e:	81 81       	ldd	r24, Z+1	; 0x01
    2390:	98 2f       	mov	r25, r24
    2392:	90 7f       	andi	r25, 0xF0	; 240
    2394:	90 3f       	cpi	r25, 0xF0	; 240
    2396:	31 f4       	brne	.+12     	; 0x23a4 <read+0x2a>
    2398:	64 e0       	ldi	r22, 0x04	; 4
    239a:	8f e8       	ldi	r24, 0x8F	; 143
    239c:	91 e0       	ldi	r25, 0x01	; 1
    239e:	92 df       	rcall	.-220    	; 0x22c4 <sendCommand>
    23a0:	80 e0       	ldi	r24, 0x00	; 0
    23a2:	1f c0       	rjmp	.+62     	; 0x23e2 <read+0x68>
    23a4:	23 81       	ldd	r18, Z+3	; 0x03
    23a6:	34 81       	ldd	r19, Z+4	; 0x04
    23a8:	90 35       	cpi	r25, 0x50	; 80
    23aa:	f1 f4       	brne	.+60     	; 0x23e8 <read+0x6e>
    23ac:	88 e0       	ldi	r24, 0x08	; 8
    23ae:	80 93 02 01 	sts	0x0102, r24	; 0x800102 <ps2CtrlType>
    23b2:	81 81       	ldd	r24, Z+1	; 0x01
    23b4:	82 31       	cpi	r24, 0x12	; 18
    23b6:	79 f4       	brne	.+30     	; 0x23d6 <read+0x5c>
    23b8:	89 e0       	ldi	r24, 0x09	; 9
    23ba:	80 93 02 01 	sts	0x0102, r24	; 0x800102 <ps2CtrlType>
    23be:	85 81       	ldd	r24, Z+5	; 0x05
    23c0:	80 58       	subi	r24, 0x80	; 128
    23c2:	99 0b       	sbc	r25, r25
    23c4:	1c 82       	std	Y+4, r1	; 0x04
    23c6:	8d 83       	std	Y+5, r24	; 0x05
    23c8:	46 81       	ldd	r20, Z+6	; 0x06
    23ca:	8f e7       	ldi	r24, 0x7F	; 127
    23cc:	90 e0       	ldi	r25, 0x00	; 0
    23ce:	84 1b       	sub	r24, r20
    23d0:	91 09       	sbc	r25, r1
    23d2:	1e 82       	std	Y+6, r1	; 0x06
    23d4:	8f 83       	std	Y+7, r24	; 0x07
    23d6:	81 81       	ldd	r24, Z+1	; 0x01
    23d8:	80 7d       	andi	r24, 0xD0	; 208
    23da:	80 35       	cpi	r24, 0x50	; 80
    23dc:	09 f4       	brne	.+2      	; 0x23e0 <read+0x66>
    23de:	57 c0       	rjmp	.+174    	; 0x248e <read+0x114>
    23e0:	81 e0       	ldi	r24, 0x01	; 1
    23e2:	df 91       	pop	r29
    23e4:	cf 91       	pop	r28
    23e6:	08 95       	ret
    23e8:	83 32       	cpi	r24, 0x23	; 35
    23ea:	41 f5       	brne	.+80     	; 0x243c <read+0xc2>
    23ec:	85 e0       	ldi	r24, 0x05	; 5
    23ee:	80 93 02 01 	sts	0x0102, r24	; 0x800102 <ps2CtrlType>
    23f2:	85 81       	ldd	r24, Z+5	; 0x05
    23f4:	80 58       	subi	r24, 0x80	; 128
    23f6:	99 0b       	sbc	r25, r25
    23f8:	1c 82       	std	Y+4, r1	; 0x04
    23fa:	8d 83       	std	Y+5, r24	; 0x05
    23fc:	88 81       	ld	r24, Y
    23fe:	99 81       	ldd	r25, Y+1	; 0x01
    2400:	9f 7b       	andi	r25, 0xBF	; 191
    2402:	46 81       	ldd	r20, Z+6	; 0x06
    2404:	41 38       	cpi	r20, 0x81	; 129
    2406:	b0 f5       	brcc	.+108    	; 0x2474 <read+0xfa>
    2408:	50 e0       	ldi	r21, 0x00	; 0
    240a:	40 e0       	ldi	r20, 0x00	; 0
    240c:	84 2b       	or	r24, r20
    240e:	95 2b       	or	r25, r21
    2410:	99 83       	std	Y+1, r25	; 0x01
    2412:	88 83       	st	Y, r24
    2414:	9f 77       	andi	r25, 0x7F	; 127
    2416:	47 81       	ldd	r20, Z+7	; 0x07
    2418:	41 38       	cpi	r20, 0x81	; 129
    241a:	78 f5       	brcc	.+94     	; 0x247a <read+0x100>
    241c:	50 e0       	ldi	r21, 0x00	; 0
    241e:	40 e0       	ldi	r20, 0x00	; 0
    2420:	84 2b       	or	r24, r20
    2422:	95 2b       	or	r25, r21
    2424:	99 83       	std	Y+1, r25	; 0x01
    2426:	88 83       	st	Y, r24
    2428:	9e 7f       	andi	r25, 0xFE	; 254
    242a:	40 85       	ldd	r20, Z+8	; 0x08
    242c:	41 3f       	cpi	r20, 0xF1	; 241
    242e:	40 f5       	brcc	.+80     	; 0x2480 <read+0x106>
    2430:	50 e0       	ldi	r21, 0x00	; 0
    2432:	40 e0       	ldi	r20, 0x00	; 0
    2434:	84 2b       	or	r24, r20
    2436:	95 2b       	or	r25, r21
    2438:	99 83       	std	Y+1, r25	; 0x01
    243a:	88 83       	st	Y, r24
    243c:	81 81       	ldd	r24, Z+1	; 0x01
    243e:	80 7f       	andi	r24, 0xF0	; 240
    2440:	80 3e       	cpi	r24, 0xE0	; 224
    2442:	09 f0       	breq	.+2      	; 0x2446 <read+0xcc>
    2444:	b6 cf       	rjmp	.-148    	; 0x23b2 <read+0x38>
    2446:	86 e0       	ldi	r24, 0x06	; 6
    2448:	80 93 02 01 	sts	0x0102, r24	; 0x800102 <ps2CtrlType>
    244c:	85 81       	ldd	r24, Z+5	; 0x05
    244e:	90 e0       	ldi	r25, 0x00	; 0
    2450:	9d 83       	std	Y+5, r25	; 0x05
    2452:	8c 83       	std	Y+4, r24	; 0x04
    2454:	96 81       	ldd	r25, Z+6	; 0x06
    2456:	85 81       	ldd	r24, Z+5	; 0x05
    2458:	97 fd       	sbrc	r25, 7
    245a:	15 c0       	rjmp	.+42     	; 0x2486 <read+0x10c>
    245c:	87 fd       	sbrc	r24, 7
    245e:	8f e7       	ldi	r24, 0x7F	; 127
    2460:	90 e0       	ldi	r25, 0x00	; 0
    2462:	9d 83       	std	Y+5, r25	; 0x05
    2464:	8c 83       	std	Y+4, r24	; 0x04
    2466:	8c 81       	ldd	r24, Y+4	; 0x04
    2468:	9d 81       	ldd	r25, Y+5	; 0x05
    246a:	80 58       	subi	r24, 0x80	; 128
    246c:	9f 4f       	sbci	r25, 0xFF	; 255
    246e:	9d 83       	std	Y+5, r25	; 0x05
    2470:	8c 83       	std	Y+4, r24	; 0x04
    2472:	9f cf       	rjmp	.-194    	; 0x23b2 <read+0x38>
    2474:	40 e0       	ldi	r20, 0x00	; 0
    2476:	50 e4       	ldi	r21, 0x40	; 64
    2478:	c9 cf       	rjmp	.-110    	; 0x240c <read+0x92>
    247a:	40 e0       	ldi	r20, 0x00	; 0
    247c:	50 e8       	ldi	r21, 0x80	; 128
    247e:	d0 cf       	rjmp	.-96     	; 0x2420 <read+0xa6>
    2480:	40 e0       	ldi	r20, 0x00	; 0
    2482:	51 e0       	ldi	r21, 0x01	; 1
    2484:	d7 cf       	rjmp	.-82     	; 0x2434 <read+0xba>
    2486:	81 38       	cpi	r24, 0x81	; 129
    2488:	58 f7       	brcc	.-42     	; 0x2460 <read+0xe6>
    248a:	81 e8       	ldi	r24, 0x81	; 129
    248c:	e9 cf       	rjmp	.-46     	; 0x2460 <read+0xe6>
    248e:	85 81       	ldd	r24, Z+5	; 0x05
    2490:	80 58       	subi	r24, 0x80	; 128
    2492:	99 0b       	sbc	r25, r25
    2494:	18 86       	std	Y+8, r1	; 0x08
    2496:	89 87       	std	Y+9, r24	; 0x09
    2498:	46 81       	ldd	r20, Z+6	; 0x06
    249a:	8f e7       	ldi	r24, 0x7F	; 127
    249c:	90 e0       	ldi	r25, 0x00	; 0
    249e:	bc 01       	movw	r22, r24
    24a0:	64 1b       	sub	r22, r20
    24a2:	71 09       	sbc	r23, r1
    24a4:	1a 86       	std	Y+10, r1	; 0x0a
    24a6:	6b 87       	std	Y+11, r22	; 0x0b
    24a8:	47 81       	ldd	r20, Z+7	; 0x07
    24aa:	40 58       	subi	r20, 0x80	; 128
    24ac:	55 0b       	sbc	r21, r21
    24ae:	1c 82       	std	Y+4, r1	; 0x04
    24b0:	4d 83       	std	Y+5, r20	; 0x05
    24b2:	40 85       	ldd	r20, Z+8	; 0x08
    24b4:	84 1b       	sub	r24, r20
    24b6:	91 09       	sbc	r25, r1
    24b8:	1e 82       	std	Y+6, r1	; 0x06
    24ba:	8f 83       	std	Y+7, r24	; 0x07
    24bc:	81 81       	ldd	r24, Z+1	; 0x01
    24be:	89 37       	cpi	r24, 0x79	; 121
    24c0:	09 f0       	breq	.+2      	; 0x24c4 <read+0x14a>
    24c2:	8e cf       	rjmp	.-228    	; 0x23e0 <read+0x66>
    24c4:	83 89       	ldd	r24, Z+19	; 0x13
    24c6:	8a 83       	std	Y+2, r24	; 0x02
    24c8:	84 89       	ldd	r24, Z+20	; 0x14
    24ca:	8b 83       	std	Y+3, r24	; 0x03
    24cc:	80 91 02 01 	lds	r24, 0x0102	; 0x800102 <ps2CtrlType>
    24d0:	84 30       	cpi	r24, 0x04	; 4
    24d2:	09 f0       	breq	.+2      	; 0x24d6 <read+0x15c>
    24d4:	85 cf       	rjmp	.-246    	; 0x23e0 <read+0x66>
    24d6:	81 89       	ldd	r24, Z+17	; 0x11
    24d8:	90 e0       	ldi	r25, 0x00	; 0
    24da:	99 87       	std	Y+9, r25	; 0x09
    24dc:	88 87       	std	Y+8, r24	; 0x08
    24de:	20 95       	com	r18
    24e0:	30 95       	com	r19
    24e2:	22 27       	eor	r18, r18
    24e4:	31 70       	andi	r19, 0x01	; 1
    24e6:	4f ef       	ldi	r20, 0xFF	; 255
    24e8:	5f e7       	ldi	r21, 0x7F	; 127
    24ea:	24 9f       	mul	r18, r20
    24ec:	c0 01       	movw	r24, r0
    24ee:	25 9f       	mul	r18, r21
    24f0:	90 0d       	add	r25, r0
    24f2:	34 9f       	mul	r19, r20
    24f4:	90 0d       	add	r25, r0
    24f6:	11 24       	eor	r1, r1
    24f8:	9b 87       	std	Y+11, r25	; 0x0b
    24fa:	8a 87       	std	Y+10, r24	; 0x0a
    24fc:	71 cf       	rjmp	.-286    	; 0x23e0 <read+0x66>

000024fe <tickPS2CtrlInput>:
    24fe:	1f 93       	push	r17
    2500:	cf 93       	push	r28
    2502:	df 93       	push	r29
    2504:	18 2f       	mov	r17, r24
    2506:	d9 2f       	mov	r29, r25
    2508:	80 91 02 01 	lds	r24, 0x0102	; 0x800102 <ps2CtrlType>
    250c:	8a 30       	cpi	r24, 0x0A	; 10
    250e:	a9 f5       	brne	.+106    	; 0x257a <tickPS2CtrlInput+0x7c>
    2510:	c5 e0       	ldi	r28, 0x05	; 5
    2512:	81 2f       	mov	r24, r17
    2514:	9d 2f       	mov	r25, r29
    2516:	31 df       	rcall	.-414    	; 0x237a <read>
    2518:	8f ec       	ldi	r24, 0xCF	; 207
    251a:	97 e0       	ldi	r25, 0x07	; 7
    251c:	01 97       	sbiw	r24, 0x01	; 1
    251e:	f1 f7       	brne	.-4      	; 0x251c <tickPS2CtrlInput+0x1e>
    2520:	00 c0       	rjmp	.+0      	; 0x2522 <tickPS2CtrlInput+0x24>
    2522:	00 00       	nop
    2524:	c1 50       	subi	r28, 0x01	; 1
    2526:	a9 f7       	brne	.-22     	; 0x2512 <tickPS2CtrlInput+0x14>
    2528:	81 2f       	mov	r24, r17
    252a:	9d 2f       	mov	r25, r29
    252c:	26 df       	rcall	.-436    	; 0x237a <read>
    252e:	88 23       	and	r24, r24
    2530:	61 f1       	breq	.+88     	; 0x258a <tickPS2CtrlInput+0x8c>
    2532:	64 e0       	ldi	r22, 0x04	; 4
    2534:	83 e9       	ldi	r24, 0x93	; 147
    2536:	91 e0       	ldi	r25, 0x01	; 1
    2538:	c5 de       	rcall	.-630    	; 0x22c4 <sendCommand>
    253a:	88 23       	and	r24, r24
    253c:	81 f1       	breq	.+96     	; 0x259e <tickPS2CtrlInput+0xa0>
    253e:	63 e0       	ldi	r22, 0x03	; 3
    2540:	8b e7       	ldi	r24, 0x7B	; 123
    2542:	91 e0       	ldi	r25, 0x01	; 1
    2544:	60 de       	rcall	.-832    	; 0x2206 <autoShiftData>
    2546:	fc 01       	movw	r30, r24
    2548:	89 2b       	or	r24, r25
    254a:	49 f0       	breq	.+18     	; 0x255e <tickPS2CtrlInput+0x60>
    254c:	83 81       	ldd	r24, Z+3	; 0x03
    254e:	83 30       	cpi	r24, 0x03	; 3
    2550:	21 f1       	breq	.+72     	; 0x259a <tickPS2CtrlInput+0x9c>
    2552:	81 30       	cpi	r24, 0x01	; 1
    2554:	f1 f4       	brne	.+60     	; 0x2592 <tickPS2CtrlInput+0x94>
    2556:	81 81       	ldd	r24, Z+1	; 0x01
    2558:	82 34       	cpi	r24, 0x42	; 66
    255a:	09 f0       	breq	.+2      	; 0x255e <tickPS2CtrlInput+0x60>
    255c:	c4 e0       	ldi	r28, 0x04	; 4
    255e:	c0 93 02 01 	sts	0x0102, r28	; 0x800102 <ps2CtrlType>
    2562:	65 e0       	ldi	r22, 0x05	; 5
    2564:	87 e8       	ldi	r24, 0x87	; 135
    2566:	91 e0       	ldi	r25, 0x01	; 1
    2568:	ad de       	rcall	.-678    	; 0x22c4 <sendCommand>
    256a:	69 e0       	ldi	r22, 0x09	; 9
    256c:	8e e7       	ldi	r24, 0x7E	; 126
    256e:	91 e0       	ldi	r25, 0x01	; 1
    2570:	a9 de       	rcall	.-686    	; 0x22c4 <sendCommand>
    2572:	64 e0       	ldi	r22, 0x04	; 4
    2574:	8f e8       	ldi	r24, 0x8F	; 143
    2576:	91 e0       	ldi	r25, 0x01	; 1
    2578:	a5 de       	rcall	.-694    	; 0x22c4 <sendCommand>
    257a:	81 2f       	mov	r24, r17
    257c:	9d 2f       	mov	r25, r29
    257e:	fd de       	rcall	.-518    	; 0x237a <read>
    2580:	81 11       	cpse	r24, r1
    2582:	03 c0       	rjmp	.+6      	; 0x258a <tickPS2CtrlInput+0x8c>
    2584:	8a e0       	ldi	r24, 0x0A	; 10
    2586:	80 93 02 01 	sts	0x0102, r24	; 0x800102 <ps2CtrlType>
    258a:	df 91       	pop	r29
    258c:	cf 91       	pop	r28
    258e:	1f 91       	pop	r17
    2590:	08 95       	ret
    2592:	8c 30       	cpi	r24, 0x0C	; 12
    2594:	21 f7       	brne	.-56     	; 0x255e <tickPS2CtrlInput+0x60>
    2596:	c3 e0       	ldi	r28, 0x03	; 3
    2598:	e2 cf       	rjmp	.-60     	; 0x255e <tickPS2CtrlInput+0x60>
    259a:	c2 e0       	ldi	r28, 0x02	; 2
    259c:	e0 cf       	rjmp	.-64     	; 0x255e <tickPS2CtrlInput+0x60>
    259e:	81 e0       	ldi	r24, 0x01	; 1
    25a0:	80 93 02 01 	sts	0x0102, r24	; 0x800102 <ps2CtrlType>
    25a4:	ea cf       	rjmp	.-44     	; 0x257a <tickPS2CtrlInput+0x7c>

000025a6 <twi_readFromPointerSlow.constprop.0>:
    25a6:	ff 92       	push	r15
    25a8:	0f 93       	push	r16
    25aa:	1f 93       	push	r17
    25ac:	cf 93       	push	r28
    25ae:	df 93       	push	r29
    25b0:	0f 92       	push	r0
    25b2:	cd b7       	in	r28, 0x3d	; 61
    25b4:	de b7       	in	r29, 0x3e	; 62
    25b6:	89 83       	std	Y+1, r24	; 0x01
    25b8:	f6 2e       	mov	r15, r22
    25ba:	8a 01       	movw	r16, r20
    25bc:	41 e0       	ldi	r20, 0x01	; 1
    25be:	be 01       	movw	r22, r28
    25c0:	6f 5f       	subi	r22, 0xFF	; 255
    25c2:	7f 4f       	sbci	r23, 0xFF	; 255
    25c4:	82 e5       	ldi	r24, 0x52	; 82
    25c6:	3b dd       	rcall	.-1418   	; 0x203e <twi_writeTo.constprop.0>
    25c8:	88 23       	and	r24, r24
    25ca:	51 f0       	breq	.+20     	; 0x25e0 <twi_readFromPointerSlow.constprop.0+0x3a>
    25cc:	87 e6       	ldi	r24, 0x67	; 103
    25ce:	91 e0       	ldi	r25, 0x01	; 1
    25d0:	01 97       	sbiw	r24, 0x01	; 1
    25d2:	f1 f7       	brne	.-4      	; 0x25d0 <twi_readFromPointerSlow.constprop.0+0x2a>
    25d4:	00 c0       	rjmp	.+0      	; 0x25d6 <twi_readFromPointerSlow.constprop.0+0x30>
    25d6:	00 00       	nop
    25d8:	4f 2d       	mov	r20, r15
    25da:	b8 01       	movw	r22, r16
    25dc:	82 e5       	ldi	r24, 0x52	; 82
    25de:	cf dc       	rcall	.-1634   	; 0x1f7e <twi_readFrom.constprop.0>
    25e0:	0f 90       	pop	r0
    25e2:	df 91       	pop	r29
    25e4:	cf 91       	pop	r28
    25e6:	1f 91       	pop	r17
    25e8:	0f 91       	pop	r16
    25ea:	ff 90       	pop	r15
    25ec:	08 95       	ret

000025ee <readExtID>:
    25ee:	cf 93       	push	r28
    25f0:	df 93       	push	r29
    25f2:	00 d0       	rcall	.+0      	; 0x25f4 <readExtID+0x6>
    25f4:	00 d0       	rcall	.+0      	; 0x25f6 <readExtID+0x8>
    25f6:	00 d0       	rcall	.+0      	; 0x25f8 <readExtID+0xa>
    25f8:	cd b7       	in	r28, 0x3d	; 61
    25fa:	de b7       	in	r29, 0x3e	; 62
    25fc:	ae 01       	movw	r20, r28
    25fe:	4f 5f       	subi	r20, 0xFF	; 255
    2600:	5f 4f       	sbci	r21, 0xFF	; 255
    2602:	66 e0       	ldi	r22, 0x06	; 6
    2604:	8a ef       	ldi	r24, 0xFA	; 250
    2606:	cf df       	rcall	.-98     	; 0x25a6 <twi_readFromPointerSlow.constprop.0>
    2608:	fe 01       	movw	r30, r28
    260a:	31 96       	adiw	r30, 0x01	; 1
    260c:	ae 01       	movw	r20, r28
    260e:	49 5f       	subi	r20, 0xF9	; 249
    2610:	5f 4f       	sbci	r21, 0xFF	; 255
    2612:	8f ef       	ldi	r24, 0xFF	; 255
    2614:	90 e0       	ldi	r25, 0x00	; 0
    2616:	21 91       	ld	r18, Z+
    2618:	92 2b       	or	r25, r18
    261a:	82 23       	and	r24, r18
    261c:	4e 17       	cp	r20, r30
    261e:	5f 07       	cpc	r21, r31
    2620:	d1 f7       	brne	.-12     	; 0x2616 <readExtID+0x28>
    2622:	99 23       	and	r25, r25
    2624:	69 f0       	breq	.+26     	; 0x2640 <readExtID+0x52>
    2626:	8f 3f       	cpi	r24, 0xFF	; 255
    2628:	59 f0       	breq	.+22     	; 0x2640 <readExtID+0x52>
    262a:	99 81       	ldd	r25, Y+1	; 0x01
    262c:	8e 81       	ldd	r24, Y+6	; 0x06
    262e:	26 96       	adiw	r28, 0x06	; 6
    2630:	0f b6       	in	r0, 0x3f	; 63
    2632:	f8 94       	cli
    2634:	de bf       	out	0x3e, r29	; 62
    2636:	0f be       	out	0x3f, r0	; 63
    2638:	cd bf       	out	0x3d, r28	; 61
    263a:	df 91       	pop	r29
    263c:	cf 91       	pop	r28
    263e:	08 95       	ret
    2640:	8f ef       	ldi	r24, 0xFF	; 255
    2642:	9f ef       	ldi	r25, 0xFF	; 255
    2644:	f4 cf       	rjmp	.-24     	; 0x262e <readExtID+0x40>

00002646 <initRF.constprop.0>:
    2646:	ff 92       	push	r15
    2648:	0f 93       	push	r16
    264a:	1f 93       	push	r17
    264c:	cf 93       	push	r28
    264e:	df 93       	push	r29
    2650:	cd b7       	in	r28, 0x3d	; 61
    2652:	de b7       	in	r29, 0x3e	; 62
    2654:	2a 97       	sbiw	r28, 0x0a	; 10
    2656:	0f b6       	in	r0, 0x3f	; 63
    2658:	f8 94       	cli
    265a:	de bf       	out	0x3e, r29	; 62
    265c:	0f be       	out	0x3f, r0	; 63
    265e:	cd bf       	out	0x3d, r28	; 61
    2660:	6b 83       	std	Y+3, r22	; 0x03
    2662:	7c 83       	std	Y+4, r23	; 0x04
    2664:	8d 83       	std	Y+5, r24	; 0x05
    2666:	9e 83       	std	Y+6, r25	; 0x06
    2668:	2f 83       	std	Y+7, r18	; 0x07
    266a:	38 87       	std	Y+8, r19	; 0x08
    266c:	49 87       	std	Y+9, r20	; 0x09
    266e:	5a 87       	std	Y+10, r21	; 0x0a
    2670:	81 e0       	ldi	r24, 0x01	; 1
    2672:	80 93 8c 02 	sts	0x028C, r24	; 0x80028c <rf_interrupt>
    2676:	60 e0       	ldi	r22, 0x00	; 0
    2678:	88 e0       	ldi	r24, 0x08	; 8
    267a:	76 d8       	rcall	.-3860   	; 0x1768 <pinMode>
    267c:	60 e0       	ldi	r22, 0x00	; 0
    267e:	8a e0       	ldi	r24, 0x0A	; 10
    2680:	73 d8       	rcall	.-3866   	; 0x1768 <pinMode>
    2682:	20 e0       	ldi	r18, 0x00	; 0
    2684:	40 e0       	ldi	r20, 0x00	; 0
    2686:	60 e0       	ldi	r22, 0x00	; 0
    2688:	72 e1       	ldi	r23, 0x12	; 18
    268a:	8a e7       	ldi	r24, 0x7A	; 122
    268c:	90 e0       	ldi	r25, 0x00	; 0
    268e:	a9 d8       	rcall	.-3758   	; 0x17e2 <spi_begin>
    2690:	60 e0       	ldi	r22, 0x00	; 0
    2692:	88 e0       	ldi	r24, 0x08	; 8
    2694:	04 d8       	rcall	.-4088   	; 0x169e <digitalWrite>
    2696:	81 e0       	ldi	r24, 0x01	; 1
    2698:	1e d9       	rcall	.-3524   	; 0x18d6 <nrf24_csn_digitalWrite>
    269a:	8f e0       	ldi	r24, 0x0F	; 15
    269c:	97 e2       	ldi	r25, 0x27	; 39
    269e:	01 97       	sbiw	r24, 0x01	; 1
    26a0:	f1 f7       	brne	.-4      	; 0x269e <initRF.constprop.0+0x58>
    26a2:	00 c0       	rjmp	.+0      	; 0x26a4 <initRF.constprop.0+0x5e>
    26a4:	00 00       	nop
    26a6:	61 ef       	ldi	r22, 0xF1	; 241
    26a8:	84 e0       	ldi	r24, 0x04	; 4
    26aa:	62 db       	rcall	.-2364   	; 0x1d70 <nrf24_configRegister>
    26ac:	62 e0       	ldi	r22, 0x02	; 2
    26ae:	83 e0       	ldi	r24, 0x03	; 3
    26b0:	5f db       	rcall	.-2370   	; 0x1d70 <nrf24_configRegister>
    26b2:	8e 01       	movw	r16, r28
    26b4:	0f 5f       	subi	r16, 0xFF	; 255
    26b6:	1f 4f       	sbci	r17, 0xFF	; 255
    26b8:	b8 01       	movw	r22, r16
    26ba:	86 e0       	ldi	r24, 0x06	; 6
    26bc:	be db       	rcall	.-2180   	; 0x1e3a <nrf24_readRegister.constprop.0>
    26be:	69 81       	ldd	r22, Y+1	; 0x01
    26c0:	69 7f       	andi	r22, 0xF9	; 249
    26c2:	69 83       	std	Y+1, r22	; 0x01
    26c4:	86 e0       	ldi	r24, 0x06	; 6
    26c6:	54 db       	rcall	.-2392   	; 0x1d70 <nrf24_configRegister>
    26c8:	8d e1       	ldi	r24, 0x1D	; 29
    26ca:	c8 db       	rcall	.-2160   	; 0x1e5c <nrf24_readRegister1>
    26cc:	f8 2e       	mov	r15, r24
    26ce:	2a db       	rcall	.-2476   	; 0x1d24 <nrf24_toggle_features>
    26d0:	8d e1       	ldi	r24, 0x1D	; 29
    26d2:	c4 db       	rcall	.-2168   	; 0x1e5c <nrf24_readRegister1>
    26d4:	88 23       	and	r24, r24
    26d6:	31 f0       	breq	.+12     	; 0x26e4 <initRF.constprop.0+0x9e>
    26d8:	f8 12       	cpse	r15, r24
    26da:	01 c0       	rjmp	.+2      	; 0x26de <initRF.constprop.0+0x98>
    26dc:	23 db       	rcall	.-2490   	; 0x1d24 <nrf24_toggle_features>
    26de:	60 e0       	ldi	r22, 0x00	; 0
    26e0:	8d e1       	ldi	r24, 0x1D	; 29
    26e2:	46 db       	rcall	.-2420   	; 0x1d70 <nrf24_configRegister>
    26e4:	be 01       	movw	r22, r28
    26e6:	6e 5f       	subi	r22, 0xFE	; 254
    26e8:	7f 4f       	sbci	r23, 0xFF	; 255
    26ea:	86 e0       	ldi	r24, 0x06	; 6
    26ec:	a6 db       	rcall	.-2228   	; 0x1e3a <nrf24_readRegister.constprop.0>
    26ee:	6a 81       	ldd	r22, Y+2	; 0x02
    26f0:	67 7d       	andi	r22, 0xD7	; 215
    26f2:	63 60       	ori	r22, 0x03	; 3
    26f4:	6a 83       	std	Y+2, r22	; 0x02
    26f6:	86 e0       	ldi	r24, 0x06	; 6
    26f8:	3b db       	rcall	.-2442   	; 0x1d70 <nrf24_configRegister>
    26fa:	b8 01       	movw	r22, r16
    26fc:	86 e0       	ldi	r24, 0x06	; 6
    26fe:	9d db       	rcall	.-2246   	; 0x1e3a <nrf24_readRegister.constprop.0>
    2700:	b8 01       	movw	r22, r16
    2702:	80 e0       	ldi	r24, 0x00	; 0
    2704:	9a db       	rcall	.-2252   	; 0x1e3a <nrf24_readRegister.constprop.0>
    2706:	69 81       	ldd	r22, Y+1	; 0x01
    2708:	6c 60       	ori	r22, 0x0C	; 12
    270a:	69 83       	std	Y+1, r22	; 0x01
    270c:	80 e0       	ldi	r24, 0x00	; 0
    270e:	30 db       	rcall	.-2464   	; 0x1d70 <nrf24_configRegister>
    2710:	6c e4       	ldi	r22, 0x4C	; 76
    2712:	85 e0       	ldi	r24, 0x05	; 5
    2714:	2d db       	rcall	.-2470   	; 0x1d70 <nrf24_configRegister>
    2716:	8d e1       	ldi	r24, 0x1D	; 29
    2718:	a1 db       	rcall	.-2238   	; 0x1e5c <nrf24_readRegister1>
    271a:	68 2f       	mov	r22, r24
    271c:	64 60       	ori	r22, 0x04	; 4
    271e:	8d e1       	ldi	r24, 0x1D	; 29
    2720:	27 db       	rcall	.-2482   	; 0x1d70 <nrf24_configRegister>
    2722:	8c e1       	ldi	r24, 0x1C	; 28
    2724:	9b db       	rcall	.-2250   	; 0x1e5c <nrf24_readRegister1>
    2726:	68 2f       	mov	r22, r24
    2728:	6f 63       	ori	r22, 0x3F	; 63
    272a:	8c e1       	ldi	r24, 0x1C	; 28
    272c:	21 db       	rcall	.-2494   	; 0x1d70 <nrf24_configRegister>
    272e:	8d e1       	ldi	r24, 0x1D	; 29
    2730:	95 db       	rcall	.-2262   	; 0x1e5c <nrf24_readRegister1>
    2732:	68 2f       	mov	r22, r24
    2734:	66 60       	ori	r22, 0x06	; 6
    2736:	8d e1       	ldi	r24, 0x1D	; 29
    2738:	1b db       	rcall	.-2506   	; 0x1d70 <nrf24_configRegister>
    273a:	8c e1       	ldi	r24, 0x1C	; 28
    273c:	8f db       	rcall	.-2274   	; 0x1e5c <nrf24_readRegister1>
    273e:	68 2f       	mov	r22, r24
    2740:	63 60       	ori	r22, 0x03	; 3
    2742:	8c e1       	ldi	r24, 0x1C	; 28
    2744:	15 db       	rcall	.-2518   	; 0x1d70 <nrf24_configRegister>
    2746:	6f e3       	ldi	r22, 0x3F	; 63
    2748:	81 e0       	ldi	r24, 0x01	; 1
    274a:	12 db       	rcall	.-2524   	; 0x1d70 <nrf24_configRegister>
    274c:	60 e7       	ldi	r22, 0x70	; 112
    274e:	87 e0       	ldi	r24, 0x07	; 7
    2750:	0f db       	rcall	.-2530   	; 0x1d70 <nrf24_configRegister>
    2752:	e2 da       	rcall	.-2620   	; 0x1d18 <nrf24_flush_rx>
    2754:	db da       	rcall	.-2634   	; 0x1d0c <nrf24_flush_tx>
    2756:	19 82       	std	Y+1, r1	; 0x01
    2758:	b8 01       	movw	r22, r16
    275a:	80 e0       	ldi	r24, 0x00	; 0
    275c:	6e db       	rcall	.-2340   	; 0x1e3a <nrf24_readRegister.constprop.0>
    275e:	89 81       	ldd	r24, Y+1	; 0x01
    2760:	8c 78       	andi	r24, 0x8C	; 140
    2762:	89 83       	std	Y+1, r24	; 0x01
    2764:	60 e0       	ldi	r22, 0x00	; 0
    2766:	88 e0       	ldi	r24, 0x08	; 8
    2768:	0e 94 4f 0b 	call	0x169e	; 0x169e <digitalWrite>
    276c:	69 81       	ldd	r22, Y+1	; 0x01
    276e:	62 60       	ori	r22, 0x02	; 2
    2770:	80 e0       	ldi	r24, 0x00	; 0
    2772:	fe da       	rcall	.-2564   	; 0x1d70 <nrf24_configRegister>
    2774:	61 e0       	ldi	r22, 0x01	; 1
    2776:	88 e0       	ldi	r24, 0x08	; 8
    2778:	0e 94 4f 0b 	call	0x169e	; 0x169e <digitalWrite>
    277c:	be 01       	movw	r22, r28
    277e:	6d 5f       	subi	r22, 0xFD	; 253
    2780:	7f 4f       	sbci	r23, 0xFF	; 255
    2782:	8a e0       	ldi	r24, 0x0A	; 10
    2784:	46 db       	rcall	.-2420   	; 0x1e12 <nrf24_writeRegister.constprop.0>
    2786:	be 01       	movw	r22, r28
    2788:	6d 5f       	subi	r22, 0xFD	; 253
    278a:	7f 4f       	sbci	r23, 0xFF	; 255
    278c:	80 e1       	ldi	r24, 0x10	; 16
    278e:	41 db       	rcall	.-2430   	; 0x1e12 <nrf24_writeRegister.constprop.0>
    2790:	60 e0       	ldi	r22, 0x00	; 0
    2792:	88 e0       	ldi	r24, 0x08	; 8
    2794:	0e 94 4f 0b 	call	0x169e	; 0x169e <digitalWrite>
    2798:	be 01       	movw	r22, r28
    279a:	69 5f       	subi	r22, 0xF9	; 249
    279c:	7f 4f       	sbci	r23, 0xFF	; 255
    279e:	8b e0       	ldi	r24, 0x0B	; 11
    27a0:	38 db       	rcall	.-2448   	; 0x1e12 <nrf24_writeRegister.constprop.0>
    27a2:	63 e0       	ldi	r22, 0x03	; 3
    27a4:	82 e0       	ldi	r24, 0x02	; 2
    27a6:	e4 da       	rcall	.-2616   	; 0x1d70 <nrf24_configRegister>
    27a8:	61 e0       	ldi	r22, 0x01	; 1
    27aa:	88 e0       	ldi	r24, 0x08	; 8
    27ac:	0e 94 4f 0b 	call	0x169e	; 0x169e <digitalWrite>
    27b0:	80 91 69 00 	lds	r24, 0x0069	; 0x800069 <__TEXT_REGION_LENGTH__+0x7e0069>
    27b4:	82 60       	ori	r24, 0x02	; 2
    27b6:	80 93 69 00 	sts	0x0069, r24	; 0x800069 <__TEXT_REGION_LENGTH__+0x7e0069>
    27ba:	e8 9a       	sbi	0x1d, 0	; 29
    27bc:	2a 96       	adiw	r28, 0x0a	; 10
    27be:	0f b6       	in	r0, 0x3f	; 63
    27c0:	f8 94       	cli
    27c2:	de bf       	out	0x3e, r29	; 62
    27c4:	0f be       	out	0x3f, r0	; 63
    27c6:	cd bf       	out	0x3d, r28	; 61
    27c8:	df 91       	pop	r29
    27ca:	cf 91       	pop	r28
    27cc:	1f 91       	pop	r17
    27ce:	0f 91       	pop	r16
    27d0:	ff 90       	pop	r15
    27d2:	08 95       	ret

000027d4 <resetConfig>:
    27d4:	cf 93       	push	r28
    27d6:	df 93       	push	r29
    27d8:	cd b7       	in	r28, 0x3d	; 61
    27da:	de b7       	in	r29, 0x3e	; 62
    27dc:	c2 51       	subi	r28, 0x12	; 18
    27de:	d1 40       	sbci	r29, 0x01	; 1
    27e0:	0f b6       	in	r0, 0x3f	; 63
    27e2:	f8 94       	cli
    27e4:	de bf       	out	0x3e, r29	; 62
    27e6:	0f be       	out	0x3f, r0	; 63
    27e8:	cd bf       	out	0x3d, r28	; 61
    27ea:	42 e1       	ldi	r20, 0x12	; 18
    27ec:	51 e0       	ldi	r21, 0x01	; 1
    27ee:	6f eb       	ldi	r22, 0xBF	; 191
    27f0:	70 e0       	ldi	r23, 0x00	; 0
    27f2:	ce 01       	movw	r24, r28
    27f4:	01 96       	adiw	r24, 0x01	; 1
    27f6:	0e 94 e9 2b 	call	0x57d2	; 0x57d2 <memcpy_P>
    27fa:	42 e1       	ldi	r20, 0x12	; 18
    27fc:	51 e0       	ldi	r21, 0x01	; 1
    27fe:	61 e0       	ldi	r22, 0x01	; 1
    2800:	70 e0       	ldi	r23, 0x00	; 0
    2802:	ce 01       	movw	r24, r28
    2804:	01 96       	adiw	r24, 0x01	; 1
    2806:	0e 94 26 2c 	call	0x584c	; 0x584c <eeprom_update_block>
    280a:	ce 5e       	subi	r28, 0xEE	; 238
    280c:	de 4f       	sbci	r29, 0xFE	; 254
    280e:	0f b6       	in	r0, 0x3f	; 63
    2810:	f8 94       	cli
    2812:	de bf       	out	0x3e, r29	; 62
    2814:	0f be       	out	0x3f, r0	; 63
    2816:	cd bf       	out	0x3d, r28	; 61
    2818:	df 91       	pop	r29
    281a:	cf 91       	pop	r28
    281c:	08 95       	ret

0000281e <twi_writeToPointer>:
    281e:	ef 92       	push	r14
    2820:	ff 92       	push	r15
    2822:	0f 93       	push	r16
    2824:	1f 93       	push	r17
    2826:	cf 93       	push	r28
    2828:	df 93       	push	r29
    282a:	00 d0       	rcall	.+0      	; 0x282c <twi_writeToPointer+0xe>
    282c:	cd b7       	in	r28, 0x3d	; 61
    282e:	de b7       	in	r29, 0x3e	; 62
    2830:	08 2f       	mov	r16, r24
    2832:	14 2f       	mov	r17, r20
    2834:	73 2f       	mov	r23, r19
    2836:	8d b7       	in	r24, 0x3d	; 61
    2838:	9e b7       	in	r25, 0x3e	; 62
    283a:	9a 83       	std	Y+2, r25	; 0x02
    283c:	89 83       	std	Y+1, r24	; 0x01
    283e:	50 e0       	ldi	r21, 0x00	; 0
    2840:	ca 01       	movw	r24, r20
    2842:	01 96       	adiw	r24, 0x01	; 1
    2844:	ed b7       	in	r30, 0x3d	; 61
    2846:	fe b7       	in	r31, 0x3e	; 62
    2848:	e8 1b       	sub	r30, r24
    284a:	f9 0b       	sbc	r31, r25
    284c:	0f b6       	in	r0, 0x3f	; 63
    284e:	f8 94       	cli
    2850:	fe bf       	out	0x3e, r31	; 62
    2852:	0f be       	out	0x3f, r0	; 63
    2854:	ed bf       	out	0x3d, r30	; 61
    2856:	8d b7       	in	r24, 0x3d	; 61
    2858:	9e b7       	in	r25, 0x3e	; 62
    285a:	01 96       	adiw	r24, 0x01	; 1
    285c:	7c 01       	movw	r14, r24
    285e:	61 83       	std	Z+1, r22	; 0x01
    2860:	62 2f       	mov	r22, r18
    2862:	01 96       	adiw	r24, 0x01	; 1
    2864:	0e 94 06 2c 	call	0x580c	; 0x580c <memcpy>
    2868:	41 e0       	ldi	r20, 0x01	; 1
    286a:	41 0f       	add	r20, r17
    286c:	b7 01       	movw	r22, r14
    286e:	80 2f       	mov	r24, r16
    2870:	e6 db       	rcall	.-2100   	; 0x203e <twi_writeTo.constprop.0>
    2872:	e9 81       	ldd	r30, Y+1	; 0x01
    2874:	fa 81       	ldd	r31, Y+2	; 0x02
    2876:	0f b6       	in	r0, 0x3f	; 63
    2878:	f8 94       	cli
    287a:	fe bf       	out	0x3e, r31	; 62
    287c:	0f be       	out	0x3f, r0	; 63
    287e:	ed bf       	out	0x3d, r30	; 61
    2880:	0f 90       	pop	r0
    2882:	0f 90       	pop	r0
    2884:	df 91       	pop	r29
    2886:	cf 91       	pop	r28
    2888:	1f 91       	pop	r17
    288a:	0f 91       	pop	r16
    288c:	ff 90       	pop	r15
    288e:	ef 90       	pop	r14
    2890:	08 95       	ret

00002892 <mpu_reset_fifo>:
    2892:	ef 92       	push	r14
    2894:	ff 92       	push	r15
    2896:	0f 93       	push	r16
    2898:	1f 93       	push	r17
    289a:	cf 93       	push	r28
    289c:	df 93       	push	r29
    289e:	0f 92       	push	r0
    28a0:	cd b7       	in	r28, 0x3d	; 61
    28a2:	de b7       	in	r29, 0x3e	; 62
    28a4:	80 91 0c 01 	lds	r24, 0x010C	; 0x80010c <st+0x6>
    28a8:	81 11       	cpse	r24, r1
    28aa:	09 c0       	rjmp	.+18     	; 0x28be <mpu_reset_fifo+0x2c>
    28ac:	8f ef       	ldi	r24, 0xFF	; 255
    28ae:	0f 90       	pop	r0
    28b0:	df 91       	pop	r29
    28b2:	cf 91       	pop	r28
    28b4:	1f 91       	pop	r17
    28b6:	0f 91       	pop	r16
    28b8:	ff 90       	pop	r15
    28ba:	ef 90       	pop	r14
    28bc:	08 95       	ret
    28be:	19 82       	std	Y+1, r1	; 0x01
    28c0:	a0 91 06 01 	lds	r26, 0x0106	; 0x800106 <st>
    28c4:	b0 91 07 01 	lds	r27, 0x0107	; 0x800107 <st+0x1>
    28c8:	e0 91 08 01 	lds	r30, 0x0108	; 0x800108 <st+0x2>
    28cc:	f0 91 09 01 	lds	r31, 0x0109	; 0x800109 <st+0x3>
    28d0:	8e 01       	movw	r16, r28
    28d2:	0f 5f       	subi	r16, 0xFF	; 255
    28d4:	1f 4f       	sbci	r17, 0xFF	; 255
    28d6:	98 01       	movw	r18, r16
    28d8:	41 e0       	ldi	r20, 0x01	; 1
    28da:	51 96       	adiw	r26, 0x11	; 17
    28dc:	6c 91       	ld	r22, X
    28de:	80 81       	ld	r24, Z
    28e0:	9e df       	rcall	.-196    	; 0x281e <twi_writeToPointer>
    28e2:	78 01       	movw	r14, r16
    28e4:	88 23       	and	r24, r24
    28e6:	11 f3       	breq	.-60     	; 0x28ac <mpu_reset_fifo+0x1a>
    28e8:	a0 91 06 01 	lds	r26, 0x0106	; 0x800106 <st>
    28ec:	b0 91 07 01 	lds	r27, 0x0107	; 0x800107 <st+0x1>
    28f0:	e0 91 08 01 	lds	r30, 0x0108	; 0x800108 <st+0x2>
    28f4:	f0 91 09 01 	lds	r31, 0x0109	; 0x800109 <st+0x3>
    28f8:	98 01       	movw	r18, r16
    28fa:	41 e0       	ldi	r20, 0x01	; 1
    28fc:	15 96       	adiw	r26, 0x05	; 5
    28fe:	6c 91       	ld	r22, X
    2900:	80 81       	ld	r24, Z
    2902:	8d df       	rcall	.-230    	; 0x281e <twi_writeToPointer>
    2904:	88 23       	and	r24, r24
    2906:	91 f2       	breq	.-92     	; 0x28ac <mpu_reset_fifo+0x1a>
    2908:	a0 91 06 01 	lds	r26, 0x0106	; 0x800106 <st>
    290c:	b0 91 07 01 	lds	r27, 0x0107	; 0x800107 <st+0x1>
    2910:	e0 91 08 01 	lds	r30, 0x0108	; 0x800108 <st+0x2>
    2914:	f0 91 09 01 	lds	r31, 0x0109	; 0x800109 <st+0x3>
    2918:	98 01       	movw	r18, r16
    291a:	41 e0       	ldi	r20, 0x01	; 1
    291c:	14 96       	adiw	r26, 0x04	; 4
    291e:	6c 91       	ld	r22, X
    2920:	80 81       	ld	r24, Z
    2922:	7d df       	rcall	.-262    	; 0x281e <twi_writeToPointer>
    2924:	88 23       	and	r24, r24
    2926:	09 f4       	brne	.+2      	; 0x292a <mpu_reset_fifo+0x98>
    2928:	c1 cf       	rjmp	.-126    	; 0x28ac <mpu_reset_fifo+0x1a>
    292a:	e0 91 06 01 	lds	r30, 0x0106	; 0x800106 <st>
    292e:	f0 91 07 01 	lds	r31, 0x0107	; 0x800107 <st+0x1>
    2932:	64 81       	ldd	r22, Z+4	; 0x04
    2934:	e0 91 08 01 	lds	r30, 0x0108	; 0x800108 <st+0x2>
    2938:	f0 91 09 01 	lds	r31, 0x0109	; 0x800109 <st+0x3>
    293c:	80 91 23 01 	lds	r24, 0x0123	; 0x800123 <st+0x1d>
    2940:	88 23       	and	r24, r24
    2942:	09 f4       	brne	.+2      	; 0x2946 <mpu_reset_fifo+0xb4>
    2944:	57 c0       	rjmp	.+174    	; 0x29f4 <mpu_reset_fifo+0x162>
    2946:	8c e0       	ldi	r24, 0x0C	; 12
    2948:	89 83       	std	Y+1, r24	; 0x01
    294a:	98 01       	movw	r18, r16
    294c:	41 e0       	ldi	r20, 0x01	; 1
    294e:	80 81       	ld	r24, Z
    2950:	66 df       	rcall	.-308    	; 0x281e <twi_writeToPointer>
    2952:	88 23       	and	r24, r24
    2954:	09 f4       	brne	.+2      	; 0x2958 <mpu_reset_fifo+0xc6>
    2956:	aa cf       	rjmp	.-172    	; 0x28ac <mpu_reset_fifo+0x1a>
    2958:	2f e7       	ldi	r18, 0x7F	; 127
    295a:	88 e3       	ldi	r24, 0x38	; 56
    295c:	91 e0       	ldi	r25, 0x01	; 1
    295e:	21 50       	subi	r18, 0x01	; 1
    2960:	80 40       	sbci	r24, 0x00	; 0
    2962:	90 40       	sbci	r25, 0x00	; 0
    2964:	e1 f7       	brne	.-8      	; 0x295e <mpu_reset_fifo+0xcc>
    2966:	00 c0       	rjmp	.+0      	; 0x2968 <mpu_reset_fifo+0xd6>
    2968:	00 00       	nop
    296a:	80 ec       	ldi	r24, 0xC0	; 192
    296c:	89 83       	std	Y+1, r24	; 0x01
    296e:	80 91 0c 01 	lds	r24, 0x010C	; 0x80010c <st+0x6>
    2972:	80 ff       	sbrs	r24, 0
    2974:	02 c0       	rjmp	.+4      	; 0x297a <mpu_reset_fifo+0xe8>
    2976:	80 ee       	ldi	r24, 0xE0	; 224
    2978:	89 83       	std	Y+1, r24	; 0x01
    297a:	a0 91 06 01 	lds	r26, 0x0106	; 0x800106 <st>
    297e:	b0 91 07 01 	lds	r27, 0x0107	; 0x800107 <st+0x1>
    2982:	e0 91 08 01 	lds	r30, 0x0108	; 0x800108 <st+0x2>
    2986:	f0 91 09 01 	lds	r31, 0x0109	; 0x800109 <st+0x3>
    298a:	97 01       	movw	r18, r14
    298c:	41 e0       	ldi	r20, 0x01	; 1
    298e:	14 96       	adiw	r26, 0x04	; 4
    2990:	6c 91       	ld	r22, X
    2992:	80 81       	ld	r24, Z
    2994:	44 df       	rcall	.-376    	; 0x281e <twi_writeToPointer>
    2996:	88 23       	and	r24, r24
    2998:	09 f4       	brne	.+2      	; 0x299c <mpu_reset_fifo+0x10a>
    299a:	88 cf       	rjmp	.-240    	; 0x28ac <mpu_reset_fifo+0x1a>
    299c:	80 91 12 01 	lds	r24, 0x0112	; 0x800112 <st+0xc>
    29a0:	88 23       	and	r24, r24
    29a2:	31 f1       	breq	.+76     	; 0x29f0 <mpu_reset_fifo+0x15e>
    29a4:	82 e0       	ldi	r24, 0x02	; 2
    29a6:	89 83       	std	Y+1, r24	; 0x01
    29a8:	a0 91 06 01 	lds	r26, 0x0106	; 0x800106 <st>
    29ac:	b0 91 07 01 	lds	r27, 0x0107	; 0x800107 <st+0x1>
    29b0:	e0 91 08 01 	lds	r30, 0x0108	; 0x800108 <st+0x2>
    29b4:	f0 91 09 01 	lds	r31, 0x0109	; 0x800109 <st+0x3>
    29b8:	97 01       	movw	r18, r14
    29ba:	41 e0       	ldi	r20, 0x01	; 1
    29bc:	51 96       	adiw	r26, 0x11	; 17
    29be:	6c 91       	ld	r22, X
    29c0:	80 81       	ld	r24, Z
    29c2:	2d df       	rcall	.-422    	; 0x281e <twi_writeToPointer>
    29c4:	88 23       	and	r24, r24
    29c6:	09 f4       	brne	.+2      	; 0x29ca <mpu_reset_fifo+0x138>
    29c8:	71 cf       	rjmp	.-286    	; 0x28ac <mpu_reset_fifo+0x1a>
    29ca:	19 82       	std	Y+1, r1	; 0x01
    29cc:	a0 91 06 01 	lds	r26, 0x0106	; 0x800106 <st>
    29d0:	b0 91 07 01 	lds	r27, 0x0107	; 0x800107 <st+0x1>
    29d4:	e0 91 08 01 	lds	r30, 0x0108	; 0x800108 <st+0x2>
    29d8:	f0 91 09 01 	lds	r31, 0x0109	; 0x800109 <st+0x3>
    29dc:	97 01       	movw	r18, r14
    29de:	41 e0       	ldi	r20, 0x01	; 1
    29e0:	15 96       	adiw	r26, 0x05	; 5
    29e2:	6c 91       	ld	r22, X
    29e4:	80 81       	ld	r24, Z
    29e6:	1b df       	rcall	.-458    	; 0x281e <twi_writeToPointer>
    29e8:	91 e0       	ldi	r25, 0x01	; 1
    29ea:	89 27       	eor	r24, r25
    29ec:	81 95       	neg	r24
    29ee:	5f cf       	rjmp	.-322    	; 0x28ae <mpu_reset_fifo+0x1c>
    29f0:	19 82       	std	Y+1, r1	; 0x01
    29f2:	da cf       	rjmp	.-76     	; 0x29a8 <mpu_reset_fifo+0x116>
    29f4:	84 e0       	ldi	r24, 0x04	; 4
    29f6:	89 83       	std	Y+1, r24	; 0x01
    29f8:	98 01       	movw	r18, r16
    29fa:	41 e0       	ldi	r20, 0x01	; 1
    29fc:	80 81       	ld	r24, Z
    29fe:	0f df       	rcall	.-482    	; 0x281e <twi_writeToPointer>
    2a00:	88 23       	and	r24, r24
    2a02:	09 f4       	brne	.+2      	; 0x2a06 <mpu_reset_fifo+0x174>
    2a04:	53 cf       	rjmp	.-346    	; 0x28ac <mpu_reset_fifo+0x1a>
    2a06:	80 91 13 01 	lds	r24, 0x0113	; 0x800113 <st+0xd>
    2a0a:	81 11       	cpse	r24, r1
    2a0c:	04 c0       	rjmp	.+8      	; 0x2a16 <mpu_reset_fifo+0x184>
    2a0e:	80 91 0c 01 	lds	r24, 0x010C	; 0x80010c <st+0x6>
    2a12:	80 fd       	sbrc	r24, 0
    2a14:	3e c0       	rjmp	.+124    	; 0x2a92 <mpu_reset_fifo+0x200>
    2a16:	80 e4       	ldi	r24, 0x40	; 64
    2a18:	89 83       	std	Y+1, r24	; 0x01
    2a1a:	a0 91 06 01 	lds	r26, 0x0106	; 0x800106 <st>
    2a1e:	b0 91 07 01 	lds	r27, 0x0107	; 0x800107 <st+0x1>
    2a22:	e0 91 08 01 	lds	r30, 0x0108	; 0x800108 <st+0x2>
    2a26:	f0 91 09 01 	lds	r31, 0x0109	; 0x800109 <st+0x3>
    2a2a:	97 01       	movw	r18, r14
    2a2c:	41 e0       	ldi	r20, 0x01	; 1
    2a2e:	14 96       	adiw	r26, 0x04	; 4
    2a30:	6c 91       	ld	r22, X
    2a32:	80 81       	ld	r24, Z
    2a34:	f4 de       	rcall	.-536    	; 0x281e <twi_writeToPointer>
    2a36:	88 23       	and	r24, r24
    2a38:	09 f4       	brne	.+2      	; 0x2a3c <mpu_reset_fifo+0x1aa>
    2a3a:	38 cf       	rjmp	.-400    	; 0x28ac <mpu_reset_fifo+0x1a>
    2a3c:	2f e7       	ldi	r18, 0x7F	; 127
    2a3e:	88 e3       	ldi	r24, 0x38	; 56
    2a40:	91 e0       	ldi	r25, 0x01	; 1
    2a42:	21 50       	subi	r18, 0x01	; 1
    2a44:	80 40       	sbci	r24, 0x00	; 0
    2a46:	90 40       	sbci	r25, 0x00	; 0
    2a48:	e1 f7       	brne	.-8      	; 0x2a42 <mpu_reset_fifo+0x1b0>
    2a4a:	00 c0       	rjmp	.+0      	; 0x2a4c <mpu_reset_fifo+0x1ba>
    2a4c:	00 00       	nop
    2a4e:	80 91 12 01 	lds	r24, 0x0112	; 0x800112 <st+0xc>
    2a52:	88 23       	and	r24, r24
    2a54:	01 f1       	breq	.+64     	; 0x2a96 <mpu_reset_fifo+0x204>
    2a56:	81 e0       	ldi	r24, 0x01	; 1
    2a58:	89 83       	std	Y+1, r24	; 0x01
    2a5a:	a0 91 06 01 	lds	r26, 0x0106	; 0x800106 <st>
    2a5e:	b0 91 07 01 	lds	r27, 0x0107	; 0x800107 <st+0x1>
    2a62:	e0 91 08 01 	lds	r30, 0x0108	; 0x800108 <st+0x2>
    2a66:	f0 91 09 01 	lds	r31, 0x0109	; 0x800109 <st+0x3>
    2a6a:	97 01       	movw	r18, r14
    2a6c:	41 e0       	ldi	r20, 0x01	; 1
    2a6e:	51 96       	adiw	r26, 0x11	; 17
    2a70:	6c 91       	ld	r22, X
    2a72:	80 81       	ld	r24, Z
    2a74:	d4 de       	rcall	.-600    	; 0x281e <twi_writeToPointer>
    2a76:	88 23       	and	r24, r24
    2a78:	09 f4       	brne	.+2      	; 0x2a7c <mpu_reset_fifo+0x1ea>
    2a7a:	18 cf       	rjmp	.-464    	; 0x28ac <mpu_reset_fifo+0x1a>
    2a7c:	a0 91 06 01 	lds	r26, 0x0106	; 0x800106 <st>
    2a80:	b0 91 07 01 	lds	r27, 0x0107	; 0x800107 <st+0x1>
    2a84:	e0 91 08 01 	lds	r30, 0x0108	; 0x800108 <st+0x2>
    2a88:	f0 91 09 01 	lds	r31, 0x0109	; 0x800109 <st+0x3>
    2a8c:	21 e1       	ldi	r18, 0x11	; 17
    2a8e:	31 e0       	ldi	r19, 0x01	; 1
    2a90:	a6 cf       	rjmp	.-180    	; 0x29de <mpu_reset_fifo+0x14c>
    2a92:	80 e6       	ldi	r24, 0x60	; 96
    2a94:	c1 cf       	rjmp	.-126    	; 0x2a18 <mpu_reset_fifo+0x186>
    2a96:	19 82       	std	Y+1, r1	; 0x01
    2a98:	e0 cf       	rjmp	.-64     	; 0x2a5a <mpu_reset_fifo+0x1c8>

00002a9a <mpu_set_lpf>:
    2a9a:	cf 93       	push	r28
    2a9c:	df 93       	push	r29
    2a9e:	0f 92       	push	r0
    2aa0:	cd b7       	in	r28, 0x3d	; 61
    2aa2:	de b7       	in	r29, 0x3e	; 62
    2aa4:	9c 01       	movw	r18, r24
    2aa6:	80 91 0c 01 	lds	r24, 0x010C	; 0x80010c <st+0x6>
    2aaa:	81 11       	cpse	r24, r1
    2aac:	05 c0       	rjmp	.+10     	; 0x2ab8 <mpu_set_lpf+0x1e>
    2aae:	8f ef       	ldi	r24, 0xFF	; 255
    2ab0:	0f 90       	pop	r0
    2ab2:	df 91       	pop	r29
    2ab4:	cf 91       	pop	r28
    2ab6:	08 95       	ret
    2ab8:	81 e0       	ldi	r24, 0x01	; 1
    2aba:	2c 3b       	cpi	r18, 0xBC	; 188
    2abc:	31 05       	cpc	r19, r1
    2abe:	88 f4       	brcc	.+34     	; 0x2ae2 <mpu_set_lpf+0x48>
    2ac0:	82 e0       	ldi	r24, 0x02	; 2
    2ac2:	22 36       	cpi	r18, 0x62	; 98
    2ac4:	31 05       	cpc	r19, r1
    2ac6:	68 f4       	brcc	.+26     	; 0x2ae2 <mpu_set_lpf+0x48>
    2ac8:	83 e0       	ldi	r24, 0x03	; 3
    2aca:	2a 32       	cpi	r18, 0x2A	; 42
    2acc:	31 05       	cpc	r19, r1
    2ace:	48 f4       	brcc	.+18     	; 0x2ae2 <mpu_set_lpf+0x48>
    2ad0:	84 e0       	ldi	r24, 0x04	; 4
    2ad2:	24 31       	cpi	r18, 0x14	; 20
    2ad4:	31 05       	cpc	r19, r1
    2ad6:	28 f4       	brcc	.+10     	; 0x2ae2 <mpu_set_lpf+0x48>
    2ad8:	85 e0       	ldi	r24, 0x05	; 5
    2ada:	2a 30       	cpi	r18, 0x0A	; 10
    2adc:	31 05       	cpc	r19, r1
    2ade:	08 f4       	brcc	.+2      	; 0x2ae2 <mpu_set_lpf+0x48>
    2ae0:	86 e0       	ldi	r24, 0x06	; 6
    2ae2:	89 83       	std	Y+1, r24	; 0x01
    2ae4:	90 91 0d 01 	lds	r25, 0x010D	; 0x80010d <st+0x7>
    2ae8:	89 81       	ldd	r24, Y+1	; 0x01
    2aea:	98 17       	cp	r25, r24
    2aec:	a9 f0       	breq	.+42     	; 0x2b18 <mpu_set_lpf+0x7e>
    2aee:	a0 91 06 01 	lds	r26, 0x0106	; 0x800106 <st>
    2af2:	b0 91 07 01 	lds	r27, 0x0107	; 0x800107 <st+0x1>
    2af6:	e0 91 08 01 	lds	r30, 0x0108	; 0x800108 <st+0x2>
    2afa:	f0 91 09 01 	lds	r31, 0x0109	; 0x800109 <st+0x3>
    2afe:	9e 01       	movw	r18, r28
    2b00:	2f 5f       	subi	r18, 0xFF	; 255
    2b02:	3f 4f       	sbci	r19, 0xFF	; 255
    2b04:	41 e0       	ldi	r20, 0x01	; 1
    2b06:	12 96       	adiw	r26, 0x02	; 2
    2b08:	6c 91       	ld	r22, X
    2b0a:	80 81       	ld	r24, Z
    2b0c:	88 de       	rcall	.-752    	; 0x281e <twi_writeToPointer>
    2b0e:	88 23       	and	r24, r24
    2b10:	71 f2       	breq	.-100    	; 0x2aae <mpu_set_lpf+0x14>
    2b12:	89 81       	ldd	r24, Y+1	; 0x01
    2b14:	80 93 0d 01 	sts	0x010D, r24	; 0x80010d <st+0x7>
    2b18:	80 e0       	ldi	r24, 0x00	; 0
    2b1a:	ca cf       	rjmp	.-108    	; 0x2ab0 <mpu_set_lpf+0x16>

00002b1c <mpu_write_mem>:
    2b1c:	ef 92       	push	r14
    2b1e:	ff 92       	push	r15
    2b20:	0f 93       	push	r16
    2b22:	1f 93       	push	r17
    2b24:	cf 93       	push	r28
    2b26:	df 93       	push	r29
    2b28:	00 d0       	rcall	.+0      	; 0x2b2a <mpu_write_mem+0xe>
    2b2a:	cd b7       	in	r28, 0x3d	; 61
    2b2c:	de b7       	in	r29, 0x3e	; 62
    2b2e:	fc 01       	movw	r30, r24
    2b30:	8b 01       	movw	r16, r22
    2b32:	7a 01       	movw	r14, r20
    2b34:	80 91 0c 01 	lds	r24, 0x010C	; 0x80010c <st+0x6>
    2b38:	81 11       	cpse	r24, r1
    2b3a:	0a c0       	rjmp	.+20     	; 0x2b50 <mpu_write_mem+0x34>
    2b3c:	8f ef       	ldi	r24, 0xFF	; 255
    2b3e:	0f 90       	pop	r0
    2b40:	0f 90       	pop	r0
    2b42:	df 91       	pop	r29
    2b44:	cf 91       	pop	r28
    2b46:	1f 91       	pop	r17
    2b48:	0f 91       	pop	r16
    2b4a:	ff 90       	pop	r15
    2b4c:	ef 90       	pop	r14
    2b4e:	08 95       	ret
    2b50:	9e 2f       	mov	r25, r30
    2b52:	8f 2f       	mov	r24, r31
    2b54:	9a 83       	std	Y+2, r25	; 0x02
    2b56:	89 83       	std	Y+1, r24	; 0x01
    2b58:	a0 91 08 01 	lds	r26, 0x0108	; 0x800108 <st+0x2>
    2b5c:	b0 91 09 01 	lds	r27, 0x0109	; 0x800109 <st+0x3>
    2b60:	9b 01       	movw	r18, r22
    2b62:	2e 0f       	add	r18, r30
    2b64:	31 1d       	adc	r19, r1
    2b66:	18 96       	adiw	r26, 0x08	; 8
    2b68:	8d 91       	ld	r24, X+
    2b6a:	9c 91       	ld	r25, X
    2b6c:	19 97       	sbiw	r26, 0x09	; 9
    2b6e:	82 17       	cp	r24, r18
    2b70:	93 07       	cpc	r25, r19
    2b72:	20 f3       	brcs	.-56     	; 0x2b3c <mpu_write_mem+0x20>
    2b74:	e0 91 06 01 	lds	r30, 0x0106	; 0x800106 <st>
    2b78:	f0 91 07 01 	lds	r31, 0x0107	; 0x800107 <st+0x1>
    2b7c:	9e 01       	movw	r18, r28
    2b7e:	2f 5f       	subi	r18, 0xFF	; 255
    2b80:	3f 4f       	sbci	r19, 0xFF	; 255
    2b82:	42 e0       	ldi	r20, 0x02	; 2
    2b84:	63 8d       	ldd	r22, Z+27	; 0x1b
    2b86:	8c 91       	ld	r24, X
    2b88:	4a de       	rcall	.-876    	; 0x281e <twi_writeToPointer>
    2b8a:	88 23       	and	r24, r24
    2b8c:	b9 f2       	breq	.-82     	; 0x2b3c <mpu_write_mem+0x20>
    2b8e:	a0 91 06 01 	lds	r26, 0x0106	; 0x800106 <st>
    2b92:	b0 91 07 01 	lds	r27, 0x0107	; 0x800107 <st+0x1>
    2b96:	e0 91 08 01 	lds	r30, 0x0108	; 0x800108 <st+0x2>
    2b9a:	f0 91 09 01 	lds	r31, 0x0109	; 0x800109 <st+0x3>
    2b9e:	97 01       	movw	r18, r14
    2ba0:	40 2f       	mov	r20, r16
    2ba2:	58 96       	adiw	r26, 0x18	; 24
    2ba4:	6c 91       	ld	r22, X
    2ba6:	80 81       	ld	r24, Z
    2ba8:	3a de       	rcall	.-908    	; 0x281e <twi_writeToPointer>
    2baa:	91 e0       	ldi	r25, 0x01	; 1
    2bac:	89 27       	eor	r24, r25
    2bae:	81 95       	neg	r24
    2bb0:	c6 cf       	rjmp	.-116    	; 0x2b3e <mpu_write_mem+0x22>

00002bb2 <mpu_set_gyro_fsr.constprop.0>:
    2bb2:	cf 93       	push	r28
    2bb4:	df 93       	push	r29
    2bb6:	0f 92       	push	r0
    2bb8:	cd b7       	in	r28, 0x3d	; 61
    2bba:	de b7       	in	r29, 0x3e	; 62
    2bbc:	80 91 0c 01 	lds	r24, 0x010C	; 0x80010c <st+0x6>
    2bc0:	81 11       	cpse	r24, r1
    2bc2:	05 c0       	rjmp	.+10     	; 0x2bce <mpu_set_gyro_fsr.constprop.0+0x1c>
    2bc4:	8f ef       	ldi	r24, 0xFF	; 255
    2bc6:	0f 90       	pop	r0
    2bc8:	df 91       	pop	r29
    2bca:	cf 91       	pop	r28
    2bcc:	08 95       	ret
    2bce:	88 e1       	ldi	r24, 0x18	; 24
    2bd0:	89 83       	std	Y+1, r24	; 0x01
    2bd2:	80 91 0a 01 	lds	r24, 0x010A	; 0x80010a <st+0x4>
    2bd6:	83 30       	cpi	r24, 0x03	; 3
    2bd8:	c1 f0       	breq	.+48     	; 0x2c0a <mpu_set_gyro_fsr.constprop.0+0x58>
    2bda:	a0 91 06 01 	lds	r26, 0x0106	; 0x800106 <st>
    2bde:	b0 91 07 01 	lds	r27, 0x0107	; 0x800107 <st+0x1>
    2be2:	e0 91 08 01 	lds	r30, 0x0108	; 0x800108 <st+0x2>
    2be6:	f0 91 09 01 	lds	r31, 0x0109	; 0x800109 <st+0x3>
    2bea:	9e 01       	movw	r18, r28
    2bec:	2f 5f       	subi	r18, 0xFF	; 255
    2bee:	3f 4f       	sbci	r19, 0xFF	; 255
    2bf0:	41 e0       	ldi	r20, 0x01	; 1
    2bf2:	16 96       	adiw	r26, 0x06	; 6
    2bf4:	6c 91       	ld	r22, X
    2bf6:	80 81       	ld	r24, Z
    2bf8:	12 de       	rcall	.-988    	; 0x281e <twi_writeToPointer>
    2bfa:	88 23       	and	r24, r24
    2bfc:	19 f3       	breq	.-58     	; 0x2bc4 <mpu_set_gyro_fsr.constprop.0+0x12>
    2bfe:	89 81       	ldd	r24, Y+1	; 0x01
    2c00:	86 95       	lsr	r24
    2c02:	86 95       	lsr	r24
    2c04:	86 95       	lsr	r24
    2c06:	80 93 0a 01 	sts	0x010A, r24	; 0x80010a <st+0x4>
    2c0a:	80 e0       	ldi	r24, 0x00	; 0
    2c0c:	dc cf       	rjmp	.-72     	; 0x2bc6 <mpu_set_gyro_fsr.constprop.0+0x14>

00002c0e <mpu_set_accel_fsr.constprop.0>:
    2c0e:	cf 93       	push	r28
    2c10:	df 93       	push	r29
    2c12:	0f 92       	push	r0
    2c14:	cd b7       	in	r28, 0x3d	; 61
    2c16:	de b7       	in	r29, 0x3e	; 62
    2c18:	80 91 0c 01 	lds	r24, 0x010C	; 0x80010c <st+0x6>
    2c1c:	81 11       	cpse	r24, r1
    2c1e:	05 c0       	rjmp	.+10     	; 0x2c2a <mpu_set_accel_fsr.constprop.0+0x1c>
    2c20:	8f ef       	ldi	r24, 0xFF	; 255
    2c22:	0f 90       	pop	r0
    2c24:	df 91       	pop	r29
    2c26:	cf 91       	pop	r28
    2c28:	08 95       	ret
    2c2a:	19 82       	std	Y+1, r1	; 0x01
    2c2c:	80 91 0b 01 	lds	r24, 0x010B	; 0x80010b <st+0x5>
    2c30:	88 23       	and	r24, r24
    2c32:	c1 f0       	breq	.+48     	; 0x2c64 <mpu_set_accel_fsr.constprop.0+0x56>
    2c34:	a0 91 06 01 	lds	r26, 0x0106	; 0x800106 <st>
    2c38:	b0 91 07 01 	lds	r27, 0x0107	; 0x800107 <st+0x1>
    2c3c:	e0 91 08 01 	lds	r30, 0x0108	; 0x800108 <st+0x2>
    2c40:	f0 91 09 01 	lds	r31, 0x0109	; 0x800109 <st+0x3>
    2c44:	9e 01       	movw	r18, r28
    2c46:	2f 5f       	subi	r18, 0xFF	; 255
    2c48:	3f 4f       	sbci	r19, 0xFF	; 255
    2c4a:	41 e0       	ldi	r20, 0x01	; 1
    2c4c:	17 96       	adiw	r26, 0x07	; 7
    2c4e:	6c 91       	ld	r22, X
    2c50:	80 81       	ld	r24, Z
    2c52:	e5 dd       	rcall	.-1078   	; 0x281e <twi_writeToPointer>
    2c54:	88 23       	and	r24, r24
    2c56:	21 f3       	breq	.-56     	; 0x2c20 <mpu_set_accel_fsr.constprop.0+0x12>
    2c58:	89 81       	ldd	r24, Y+1	; 0x01
    2c5a:	86 95       	lsr	r24
    2c5c:	86 95       	lsr	r24
    2c5e:	86 95       	lsr	r24
    2c60:	80 93 0b 01 	sts	0x010B, r24	; 0x80010b <st+0x5>
    2c64:	80 e0       	ldi	r24, 0x00	; 0
    2c66:	dd cf       	rjmp	.-70     	; 0x2c22 <mpu_set_accel_fsr.constprop.0+0x14>

00002c68 <mpu_set_bypass.constprop.0>:
    2c68:	0f 93       	push	r16
    2c6a:	1f 93       	push	r17
    2c6c:	cf 93       	push	r28
    2c6e:	df 93       	push	r29
    2c70:	0f 92       	push	r0
    2c72:	cd b7       	in	r28, 0x3d	; 61
    2c74:	de b7       	in	r29, 0x3e	; 62
    2c76:	80 91 13 01 	lds	r24, 0x0113	; 0x800113 <st+0xd>
    2c7a:	88 23       	and	r24, r24
    2c7c:	09 f4       	brne	.+2      	; 0x2c80 <mpu_set_bypass.constprop.0+0x18>
    2c7e:	57 c0       	rjmp	.+174    	; 0x2d2e <mpu_set_bypass.constprop.0+0xc6>
    2c80:	a0 91 06 01 	lds	r26, 0x0106	; 0x800106 <st>
    2c84:	b0 91 07 01 	lds	r27, 0x0107	; 0x800107 <st+0x1>
    2c88:	e0 91 08 01 	lds	r30, 0x0108	; 0x800108 <st+0x2>
    2c8c:	f0 91 09 01 	lds	r31, 0x0109	; 0x800109 <st+0x3>
    2c90:	8e 01       	movw	r16, r28
    2c92:	0f 5f       	subi	r16, 0xFF	; 255
    2c94:	1f 4f       	sbci	r17, 0xFF	; 255
    2c96:	98 01       	movw	r18, r16
    2c98:	41 e0       	ldi	r20, 0x01	; 1
    2c9a:	14 96       	adiw	r26, 0x04	; 4
    2c9c:	6c 91       	ld	r22, X
    2c9e:	80 81       	ld	r24, Z
    2ca0:	24 da       	rcall	.-3000   	; 0x20ea <twi_readFromPointer>
    2ca2:	81 11       	cpse	r24, r1
    2ca4:	07 c0       	rjmp	.+14     	; 0x2cb4 <mpu_set_bypass.constprop.0+0x4c>
    2ca6:	8f ef       	ldi	r24, 0xFF	; 255
    2ca8:	0f 90       	pop	r0
    2caa:	df 91       	pop	r29
    2cac:	cf 91       	pop	r28
    2cae:	1f 91       	pop	r17
    2cb0:	0f 91       	pop	r16
    2cb2:	08 95       	ret
    2cb4:	89 81       	ldd	r24, Y+1	; 0x01
    2cb6:	90 91 0c 01 	lds	r25, 0x010C	; 0x80010c <st+0x6>
    2cba:	90 ff       	sbrs	r25, 0
    2cbc:	3a c0       	rjmp	.+116    	; 0x2d32 <mpu_set_bypass.constprop.0+0xca>
    2cbe:	80 62       	ori	r24, 0x20	; 32
    2cc0:	89 83       	std	Y+1, r24	; 0x01
    2cc2:	a0 91 06 01 	lds	r26, 0x0106	; 0x800106 <st>
    2cc6:	b0 91 07 01 	lds	r27, 0x0107	; 0x800107 <st+0x1>
    2cca:	e0 91 08 01 	lds	r30, 0x0108	; 0x800108 <st+0x2>
    2cce:	f0 91 09 01 	lds	r31, 0x0109	; 0x800109 <st+0x3>
    2cd2:	98 01       	movw	r18, r16
    2cd4:	41 e0       	ldi	r20, 0x01	; 1
    2cd6:	14 96       	adiw	r26, 0x04	; 4
    2cd8:	6c 91       	ld	r22, X
    2cda:	80 81       	ld	r24, Z
    2cdc:	a0 dd       	rcall	.-1216   	; 0x281e <twi_writeToPointer>
    2cde:	88 23       	and	r24, r24
    2ce0:	11 f3       	breq	.-60     	; 0x2ca6 <mpu_set_bypass.constprop.0+0x3e>
    2ce2:	8f e6       	ldi	r24, 0x6F	; 111
    2ce4:	97 e1       	ldi	r25, 0x17	; 23
    2ce6:	01 97       	sbiw	r24, 0x01	; 1
    2ce8:	f1 f7       	brne	.-4      	; 0x2ce6 <mpu_set_bypass.constprop.0+0x7e>
    2cea:	00 c0       	rjmp	.+0      	; 0x2cec <mpu_set_bypass.constprop.0+0x84>
    2cec:	00 00       	nop
    2cee:	80 91 21 01 	lds	r24, 0x0121	; 0x800121 <st+0x1b>
    2cf2:	88 23       	and	r24, r24
    2cf4:	01 f1       	breq	.+64     	; 0x2d36 <mpu_set_bypass.constprop.0+0xce>
    2cf6:	80 e8       	ldi	r24, 0x80	; 128
    2cf8:	89 83       	std	Y+1, r24	; 0x01
    2cfa:	80 91 22 01 	lds	r24, 0x0122	; 0x800122 <st+0x1c>
    2cfe:	88 23       	and	r24, r24
    2d00:	19 f0       	breq	.+6      	; 0x2d08 <mpu_set_bypass.constprop.0+0xa0>
    2d02:	89 81       	ldd	r24, Y+1	; 0x01
    2d04:	80 63       	ori	r24, 0x30	; 48
    2d06:	89 83       	std	Y+1, r24	; 0x01
    2d08:	a0 91 06 01 	lds	r26, 0x0106	; 0x800106 <st>
    2d0c:	b0 91 07 01 	lds	r27, 0x0107	; 0x800107 <st+0x1>
    2d10:	e0 91 08 01 	lds	r30, 0x0108	; 0x800108 <st+0x2>
    2d14:	f0 91 09 01 	lds	r31, 0x0109	; 0x800109 <st+0x3>
    2d18:	98 01       	movw	r18, r16
    2d1a:	41 e0       	ldi	r20, 0x01	; 1
    2d1c:	57 96       	adiw	r26, 0x17	; 23
    2d1e:	6c 91       	ld	r22, X
    2d20:	80 81       	ld	r24, Z
    2d22:	7d dd       	rcall	.-1286   	; 0x281e <twi_writeToPointer>
    2d24:	88 23       	and	r24, r24
    2d26:	09 f4       	brne	.+2      	; 0x2d2a <mpu_set_bypass.constprop.0+0xc2>
    2d28:	be cf       	rjmp	.-132    	; 0x2ca6 <mpu_set_bypass.constprop.0+0x3e>
    2d2a:	10 92 13 01 	sts	0x0113, r1	; 0x800113 <st+0xd>
    2d2e:	80 e0       	ldi	r24, 0x00	; 0
    2d30:	bb cf       	rjmp	.-138    	; 0x2ca8 <mpu_set_bypass.constprop.0+0x40>
    2d32:	8f 7d       	andi	r24, 0xDF	; 223
    2d34:	c5 cf       	rjmp	.-118    	; 0x2cc0 <mpu_set_bypass.constprop.0+0x58>
    2d36:	19 82       	std	Y+1, r1	; 0x01
    2d38:	e0 cf       	rjmp	.-64     	; 0x2cfa <mpu_set_bypass.constprop.0+0x92>

00002d3a <twi_writeSingleToPointer.constprop.0.isra.0>:
    2d3a:	cf 93       	push	r28
    2d3c:	df 93       	push	r29
    2d3e:	0f 92       	push	r0
    2d40:	cd b7       	in	r28, 0x3d	; 61
    2d42:	de b7       	in	r29, 0x3e	; 62
    2d44:	69 83       	std	Y+1, r22	; 0x01
    2d46:	9e 01       	movw	r18, r28
    2d48:	2f 5f       	subi	r18, 0xFF	; 255
    2d4a:	3f 4f       	sbci	r19, 0xFF	; 255
    2d4c:	41 e0       	ldi	r20, 0x01	; 1
    2d4e:	68 2f       	mov	r22, r24
    2d50:	82 e5       	ldi	r24, 0x52	; 82
    2d52:	65 dd       	rcall	.-1334   	; 0x281e <twi_writeToPointer>
    2d54:	0f 90       	pop	r0
    2d56:	df 91       	pop	r29
    2d58:	cf 91       	pop	r28
    2d5a:	08 95       	ret

00002d5c <tickWiiExtInput>:
    2d5c:	ef 92       	push	r14
    2d5e:	ff 92       	push	r15
    2d60:	0f 93       	push	r16
    2d62:	1f 93       	push	r17
    2d64:	cf 93       	push	r28
    2d66:	df 93       	push	r29
    2d68:	cd b7       	in	r28, 0x3d	; 61
    2d6a:	de b7       	in	r29, 0x3e	; 62
    2d6c:	68 97       	sbiw	r28, 0x18	; 24
    2d6e:	0f b6       	in	r0, 0x3f	; 63
    2d70:	f8 94       	cli
    2d72:	de bf       	out	0x3e, r29	; 62
    2d74:	0f be       	out	0x3f, r0	; 63
    2d76:	cd bf       	out	0x3d, r28	; 61
    2d78:	7c 01       	movw	r14, r24
    2d7a:	80 91 03 01 	lds	r24, 0x0103	; 0x800103 <wiiExtensionID>
    2d7e:	90 91 04 01 	lds	r25, 0x0104	; 0x800104 <wiiExtensionID+0x1>
    2d82:	8f 3f       	cpi	r24, 0xFF	; 255
    2d84:	98 07       	cpc	r25, r24
    2d86:	09 f0       	breq	.+2      	; 0x2d8a <tickWiiExtInput+0x2e>
    2d88:	6e c0       	rjmp	.+220    	; 0x2e66 <tickWiiExtInput+0x10a>
    2d8a:	31 dc       	rcall	.-1950   	; 0x25ee <readExtID>
    2d8c:	9c 01       	movw	r18, r24
    2d8e:	90 93 04 01 	sts	0x0104, r25	; 0x800104 <wiiExtensionID+0x1>
    2d92:	80 93 03 01 	sts	0x0103, r24	; 0x800103 <wiiExtensionID>
    2d96:	2f 3f       	cpi	r18, 0xFF	; 255
    2d98:	3f 4f       	sbci	r19, 0xFF	; 255
    2d9a:	b9 f4       	brne	.+46     	; 0x2dca <tickWiiExtInput+0x6e>
    2d9c:	65 e5       	ldi	r22, 0x55	; 85
    2d9e:	80 ef       	ldi	r24, 0xF0	; 240
    2da0:	cc df       	rcall	.-104    	; 0x2d3a <twi_writeSingleToPointer.constprop.0.isra.0>
    2da2:	8a e1       	ldi	r24, 0x1A	; 26
    2da4:	8a 95       	dec	r24
    2da6:	f1 f7       	brne	.-4      	; 0x2da4 <tickWiiExtInput+0x48>
    2da8:	00 c0       	rjmp	.+0      	; 0x2daa <tickWiiExtInput+0x4e>
    2daa:	60 e0       	ldi	r22, 0x00	; 0
    2dac:	8b ef       	ldi	r24, 0xFB	; 251
    2dae:	c5 df       	rcall	.-118    	; 0x2d3a <twi_writeSingleToPointer.constprop.0.isra.0>
    2db0:	9a e1       	ldi	r25, 0x1A	; 26
    2db2:	9a 95       	dec	r25
    2db4:	f1 f7       	brne	.-4      	; 0x2db2 <tickWiiExtInput+0x56>
    2db6:	00 c0       	rjmp	.+0      	; 0x2db8 <tickWiiExtInput+0x5c>
    2db8:	1a dc       	rcall	.-1996   	; 0x25ee <readExtID>
    2dba:	90 93 04 01 	sts	0x0104, r25	; 0x800104 <wiiExtensionID+0x1>
    2dbe:	80 93 03 01 	sts	0x0103, r24	; 0x800103 <wiiExtensionID>
    2dc2:	2a e1       	ldi	r18, 0x1A	; 26
    2dc4:	2a 95       	dec	r18
    2dc6:	f1 f7       	brne	.-4      	; 0x2dc4 <tickWiiExtInput+0x68>
    2dc8:	00 c0       	rjmp	.+0      	; 0x2dca <tickWiiExtInput+0x6e>
    2dca:	80 91 03 01 	lds	r24, 0x0103	; 0x800103 <wiiExtensionID>
    2dce:	90 91 04 01 	lds	r25, 0x0104	; 0x800104 <wiiExtensionID+0x1>
    2dd2:	83 31       	cpi	r24, 0x13	; 19
    2dd4:	9f 4f       	sbci	r25, 0xFF	; 255
    2dd6:	71 f4       	brne	.+28     	; 0x2df4 <tickWiiExtInput+0x98>
    2dd8:	61 e0       	ldi	r22, 0x01	; 1
    2dda:	8b ef       	ldi	r24, 0xFB	; 251
    2ddc:	ae df       	rcall	.-164    	; 0x2d3a <twi_writeSingleToPointer.constprop.0.isra.0>
    2dde:	8a e1       	ldi	r24, 0x1A	; 26
    2de0:	8a 95       	dec	r24
    2de2:	f1 f7       	brne	.-4      	; 0x2de0 <tickWiiExtInput+0x84>
    2de4:	00 c0       	rjmp	.+0      	; 0x2de6 <tickWiiExtInput+0x8a>
    2de6:	65 e5       	ldi	r22, 0x55	; 85
    2de8:	80 ef       	ldi	r24, 0xF0	; 240
    2dea:	a7 df       	rcall	.-178    	; 0x2d3a <twi_writeSingleToPointer.constprop.0.isra.0>
    2dec:	9a e1       	ldi	r25, 0x1A	; 26
    2dee:	9a 95       	dec	r25
    2df0:	f1 f7       	brne	.-4      	; 0x2dee <tickWiiExtInput+0x92>
    2df2:	00 c0       	rjmp	.+0      	; 0x2df4 <tickWiiExtInput+0x98>
    2df4:	80 91 03 01 	lds	r24, 0x0103	; 0x800103 <wiiExtensionID>
    2df8:	90 91 04 01 	lds	r25, 0x0104	; 0x800104 <wiiExtensionID+0x1>
    2dfc:	9e 7f       	andi	r25, 0xFE	; 254
    2dfe:	01 97       	sbiw	r24, 0x01	; 1
    2e00:	09 f0       	breq	.+2      	; 0x2e04 <tickWiiExtInput+0xa8>
    2e02:	a6 c0       	rjmp	.+332    	; 0x2f50 <tickWiiExtInput+0x1f4>
    2e04:	63 e0       	ldi	r22, 0x03	; 3
    2e06:	8e ef       	ldi	r24, 0xFE	; 254
    2e08:	98 df       	rcall	.-208    	; 0x2d3a <twi_writeSingleToPointer.constprop.0.isra.0>
    2e0a:	2a e1       	ldi	r18, 0x1A	; 26
    2e0c:	2a 95       	dec	r18
    2e0e:	f1 f7       	brne	.-4      	; 0x2e0c <tickWiiExtInput+0xb0>
    2e10:	00 c0       	rjmp	.+0      	; 0x2e12 <tickWiiExtInput+0xb6>
    2e12:	ae 01       	movw	r20, r28
    2e14:	47 5f       	subi	r20, 0xF7	; 247
    2e16:	5f 4f       	sbci	r21, 0xFF	; 255
    2e18:	68 e0       	ldi	r22, 0x08	; 8
    2e1a:	80 e0       	ldi	r24, 0x00	; 0
    2e1c:	c4 db       	rcall	.-2168   	; 0x25a6 <twi_readFromPointerSlow.constprop.0>
    2e1e:	8f e8       	ldi	r24, 0x8F	; 143
    2e20:	91 e0       	ldi	r25, 0x01	; 1
    2e22:	01 97       	sbiw	r24, 0x01	; 1
    2e24:	f1 f7       	brne	.-4      	; 0x2e22 <tickWiiExtInput+0xc6>
    2e26:	00 c0       	rjmp	.+0      	; 0x2e28 <tickWiiExtInput+0xcc>
    2e28:	00 00       	nop
    2e2a:	ae 01       	movw	r20, r28
    2e2c:	4f 5f       	subi	r20, 0xFF	; 255
    2e2e:	5f 4f       	sbci	r21, 0xFF	; 255
    2e30:	68 e0       	ldi	r22, 0x08	; 8
    2e32:	80 e0       	ldi	r24, 0x00	; 0
    2e34:	b8 db       	rcall	.-2192   	; 0x25a6 <twi_readFromPointerSlow.constprop.0>
    2e36:	48 e0       	ldi	r20, 0x08	; 8
    2e38:	50 e0       	ldi	r21, 0x00	; 0
    2e3a:	be 01       	movw	r22, r28
    2e3c:	6f 5f       	subi	r22, 0xFF	; 255
    2e3e:	7f 4f       	sbci	r23, 0xFF	; 255
    2e40:	ce 01       	movw	r24, r28
    2e42:	09 96       	adiw	r24, 0x09	; 9
    2e44:	0e 94 f9 2b 	call	0x57f2	; 0x57f2 <memcmp>
    2e48:	89 2b       	or	r24, r25
    2e4a:	d1 f5       	brne	.+116    	; 0x2ec0 <tickWiiExtInput+0x164>
    2e4c:	8f 85       	ldd	r24, Y+15	; 0x0f
    2e4e:	98 89       	ldd	r25, Y+16	; 0x10
    2e50:	89 2b       	or	r24, r25
    2e52:	09 f0       	breq	.+2      	; 0x2e56 <tickWiiExtInput+0xfa>
    2e54:	74 c0       	rjmp	.+232    	; 0x2f3e <tickWiiExtInput+0x1e2>
    2e56:	87 e6       	ldi	r24, 0x67	; 103
    2e58:	9d e0       	ldi	r25, 0x0D	; 13
    2e5a:	90 93 c2 01 	sts	0x01C2, r25	; 0x8001c2 <readFunction+0x1>
    2e5e:	80 93 c1 01 	sts	0x01C1, r24	; 0x8001c1 <readFunction>
    2e62:	86 e0       	ldi	r24, 0x06	; 6
    2e64:	73 c0       	rjmp	.+230    	; 0x2f4c <tickWiiExtInput+0x1f0>
    2e66:	8b 30       	cpi	r24, 0x0B	; 11
    2e68:	98 41       	sbci	r25, 0x18	; 24
    2e6a:	09 f4       	brne	.+2      	; 0x2e6e <tickWiiExtInput+0x112>
    2e6c:	8e cf       	rjmp	.-228    	; 0x2d8a <tickWiiExtInput+0x2e>
    2e6e:	8e 01       	movw	r16, r28
    2e70:	0f 5e       	subi	r16, 0xEF	; 239
    2e72:	1f 4f       	sbci	r17, 0xFF	; 255
    2e74:	a8 01       	movw	r20, r16
    2e76:	60 91 00 01 	lds	r22, 0x0100	; 0x800100 <bytes>
    2e7a:	80 e0       	ldi	r24, 0x00	; 0
    2e7c:	94 db       	rcall	.-2264   	; 0x25a6 <twi_readFromPointerSlow.constprop.0>
    2e7e:	b8 01       	movw	r22, r16
    2e80:	88 23       	and	r24, r24
    2e82:	89 f0       	breq	.+34     	; 0x2ea6 <tickWiiExtInput+0x14a>
    2e84:	f8 01       	movw	r30, r16
    2e86:	80 91 00 01 	lds	r24, 0x0100	; 0x800100 <bytes>
    2e8a:	a8 01       	movw	r20, r16
    2e8c:	48 0f       	add	r20, r24
    2e8e:	51 1d       	adc	r21, r1
    2e90:	8f ef       	ldi	r24, 0xFF	; 255
    2e92:	90 e0       	ldi	r25, 0x00	; 0
    2e94:	4e 17       	cp	r20, r30
    2e96:	5f 07       	cpc	r21, r31
    2e98:	79 f4       	brne	.+30     	; 0x2eb8 <tickWiiExtInput+0x15c>
    2e9a:	99 23       	and	r25, r25
    2e9c:	09 f4       	brne	.+2      	; 0x2ea0 <tickWiiExtInput+0x144>
    2e9e:	75 cf       	rjmp	.-278    	; 0x2d8a <tickWiiExtInput+0x2e>
    2ea0:	8f 3f       	cpi	r24, 0xFF	; 255
    2ea2:	09 f4       	brne	.+2      	; 0x2ea6 <tickWiiExtInput+0x14a>
    2ea4:	72 cf       	rjmp	.-284    	; 0x2d8a <tickWiiExtInput+0x2e>
    2ea6:	e0 91 c1 01 	lds	r30, 0x01C1	; 0x8001c1 <readFunction>
    2eaa:	f0 91 c2 01 	lds	r31, 0x01C2	; 0x8001c2 <readFunction+0x1>
    2eae:	30 97       	sbiw	r30, 0x00	; 0
    2eb0:	81 f1       	breq	.+96     	; 0x2f12 <tickWiiExtInput+0x1b6>
    2eb2:	c7 01       	movw	r24, r14
    2eb4:	09 95       	icall
    2eb6:	2d c0       	rjmp	.+90     	; 0x2f12 <tickWiiExtInput+0x1b6>
    2eb8:	21 91       	ld	r18, Z+
    2eba:	92 2b       	or	r25, r18
    2ebc:	82 23       	and	r24, r18
    2ebe:	ea cf       	rjmp	.-44     	; 0x2e94 <tickWiiExtInput+0x138>
    2ec0:	8f e8       	ldi	r24, 0x8F	; 143
    2ec2:	91 e0       	ldi	r25, 0x01	; 1
    2ec4:	01 97       	sbiw	r24, 0x01	; 1
    2ec6:	f1 f7       	brne	.-4      	; 0x2ec4 <tickWiiExtInput+0x168>
    2ec8:	00 c0       	rjmp	.+0      	; 0x2eca <tickWiiExtInput+0x16e>
    2eca:	00 00       	nop
    2ecc:	a2 cf       	rjmp	.-188    	; 0x2e12 <tickWiiExtInput+0xb6>
    2ece:	41 97       	sbiw	r24, 0x11	; 17
    2ed0:	09 f0       	breq	.+2      	; 0x2ed4 <tickWiiExtInput+0x178>
    2ed2:	51 c0       	rjmp	.+162    	; 0x2f76 <tickWiiExtInput+0x21a>
    2ed4:	89 e7       	ldi	r24, 0x79	; 121
    2ed6:	9e e0       	ldi	r25, 0x0E	; 14
    2ed8:	18 c0       	rjmp	.+48     	; 0x2f0a <tickWiiExtInput+0x1ae>
    2eda:	82 31       	cpi	r24, 0x12	; 18
    2edc:	2f ef       	ldi	r18, 0xFF	; 255
    2ede:	92 07       	cpc	r25, r18
    2ee0:	59 f1       	breq	.+86     	; 0x2f38 <tickWiiExtInput+0x1dc>
    2ee2:	58 f4       	brcc	.+22     	; 0x2efa <tickWiiExtInput+0x19e>
    2ee4:	83 30       	cpi	r24, 0x03	; 3
    2ee6:	21 e0       	ldi	r18, 0x01	; 1
    2ee8:	92 07       	cpc	r25, r18
    2eea:	19 f1       	breq	.+70     	; 0x2f32 <tickWiiExtInput+0x1d6>
    2eec:	83 30       	cpi	r24, 0x03	; 3
    2eee:	93 40       	sbci	r25, 0x03	; 3
    2ef0:	09 f0       	breq	.+2      	; 0x2ef4 <tickWiiExtInput+0x198>
    2ef2:	41 c0       	rjmp	.+130    	; 0x2f76 <tickWiiExtInput+0x21a>
    2ef4:	8c eb       	ldi	r24, 0xBC	; 188
    2ef6:	9d e0       	ldi	r25, 0x0D	; 13
    2ef8:	08 c0       	rjmp	.+16     	; 0x2f0a <tickWiiExtInput+0x1ae>
    2efa:	83 31       	cpi	r24, 0x13	; 19
    2efc:	9f 4f       	sbci	r25, 0xFF	; 255
    2efe:	d9 f5       	brne	.+118    	; 0x2f76 <tickWiiExtInput+0x21a>
    2f00:	88 e6       	ldi	r24, 0x68	; 104
    2f02:	9e e0       	ldi	r25, 0x0E	; 14
    2f04:	02 c0       	rjmp	.+4      	; 0x2f0a <tickWiiExtInput+0x1ae>
    2f06:	8b ef       	ldi	r24, 0xFB	; 251
    2f08:	9c e0       	ldi	r25, 0x0C	; 12
    2f0a:	90 93 c2 01 	sts	0x01C2, r25	; 0x8001c2 <readFunction+0x1>
    2f0e:	80 93 c1 01 	sts	0x01C1, r24	; 0x8001c1 <readFunction>
    2f12:	68 96       	adiw	r28, 0x18	; 24
    2f14:	0f b6       	in	r0, 0x3f	; 63
    2f16:	f8 94       	cli
    2f18:	de bf       	out	0x3e, r29	; 62
    2f1a:	0f be       	out	0x3f, r0	; 63
    2f1c:	cd bf       	out	0x3d, r28	; 61
    2f1e:	df 91       	pop	r29
    2f20:	cf 91       	pop	r28
    2f22:	1f 91       	pop	r17
    2f24:	0f 91       	pop	r16
    2f26:	ff 90       	pop	r15
    2f28:	ef 90       	pop	r14
    2f2a:	08 95       	ret
    2f2c:	89 e3       	ldi	r24, 0x39	; 57
    2f2e:	94 e2       	ldi	r25, 0x24	; 36
    2f30:	ec cf       	rjmp	.-40     	; 0x2f0a <tickWiiExtInput+0x1ae>
    2f32:	8a ea       	ldi	r24, 0xAA	; 170
    2f34:	9c e0       	ldi	r25, 0x0C	; 12
    2f36:	e9 cf       	rjmp	.-46     	; 0x2f0a <tickWiiExtInput+0x1ae>
    2f38:	89 e2       	ldi	r24, 0x29	; 41
    2f3a:	9e e0       	ldi	r25, 0x0E	; 14
    2f3c:	e6 cf       	rjmp	.-52     	; 0x2f0a <tickWiiExtInput+0x1ae>
    2f3e:	89 e3       	ldi	r24, 0x39	; 57
    2f40:	9d e0       	ldi	r25, 0x0D	; 13
    2f42:	90 93 c2 01 	sts	0x01C2, r25	; 0x8001c2 <readFunction+0x1>
    2f46:	80 93 c1 01 	sts	0x01C1, r24	; 0x8001c1 <readFunction>
    2f4a:	88 e0       	ldi	r24, 0x08	; 8
    2f4c:	80 93 00 01 	sts	0x0100, r24	; 0x800100 <bytes>
    2f50:	80 91 03 01 	lds	r24, 0x0103	; 0x800103 <wiiExtensionID>
    2f54:	90 91 04 01 	lds	r25, 0x0104	; 0x800104 <wiiExtensionID+0x1>
    2f58:	81 30       	cpi	r24, 0x01	; 1
    2f5a:	21 e0       	ldi	r18, 0x01	; 1
    2f5c:	92 07       	cpc	r25, r18
    2f5e:	c9 f2       	breq	.-78     	; 0x2f12 <tickWiiExtInput+0x1b6>
    2f60:	08 f0       	brcs	.+2      	; 0x2f64 <tickWiiExtInput+0x208>
    2f62:	bb cf       	rjmp	.-138    	; 0x2eda <tickWiiExtInput+0x17e>
    2f64:	83 30       	cpi	r24, 0x03	; 3
    2f66:	91 05       	cpc	r25, r1
    2f68:	71 f2       	breq	.-100    	; 0x2f06 <tickWiiExtInput+0x1aa>
    2f6a:	08 f0       	brcs	.+2      	; 0x2f6e <tickWiiExtInput+0x212>
    2f6c:	b0 cf       	rjmp	.-160    	; 0x2ece <tickWiiExtInput+0x172>
    2f6e:	00 97       	sbiw	r24, 0x00	; 0
    2f70:	e9 f2       	breq	.-70     	; 0x2f2c <tickWiiExtInput+0x1d0>
    2f72:	01 97       	sbiw	r24, 0x01	; 1
    2f74:	71 f2       	breq	.-100    	; 0x2f12 <tickWiiExtInput+0x1b6>
    2f76:	8b e0       	ldi	r24, 0x0B	; 11
    2f78:	98 e1       	ldi	r25, 0x18	; 24
    2f7a:	90 93 04 01 	sts	0x0104, r25	; 0x800104 <wiiExtensionID+0x1>
    2f7e:	80 93 03 01 	sts	0x0103, r24	; 0x800103 <wiiExtensionID>
    2f82:	10 92 c2 01 	sts	0x01C2, r1	; 0x8001c2 <readFunction+0x1>
    2f86:	10 92 c1 01 	sts	0x01C1, r1	; 0x8001c1 <readFunction>
    2f8a:	c3 cf       	rjmp	.-122    	; 0x2f12 <tickWiiExtInput+0x1b6>

00002f8c <mpu_set_int_latched.isra.0>:
    2f8c:	1f 93       	push	r17
    2f8e:	cf 93       	push	r28
    2f90:	df 93       	push	r29
    2f92:	0f 92       	push	r0
    2f94:	cd b7       	in	r28, 0x3d	; 61
    2f96:	de b7       	in	r29, 0x3e	; 62
    2f98:	18 2f       	mov	r17, r24
    2f9a:	80 91 22 01 	lds	r24, 0x0122	; 0x800122 <st+0x1c>
    2f9e:	81 17       	cp	r24, r17
    2fa0:	29 f1       	breq	.+74     	; 0x2fec <mpu_set_int_latched.isra.0+0x60>
    2fa2:	11 23       	and	r17, r17
    2fa4:	41 f1       	breq	.+80     	; 0x2ff6 <mpu_set_int_latched.isra.0+0x6a>
    2fa6:	80 e3       	ldi	r24, 0x30	; 48
    2fa8:	89 83       	std	Y+1, r24	; 0x01
    2faa:	80 91 13 01 	lds	r24, 0x0113	; 0x800113 <st+0xd>
    2fae:	88 23       	and	r24, r24
    2fb0:	19 f0       	breq	.+6      	; 0x2fb8 <mpu_set_int_latched.isra.0+0x2c>
    2fb2:	89 81       	ldd	r24, Y+1	; 0x01
    2fb4:	82 60       	ori	r24, 0x02	; 2
    2fb6:	89 83       	std	Y+1, r24	; 0x01
    2fb8:	80 91 21 01 	lds	r24, 0x0121	; 0x800121 <st+0x1b>
    2fbc:	88 23       	and	r24, r24
    2fbe:	19 f0       	breq	.+6      	; 0x2fc6 <mpu_set_int_latched.isra.0+0x3a>
    2fc0:	89 81       	ldd	r24, Y+1	; 0x01
    2fc2:	80 68       	ori	r24, 0x80	; 128
    2fc4:	89 83       	std	Y+1, r24	; 0x01
    2fc6:	a0 91 06 01 	lds	r26, 0x0106	; 0x800106 <st>
    2fca:	b0 91 07 01 	lds	r27, 0x0107	; 0x800107 <st+0x1>
    2fce:	e0 91 08 01 	lds	r30, 0x0108	; 0x800108 <st+0x2>
    2fd2:	f0 91 09 01 	lds	r31, 0x0109	; 0x800109 <st+0x3>
    2fd6:	9e 01       	movw	r18, r28
    2fd8:	2f 5f       	subi	r18, 0xFF	; 255
    2fda:	3f 4f       	sbci	r19, 0xFF	; 255
    2fdc:	41 e0       	ldi	r20, 0x01	; 1
    2fde:	57 96       	adiw	r26, 0x17	; 23
    2fe0:	6c 91       	ld	r22, X
    2fe2:	80 81       	ld	r24, Z
    2fe4:	1c dc       	rcall	.-1992   	; 0x281e <twi_writeToPointer>
    2fe6:	81 11       	cpse	r24, r1
    2fe8:	10 93 22 01 	sts	0x0122, r17	; 0x800122 <st+0x1c>
    2fec:	0f 90       	pop	r0
    2fee:	df 91       	pop	r29
    2ff0:	cf 91       	pop	r28
    2ff2:	1f 91       	pop	r17
    2ff4:	08 95       	ret
    2ff6:	19 82       	std	Y+1, r1	; 0x01
    2ff8:	d8 cf       	rjmp	.-80     	; 0x2faa <mpu_set_int_latched.isra.0+0x1e>

00002ffa <mpu_set_sensors.isra.0>:
    2ffa:	ef 92       	push	r14
    2ffc:	ff 92       	push	r15
    2ffe:	1f 93       	push	r17
    3000:	cf 93       	push	r28
    3002:	df 93       	push	r29
    3004:	0f 92       	push	r0
    3006:	cd b7       	in	r28, 0x3d	; 61
    3008:	de b7       	in	r29, 0x3e	; 62
    300a:	18 2f       	mov	r17, r24
    300c:	80 77       	andi	r24, 0x70	; 112
    300e:	19 f0       	breq	.+6      	; 0x3016 <mpu_set_sensors.isra.0+0x1c>
    3010:	81 e0       	ldi	r24, 0x01	; 1
    3012:	89 83       	std	Y+1, r24	; 0x01
    3014:	03 c0       	rjmp	.+6      	; 0x301c <mpu_set_sensors.isra.0+0x22>
    3016:	11 23       	and	r17, r17
    3018:	f1 f0       	breq	.+60     	; 0x3056 <mpu_set_sensors.isra.0+0x5c>
    301a:	19 82       	std	Y+1, r1	; 0x01
    301c:	a0 91 06 01 	lds	r26, 0x0106	; 0x800106 <st>
    3020:	b0 91 07 01 	lds	r27, 0x0107	; 0x800107 <st+0x1>
    3024:	e0 91 08 01 	lds	r30, 0x0108	; 0x800108 <st+0x2>
    3028:	f0 91 09 01 	lds	r31, 0x0109	; 0x800109 <st+0x3>
    302c:	ce 01       	movw	r24, r28
    302e:	01 96       	adiw	r24, 0x01	; 1
    3030:	7c 01       	movw	r14, r24
    3032:	9c 01       	movw	r18, r24
    3034:	41 e0       	ldi	r20, 0x01	; 1
    3036:	55 96       	adiw	r26, 0x15	; 21
    3038:	6c 91       	ld	r22, X
    303a:	80 81       	ld	r24, Z
    303c:	f0 db       	rcall	.-2080   	; 0x281e <twi_writeToPointer>
    303e:	97 01       	movw	r18, r14
    3040:	81 11       	cpse	r24, r1
    3042:	0b c0       	rjmp	.+22     	; 0x305a <mpu_set_sensors.isra.0+0x60>
    3044:	10 92 0c 01 	sts	0x010C, r1	; 0x80010c <st+0x6>
    3048:	0f 90       	pop	r0
    304a:	df 91       	pop	r29
    304c:	cf 91       	pop	r28
    304e:	1f 91       	pop	r17
    3050:	ff 90       	pop	r15
    3052:	ef 90       	pop	r14
    3054:	08 95       	ret
    3056:	80 e4       	ldi	r24, 0x40	; 64
    3058:	dc cf       	rjmp	.-72     	; 0x3012 <mpu_set_sensors.isra.0+0x18>
    305a:	89 81       	ldd	r24, Y+1	; 0x01
    305c:	8f 7b       	andi	r24, 0xBF	; 191
    305e:	80 93 0e 01 	sts	0x010E, r24	; 0x80010e <st+0x8>
    3062:	16 ff       	sbrs	r17, 6
    3064:	32 c0       	rjmp	.+100    	; 0x30ca <mpu_set_sensors.isra.0+0xd0>
    3066:	19 82       	std	Y+1, r1	; 0x01
    3068:	15 fd       	sbrc	r17, 5
    306a:	03 c0       	rjmp	.+6      	; 0x3072 <mpu_set_sensors.isra.0+0x78>
    306c:	89 81       	ldd	r24, Y+1	; 0x01
    306e:	82 60       	ori	r24, 0x02	; 2
    3070:	89 83       	std	Y+1, r24	; 0x01
    3072:	14 fd       	sbrc	r17, 4
    3074:	03 c0       	rjmp	.+6      	; 0x307c <mpu_set_sensors.isra.0+0x82>
    3076:	89 81       	ldd	r24, Y+1	; 0x01
    3078:	81 60       	ori	r24, 0x01	; 1
    307a:	89 83       	std	Y+1, r24	; 0x01
    307c:	13 fd       	sbrc	r17, 3
    307e:	03 c0       	rjmp	.+6      	; 0x3086 <mpu_set_sensors.isra.0+0x8c>
    3080:	89 81       	ldd	r24, Y+1	; 0x01
    3082:	88 63       	ori	r24, 0x38	; 56
    3084:	89 83       	std	Y+1, r24	; 0x01
    3086:	a0 91 06 01 	lds	r26, 0x0106	; 0x800106 <st>
    308a:	b0 91 07 01 	lds	r27, 0x0107	; 0x800107 <st+0x1>
    308e:	e0 91 08 01 	lds	r30, 0x0108	; 0x800108 <st+0x2>
    3092:	f0 91 09 01 	lds	r31, 0x0109	; 0x800109 <st+0x3>
    3096:	41 e0       	ldi	r20, 0x01	; 1
    3098:	56 96       	adiw	r26, 0x16	; 22
    309a:	6c 91       	ld	r22, X
    309c:	80 81       	ld	r24, Z
    309e:	bf db       	rcall	.-2178   	; 0x281e <twi_writeToPointer>
    30a0:	88 23       	and	r24, r24
    30a2:	81 f2       	breq	.-96     	; 0x3044 <mpu_set_sensors.isra.0+0x4a>
    30a4:	81 2f       	mov	r24, r17
    30a6:	87 7f       	andi	r24, 0xF7	; 247
    30a8:	11 f0       	breq	.+4      	; 0x30ae <mpu_set_sensors.isra.0+0xb4>
    30aa:	80 e0       	ldi	r24, 0x00	; 0
    30ac:	6f df       	rcall	.-290    	; 0x2f8c <mpu_set_int_latched.isra.0>
    30ae:	10 93 0c 01 	sts	0x010C, r17	; 0x80010c <st+0x6>
    30b2:	10 92 15 01 	sts	0x0115, r1	; 0x800115 <st+0xf>
    30b6:	9f e7       	ldi	r25, 0x7F	; 127
    30b8:	28 e3       	ldi	r18, 0x38	; 56
    30ba:	81 e0       	ldi	r24, 0x01	; 1
    30bc:	91 50       	subi	r25, 0x01	; 1
    30be:	20 40       	sbci	r18, 0x00	; 0
    30c0:	80 40       	sbci	r24, 0x00	; 0
    30c2:	e1 f7       	brne	.-8      	; 0x30bc <mpu_set_sensors.isra.0+0xc2>
    30c4:	00 c0       	rjmp	.+0      	; 0x30c6 <mpu_set_sensors.isra.0+0xcc>
    30c6:	00 00       	nop
    30c8:	bf cf       	rjmp	.-130    	; 0x3048 <mpu_set_sensors.isra.0+0x4e>
    30ca:	84 e0       	ldi	r24, 0x04	; 4
    30cc:	89 83       	std	Y+1, r24	; 0x01
    30ce:	cc cf       	rjmp	.-104    	; 0x3068 <mpu_set_sensors.isra.0+0x6e>

000030d0 <set_int_enable.isra.0>:
    30d0:	cf 93       	push	r28
    30d2:	df 93       	push	r29
    30d4:	0f 92       	push	r0
    30d6:	cd b7       	in	r28, 0x3d	; 61
    30d8:	de b7       	in	r29, 0x3e	; 62
    30da:	90 91 23 01 	lds	r25, 0x0123	; 0x800123 <st+0x1d>
    30de:	99 23       	and	r25, r25
    30e0:	e9 f0       	breq	.+58     	; 0x311c <set_int_enable.isra.0+0x4c>
    30e2:	88 23       	and	r24, r24
    30e4:	39 f1       	breq	.+78     	; 0x3134 <set_int_enable.isra.0+0x64>
    30e6:	82 e0       	ldi	r24, 0x02	; 2
    30e8:	89 83       	std	Y+1, r24	; 0x01
    30ea:	a0 91 06 01 	lds	r26, 0x0106	; 0x800106 <st>
    30ee:	b0 91 07 01 	lds	r27, 0x0107	; 0x800107 <st+0x1>
    30f2:	e0 91 08 01 	lds	r30, 0x0108	; 0x800108 <st+0x2>
    30f6:	f0 91 09 01 	lds	r31, 0x0109	; 0x800109 <st+0x3>
    30fa:	9e 01       	movw	r18, r28
    30fc:	2f 5f       	subi	r18, 0xFF	; 255
    30fe:	3f 4f       	sbci	r19, 0xFF	; 255
    3100:	41 e0       	ldi	r20, 0x01	; 1
    3102:	51 96       	adiw	r26, 0x11	; 17
    3104:	6c 91       	ld	r22, X
    3106:	80 81       	ld	r24, Z
    3108:	8a db       	rcall	.-2284   	; 0x281e <twi_writeToPointer>
    310a:	88 23       	and	r24, r24
    310c:	19 f0       	breq	.+6      	; 0x3114 <set_int_enable.isra.0+0x44>
    310e:	89 81       	ldd	r24, Y+1	; 0x01
    3110:	80 93 12 01 	sts	0x0112, r24	; 0x800112 <st+0xc>
    3114:	0f 90       	pop	r0
    3116:	df 91       	pop	r29
    3118:	cf 91       	pop	r28
    311a:	08 95       	ret
    311c:	90 91 0c 01 	lds	r25, 0x010C	; 0x80010c <st+0x6>
    3120:	99 23       	and	r25, r25
    3122:	c1 f3       	breq	.-16     	; 0x3114 <set_int_enable.isra.0+0x44>
    3124:	88 23       	and	r24, r24
    3126:	31 f0       	breq	.+12     	; 0x3134 <set_int_enable.isra.0+0x64>
    3128:	80 91 12 01 	lds	r24, 0x0112	; 0x800112 <st+0xc>
    312c:	81 11       	cpse	r24, r1
    312e:	f2 cf       	rjmp	.-28     	; 0x3114 <set_int_enable.isra.0+0x44>
    3130:	81 e0       	ldi	r24, 0x01	; 1
    3132:	da cf       	rjmp	.-76     	; 0x30e8 <set_int_enable.isra.0+0x18>
    3134:	19 82       	std	Y+1, r1	; 0x01
    3136:	d9 cf       	rjmp	.-78     	; 0x30ea <set_int_enable.isra.0+0x1a>

00003138 <mpu_configure_fifo>:
    3138:	1f 93       	push	r17
    313a:	cf 93       	push	r28
    313c:	df 93       	push	r29
    313e:	d8 2f       	mov	r29, r24
    3140:	80 91 23 01 	lds	r24, 0x0123	; 0x800123 <st+0x1d>
    3144:	c0 e0       	ldi	r28, 0x00	; 0
    3146:	81 11       	cpse	r24, r1
    3148:	1f c0       	rjmp	.+62     	; 0x3188 <mpu_configure_fifo+0x50>
    314a:	80 91 0c 01 	lds	r24, 0x010C	; 0x80010c <st+0x6>
    314e:	88 23       	and	r24, r24
    3150:	b9 f0       	breq	.+46     	; 0x3180 <mpu_configure_fifo+0x48>
    3152:	10 91 11 01 	lds	r17, 0x0111	; 0x800111 <st+0xb>
    3156:	8d 23       	and	r24, r29
    3158:	80 93 11 01 	sts	0x0111, r24	; 0x800111 <st+0xb>
    315c:	c1 e0       	ldi	r28, 0x01	; 1
    315e:	8d 13       	cpse	r24, r29
    3160:	01 c0       	rjmp	.+2      	; 0x3164 <mpu_configure_fifo+0x2c>
    3162:	c0 e0       	ldi	r28, 0x00	; 0
    3164:	c1 95       	neg	r28
    3166:	80 91 15 01 	lds	r24, 0x0115	; 0x800115 <st+0xf>
    316a:	8d 2b       	or	r24, r29
    316c:	59 f0       	breq	.+22     	; 0x3184 <mpu_configure_fifo+0x4c>
    316e:	81 e0       	ldi	r24, 0x01	; 1
    3170:	af df       	rcall	.-162    	; 0x30d0 <set_int_enable.isra.0>
    3172:	dd 23       	and	r29, r29
    3174:	49 f0       	breq	.+18     	; 0x3188 <mpu_configure_fifo+0x50>
    3176:	8d db       	rcall	.-2278   	; 0x2892 <mpu_reset_fifo>
    3178:	88 23       	and	r24, r24
    317a:	31 f0       	breq	.+12     	; 0x3188 <mpu_configure_fifo+0x50>
    317c:	10 93 11 01 	sts	0x0111, r17	; 0x800111 <st+0xb>
    3180:	cf ef       	ldi	r28, 0xFF	; 255
    3182:	02 c0       	rjmp	.+4      	; 0x3188 <mpu_configure_fifo+0x50>
    3184:	80 e0       	ldi	r24, 0x00	; 0
    3186:	a4 df       	rcall	.-184    	; 0x30d0 <set_int_enable.isra.0>
    3188:	8c 2f       	mov	r24, r28
    318a:	df 91       	pop	r29
    318c:	cf 91       	pop	r28
    318e:	1f 91       	pop	r17
    3190:	08 95       	ret

00003192 <mpu_lp_accel_mode.isra.0>:
    3192:	1f 93       	push	r17
    3194:	cf 93       	push	r28
    3196:	df 93       	push	r29
    3198:	00 d0       	rcall	.+0      	; 0x319a <mpu_lp_accel_mode.isra.0+0x8>
    319a:	cd b7       	in	r28, 0x3d	; 61
    319c:	de b7       	in	r29, 0x3e	; 62
    319e:	18 2f       	mov	r17, r24
    31a0:	81 11       	cpse	r24, r1
    31a2:	1e c0       	rjmp	.+60     	; 0x31e0 <mpu_lp_accel_mode.isra.0+0x4e>
    31a4:	80 e0       	ldi	r24, 0x00	; 0
    31a6:	f2 de       	rcall	.-540    	; 0x2f8c <mpu_set_int_latched.isra.0>
    31a8:	19 82       	std	Y+1, r1	; 0x01
    31aa:	87 e0       	ldi	r24, 0x07	; 7
    31ac:	8a 83       	std	Y+2, r24	; 0x02
    31ae:	a0 91 06 01 	lds	r26, 0x0106	; 0x800106 <st>
    31b2:	b0 91 07 01 	lds	r27, 0x0107	; 0x800107 <st+0x1>
    31b6:	e0 91 08 01 	lds	r30, 0x0108	; 0x800108 <st+0x2>
    31ba:	f0 91 09 01 	lds	r31, 0x0109	; 0x800109 <st+0x3>
    31be:	9e 01       	movw	r18, r28
    31c0:	2f 5f       	subi	r18, 0xFF	; 255
    31c2:	3f 4f       	sbci	r19, 0xFF	; 255
    31c4:	42 e0       	ldi	r20, 0x02	; 2
    31c6:	55 96       	adiw	r26, 0x15	; 21
    31c8:	6c 91       	ld	r22, X
    31ca:	80 81       	ld	r24, Z
    31cc:	28 db       	rcall	.-2480   	; 0x281e <twi_writeToPointer>
    31ce:	81 11       	cpse	r24, r1
    31d0:	10 92 15 01 	sts	0x0115, r1	; 0x800115 <st+0xf>
    31d4:	0f 90       	pop	r0
    31d6:	0f 90       	pop	r0
    31d8:	df 91       	pop	r29
    31da:	cf 91       	pop	r28
    31dc:	1f 91       	pop	r17
    31de:	08 95       	ret
    31e0:	81 e0       	ldi	r24, 0x01	; 1
    31e2:	d4 de       	rcall	.-600    	; 0x2f8c <mpu_set_int_latched.isra.0>
    31e4:	80 e2       	ldi	r24, 0x20	; 32
    31e6:	89 83       	std	Y+1, r24	; 0x01
    31e8:	11 30       	cpi	r17, 0x01	; 1
    31ea:	41 f5       	brne	.+80     	; 0x323c <mpu_lp_accel_mode.isra.0+0xaa>
    31ec:	1a 82       	std	Y+2, r1	; 0x02
    31ee:	85 e0       	ldi	r24, 0x05	; 5
    31f0:	90 e0       	ldi	r25, 0x00	; 0
    31f2:	53 dc       	rcall	.-1882   	; 0x2a9a <mpu_set_lpf>
    31f4:	8a 81       	ldd	r24, Y+2	; 0x02
    31f6:	20 e4       	ldi	r18, 0x40	; 64
    31f8:	82 9f       	mul	r24, r18
    31fa:	c0 01       	movw	r24, r0
    31fc:	11 24       	eor	r1, r1
    31fe:	87 60       	ori	r24, 0x07	; 7
    3200:	8a 83       	std	Y+2, r24	; 0x02
    3202:	a0 91 06 01 	lds	r26, 0x0106	; 0x800106 <st>
    3206:	b0 91 07 01 	lds	r27, 0x0107	; 0x800107 <st+0x1>
    320a:	e0 91 08 01 	lds	r30, 0x0108	; 0x800108 <st+0x2>
    320e:	f0 91 09 01 	lds	r31, 0x0109	; 0x800109 <st+0x3>
    3212:	9e 01       	movw	r18, r28
    3214:	2f 5f       	subi	r18, 0xFF	; 255
    3216:	3f 4f       	sbci	r19, 0xFF	; 255
    3218:	42 e0       	ldi	r20, 0x02	; 2
    321a:	55 96       	adiw	r26, 0x15	; 21
    321c:	6c 91       	ld	r22, X
    321e:	80 81       	ld	r24, Z
    3220:	fe da       	rcall	.-2564   	; 0x281e <twi_writeToPointer>
    3222:	88 23       	and	r24, r24
    3224:	b9 f2       	breq	.-82     	; 0x31d4 <mpu_lp_accel_mode.isra.0+0x42>
    3226:	88 e0       	ldi	r24, 0x08	; 8
    3228:	80 93 0c 01 	sts	0x010C, r24	; 0x80010c <st+0x6>
    322c:	10 92 0e 01 	sts	0x010E, r1	; 0x80010e <st+0x8>
    3230:	81 e0       	ldi	r24, 0x01	; 1
    3232:	80 93 15 01 	sts	0x0115, r24	; 0x800115 <st+0xf>
    3236:	80 e0       	ldi	r24, 0x00	; 0
    3238:	7f df       	rcall	.-258    	; 0x3138 <mpu_configure_fifo>
    323a:	cc cf       	rjmp	.-104    	; 0x31d4 <mpu_lp_accel_mode.isra.0+0x42>
    323c:	16 30       	cpi	r17, 0x06	; 6
    323e:	18 f4       	brcc	.+6      	; 0x3246 <mpu_lp_accel_mode.isra.0+0xb4>
    3240:	81 e0       	ldi	r24, 0x01	; 1
    3242:	8a 83       	std	Y+2, r24	; 0x02
    3244:	d4 cf       	rjmp	.-88     	; 0x31ee <mpu_lp_accel_mode.isra.0+0x5c>
    3246:	15 31       	cpi	r17, 0x15	; 21
    3248:	28 f4       	brcc	.+10     	; 0x3254 <mpu_lp_accel_mode.isra.0+0xc2>
    324a:	82 e0       	ldi	r24, 0x02	; 2
    324c:	8a 83       	std	Y+2, r24	; 0x02
    324e:	8a e0       	ldi	r24, 0x0A	; 10
    3250:	90 e0       	ldi	r25, 0x00	; 0
    3252:	cf cf       	rjmp	.-98     	; 0x31f2 <mpu_lp_accel_mode.isra.0+0x60>
    3254:	83 e0       	ldi	r24, 0x03	; 3
    3256:	8a 83       	std	Y+2, r24	; 0x02
    3258:	84 e1       	ldi	r24, 0x14	; 20
    325a:	90 e0       	ldi	r25, 0x00	; 0
    325c:	ca cf       	rjmp	.-108    	; 0x31f2 <mpu_lp_accel_mode.isra.0+0x60>

0000325e <mpu_set_sample_rate>:
    325e:	0f 93       	push	r16
    3260:	1f 93       	push	r17
    3262:	cf 93       	push	r28
    3264:	df 93       	push	r29
    3266:	0f 92       	push	r0
    3268:	cd b7       	in	r28, 0x3d	; 61
    326a:	de b7       	in	r29, 0x3e	; 62
    326c:	8c 01       	movw	r16, r24
    326e:	80 91 0c 01 	lds	r24, 0x010C	; 0x80010c <st+0x6>
    3272:	81 11       	cpse	r24, r1
    3274:	07 c0       	rjmp	.+14     	; 0x3284 <mpu_set_sample_rate+0x26>
    3276:	8f ef       	ldi	r24, 0xFF	; 255
    3278:	0f 90       	pop	r0
    327a:	df 91       	pop	r29
    327c:	cf 91       	pop	r28
    327e:	1f 91       	pop	r17
    3280:	0f 91       	pop	r16
    3282:	08 95       	ret
    3284:	80 91 23 01 	lds	r24, 0x0123	; 0x800123 <st+0x1d>
    3288:	81 11       	cpse	r24, r1
    328a:	f5 cf       	rjmp	.-22     	; 0x3276 <mpu_set_sample_rate+0x18>
    328c:	80 91 15 01 	lds	r24, 0x0115	; 0x800115 <st+0xf>
    3290:	88 23       	and	r24, r24
    3292:	51 f0       	breq	.+20     	; 0x32a8 <mpu_set_sample_rate+0x4a>
    3294:	c8 01       	movw	r24, r16
    3296:	01 97       	sbiw	r24, 0x01	; 1
    3298:	88 97       	sbiw	r24, 0x28	; 40
    329a:	20 f4       	brcc	.+8      	; 0x32a4 <mpu_set_sample_rate+0x46>
    329c:	80 2f       	mov	r24, r16
    329e:	79 df       	rcall	.-270    	; 0x3192 <mpu_lp_accel_mode.isra.0>
    32a0:	80 e0       	ldi	r24, 0x00	; 0
    32a2:	ea cf       	rjmp	.-44     	; 0x3278 <mpu_set_sample_rate+0x1a>
    32a4:	80 e0       	ldi	r24, 0x00	; 0
    32a6:	75 df       	rcall	.-278    	; 0x3192 <mpu_lp_accel_mode.isra.0>
    32a8:	b8 01       	movw	r22, r16
    32aa:	09 3e       	cpi	r16, 0xE9	; 233
    32ac:	13 40       	sbci	r17, 0x03	; 3
    32ae:	10 f0       	brcs	.+4      	; 0x32b4 <mpu_set_sample_rate+0x56>
    32b0:	68 ee       	ldi	r22, 0xE8	; 232
    32b2:	73 e0       	ldi	r23, 0x03	; 3
    32b4:	64 30       	cpi	r22, 0x04	; 4
    32b6:	71 05       	cpc	r23, r1
    32b8:	10 f4       	brcc	.+4      	; 0x32be <mpu_set_sample_rate+0x60>
    32ba:	64 e0       	ldi	r22, 0x04	; 4
    32bc:	70 e0       	ldi	r23, 0x00	; 0
    32be:	08 ee       	ldi	r16, 0xE8	; 232
    32c0:	13 e0       	ldi	r17, 0x03	; 3
    32c2:	c8 01       	movw	r24, r16
    32c4:	0e 94 52 2b 	call	0x56a4	; 0x56a4 <__udivmodhi4>
    32c8:	61 50       	subi	r22, 0x01	; 1
    32ca:	69 83       	std	Y+1, r22	; 0x01
    32cc:	a0 91 06 01 	lds	r26, 0x0106	; 0x800106 <st>
    32d0:	b0 91 07 01 	lds	r27, 0x0107	; 0x800107 <st+0x1>
    32d4:	e0 91 08 01 	lds	r30, 0x0108	; 0x800108 <st+0x2>
    32d8:	f0 91 09 01 	lds	r31, 0x0109	; 0x800109 <st+0x3>
    32dc:	9e 01       	movw	r18, r28
    32de:	2f 5f       	subi	r18, 0xFF	; 255
    32e0:	3f 4f       	sbci	r19, 0xFF	; 255
    32e2:	41 e0       	ldi	r20, 0x01	; 1
    32e4:	11 96       	adiw	r26, 0x01	; 1
    32e6:	6c 91       	ld	r22, X
    32e8:	80 81       	ld	r24, Z
    32ea:	99 da       	rcall	.-2766   	; 0x281e <twi_writeToPointer>
    32ec:	88 23       	and	r24, r24
    32ee:	09 f4       	brne	.+2      	; 0x32f2 <mpu_set_sample_rate+0x94>
    32f0:	c2 cf       	rjmp	.-124    	; 0x3276 <mpu_set_sample_rate+0x18>
    32f2:	69 81       	ldd	r22, Y+1	; 0x01
    32f4:	70 e0       	ldi	r23, 0x00	; 0
    32f6:	6f 5f       	subi	r22, 0xFF	; 255
    32f8:	7f 4f       	sbci	r23, 0xFF	; 255
    32fa:	c8 01       	movw	r24, r16
    32fc:	0e 94 66 2b 	call	0x56cc	; 0x56cc <__divmodhi4>
    3300:	70 93 10 01 	sts	0x0110, r23	; 0x800110 <st+0xa>
    3304:	60 93 0f 01 	sts	0x010F, r22	; 0x80010f <st+0x9>
    3308:	cb 01       	movw	r24, r22
    330a:	96 95       	lsr	r25
    330c:	87 95       	ror	r24
    330e:	c5 db       	rcall	.-2166   	; 0x2a9a <mpu_set_lpf>
    3310:	c7 cf       	rjmp	.-114    	; 0x32a0 <mpu_set_sample_rate+0x42>

00003312 <initialise>:
    3312:	7f 92       	push	r7
    3314:	8f 92       	push	r8
    3316:	9f 92       	push	r9
    3318:	af 92       	push	r10
    331a:	bf 92       	push	r11
    331c:	cf 92       	push	r12
    331e:	df 92       	push	r13
    3320:	ef 92       	push	r14
    3322:	ff 92       	push	r15
    3324:	0f 93       	push	r16
    3326:	1f 93       	push	r17
    3328:	cf 93       	push	r28
    332a:	df 93       	push	r29
    332c:	cd b7       	in	r28, 0x3d	; 61
    332e:	de b7       	in	r29, 0x3e	; 62
    3330:	c6 53       	subi	r28, 0x36	; 54
    3332:	d2 40       	sbci	r29, 0x02	; 2
    3334:	0f b6       	in	r0, 0x3f	; 63
    3336:	f8 94       	cli
    3338:	de bf       	out	0x3e, r29	; 62
    333a:	0f be       	out	0x3f, r0	; 63
    333c:	cd bf       	out	0x3d, r28	; 61
    333e:	42 e1       	ldi	r20, 0x12	; 18
    3340:	51 e0       	ldi	r21, 0x01	; 1
    3342:	61 e0       	ldi	r22, 0x01	; 1
    3344:	70 e0       	ldi	r23, 0x00	; 0
    3346:	ce 01       	movw	r24, r28
    3348:	01 96       	adiw	r24, 0x01	; 1
    334a:	0e 94 16 2c 	call	0x582c	; 0x582c <eeprom_read_block>
    334e:	8d 85       	ldd	r24, Y+13	; 0x0d
    3350:	9e 85       	ldd	r25, Y+14	; 0x0e
    3352:	af 85       	ldd	r26, Y+15	; 0x0f
    3354:	b8 89       	ldd	r27, Y+16	; 0x10
    3356:	08 97       	sbiw	r24, 0x08	; 8
    3358:	a1 05       	cpc	r26, r1
    335a:	b1 05       	cpc	r27, r1
    335c:	40 f4       	brcc	.+16     	; 0x336e <initialise+0x5c>
    335e:	42 e1       	ldi	r20, 0x12	; 18
    3360:	51 e0       	ldi	r21, 0x01	; 1
    3362:	60 e0       	ldi	r22, 0x00	; 0
    3364:	70 e0       	ldi	r23, 0x00	; 0
    3366:	ce 01       	movw	r24, r28
    3368:	01 96       	adiw	r24, 0x01	; 1
    336a:	0e 94 16 2c 	call	0x582c	; 0x582c <eeprom_read_block>
    336e:	89 85       	ldd	r24, Y+9	; 0x09
    3370:	9a 85       	ldd	r25, Y+10	; 0x0a
    3372:	ab 85       	ldd	r26, Y+11	; 0x0b
    3374:	bc 85       	ldd	r27, Y+12	; 0x0c
    3376:	85 31       	cpi	r24, 0x15	; 21
    3378:	94 4d       	sbci	r25, 0xD4	; 212
    337a:	a2 4a       	sbci	r26, 0xA2	; 162
    337c:	b1 05       	cpc	r27, r1
    337e:	b1 f0       	breq	.+44     	; 0x33ac <initialise+0x9a>
    3380:	42 e1       	ldi	r20, 0x12	; 18
    3382:	51 e0       	ldi	r21, 0x01	; 1
    3384:	6f eb       	ldi	r22, 0xBF	; 191
    3386:	70 e0       	ldi	r23, 0x00	; 0
    3388:	ce 01       	movw	r24, r28
    338a:	01 96       	adiw	r24, 0x01	; 1
    338c:	0e 94 e9 2b 	call	0x57d2	; 0x57d2 <memcpy_P>
    3390:	1d 86       	std	Y+13, r1	; 0x0d
    3392:	1e 86       	std	Y+14, r1	; 0x0e
    3394:	1f 86       	std	Y+15, r1	; 0x0f
    3396:	18 8a       	std	Y+16, r1	; 0x10
    3398:	42 e4       	ldi	r20, 0x42	; 66
    339a:	50 e0       	ldi	r21, 0x00	; 0
    339c:	63 e6       	ldi	r22, 0x63	; 99
    339e:	71 e0       	ldi	r23, 0x01	; 1
    33a0:	ce 01       	movw	r24, r28
    33a2:	8b 55       	subi	r24, 0x5B	; 91
    33a4:	9f 4f       	sbci	r25, 0xFF	; 255
    33a6:	0e 94 e9 2b 	call	0x57d2	; 0x57d2 <memcpy_P>
    33aa:	08 c0       	rjmp	.+16     	; 0x33bc <initialise+0xaa>
    33ac:	8d 85       	ldd	r24, Y+13	; 0x0d
    33ae:	9e 85       	ldd	r25, Y+14	; 0x0e
    33b0:	af 85       	ldd	r26, Y+15	; 0x0f
    33b2:	b8 89       	ldd	r27, Y+16	; 0x10
    33b4:	02 97       	sbiw	r24, 0x02	; 2
    33b6:	a1 05       	cpc	r26, r1
    33b8:	b1 05       	cpc	r27, r1
    33ba:	70 f3       	brcs	.-36     	; 0x3398 <initialise+0x86>
    33bc:	8a 81       	ldd	r24, Y+2	; 0x02
    33be:	87 30       	cpi	r24, 0x07	; 7
    33c0:	09 f0       	breq	.+2      	; 0x33c4 <initialise+0xb2>
    33c2:	40 c0       	rjmp	.+128    	; 0x3444 <initialise+0x132>
    33c4:	8f e0       	ldi	r24, 0x0F	; 15
    33c6:	8a 83       	std	Y+2, r24	; 0x02
    33c8:	8d 85       	ldd	r24, Y+13	; 0x0d
    33ca:	9e 85       	ldd	r25, Y+14	; 0x0e
    33cc:	af 85       	ldd	r26, Y+15	; 0x0f
    33ce:	b8 89       	ldd	r27, Y+16	; 0x10
    33d0:	04 97       	sbiw	r24, 0x04	; 4
    33d2:	a1 05       	cpc	r26, r1
    33d4:	b1 05       	cpc	r27, r1
    33d6:	48 f4       	brcc	.+18     	; 0x33ea <initialise+0xd8>
    33d8:	48 e5       	ldi	r20, 0x58	; 88
    33da:	50 e0       	ldi	r21, 0x00	; 0
    33dc:	6b e0       	ldi	r22, 0x0B	; 11
    33de:	71 e0       	ldi	r23, 0x01	; 1
    33e0:	ce 01       	movw	r24, r28
    33e2:	83 5b       	subi	r24, 0xB3	; 179
    33e4:	9f 4f       	sbci	r25, 0xFF	; 255
    33e6:	0e 94 e9 2b 	call	0x57d2	; 0x57d2 <memcpy_P>
    33ea:	8d 85       	ldd	r24, Y+13	; 0x0d
    33ec:	9e 85       	ldd	r25, Y+14	; 0x0e
    33ee:	af 85       	ldd	r26, Y+15	; 0x0f
    33f0:	b8 89       	ldd	r27, Y+16	; 0x10
    33f2:	86 30       	cpi	r24, 0x06	; 6
    33f4:	91 05       	cpc	r25, r1
    33f6:	a1 05       	cpc	r26, r1
    33f8:	b1 05       	cpc	r27, r1
    33fa:	48 f5       	brcc	.+82     	; 0x344e <initialise+0x13c>
    33fc:	1c 82       	std	Y+4, r1	; 0x04
    33fe:	c9 51       	subi	r28, 0x19	; 25
    3400:	df 4f       	sbci	r29, 0xFF	; 255
    3402:	18 82       	st	Y, r1
    3404:	c7 5e       	subi	r28, 0xE7	; 231
    3406:	d0 40       	sbci	r29, 0x00	; 0
    3408:	ea 81       	ldd	r30, Y+2	; 0x02
    340a:	f0 e0       	ldi	r31, 0x00	; 0
    340c:	ef 52       	subi	r30, 0x2F	; 47
    340e:	fe 4f       	sbci	r31, 0xFE	; 254
    3410:	e4 91       	lpm	r30, Z
    3412:	e2 30       	cpi	r30, 0x02	; 2
    3414:	21 f4       	brne	.+8      	; 0x341e <initialise+0x10c>
    3416:	8a a5       	ldd	r24, Y+42	; 0x2a
    3418:	91 e0       	ldi	r25, 0x01	; 1
    341a:	89 27       	eor	r24, r25
    341c:	8a a7       	std	Y+42, r24	; 0x2a
    341e:	42 e0       	ldi	r20, 0x02	; 2
    3420:	50 e0       	ldi	r21, 0x00	; 0
    3422:	6f ec       	ldi	r22, 0xCF	; 207
    3424:	71 e0       	ldi	r23, 0x01	; 1
    3426:	ce 01       	movw	r24, r28
    3428:	8f 5e       	subi	r24, 0xEF	; 239
    342a:	9e 4f       	sbci	r25, 0xFE	; 254
    342c:	0e 94 e9 2b 	call	0x57d2	; 0x57d2 <memcpy_P>
    3430:	44 e2       	ldi	r20, 0x24	; 36
    3432:	50 e0       	ldi	r21, 0x00	; 0
    3434:	6b ea       	ldi	r22, 0xAB	; 171
    3436:	71 e0       	ldi	r23, 0x01	; 1
    3438:	ce 01       	movw	r24, r28
    343a:	83 51       	subi	r24, 0x13	; 19
    343c:	9f 4f       	sbci	r25, 0xFF	; 255
    343e:	0e 94 e9 2b 	call	0x57d2	; 0x57d2 <memcpy_P>
    3442:	13 c0       	rjmp	.+38     	; 0x346a <initialise+0x158>
    3444:	88 30       	cpi	r24, 0x08	; 8
    3446:	09 f0       	breq	.+2      	; 0x344a <initialise+0x138>
    3448:	bf cf       	rjmp	.-130    	; 0x33c8 <initialise+0xb6>
    344a:	8d e0       	ldi	r24, 0x0D	; 13
    344c:	bc cf       	rjmp	.-136    	; 0x33c6 <initialise+0xb4>
    344e:	86 30       	cpi	r24, 0x06	; 6
    3450:	91 05       	cpc	r25, r1
    3452:	a1 05       	cpc	r26, r1
    3454:	b1 05       	cpc	r27, r1
    3456:	99 f2       	breq	.-90     	; 0x33fe <initialise+0xec>
    3458:	89 30       	cpi	r24, 0x09	; 9
    345a:	91 05       	cpc	r25, r1
    345c:	a1 05       	cpc	r26, r1
    345e:	b1 05       	cpc	r27, r1
    3460:	98 f2       	brcs	.-90     	; 0x3408 <initialise+0xf6>
    3462:	0d 97       	sbiw	r24, 0x0d	; 13
    3464:	a1 05       	cpc	r26, r1
    3466:	b1 05       	cpc	r27, r1
    3468:	d0 f2       	brcs	.-76     	; 0x341e <initialise+0x10c>
    346a:	8d 85       	ldd	r24, Y+13	; 0x0d
    346c:	9e 85       	ldd	r25, Y+14	; 0x0e
    346e:	af 85       	ldd	r26, Y+15	; 0x0f
    3470:	b8 89       	ldd	r27, Y+16	; 0x10
    3472:	0e 97       	sbiw	r24, 0x0e	; 14
    3474:	a1 05       	cpc	r26, r1
    3476:	b1 05       	cpc	r27, r1
    3478:	e8 f4       	brcc	.+58     	; 0x34b4 <initialise+0x1a2>
    347a:	88 a9       	ldd	r24, Y+48	; 0x30
    347c:	84 30       	cpi	r24, 0x04	; 4
    347e:	30 f4       	brcc	.+12     	; 0x348c <initialise+0x17a>
    3480:	82 30       	cpi	r24, 0x02	; 2
    3482:	08 f4       	brcc	.+2      	; 0x3486 <initialise+0x174>
    3484:	50 c4       	rjmp	.+2208   	; 0x3d26 <initialise+0xa14>
    3486:	81 e0       	ldi	r24, 0x01	; 1
    3488:	88 ab       	std	Y+48, r24	; 0x30
    348a:	04 c0       	rjmp	.+8      	; 0x3494 <initialise+0x182>
    348c:	84 50       	subi	r24, 0x04	; 4
    348e:	82 30       	cpi	r24, 0x02	; 2
    3490:	08 f4       	brcc	.+2      	; 0x3494 <initialise+0x182>
    3492:	18 aa       	std	Y+48, r1	; 0x30
    3494:	8e e0       	ldi	r24, 0x0E	; 14
    3496:	90 e0       	ldi	r25, 0x00	; 0
    3498:	a0 e0       	ldi	r26, 0x00	; 0
    349a:	b0 e0       	ldi	r27, 0x00	; 0
    349c:	8d 87       	std	Y+13, r24	; 0x0d
    349e:	9e 87       	std	Y+14, r25	; 0x0e
    34a0:	af 87       	std	Y+15, r26	; 0x0f
    34a2:	b8 8b       	std	Y+16, r27	; 0x10
    34a4:	42 e1       	ldi	r20, 0x12	; 18
    34a6:	51 e0       	ldi	r21, 0x01	; 1
    34a8:	61 e0       	ldi	r22, 0x01	; 1
    34aa:	70 e0       	ldi	r23, 0x00	; 0
    34ac:	ce 01       	movw	r24, r28
    34ae:	01 96       	adiw	r24, 0x01	; 1
    34b0:	0e 94 26 2c 	call	0x584c	; 0x584c <eeprom_update_block>
    34b4:	82 e1       	ldi	r24, 0x12	; 18
    34b6:	91 e0       	ldi	r25, 0x01	; 1
    34b8:	fe 01       	movw	r30, r28
    34ba:	31 96       	adiw	r30, 0x01	; 1
    34bc:	de 01       	movw	r26, r28
    34be:	ad 5e       	subi	r26, 0xED	; 237
    34c0:	be 4f       	sbci	r27, 0xFE	; 254
    34c2:	01 90       	ld	r0, Z+
    34c4:	0d 92       	st	X+, r0
    34c6:	01 97       	sbiw	r24, 0x01	; 1
    34c8:	e1 f7       	brne	.-8      	; 0x34c2 <initialise+0x1b0>
    34ca:	c7 50       	subi	r28, 0x07	; 7
    34cc:	de 4f       	sbci	r29, 0xFE	; 254
    34ce:	18 82       	st	Y, r1
    34d0:	c9 5f       	subi	r28, 0xF9	; 249
    34d2:	d1 40       	sbci	r29, 0x01	; 1
    34d4:	cc 5e       	subi	r28, 0xEC	; 236
    34d6:	de 4f       	sbci	r29, 0xFE	; 254
    34d8:	88 81       	ld	r24, Y
    34da:	c4 51       	subi	r28, 0x14	; 20
    34dc:	d1 40       	sbci	r29, 0x01	; 1
    34de:	80 93 5c 04 	sts	0x045C, r24	; 0x80045c <fullDeviceType>
    34e2:	80 93 5b 04 	sts	0x045B, r24	; 0x80045b <deviceType>
    34e6:	ca 5e       	subi	r28, 0xEA	; 234
    34e8:	de 4f       	sbci	r29, 0xFE	; 254
    34ea:	98 81       	ld	r25, Y
    34ec:	c6 51       	subi	r28, 0x16	; 22
    34ee:	d1 40       	sbci	r29, 0x01	; 1
    34f0:	90 93 5a 04 	sts	0x045A, r25	; 0x80045a <pollRate>
    34f4:	cd 5e       	subi	r28, 0xED	; 237
    34f6:	de 4f       	sbci	r29, 0xFE	; 254
    34f8:	98 81       	ld	r25, Y
    34fa:	c3 51       	subi	r28, 0x13	; 19
    34fc:	d1 40       	sbci	r29, 0x01	; 1
    34fe:	90 93 59 04 	sts	0x0459, r25	; 0x800459 <inputType>
    3502:	e8 2f       	mov	r30, r24
    3504:	f0 e0       	ldi	r31, 0x00	; 0
    3506:	ef 52       	subi	r30, 0x2F	; 47
    3508:	fe 4f       	sbci	r31, 0xFE	; 254
    350a:	94 91       	lpm	r25, Z
    350c:	21 e0       	ldi	r18, 0x01	; 1
    350e:	91 30       	cpi	r25, 0x01	; 1
    3510:	09 f0       	breq	.+2      	; 0x3514 <initialise+0x202>
    3512:	20 e0       	ldi	r18, 0x00	; 0
    3514:	20 93 58 04 	sts	0x0458, r18	; 0x800458 <typeIsDrum>
    3518:	e4 91       	lpm	r30, Z
    351a:	21 e0       	ldi	r18, 0x01	; 1
    351c:	e2 30       	cpi	r30, 0x02	; 2
    351e:	09 f0       	breq	.+2      	; 0x3522 <initialise+0x210>
    3520:	20 e0       	ldi	r18, 0x00	; 0
    3522:	20 93 57 04 	sts	0x0457, r18	; 0x800457 <typeIsGuitar>
    3526:	e2 30       	cpi	r30, 0x02	; 2
    3528:	09 f0       	breq	.+2      	; 0x352c <initialise+0x21a>
    352a:	ff c3       	rjmp	.+2046   	; 0x3d2a <initialise+0xa18>
    352c:	84 31       	cpi	r24, 0x14	; 20
    352e:	40 f4       	brcc	.+16     	; 0x3540 <initialise+0x22e>
    3530:	87 e0       	ldi	r24, 0x07	; 7
    3532:	80 93 5b 04 	sts	0x045B, r24	; 0x80045b <deviceType>
    3536:	91 30       	cpi	r25, 0x01	; 1
    3538:	19 f4       	brne	.+6      	; 0x3540 <initialise+0x22e>
    353a:	88 e0       	ldi	r24, 0x08	; 8
    353c:	80 93 5b 04 	sts	0x045B, r24	; 0x80045b <deviceType>
    3540:	85 b5       	in	r24, 0x25	; 37
    3542:	82 60       	ori	r24, 0x02	; 2
    3544:	85 bd       	out	0x25, r24	; 37
    3546:	85 b5       	in	r24, 0x25	; 37
    3548:	81 60       	ori	r24, 0x01	; 1
    354a:	85 bd       	out	0x25, r24	; 37
    354c:	80 91 6e 00 	lds	r24, 0x006E	; 0x80006e <__TEXT_REGION_LENGTH__+0x7e006e>
    3550:	81 60       	ori	r24, 0x01	; 1
    3552:	80 93 6e 00 	sts	0x006E, r24	; 0x80006e <__TEXT_REGION_LENGTH__+0x7e006e>
    3556:	c8 5e       	subi	r28, 0xE8	; 232
    3558:	de 4f       	sbci	r29, 0xFE	; 254
    355a:	88 81       	ld	r24, Y
    355c:	c8 51       	subi	r28, 0x18	; 24
    355e:	d1 40       	sbci	r29, 0x01	; 1
    3560:	80 93 f5 03 	sts	0x03F5, r24	; 0x8003f5 <mapJoyLeftDpad>
    3564:	c7 5e       	subi	r28, 0xE7	; 231
    3566:	de 4f       	sbci	r29, 0xFE	; 254
    3568:	88 81       	ld	r24, Y
    356a:	c9 51       	subi	r28, 0x19	; 25
    356c:	d1 40       	sbci	r29, 0x01	; 1
    356e:	80 93 f4 03 	sts	0x03F4, r24	; 0x8003f4 <mapStartSelectHome>
    3572:	0e 94 5c 0c 	call	0x18b8	; 0x18b8 <setupADC>
    3576:	cd 5e       	subi	r28, 0xED	; 237
    3578:	de 4f       	sbci	r29, 0xFE	; 254
    357a:	88 81       	ld	r24, Y
    357c:	c3 51       	subi	r28, 0x13	; 19
    357e:	d1 40       	sbci	r29, 0x01	; 1
    3580:	82 30       	cpi	r24, 0x02	; 2
    3582:	09 f4       	brne	.+2      	; 0x3586 <initialise+0x274>
    3584:	d9 c3       	rjmp	.+1970   	; 0x3d38 <initialise+0xa26>
    3586:	83 30       	cpi	r24, 0x03	; 3
    3588:	09 f4       	brne	.+2      	; 0x358c <initialise+0x27a>
    358a:	d9 c3       	rjmp	.+1970   	; 0x3d3e <initialise+0xa2c>
    358c:	81 30       	cpi	r24, 0x01	; 1
    358e:	99 f4       	brne	.+38     	; 0x35b6 <initialise+0x2a4>
    3590:	c6 5e       	subi	r28, 0xE6	; 230
    3592:	de 4f       	sbci	r29, 0xFE	; 254
    3594:	88 81       	ld	r24, Y
    3596:	ca 51       	subi	r28, 0x1A	; 26
    3598:	d1 40       	sbci	r29, 0x01	; 1
    359a:	80 93 cb 02 	sts	0x02CB, r24	; 0x8002cb <mapNunchukAccelToRightJoy>
    359e:	8e ea       	ldi	r24, 0xAE	; 174
    35a0:	96 e1       	ldi	r25, 0x16	; 22
    35a2:	90 93 f3 03 	sts	0x03F3, r25	; 0x8003f3 <tick_function+0x1>
    35a6:	80 93 f2 03 	sts	0x03F2, r24	; 0x8003f2 <tick_function>
    35aa:	80 ec       	ldi	r24, 0xC0	; 192
    35ac:	98 e0       	ldi	r25, 0x08	; 8
    35ae:	90 93 f1 03 	sts	0x03F1, r25	; 0x8003f1 <read_button_function+0x1>
    35b2:	80 93 f0 03 	sts	0x03F0, r24	; 0x8003f0 <read_button_function>
    35b6:	cd 5e       	subi	r28, 0xED	; 237
    35b8:	de 4f       	sbci	r29, 0xFE	; 254
    35ba:	88 81       	ld	r24, Y
    35bc:	c3 51       	subi	r28, 0x13	; 19
    35be:	d1 40       	sbci	r29, 0x01	; 1
    35c0:	83 30       	cpi	r24, 0x03	; 3
    35c2:	09 f0       	breq	.+2      	; 0x35c6 <initialise+0x2b4>
    35c4:	f5 c3       	rjmp	.+2026   	; 0x3db0 <initialise+0xa9e>
    35c6:	cb 5e       	subi	r28, 0xEB	; 235
    35c8:	de 4f       	sbci	r29, 0xFE	; 254
    35ca:	88 81       	ld	r24, Y
    35cc:	c5 51       	subi	r28, 0x15	; 21
    35ce:	d1 40       	sbci	r29, 0x01	; 1
    35d0:	81 30       	cpi	r24, 0x01	; 1
    35d2:	c9 f4       	brne	.+50     	; 0x3606 <initialise+0x2f4>
    35d4:	10 92 e9 02 	sts	0x02E9, r1	; 0x8002e9 <twi_state>
    35d8:	81 e0       	ldi	r24, 0x01	; 1
    35da:	80 93 e8 02 	sts	0x02E8, r24	; 0x8002e8 <twi_sendStop>
    35de:	10 92 e7 02 	sts	0x02E7, r1	; 0x8002e7 <twi_inRepStart>
    35e2:	44 9a       	sbi	0x08, 4	; 8
    35e4:	45 9a       	sbi	0x08, 5	; 8
    35e6:	80 91 b9 00 	lds	r24, 0x00B9	; 0x8000b9 <__TEXT_REGION_LENGTH__+0x7e00b9>
    35ea:	8e 7f       	andi	r24, 0xFE	; 254
    35ec:	80 93 b9 00 	sts	0x00B9, r24	; 0x8000b9 <__TEXT_REGION_LENGTH__+0x7e00b9>
    35f0:	80 91 b9 00 	lds	r24, 0x00B9	; 0x8000b9 <__TEXT_REGION_LENGTH__+0x7e00b9>
    35f4:	8d 7f       	andi	r24, 0xFD	; 253
    35f6:	80 93 b9 00 	sts	0x00B9, r24	; 0x8000b9 <__TEXT_REGION_LENGTH__+0x7e00b9>
    35fa:	8a e0       	ldi	r24, 0x0A	; 10
    35fc:	80 93 b8 00 	sts	0x00B8, r24	; 0x8000b8 <__TEXT_REGION_LENGTH__+0x7e00b8>
    3600:	85 e4       	ldi	r24, 0x45	; 69
    3602:	80 93 bc 00 	sts	0x00BC, r24	; 0x8000bc <__TEXT_REGION_LENGTH__+0x7e00bc>
    3606:	cb 5e       	subi	r28, 0xEB	; 235
    3608:	de 4f       	sbci	r29, 0xFE	; 254
    360a:	98 81       	ld	r25, Y
    360c:	c5 51       	subi	r28, 0x15	; 21
    360e:	d1 40       	sbci	r29, 0x01	; 1
    3610:	81 e0       	ldi	r24, 0x01	; 1
    3612:	91 30       	cpi	r25, 0x01	; 1
    3614:	41 f0       	breq	.+16     	; 0x3626 <initialise+0x314>
    3616:	cd 5e       	subi	r28, 0xED	; 237
    3618:	de 4f       	sbci	r29, 0xFE	; 254
    361a:	28 81       	ld	r18, Y
    361c:	c3 51       	subi	r28, 0x13	; 19
    361e:	d1 40       	sbci	r29, 0x01	; 1
    3620:	21 30       	cpi	r18, 0x01	; 1
    3622:	09 f0       	breq	.+2      	; 0x3626 <initialise+0x314>
    3624:	80 e0       	ldi	r24, 0x00	; 0
    3626:	81 70       	andi	r24, 0x01	; 1
    3628:	80 93 d5 03 	sts	0x03D5, r24	; 0x8003d5 <usingI2C>
    362c:	90 93 d4 03 	sts	0x03D4, r25	; 0x8003d4 <tiltType>
    3630:	84 e2       	ldi	r24, 0x24	; 36
    3632:	fe 01       	movw	r30, r28
    3634:	e1 50       	subi	r30, 0x01	; 1
    3636:	fe 4f       	sbci	r31, 0xFE	; 254
    3638:	a0 eb       	ldi	r26, 0xB0	; 176
    363a:	b3 e0       	ldi	r27, 0x03	; 3
    363c:	01 90       	ld	r0, Z+
    363e:	0d 92       	st	X+, r0
    3640:	8a 95       	dec	r24
    3642:	e1 f7       	brne	.-8      	; 0x363c <initialise+0x32a>
    3644:	10 92 af 03 	sts	0x03AF, r1	; 0x8003af <validPins+0x1>
    3648:	10 92 ae 03 	sts	0x03AE, r1	; 0x8003ae <validPins>
    364c:	0e 94 ac 0b 	call	0x1758	; 0x1758 <stopReading>
    3650:	10 92 1d 03 	sts	0x031D, r1	; 0x80031d <validAnalog+0x1>
    3654:	10 92 1c 03 	sts	0x031C, r1	; 0x80031c <validAnalog>
    3658:	10 92 eb 02 	sts	0x02EB, r1	; 0x8002eb <currentAnalog+0x1>
    365c:	10 92 ea 02 	sts	0x02EA, r1	; 0x8002ea <currentAnalog>
    3660:	ce 01       	movw	r24, r28
    3662:	8d 5e       	subi	r24, 0xED	; 237
    3664:	9e 4f       	sbci	r25, 0xFE	; 254
    3666:	5c 01       	movw	r10, r24
    3668:	6c 01       	movw	r12, r24
    366a:	00 e0       	ldi	r16, 0x00	; 0
    366c:	45 e0       	ldi	r20, 0x05	; 5
    366e:	94 2e       	mov	r9, r20
    3670:	7e 01       	movw	r14, r28
    3672:	b4 e0       	ldi	r27, 0x04	; 4
    3674:	eb 0e       	add	r14, r27
    3676:	f1 1c       	adc	r15, r1
    3678:	f7 01       	movw	r30, r14
    367a:	29 2d       	mov	r18, r9
    367c:	11 92       	st	Z+, r1
    367e:	2a 95       	dec	r18
    3680:	e9 f7       	brne	.-6      	; 0x367c <initialise+0x36a>
    3682:	09 83       	std	Y+1, r16	; 0x01
    3684:	d6 01       	movw	r26, r12
    3686:	90 96       	adiw	r26, 0x20	; 32
    3688:	8c 90       	ld	r8, X
    368a:	10 91 57 04 	lds	r17, 0x0457	; 0x800457 <typeIsGuitar>
    368e:	bf ef       	ldi	r27, 0xFF	; 255
    3690:	8b 16       	cp	r8, r27
    3692:	69 f1       	breq	.+90     	; 0x36ee <initialise+0x3dc>
    3694:	05 30       	cpi	r16, 0x05	; 5
    3696:	49 f4       	brne	.+18     	; 0x36aa <initialise+0x398>
    3698:	11 23       	and	r17, r17
    369a:	39 f0       	breq	.+14     	; 0x36aa <initialise+0x398>
    369c:	cb 5e       	subi	r28, 0xEB	; 235
    369e:	de 4f       	sbci	r29, 0xFE	; 254
    36a0:	88 81       	ld	r24, Y
    36a2:	c5 51       	subi	r28, 0x15	; 21
    36a4:	d1 40       	sbci	r29, 0x01	; 1
    36a6:	83 30       	cpi	r24, 0x03	; 3
    36a8:	11 f5       	brne	.+68     	; 0x36ee <initialise+0x3dc>
    36aa:	f6 01       	movw	r30, r12
    36ac:	71 a0       	ldd	r7, Z+33	; 0x21
    36ae:	61 e0       	ldi	r22, 0x01	; 1
    36b0:	88 2d       	mov	r24, r8
    36b2:	0e 94 b4 0b 	call	0x1768	; 0x1768 <pinMode>
    36b6:	7b 82       	std	Y+3, r7	; 0x03
    36b8:	82 ef       	ldi	r24, 0xF2	; 242
    36ba:	88 0d       	add	r24, r8
    36bc:	8a 83       	std	Y+2, r24	; 0x02
    36be:	a0 91 1c 03 	lds	r26, 0x031C	; 0x80031c <validAnalog>
    36c2:	b0 91 1d 03 	lds	r27, 0x031D	; 0x80031d <validAnalog+0x1>
    36c6:	cd 01       	movw	r24, r26
    36c8:	01 96       	adiw	r24, 0x01	; 1
    36ca:	90 93 1d 03 	sts	0x031D, r25	; 0x80031d <validAnalog+0x1>
    36ce:	80 93 1c 03 	sts	0x031C, r24	; 0x80031c <validAnalog>
    36d2:	33 e0       	ldi	r19, 0x03	; 3
    36d4:	aa 0f       	add	r26, r26
    36d6:	bb 1f       	adc	r27, r27
    36d8:	3a 95       	dec	r19
    36da:	e1 f7       	brne	.-8      	; 0x36d4 <initialise+0x3c2>
    36dc:	a4 51       	subi	r26, 0x14	; 20
    36de:	bd 4f       	sbci	r27, 0xFD	; 253
    36e0:	88 e0       	ldi	r24, 0x08	; 8
    36e2:	fe 01       	movw	r30, r28
    36e4:	31 96       	adiw	r30, 0x01	; 1
    36e6:	01 90       	ld	r0, Z+
    36e8:	0d 92       	st	X+, r0
    36ea:	8a 95       	dec	r24
    36ec:	e1 f7       	brne	.-8      	; 0x36e6 <initialise+0x3d4>
    36ee:	0f 5f       	subi	r16, 0xFF	; 255
    36f0:	f2 e0       	ldi	r31, 0x02	; 2
    36f2:	cf 0e       	add	r12, r31
    36f4:	d1 1c       	adc	r13, r1
    36f6:	06 30       	cpi	r16, 0x06	; 6
    36f8:	09 f0       	breq	.+2      	; 0x36fc <initialise+0x3ea>
    36fa:	be cf       	rjmp	.-132    	; 0x3678 <initialise+0x366>
    36fc:	c2 50       	subi	r28, 0x02	; 2
    36fe:	de 4f       	sbci	r29, 0xFE	; 254
    3700:	88 81       	ld	r24, Y
    3702:	ce 5f       	subi	r28, 0xFE	; 254
    3704:	d1 40       	sbci	r29, 0x01	; 1
    3706:	8f 3f       	cpi	r24, 0xFF	; 255
    3708:	19 f0       	breq	.+6      	; 0x3710 <initialise+0x3fe>
    370a:	60 e0       	ldi	r22, 0x00	; 0
    370c:	0e 94 b4 0b 	call	0x1768	; 0x1768 <pinMode>
    3710:	d1 2c       	mov	r13, r1
    3712:	c1 2c       	mov	r12, r1
    3714:	29 e0       	ldi	r18, 0x09	; 9
    3716:	f2 2e       	mov	r15, r18
    3718:	88 24       	eor	r8, r8
    371a:	83 94       	inc	r8
    371c:	cd 5e       	subi	r28, 0xED	; 237
    371e:	de 4f       	sbci	r29, 0xFE	; 254
    3720:	98 80       	ld	r9, Y
    3722:	c3 51       	subi	r28, 0x13	; 19
    3724:	d1 40       	sbci	r29, 0x01	; 1
    3726:	22 e0       	ldi	r18, 0x02	; 2
    3728:	92 12       	cpse	r9, r18
    372a:	73 c3       	rjmp	.+1766   	; 0x3e12 <initialise+0xb00>
    372c:	d5 01       	movw	r26, r10
    372e:	50 96       	adiw	r26, 0x10	; 16
    3730:	4c 91       	ld	r20, X
    3732:	4f 3f       	cpi	r20, 0xFF	; 255
    3734:	09 f4       	brne	.+2      	; 0x3738 <initialise+0x426>
    3736:	95 c0       	rjmp	.+298    	; 0x3862 <initialise+0x550>
    3738:	81 e0       	ldi	r24, 0x01	; 1
    373a:	bc e0       	ldi	r27, 0x0C	; 12
    373c:	cb 16       	cp	r12, r27
    373e:	d1 04       	cpc	r13, r1
    3740:	38 f4       	brcc	.+14     	; 0x3750 <initialise+0x43e>
    3742:	96 01       	movw	r18, r12
    3744:	28 50       	subi	r18, 0x08	; 8
    3746:	31 09       	sbc	r19, r1
    3748:	22 30       	cpi	r18, 0x02	; 2
    374a:	31 05       	cpc	r19, r1
    374c:	08 f0       	brcs	.+2      	; 0x3750 <initialise+0x43e>
    374e:	80 e0       	ldi	r24, 0x00	; 0
    3750:	e8 2f       	mov	r30, r24
    3752:	e1 70       	andi	r30, 0x01	; 1
    3754:	7e 2e       	mov	r7, r30
    3756:	80 ff       	sbrs	r24, 0
    3758:	08 c0       	rjmp	.+16     	; 0x376a <initialise+0x458>
    375a:	01 e0       	ldi	r16, 0x01	; 1
    375c:	c9 5e       	subi	r28, 0xE9	; 233
    375e:	de 4f       	sbci	r29, 0xFE	; 254
    3760:	88 81       	ld	r24, Y
    3762:	c7 51       	subi	r28, 0x17	; 23
    3764:	d1 40       	sbci	r29, 0x01	; 1
    3766:	81 30       	cpi	r24, 0x01	; 1
    3768:	09 f0       	breq	.+2      	; 0x376c <initialise+0x45a>
    376a:	00 e0       	ldi	r16, 0x00	; 0
    376c:	01 70       	andi	r16, 0x01	; 1
    376e:	e1 2c       	mov	r14, r1
    3770:	2c 2d       	mov	r18, r12
    3772:	be 01       	movw	r22, r28
    3774:	6d 5e       	subi	r22, 0xED	; 237
    3776:	7e 4f       	sbci	r23, 0xFE	; 254
    3778:	ce 01       	movw	r24, r28
    377a:	01 96       	adiw	r24, 0x01	; 1
    377c:	0e 94 12 0b 	call	0x1624	; 0x1624 <setUpDigital>
    3780:	e8 84       	ldd	r14, Y+8	; 0x08
    3782:	09 85       	ldd	r16, Y+9	; 0x09
    3784:	80 91 58 04 	lds	r24, 0x0458	; 0x800458 <typeIsDrum>
    3788:	88 23       	and	r24, r24
    378a:	09 f4       	brne	.+2      	; 0x378e <initialise+0x47c>
    378c:	29 c3       	rjmp	.+1618   	; 0x3de0 <initialise+0xace>
    378e:	77 20       	and	r7, r7
    3790:	09 f4       	brne	.+2      	; 0x3794 <initialise+0x482>
    3792:	26 c3       	rjmp	.+1612   	; 0x3de0 <initialise+0xace>
    3794:	d5 01       	movw	r26, r10
    3796:	50 96       	adiw	r26, 0x10	; 16
    3798:	7c 90       	ld	r7, X
    379a:	bd e0       	ldi	r27, 0x0D	; 13
    379c:	b7 15       	cp	r27, r7
    379e:	08 f0       	brcs	.+2      	; 0x37a2 <initialise+0x490>
    37a0:	1f c3       	rjmp	.+1598   	; 0x3de0 <initialise+0xace>
    37a2:	cf 5b       	subi	r28, 0xBF	; 191
    37a4:	de 4f       	sbci	r29, 0xFE	; 254
    37a6:	88 81       	ld	r24, Y
    37a8:	c1 54       	subi	r28, 0x41	; 65
    37aa:	d1 40       	sbci	r29, 0x01	; 1
    37ac:	e8 e0       	ldi	r30, 0x08	; 8
    37ae:	8e 9f       	mul	r24, r30
    37b0:	c0 01       	movw	r24, r0
    37b2:	11 24       	eor	r1, r1
    37b4:	c9 5d       	subi	r28, 0xD9	; 217
    37b6:	dd 4f       	sbci	r29, 0xFD	; 253
    37b8:	18 82       	st	Y, r1
    37ba:	19 82       	std	Y+1, r1	; 0x01
    37bc:	1a 82       	std	Y+2, r1	; 0x02
    37be:	c7 52       	subi	r28, 0x27	; 39
    37c0:	d2 40       	sbci	r29, 0x02	; 2
    37c2:	cb 5d       	subi	r28, 0xDB	; 219
    37c4:	dd 4f       	sbci	r29, 0xFD	; 253
    37c6:	78 82       	st	Y, r7
    37c8:	c5 52       	subi	r28, 0x25	; 37
    37ca:	d2 40       	sbci	r29, 0x02	; 2
    37cc:	c4 5d       	subi	r28, 0xD4	; 212
    37ce:	dd 4f       	sbci	r29, 0xFD	; 253
    37d0:	88 82       	st	Y, r8
    37d2:	cc 52       	subi	r28, 0x2C	; 44
    37d4:	d2 40       	sbci	r29, 0x02	; 2
    37d6:	c6 5d       	subi	r28, 0xD6	; 214
    37d8:	dd 4f       	sbci	r29, 0xFD	; 253
    37da:	99 83       	std	Y+1, r25	; 0x01
    37dc:	88 83       	st	Y, r24
    37de:	ca 52       	subi	r28, 0x2A	; 42
    37e0:	d2 40       	sbci	r29, 0x02	; 2
    37e2:	61 e0       	ldi	r22, 0x01	; 1
    37e4:	87 2d       	mov	r24, r7
    37e6:	0e 94 b4 0b 	call	0x1768	; 0x1768 <pinMode>
    37ea:	a0 91 1c 03 	lds	r26, 0x031C	; 0x80031c <validAnalog>
    37ee:	b0 91 1d 03 	lds	r27, 0x031D	; 0x80031d <validAnalog+0x1>
    37f2:	0a 2f       	mov	r16, r26
    37f4:	82 ef       	ldi	r24, 0xF2	; 242
    37f6:	87 0d       	add	r24, r7
    37f8:	ca 5d       	subi	r28, 0xDA	; 218
    37fa:	dd 4f       	sbci	r29, 0xFD	; 253
    37fc:	88 83       	st	Y, r24
    37fe:	c6 52       	subi	r28, 0x26	; 38
    3800:	d2 40       	sbci	r29, 0x02	; 2
    3802:	cd 01       	movw	r24, r26
    3804:	01 96       	adiw	r24, 0x01	; 1
    3806:	90 93 1d 03 	sts	0x031D, r25	; 0x80031d <validAnalog+0x1>
    380a:	80 93 1c 03 	sts	0x031C, r24	; 0x80031c <validAnalog>
    380e:	93 e0       	ldi	r25, 0x03	; 3
    3810:	aa 0f       	add	r26, r26
    3812:	bb 1f       	adc	r27, r27
    3814:	9a 95       	dec	r25
    3816:	e1 f7       	brne	.-8      	; 0x3810 <initialise+0x4fe>
    3818:	a4 51       	subi	r26, 0x14	; 20
    381a:	bd 4f       	sbci	r27, 0xFD	; 253
    381c:	88 e0       	ldi	r24, 0x08	; 8
    381e:	fe 01       	movw	r30, r28
    3820:	eb 5d       	subi	r30, 0xDB	; 219
    3822:	fd 4f       	sbci	r31, 0xFD	; 253
    3824:	01 90       	ld	r0, Z+
    3826:	0d 92       	st	X+, r0
    3828:	8a 95       	dec	r24
    382a:	e1 f7       	brne	.-8      	; 0x3824 <initialise+0x512>
    382c:	80 91 ae 03 	lds	r24, 0x03AE	; 0x8003ae <validPins>
    3830:	90 91 af 03 	lds	r25, 0x03AF	; 0x8003af <validPins+0x1>
    3834:	9c 01       	movw	r18, r24
    3836:	2f 5f       	subi	r18, 0xFF	; 255
    3838:	3f 4f       	sbci	r19, 0xFF	; 255
    383a:	30 93 af 03 	sts	0x03AF, r19	; 0x8003af <validPins+0x1>
    383e:	20 93 ae 03 	sts	0x03AE, r18	; 0x8003ae <validPins>
    3842:	e8 86       	std	Y+8, r14	; 0x08
    3844:	09 87       	std	Y+9, r16	; 0x09
    3846:	f8 9e       	mul	r15, r24
    3848:	d0 01       	movw	r26, r0
    384a:	f9 9e       	mul	r15, r25
    384c:	b0 0d       	add	r27, r0
    384e:	11 24       	eor	r1, r1
    3850:	a2 5e       	subi	r26, 0xE2	; 226
    3852:	bc 4f       	sbci	r27, 0xFC	; 252
    3854:	fe 01       	movw	r30, r28
    3856:	31 96       	adiw	r30, 0x01	; 1
    3858:	8f 2d       	mov	r24, r15
    385a:	01 90       	ld	r0, Z+
    385c:	0d 92       	st	X+, r0
    385e:	8a 95       	dec	r24
    3860:	e1 f7       	brne	.-8      	; 0x385a <initialise+0x548>
    3862:	ff ef       	ldi	r31, 0xFF	; 255
    3864:	cf 1a       	sub	r12, r31
    3866:	df 0a       	sbc	r13, r31
    3868:	2f ef       	ldi	r18, 0xFF	; 255
    386a:	a2 1a       	sub	r10, r18
    386c:	b2 0a       	sbc	r11, r18
    386e:	80 e1       	ldi	r24, 0x10	; 16
    3870:	c8 16       	cp	r12, r24
    3872:	d1 04       	cpc	r13, r1
    3874:	09 f0       	breq	.+2      	; 0x3878 <initialise+0x566>
    3876:	52 cf       	rjmp	.-348    	; 0x371c <initialise+0x40a>
    3878:	11 23       	and	r17, r17
    387a:	09 f4       	brne	.+2      	; 0x387e <initialise+0x56c>
    387c:	1a c2       	rjmp	.+1076   	; 0x3cb2 <initialise+0x9a0>
    387e:	cb 5e       	subi	r28, 0xEB	; 235
    3880:	de 4f       	sbci	r29, 0xFE	; 254
    3882:	18 81       	ld	r17, Y
    3884:	c5 51       	subi	r28, 0x15	; 21
    3886:	d1 40       	sbci	r29, 0x01	; 1
    3888:	11 30       	cpi	r17, 0x01	; 1
    388a:	09 f0       	breq	.+2      	; 0x388e <initialise+0x57c>
    388c:	ea c2       	rjmp	.+1492   	; 0x3e62 <initialise+0xb50>
    388e:	ce 5b       	subi	r28, 0xBE	; 190
    3890:	de 4f       	sbci	r29, 0xFE	; 254
    3892:	88 81       	ld	r24, Y
    3894:	c2 54       	subi	r28, 0x42	; 66
    3896:	d1 40       	sbci	r29, 0x01	; 1
    3898:	80 93 eb 03 	sts	0x03EB, r24	; 0x8003eb <mpuOrientation>
    389c:	78 94       	sei
    389e:	80 e8       	ldi	r24, 0x80	; 128
    38a0:	89 83       	std	Y+1, r24	; 0x01
    38a2:	a0 91 06 01 	lds	r26, 0x0106	; 0x800106 <st>
    38a6:	b0 91 07 01 	lds	r27, 0x0107	; 0x800107 <st+0x1>
    38aa:	e0 91 08 01 	lds	r30, 0x0108	; 0x800108 <st+0x2>
    38ae:	f0 91 09 01 	lds	r31, 0x0109	; 0x800109 <st+0x3>
    38b2:	9e 01       	movw	r18, r28
    38b4:	2f 5f       	subi	r18, 0xFF	; 255
    38b6:	3f 4f       	sbci	r19, 0xFF	; 255
    38b8:	41 e0       	ldi	r20, 0x01	; 1
    38ba:	55 96       	adiw	r26, 0x15	; 21
    38bc:	6c 91       	ld	r22, X
    38be:	80 81       	ld	r24, Z
    38c0:	0e 94 0f 14 	call	0x281e	; 0x281e <twi_writeToPointer>
    38c4:	88 23       	and	r24, r24
    38c6:	09 f4       	brne	.+2      	; 0x38ca <initialise+0x5b8>
    38c8:	63 c0       	rjmp	.+198    	; 0x3990 <initialise+0x67e>
    38ca:	9f ef       	ldi	r25, 0xFF	; 255
    38cc:	a4 e3       	ldi	r26, 0x34	; 52
    38ce:	bc e0       	ldi	r27, 0x0C	; 12
    38d0:	91 50       	subi	r25, 0x01	; 1
    38d2:	a0 40       	sbci	r26, 0x00	; 0
    38d4:	b0 40       	sbci	r27, 0x00	; 0
    38d6:	e1 f7       	brne	.-8      	; 0x38d0 <initialise+0x5be>
    38d8:	00 c0       	rjmp	.+0      	; 0x38da <initialise+0x5c8>
    38da:	00 00       	nop
    38dc:	19 82       	std	Y+1, r1	; 0x01
    38de:	a0 91 06 01 	lds	r26, 0x0106	; 0x800106 <st>
    38e2:	b0 91 07 01 	lds	r27, 0x0107	; 0x800107 <st+0x1>
    38e6:	e0 91 08 01 	lds	r30, 0x0108	; 0x800108 <st+0x2>
    38ea:	f0 91 09 01 	lds	r31, 0x0109	; 0x800109 <st+0x3>
    38ee:	9e 01       	movw	r18, r28
    38f0:	2f 5f       	subi	r18, 0xFF	; 255
    38f2:	3f 4f       	sbci	r19, 0xFF	; 255
    38f4:	41 e0       	ldi	r20, 0x01	; 1
    38f6:	55 96       	adiw	r26, 0x15	; 21
    38f8:	6c 91       	ld	r22, X
    38fa:	80 81       	ld	r24, Z
    38fc:	0e 94 0f 14 	call	0x281e	; 0x281e <twi_writeToPointer>
    3900:	88 23       	and	r24, r24
    3902:	09 f4       	brne	.+2      	; 0x3906 <initialise+0x5f4>
    3904:	45 c0       	rjmp	.+138    	; 0x3990 <initialise+0x67e>
    3906:	10 92 14 01 	sts	0x0114, r1	; 0x800114 <st+0xe>
    390a:	8f ef       	ldi	r24, 0xFF	; 255
    390c:	80 93 0c 01 	sts	0x010C, r24	; 0x80010c <st+0x6>
    3910:	80 93 0a 01 	sts	0x010A, r24	; 0x80010a <st+0x4>
    3914:	80 93 0b 01 	sts	0x010B, r24	; 0x80010b <st+0x5>
    3918:	80 93 0d 01 	sts	0x010D, r24	; 0x80010d <st+0x7>
    391c:	2f ef       	ldi	r18, 0xFF	; 255
    391e:	3f ef       	ldi	r19, 0xFF	; 255
    3920:	30 93 10 01 	sts	0x0110, r19	; 0x800110 <st+0xa>
    3924:	20 93 0f 01 	sts	0x010F, r18	; 0x80010f <st+0x9>
    3928:	80 93 11 01 	sts	0x0111, r24	; 0x800111 <st+0xb>
    392c:	80 93 13 01 	sts	0x0113, r24	; 0x800113 <st+0xd>
    3930:	10 93 0e 01 	sts	0x010E, r17	; 0x80010e <st+0x8>
    3934:	10 93 21 01 	sts	0x0121, r17	; 0x800121 <st+0x1b>
    3938:	10 92 22 01 	sts	0x0122, r1	; 0x800122 <st+0x1c>
    393c:	10 92 16 01 	sts	0x0116, r1	; 0x800116 <st+0x10>
    3940:	10 92 15 01 	sts	0x0115, r1	; 0x800115 <st+0xf>
    3944:	e7 e1       	ldi	r30, 0x17	; 23
    3946:	f1 e0       	ldi	r31, 0x01	; 1
    3948:	8a e0       	ldi	r24, 0x0A	; 10
    394a:	df 01       	movw	r26, r30
    394c:	1d 92       	st	X+, r1
    394e:	8a 95       	dec	r24
    3950:	e9 f7       	brne	.-6      	; 0x394c <initialise+0x63a>
    3952:	10 92 23 01 	sts	0x0123, r1	; 0x800123 <st+0x1d>
    3956:	10 92 24 01 	sts	0x0124, r1	; 0x800124 <st+0x1e>
    395a:	10 92 26 01 	sts	0x0126, r1	; 0x800126 <st+0x20>
    395e:	10 92 25 01 	sts	0x0125, r1	; 0x800125 <st+0x1f>
    3962:	27 d9       	rcall	.-3506   	; 0x2bb2 <mpu_set_gyro_fsr.constprop.0>
    3964:	81 11       	cpse	r24, r1
    3966:	14 c0       	rjmp	.+40     	; 0x3990 <initialise+0x67e>
    3968:	52 d9       	rcall	.-3420   	; 0x2c0e <mpu_set_accel_fsr.constprop.0>
    396a:	81 11       	cpse	r24, r1
    396c:	11 c0       	rjmp	.+34     	; 0x3990 <initialise+0x67e>
    396e:	8a e2       	ldi	r24, 0x2A	; 42
    3970:	90 e0       	ldi	r25, 0x00	; 0
    3972:	93 d8       	rcall	.-3802   	; 0x2a9a <mpu_set_lpf>
    3974:	81 11       	cpse	r24, r1
    3976:	0c c0       	rjmp	.+24     	; 0x3990 <initialise+0x67e>
    3978:	82 e3       	ldi	r24, 0x32	; 50
    397a:	90 e0       	ldi	r25, 0x00	; 0
    397c:	70 dc       	rcall	.-1824   	; 0x325e <mpu_set_sample_rate>
    397e:	81 11       	cpse	r24, r1
    3980:	07 c0       	rjmp	.+14     	; 0x3990 <initialise+0x67e>
    3982:	da db       	rcall	.-2124   	; 0x3138 <mpu_configure_fifo>
    3984:	81 11       	cpse	r24, r1
    3986:	04 c0       	rjmp	.+8      	; 0x3990 <initialise+0x67e>
    3988:	6f d9       	rcall	.-3362   	; 0x2c68 <mpu_set_bypass.constprop.0>
    398a:	81 11       	cpse	r24, r1
    398c:	01 c0       	rjmp	.+2      	; 0x3990 <initialise+0x67e>
    398e:	35 db       	rcall	.-2454   	; 0x2ffa <mpu_set_sensors.isra.0>
    3990:	88 e7       	ldi	r24, 0x78	; 120
    3992:	33 db       	rcall	.-2458   	; 0x2ffa <mpu_set_sensors.isra.0>
    3994:	0e d9       	rcall	.-3556   	; 0x2bb2 <mpu_set_gyro_fsr.constprop.0>
    3996:	3b d9       	rcall	.-3466   	; 0x2c0e <mpu_set_accel_fsr.constprop.0>
    3998:	88 e7       	ldi	r24, 0x78	; 120
    399a:	ce db       	rcall	.-2148   	; 0x3138 <mpu_configure_fifo>
    399c:	80 91 24 01 	lds	r24, 0x0124	; 0x800124 <st+0x1e>
    39a0:	81 11       	cpse	r24, r1
    39a2:	98 c0       	rjmp	.+304    	; 0x3ad4 <initialise+0x7c2>
    39a4:	d1 2c       	mov	r13, r1
    39a6:	c1 2c       	mov	r12, r1
    39a8:	86 ef       	ldi	r24, 0xF6	; 246
    39aa:	e8 2e       	mov	r14, r24
    39ac:	8b e0       	ldi	r24, 0x0B	; 11
    39ae:	f8 2e       	mov	r15, r24
    39b0:	87 01       	movw	r16, r14
    39b2:	0c 19       	sub	r16, r12
    39b4:	1d 09       	sbc	r17, r13
    39b6:	01 31       	cpi	r16, 0x11	; 17
    39b8:	11 05       	cpc	r17, r1
    39ba:	10 f0       	brcs	.+4      	; 0x39c0 <initialise+0x6ae>
    39bc:	00 e1       	ldi	r16, 0x10	; 16
    39be:	10 e0       	ldi	r17, 0x00	; 0
    39c0:	f6 01       	movw	r30, r12
    39c2:	e6 50       	subi	r30, 0x06	; 6
    39c4:	fe 4f       	sbci	r31, 0xFE	; 254
    39c6:	de 01       	movw	r26, r28
    39c8:	11 96       	adiw	r26, 0x01	; 1
    39ca:	cd 01       	movw	r24, r26
    39cc:	80 0f       	add	r24, r16
    39ce:	91 1f       	adc	r25, r17
    39d0:	8a 17       	cp	r24, r26
    39d2:	9b 07       	cpc	r25, r27
    39d4:	09 f0       	breq	.+2      	; 0x39d8 <initialise+0x6c6>
    39d6:	41 c2       	rjmp	.+1154   	; 0x3e5a <initialise+0xb48>
    39d8:	ae 01       	movw	r20, r28
    39da:	4f 5f       	subi	r20, 0xFF	; 255
    39dc:	5f 4f       	sbci	r21, 0xFF	; 255
    39de:	b8 01       	movw	r22, r16
    39e0:	c6 01       	movw	r24, r12
    39e2:	9c d8       	rcall	.-3784   	; 0x2b1c <mpu_write_mem>
    39e4:	81 11       	cpse	r24, r1
    39e6:	76 c0       	rjmp	.+236    	; 0x3ad4 <initialise+0x7c2>
    39e8:	80 91 0c 01 	lds	r24, 0x010C	; 0x80010c <st+0x6>
    39ec:	88 23       	and	r24, r24
    39ee:	09 f4       	brne	.+2      	; 0x39f2 <initialise+0x6e0>
    39f0:	71 c0       	rjmp	.+226    	; 0x3ad4 <initialise+0x7c2>
    39f2:	9c 2d       	mov	r25, r12
    39f4:	8d 2d       	mov	r24, r13
    39f6:	cb 5c       	subi	r28, 0xCB	; 203
    39f8:	dd 4f       	sbci	r29, 0xFD	; 253
    39fa:	99 83       	std	Y+1, r25	; 0x01
    39fc:	88 83       	st	Y, r24
    39fe:	c5 53       	subi	r28, 0x35	; 53
    3a00:	d2 40       	sbci	r29, 0x02	; 2
    3a02:	e0 91 08 01 	lds	r30, 0x0108	; 0x800108 <st+0x2>
    3a06:	f0 91 09 01 	lds	r31, 0x0109	; 0x800109 <st+0x3>
    3a0a:	20 85       	ldd	r18, Z+8	; 0x08
    3a0c:	31 85       	ldd	r19, Z+9	; 0x09
    3a0e:	c8 01       	movw	r24, r16
    3a10:	8c 0d       	add	r24, r12
    3a12:	91 1d       	adc	r25, r1
    3a14:	28 17       	cp	r18, r24
    3a16:	39 07       	cpc	r19, r25
    3a18:	08 f4       	brcc	.+2      	; 0x3a1c <initialise+0x70a>
    3a1a:	5c c0       	rjmp	.+184    	; 0x3ad4 <initialise+0x7c2>
    3a1c:	a0 91 06 01 	lds	r26, 0x0106	; 0x800106 <st>
    3a20:	b0 91 07 01 	lds	r27, 0x0107	; 0x800107 <st+0x1>
    3a24:	9e 01       	movw	r18, r28
    3a26:	2b 5c       	subi	r18, 0xCB	; 203
    3a28:	3d 4f       	sbci	r19, 0xFD	; 253
    3a2a:	42 e0       	ldi	r20, 0x02	; 2
    3a2c:	5b 96       	adiw	r26, 0x1b	; 27
    3a2e:	6c 91       	ld	r22, X
    3a30:	80 81       	ld	r24, Z
    3a32:	0e 94 0f 14 	call	0x281e	; 0x281e <twi_writeToPointer>
    3a36:	88 23       	and	r24, r24
    3a38:	09 f4       	brne	.+2      	; 0x3a3c <initialise+0x72a>
    3a3a:	4c c0       	rjmp	.+152    	; 0x3ad4 <initialise+0x7c2>
    3a3c:	a0 91 06 01 	lds	r26, 0x0106	; 0x800106 <st>
    3a40:	b0 91 07 01 	lds	r27, 0x0107	; 0x800107 <st+0x1>
    3a44:	e0 91 08 01 	lds	r30, 0x0108	; 0x800108 <st+0x2>
    3a48:	f0 91 09 01 	lds	r31, 0x0109	; 0x800109 <st+0x3>
    3a4c:	9e 01       	movw	r18, r28
    3a4e:	2b 5d       	subi	r18, 0xDB	; 219
    3a50:	3d 4f       	sbci	r19, 0xFD	; 253
    3a52:	40 2f       	mov	r20, r16
    3a54:	58 96       	adiw	r26, 0x18	; 24
    3a56:	6c 91       	ld	r22, X
    3a58:	80 81       	ld	r24, Z
    3a5a:	0e 94 75 10 	call	0x20ea	; 0x20ea <twi_readFromPointer>
    3a5e:	88 23       	and	r24, r24
    3a60:	c9 f1       	breq	.+114    	; 0x3ad4 <initialise+0x7c2>
    3a62:	a8 01       	movw	r20, r16
    3a64:	be 01       	movw	r22, r28
    3a66:	6b 5d       	subi	r22, 0xDB	; 219
    3a68:	7d 4f       	sbci	r23, 0xFD	; 253
    3a6a:	ce 01       	movw	r24, r28
    3a6c:	01 96       	adiw	r24, 0x01	; 1
    3a6e:	0e 94 f9 2b 	call	0x57f2	; 0x57f2 <memcmp>
    3a72:	89 2b       	or	r24, r25
    3a74:	79 f5       	brne	.+94     	; 0x3ad4 <initialise+0x7c2>
    3a76:	c0 0e       	add	r12, r16
    3a78:	d1 1e       	adc	r13, r17
    3a7a:	b6 ef       	ldi	r27, 0xF6	; 246
    3a7c:	cb 16       	cp	r12, r27
    3a7e:	bb e0       	ldi	r27, 0x0B	; 11
    3a80:	db 06       	cpc	r13, r27
    3a82:	08 f4       	brcc	.+2      	; 0x3a86 <initialise+0x774>
    3a84:	95 cf       	rjmp	.-214    	; 0x39b0 <initialise+0x69e>
    3a86:	84 e0       	ldi	r24, 0x04	; 4
    3a88:	cb 5c       	subi	r28, 0xCB	; 203
    3a8a:	dd 4f       	sbci	r29, 0xFD	; 253
    3a8c:	88 83       	st	Y, r24
    3a8e:	c5 53       	subi	r28, 0x35	; 53
    3a90:	d2 40       	sbci	r29, 0x02	; 2
    3a92:	ca 5c       	subi	r28, 0xCA	; 202
    3a94:	dd 4f       	sbci	r29, 0xFD	; 253
    3a96:	18 82       	st	Y, r1
    3a98:	c6 53       	subi	r28, 0x36	; 54
    3a9a:	d2 40       	sbci	r29, 0x02	; 2
    3a9c:	a0 91 06 01 	lds	r26, 0x0106	; 0x800106 <st>
    3aa0:	b0 91 07 01 	lds	r27, 0x0107	; 0x800107 <st+0x1>
    3aa4:	e0 91 08 01 	lds	r30, 0x0108	; 0x800108 <st+0x2>
    3aa8:	f0 91 09 01 	lds	r31, 0x0109	; 0x800109 <st+0x3>
    3aac:	9e 01       	movw	r18, r28
    3aae:	2b 5c       	subi	r18, 0xCB	; 203
    3ab0:	3d 4f       	sbci	r19, 0xFD	; 253
    3ab2:	42 e0       	ldi	r20, 0x02	; 2
    3ab4:	5d 96       	adiw	r26, 0x1d	; 29
    3ab6:	6c 91       	ld	r22, X
    3ab8:	80 81       	ld	r24, Z
    3aba:	0e 94 0f 14 	call	0x281e	; 0x281e <twi_writeToPointer>
    3abe:	88 23       	and	r24, r24
    3ac0:	49 f0       	breq	.+18     	; 0x3ad4 <initialise+0x7c2>
    3ac2:	81 e0       	ldi	r24, 0x01	; 1
    3ac4:	80 93 24 01 	sts	0x0124, r24	; 0x800124 <st+0x1e>
    3ac8:	88 ec       	ldi	r24, 0xC8	; 200
    3aca:	90 e0       	ldi	r25, 0x00	; 0
    3acc:	90 93 26 01 	sts	0x0126, r25	; 0x800126 <st+0x20>
    3ad0:	80 93 25 01 	sts	0x0125, r24	; 0x800125 <st+0x1f>
    3ad4:	8c e0       	ldi	r24, 0x0C	; 12
    3ad6:	e8 ea       	ldi	r30, 0xA8	; 168
    3ad8:	f1 e0       	ldi	r31, 0x01	; 1
    3ada:	de 01       	movw	r26, r28
    3adc:	11 96       	adiw	r26, 0x01	; 1
    3ade:	01 90       	ld	r0, Z+
    3ae0:	0d 92       	st	X+, r0
    3ae2:	8a 95       	dec	r24
    3ae4:	e1 f7       	brne	.-8      	; 0x3ade <initialise+0x7cc>
    3ae6:	cb 5d       	subi	r28, 0xDB	; 219
    3ae8:	dd 4f       	sbci	r29, 0xFD	; 253
    3aea:	18 82       	st	Y, r1
    3aec:	c5 52       	subi	r28, 0x25	; 37
    3aee:	d2 40       	sbci	r29, 0x02	; 2
    3af0:	85 e0       	ldi	r24, 0x05	; 5
    3af2:	ca 5d       	subi	r28, 0xDA	; 218
    3af4:	dd 4f       	sbci	r29, 0xFD	; 253
    3af6:	88 83       	st	Y, r24
    3af8:	c6 52       	subi	r28, 0x26	; 38
    3afa:	d2 40       	sbci	r29, 0x02	; 2
    3afc:	ae 01       	movw	r20, r28
    3afe:	4b 5d       	subi	r20, 0xDB	; 219
    3b00:	5d 4f       	sbci	r21, 0xFD	; 253
    3b02:	62 e0       	ldi	r22, 0x02	; 2
    3b04:	70 e0       	ldi	r23, 0x00	; 0
    3b06:	86 e1       	ldi	r24, 0x16	; 22
    3b08:	92 e0       	ldi	r25, 0x02	; 2
    3b0a:	08 d8       	rcall	.-4080   	; 0x2b1c <mpu_write_mem>
    3b0c:	81 11       	cpse	r24, r1
    3b0e:	11 c0       	rjmp	.+34     	; 0x3b32 <initialise+0x820>
    3b10:	ae 01       	movw	r20, r28
    3b12:	4f 5f       	subi	r20, 0xFF	; 255
    3b14:	5f 4f       	sbci	r21, 0xFF	; 255
    3b16:	6c e0       	ldi	r22, 0x0C	; 12
    3b18:	70 e0       	ldi	r23, 0x00	; 0
    3b1a:	81 ec       	ldi	r24, 0xC1	; 193
    3b1c:	9a e0       	ldi	r25, 0x0A	; 10
    3b1e:	0e 94 8e 15 	call	0x2b1c	; 0x2b1c <mpu_write_mem>
    3b22:	81 11       	cpse	r24, r1
    3b24:	06 c0       	rjmp	.+12     	; 0x3b32 <initialise+0x820>
    3b26:	8e e1       	ldi	r24, 0x1E	; 30
    3b28:	90 e0       	ldi	r25, 0x00	; 0
    3b2a:	90 93 df 03 	sts	0x03DF, r25	; 0x8003df <dmp+0x9>
    3b2e:	80 93 de 03 	sts	0x03DE, r24	; 0x8003de <dmp+0x8>
    3b32:	80 91 23 01 	lds	r24, 0x0123	; 0x800123 <st+0x1d>
    3b36:	81 30       	cpi	r24, 0x01	; 1
    3b38:	09 f1       	breq	.+66     	; 0x3b7c <initialise+0x86a>
    3b3a:	80 91 24 01 	lds	r24, 0x0124	; 0x800124 <st+0x1e>
    3b3e:	88 23       	and	r24, r24
    3b40:	e9 f0       	breq	.+58     	; 0x3b7c <initialise+0x86a>
    3b42:	80 e0       	ldi	r24, 0x00	; 0
    3b44:	c5 da       	rcall	.-2678   	; 0x30d0 <set_int_enable.isra.0>
    3b46:	90 d8       	rcall	.-3808   	; 0x2c68 <mpu_set_bypass.constprop.0>
    3b48:	80 91 25 01 	lds	r24, 0x0125	; 0x800125 <st+0x1f>
    3b4c:	90 91 26 01 	lds	r25, 0x0126	; 0x800126 <st+0x20>
    3b50:	86 db       	rcall	.-2292   	; 0x325e <mpu_set_sample_rate>
    3b52:	19 82       	std	Y+1, r1	; 0x01
    3b54:	e0 91 08 01 	lds	r30, 0x0108	; 0x800108 <st+0x2>
    3b58:	f0 91 09 01 	lds	r31, 0x0109	; 0x800109 <st+0x3>
    3b5c:	9e 01       	movw	r18, r28
    3b5e:	2f 5f       	subi	r18, 0xFF	; 255
    3b60:	3f 4f       	sbci	r19, 0xFF	; 255
    3b62:	41 e0       	ldi	r20, 0x01	; 1
    3b64:	63 e2       	ldi	r22, 0x23	; 35
    3b66:	80 81       	ld	r24, Z
    3b68:	0e 94 0f 14 	call	0x281e	; 0x281e <twi_writeToPointer>
    3b6c:	88 23       	and	r24, r24
    3b6e:	31 f0       	breq	.+12     	; 0x3b7c <initialise+0x86a>
    3b70:	81 e0       	ldi	r24, 0x01	; 1
    3b72:	80 93 23 01 	sts	0x0123, r24	; 0x800123 <st+0x1d>
    3b76:	ac da       	rcall	.-2728   	; 0x30d0 <set_int_enable.isra.0>
    3b78:	0e 94 49 14 	call	0x2892	; 0x2892 <mpu_reset_fifo>
    3b7c:	82 e0       	ldi	r24, 0x02	; 2
    3b7e:	89 83       	std	Y+1, r24	; 0x01
    3b80:	8a ec       	ldi	r24, 0xCA	; 202
    3b82:	8a 83       	std	Y+2, r24	; 0x02
    3b84:	83 ee       	ldi	r24, 0xE3	; 227
    3b86:	8b 83       	std	Y+3, r24	; 0x03
    3b88:	19 e0       	ldi	r17, 0x09	; 9
    3b8a:	1c 83       	std	Y+4, r17	; 0x04
    3b8c:	ae 01       	movw	r20, r28
    3b8e:	4f 5f       	subi	r20, 0xFF	; 255
    3b90:	5f 4f       	sbci	r21, 0xFF	; 255
    3b92:	64 e0       	ldi	r22, 0x04	; 4
    3b94:	70 e0       	ldi	r23, 0x00	; 0
    3b96:	88 e6       	ldi	r24, 0x68	; 104
    3b98:	90 e0       	ldi	r25, 0x00	; 0
    3b9a:	0e 94 8e 15 	call	0x2b1c	; 0x2b1c <mpu_write_mem>
    3b9e:	83 ea       	ldi	r24, 0xA3	; 163
    3ba0:	89 83       	std	Y+1, r24	; 0x01
    3ba2:	8a 83       	std	Y+2, r24	; 0x02
    3ba4:	8b 83       	std	Y+3, r24	; 0x03
    3ba6:	8c 83       	std	Y+4, r24	; 0x04
    3ba8:	8d 83       	std	Y+5, r24	; 0x05
    3baa:	8e 83       	std	Y+6, r24	; 0x06
    3bac:	8f 83       	std	Y+7, r24	; 0x07
    3bae:	88 87       	std	Y+8, r24	; 0x08
    3bb0:	89 87       	std	Y+9, r24	; 0x09
    3bb2:	8a 87       	std	Y+10, r24	; 0x0a
    3bb4:	ae 01       	movw	r20, r28
    3bb6:	4f 5f       	subi	r20, 0xFF	; 255
    3bb8:	5f 4f       	sbci	r21, 0xFF	; 255
    3bba:	6a e0       	ldi	r22, 0x0A	; 10
    3bbc:	70 e0       	ldi	r23, 0x00	; 0
    3bbe:	87 ea       	ldi	r24, 0xA7	; 167
    3bc0:	9a e0       	ldi	r25, 0x0A	; 10
    3bc2:	0e 94 8e 15 	call	0x2b1c	; 0x2b1c <mpu_write_mem>
    3bc6:	88 ed       	ldi	r24, 0xD8	; 216
    3bc8:	89 83       	std	Y+1, r24	; 0x01
    3bca:	ae 01       	movw	r20, r28
    3bcc:	4f 5f       	subi	r20, 0xFF	; 255
    3bce:	5f 4f       	sbci	r21, 0xFF	; 255
    3bd0:	61 e0       	ldi	r22, 0x01	; 1
    3bd2:	70 e0       	ldi	r23, 0x00	; 0
    3bd4:	86 eb       	ldi	r24, 0xB6	; 182
    3bd6:	9a e0       	ldi	r25, 0x0A	; 10
    3bd8:	0e 94 8e 15 	call	0x2b1c	; 0x2b1c <mpu_write_mem>
    3bdc:	e5 eb       	ldi	r30, 0xB5	; 181
    3bde:	f1 e0       	ldi	r31, 0x01	; 1
    3be0:	de 01       	movw	r26, r28
    3be2:	ab 5d       	subi	r26, 0xDB	; 219
    3be4:	bd 4f       	sbci	r27, 0xFD	; 253
    3be6:	01 90       	ld	r0, Z+
    3be8:	0d 92       	st	X+, r0
    3bea:	1a 95       	dec	r17
    3bec:	e1 f7       	brne	.-8      	; 0x3be6 <initialise+0x8d4>
    3bee:	ae 01       	movw	r20, r28
    3bf0:	4b 5d       	subi	r20, 0xDB	; 219
    3bf2:	5d 4f       	sbci	r21, 0xFD	; 253
    3bf4:	69 e0       	ldi	r22, 0x09	; 9
    3bf6:	70 e0       	ldi	r23, 0x00	; 0
    3bf8:	88 eb       	ldi	r24, 0xB8	; 184
    3bfa:	94 e0       	ldi	r25, 0x04	; 4
    3bfc:	0e 94 8e 15 	call	0x2b1c	; 0x2b1c <mpu_write_mem>
    3c00:	44 e0       	ldi	r20, 0x04	; 4
    3c02:	50 e0       	ldi	r21, 0x00	; 0
    3c04:	6b e8       	ldi	r22, 0x8B	; 139
    3c06:	70 e0       	ldi	r23, 0x00	; 0
    3c08:	ce 01       	movw	r24, r28
    3c0a:	8b 5d       	subi	r24, 0xDB	; 219
    3c0c:	9d 4f       	sbci	r25, 0xFD	; 253
    3c0e:	0e 94 0f 2c 	call	0x581e	; 0x581e <memset>
    3c12:	ae 01       	movw	r20, r28
    3c14:	4b 5d       	subi	r20, 0xDB	; 219
    3c16:	5d 4f       	sbci	r21, 0xFD	; 253
    3c18:	64 e0       	ldi	r22, 0x04	; 4
    3c1a:	70 e0       	ldi	r23, 0x00	; 0
    3c1c:	88 e9       	ldi	r24, 0x98	; 152
    3c1e:	9a e0       	ldi	r25, 0x0A	; 10
    3c20:	0e 94 8e 15 	call	0x2b1c	; 0x2b1c <mpu_write_mem>
    3c24:	0e 94 49 14 	call	0x2892	; 0x2892 <mpu_reset_fifo>
    3c28:	80 e2       	ldi	r24, 0x20	; 32
    3c2a:	cb 5d       	subi	r28, 0xDB	; 219
    3c2c:	dd 4f       	sbci	r29, 0xFD	; 253
    3c2e:	88 83       	st	Y, r24
    3c30:	c5 52       	subi	r28, 0x25	; 37
    3c32:	d2 40       	sbci	r29, 0x02	; 2
    3c34:	88 e2       	ldi	r24, 0x28	; 40
    3c36:	ca 5d       	subi	r28, 0xDA	; 218
    3c38:	dd 4f       	sbci	r29, 0xFD	; 253
    3c3a:	88 83       	st	Y, r24
    3c3c:	c6 52       	subi	r28, 0x26	; 38
    3c3e:	d2 40       	sbci	r29, 0x02	; 2
    3c40:	80 e3       	ldi	r24, 0x30	; 48
    3c42:	c9 5d       	subi	r28, 0xD9	; 217
    3c44:	dd 4f       	sbci	r29, 0xFD	; 253
    3c46:	88 83       	st	Y, r24
    3c48:	c7 52       	subi	r28, 0x27	; 39
    3c4a:	d2 40       	sbci	r29, 0x02	; 2
    3c4c:	88 e3       	ldi	r24, 0x38	; 56
    3c4e:	c8 5d       	subi	r28, 0xD8	; 216
    3c50:	dd 4f       	sbci	r29, 0xFD	; 253
    3c52:	88 83       	st	Y, r24
    3c54:	c8 52       	subi	r28, 0x28	; 40
    3c56:	d2 40       	sbci	r29, 0x02	; 2
    3c58:	ae 01       	movw	r20, r28
    3c5a:	4b 5d       	subi	r20, 0xDB	; 219
    3c5c:	5d 4f       	sbci	r21, 0xFD	; 253
    3c5e:	64 e0       	ldi	r22, 0x04	; 4
    3c60:	70 e0       	ldi	r23, 0x00	; 0
    3c62:	8e e9       	ldi	r24, 0x9E	; 158
    3c64:	9a e0       	ldi	r25, 0x0A	; 10
    3c66:	0e 94 8e 15 	call	0x2b1c	; 0x2b1c <mpu_write_mem>
    3c6a:	0e 94 49 14 	call	0x2892	; 0x2892 <mpu_reset_fifo>
    3c6e:	88 e1       	ldi	r24, 0x18	; 24
    3c70:	90 e0       	ldi	r25, 0x00	; 0
    3c72:	90 93 dd 03 	sts	0x03DD, r25	; 0x8003dd <dmp+0x7>
    3c76:	80 93 dc 03 	sts	0x03DC, r24	; 0x8003dc <dmp+0x6>
    3c7a:	0e 94 49 14 	call	0x2892	; 0x2892 <mpu_reset_fifo>
    3c7e:	80 e1       	ldi	r24, 0x10	; 16
    3c80:	80 93 e0 03 	sts	0x03E0, r24	; 0x8003e0 <dmp+0xa>
    3c84:	8e e8       	ldi	r24, 0x8E	; 142
    3c86:	90 e2       	ldi	r25, 0x20	; 32
    3c88:	90 93 ea 03 	sts	0x03EA, r25	; 0x8003ea <tick+0x1>
    3c8c:	80 93 e9 03 	sts	0x03E9, r24	; 0x8003e9 <tick>
    3c90:	86 e0       	ldi	r24, 0x06	; 6
    3c92:	fe 01       	movw	r30, r28
    3c94:	e3 5e       	subi	r30, 0xE3	; 227
    3c96:	fd 4f       	sbci	r31, 0xFD	; 253
    3c98:	a2 ee       	ldi	r26, 0xE2	; 226
    3c9a:	b3 e0       	ldi	r27, 0x03	; 3
    3c9c:	01 90       	ld	r0, Z+
    3c9e:	0d 92       	st	X+, r0
    3ca0:	8a 95       	dec	r24
    3ca2:	e1 f7       	brne	.-8      	; 0x3c9c <initialise+0x98a>
    3ca4:	c2 5c       	subi	r28, 0xC2	; 194
    3ca6:	de 4f       	sbci	r29, 0xFE	; 254
    3ca8:	88 81       	ld	r24, Y
    3caa:	ce 53       	subi	r28, 0x3E	; 62
    3cac:	d1 40       	sbci	r29, 0x01	; 1
    3cae:	80 93 e1 03 	sts	0x03E1, r24	; 0x8003e1 <tiltInverted>
    3cb2:	c0 5c       	subi	r28, 0xC0	; 192
    3cb4:	de 4f       	sbci	r29, 0xFE	; 254
    3cb6:	28 81       	ld	r18, Y
    3cb8:	c0 54       	subi	r28, 0x40	; 64
    3cba:	d1 40       	sbci	r29, 0x01	; 1
    3cbc:	10 92 ee 03 	sts	0x03EE, r1	; 0x8003ee <joyThreshold>
    3cc0:	20 93 ef 03 	sts	0x03EF, r18	; 0x8003ef <joyThreshold+0x1>
    3cc4:	c1 5c       	subi	r28, 0xC1	; 193
    3cc6:	de 4f       	sbci	r29, 0xFE	; 254
    3cc8:	98 81       	ld	r25, Y
    3cca:	cf 53       	subi	r28, 0x3F	; 63
    3ccc:	d1 40       	sbci	r29, 0x01	; 1
    3cce:	49 2f       	mov	r20, r25
    3cd0:	50 e0       	ldi	r21, 0x00	; 0
    3cd2:	50 93 ed 03 	sts	0x03ED, r21	; 0x8003ed <triggerThreshold+0x1>
    3cd6:	40 93 ec 03 	sts	0x03EC, r20	; 0x8003ec <triggerThreshold>
    3cda:	80 91 5c 04 	lds	r24, 0x045C	; 0x80045c <fullDeviceType>
    3cde:	82 32       	cpi	r24, 0x22	; 34
    3ce0:	61 f0       	breq	.+24     	; 0x3cfa <initialise+0x9e8>
    3ce2:	08 f4       	brcc	.+2      	; 0x3ce6 <initialise+0x9d4>
    3ce4:	ce c0       	rjmp	.+412    	; 0x3e82 <initialise+0xb70>
    3ce6:	82 e4       	ldi	r24, 0x42	; 66
    3ce8:	fe 01       	movw	r30, r28
    3cea:	e9 54       	subi	r30, 0x49	; 73
    3cec:	fe 4f       	sbci	r31, 0xFE	; 254
    3cee:	a6 ef       	ldi	r26, 0xF6	; 246
    3cf0:	b3 e0       	ldi	r27, 0x03	; 3
    3cf2:	01 90       	ld	r0, Z+
    3cf4:	0d 92       	st	X+, r0
    3cf6:	8a 95       	dec	r24
    3cf8:	e1 f7       	brne	.-8      	; 0x3cf2 <initialise+0x9e0>
    3cfa:	78 94       	sei
    3cfc:	ca 5c       	subi	r28, 0xCA	; 202
    3cfe:	dd 4f       	sbci	r29, 0xFD	; 253
    3d00:	0f b6       	in	r0, 0x3f	; 63
    3d02:	f8 94       	cli
    3d04:	de bf       	out	0x3e, r29	; 62
    3d06:	0f be       	out	0x3f, r0	; 63
    3d08:	cd bf       	out	0x3d, r28	; 61
    3d0a:	df 91       	pop	r29
    3d0c:	cf 91       	pop	r28
    3d0e:	1f 91       	pop	r17
    3d10:	0f 91       	pop	r16
    3d12:	ff 90       	pop	r15
    3d14:	ef 90       	pop	r14
    3d16:	df 90       	pop	r13
    3d18:	cf 90       	pop	r12
    3d1a:	bf 90       	pop	r11
    3d1c:	af 90       	pop	r10
    3d1e:	9f 90       	pop	r9
    3d20:	8f 90       	pop	r8
    3d22:	7f 90       	pop	r7
    3d24:	08 95       	ret
    3d26:	82 e0       	ldi	r24, 0x02	; 2
    3d28:	af cb       	rjmp	.-2210   	; 0x3488 <initialise+0x176>
    3d2a:	91 30       	cpi	r25, 0x01	; 1
    3d2c:	09 f0       	breq	.+2      	; 0x3d30 <initialise+0xa1e>
    3d2e:	08 cc       	rjmp	.-2032   	; 0x3540 <initialise+0x22e>
    3d30:	84 31       	cpi	r24, 0x14	; 20
    3d32:	08 f4       	brcc	.+2      	; 0x3d36 <initialise+0xa24>
    3d34:	02 cc       	rjmp	.-2044   	; 0x353a <initialise+0x228>
    3d36:	04 cc       	rjmp	.-2040   	; 0x3540 <initialise+0x22e>
    3d38:	8f ee       	ldi	r24, 0xEF	; 239
    3d3a:	98 e0       	ldi	r25, 0x08	; 8
    3d3c:	38 cc       	rjmp	.-1936   	; 0x35ae <initialise+0x29c>
    3d3e:	21 e0       	ldi	r18, 0x01	; 1
    3d40:	41 e0       	ldi	r20, 0x01	; 1
    3d42:	60 ea       	ldi	r22, 0xA0	; 160
    3d44:	76 e8       	ldi	r23, 0x86	; 134
    3d46:	81 e0       	ldi	r24, 0x01	; 1
    3d48:	90 e0       	ldi	r25, 0x00	; 0
    3d4a:	0e 94 f1 0b 	call	0x17e2	; 0x17e2 <spi_begin>
    3d4e:	ee 24       	eor	r14, r14
    3d50:	e3 94       	inc	r14
    3d52:	00 e0       	ldi	r16, 0x00	; 0
    3d54:	20 e0       	ldi	r18, 0x00	; 0
    3d56:	4a e0       	ldi	r20, 0x0A	; 10
    3d58:	be 01       	movw	r22, r28
    3d5a:	6d 5e       	subi	r22, 0xED	; 237
    3d5c:	7e 4f       	sbci	r23, 0xFE	; 254
    3d5e:	8e ed       	ldi	r24, 0xDE	; 222
    3d60:	92 e0       	ldi	r25, 0x02	; 2
    3d62:	0e 94 12 0b 	call	0x1624	; 0x1624 <setUpDigital>
    3d66:	20 e0       	ldi	r18, 0x00	; 0
    3d68:	4b e0       	ldi	r20, 0x0B	; 11
    3d6a:	be 01       	movw	r22, r28
    3d6c:	6d 5e       	subi	r22, 0xED	; 237
    3d6e:	7e 4f       	sbci	r23, 0xFE	; 254
    3d70:	85 ed       	ldi	r24, 0xD5	; 213
    3d72:	92 e0       	ldi	r25, 0x02	; 2
    3d74:	0e 94 12 0b 	call	0x1624	; 0x1624 <setUpDigital>
    3d78:	20 e0       	ldi	r18, 0x00	; 0
    3d7a:	4d e0       	ldi	r20, 0x0D	; 13
    3d7c:	be 01       	movw	r22, r28
    3d7e:	6d 5e       	subi	r22, 0xED	; 237
    3d80:	7e 4f       	sbci	r23, 0xFE	; 254
    3d82:	8c ec       	ldi	r24, 0xCC	; 204
    3d84:	92 e0       	ldi	r25, 0x02	; 2
    3d86:	0e 94 12 0b 	call	0x1624	; 0x1624 <setUpDigital>
    3d8a:	60 e0       	ldi	r22, 0x00	; 0
    3d8c:	8a e0       	ldi	r24, 0x0A	; 10
    3d8e:	0e 94 b4 0b 	call	0x1768	; 0x1768 <pinMode>
    3d92:	0e 94 9a 10 	call	0x2134	; 0x2134 <noAttention>
    3d96:	84 e3       	ldi	r24, 0x34	; 52
    3d98:	99 e0       	ldi	r25, 0x09	; 9
    3d9a:	90 93 f1 03 	sts	0x03F1, r25	; 0x8003f1 <read_button_function+0x1>
    3d9e:	80 93 f0 03 	sts	0x03F0, r24	; 0x8003f0 <read_button_function>
    3da2:	8f e7       	ldi	r24, 0x7F	; 127
    3da4:	92 e1       	ldi	r25, 0x12	; 18
    3da6:	90 93 f3 03 	sts	0x03F3, r25	; 0x8003f3 <tick_function+0x1>
    3daa:	80 93 f2 03 	sts	0x03F2, r24	; 0x8003f2 <tick_function>
    3dae:	03 cc       	rjmp	.-2042   	; 0x35b6 <initialise+0x2a4>
    3db0:	c9 5e       	subi	r28, 0xE9	; 233
    3db2:	de 4f       	sbci	r29, 0xFE	; 254
    3db4:	88 81       	ld	r24, Y
    3db6:	c7 51       	subi	r28, 0x17	; 23
    3db8:	d1 40       	sbci	r29, 0x01	; 1
    3dba:	82 30       	cpi	r24, 0x02	; 2
    3dbc:	41 f4       	brne	.+16     	; 0x3dce <initialise+0xabc>
    3dbe:	21 e0       	ldi	r18, 0x01	; 1
    3dc0:	41 e0       	ldi	r20, 0x01	; 1
    3dc2:	60 e0       	ldi	r22, 0x00	; 0
    3dc4:	79 e0       	ldi	r23, 0x09	; 9
    3dc6:	8d e3       	ldi	r24, 0x3D	; 61
    3dc8:	90 e0       	ldi	r25, 0x00	; 0
    3dca:	0e 94 f1 0b 	call	0x17e2	; 0x17e2 <spi_begin>
    3dce:	cd 5e       	subi	r28, 0xED	; 237
    3dd0:	de 4f       	sbci	r29, 0xFE	; 254
    3dd2:	88 81       	ld	r24, Y
    3dd4:	c3 51       	subi	r28, 0x13	; 19
    3dd6:	d1 40       	sbci	r29, 0x01	; 1
    3dd8:	81 30       	cpi	r24, 0x01	; 1
    3dda:	09 f0       	breq	.+2      	; 0x3dde <initialise+0xacc>
    3ddc:	f4 cb       	rjmp	.-2072   	; 0x35c6 <initialise+0x2b4>
    3dde:	fa cb       	rjmp	.-2060   	; 0x35d4 <initialise+0x2c2>
    3de0:	8c 81       	ldd	r24, Y+4	; 0x04
    3de2:	88 23       	and	r24, r24
    3de4:	11 f0       	breq	.+4      	; 0x3dea <initialise+0xad8>
    3de6:	99 24       	eor	r9, r9
    3de8:	93 94       	inc	r9
    3dea:	69 2d       	mov	r22, r9
    3dec:	d5 01       	movw	r26, r10
    3dee:	50 96       	adiw	r26, 0x10	; 16
    3df0:	8c 91       	ld	r24, X
    3df2:	0e 94 b4 0b 	call	0x1768	; 0x1768 <pinMode>
    3df6:	11 23       	and	r17, r17
    3df8:	09 f4       	brne	.+2      	; 0x3dfc <initialise+0xaea>
    3dfa:	18 cd       	rjmp	.-1488   	; 0x382c <initialise+0x51a>
    3dfc:	b2 e0       	ldi	r27, 0x02	; 2
    3dfe:	cb 16       	cp	r12, r27
    3e00:	d1 04       	cpc	r13, r1
    3e02:	08 f0       	brcs	.+2      	; 0x3e06 <initialise+0xaf4>
    3e04:	13 cd       	rjmp	.-1498   	; 0x382c <initialise+0x51a>
    3e06:	cc 5d       	subi	r28, 0xDC	; 220
    3e08:	dd 4f       	sbci	r29, 0xFD	; 253
    3e0a:	e8 80       	ld	r14, Y
    3e0c:	c4 52       	subi	r28, 0x24	; 36
    3e0e:	d2 40       	sbci	r29, 0x02	; 2
    3e10:	0d cd       	rjmp	.-1510   	; 0x382c <initialise+0x51a>
    3e12:	e1 2c       	mov	r14, r1
    3e14:	00 e0       	ldi	r16, 0x00	; 0
    3e16:	2c 2d       	mov	r18, r12
    3e18:	40 e0       	ldi	r20, 0x00	; 0
    3e1a:	be 01       	movw	r22, r28
    3e1c:	6d 5e       	subi	r22, 0xED	; 237
    3e1e:	7e 4f       	sbci	r23, 0xFE	; 254
    3e20:	ce 01       	movw	r24, r28
    3e22:	01 96       	adiw	r24, 0x01	; 1
    3e24:	0e 94 12 0b 	call	0x1624	; 0x1624 <setUpDigital>
    3e28:	28 85       	ldd	r18, Y+8	; 0x08
    3e2a:	11 23       	and	r17, r17
    3e2c:	49 f0       	breq	.+18     	; 0x3e40 <initialise+0xb2e>
    3e2e:	e2 e0       	ldi	r30, 0x02	; 2
    3e30:	ce 16       	cp	r12, r30
    3e32:	d1 04       	cpc	r13, r1
    3e34:	28 f4       	brcc	.+10     	; 0x3e40 <initialise+0xb2e>
    3e36:	cc 5d       	subi	r28, 0xDC	; 220
    3e38:	dd 4f       	sbci	r29, 0xFD	; 253
    3e3a:	28 81       	ld	r18, Y
    3e3c:	c4 52       	subi	r28, 0x24	; 36
    3e3e:	d2 40       	sbci	r29, 0x02	; 2
    3e40:	80 91 ae 03 	lds	r24, 0x03AE	; 0x8003ae <validPins>
    3e44:	90 91 af 03 	lds	r25, 0x03AF	; 0x8003af <validPins+0x1>
    3e48:	ac 01       	movw	r20, r24
    3e4a:	4f 5f       	subi	r20, 0xFF	; 255
    3e4c:	5f 4f       	sbci	r21, 0xFF	; 255
    3e4e:	50 93 af 03 	sts	0x03AF, r21	; 0x8003af <validPins+0x1>
    3e52:	40 93 ae 03 	sts	0x03AE, r20	; 0x8003ae <validPins>
    3e56:	28 87       	std	Y+8, r18	; 0x08
    3e58:	f6 cc       	rjmp	.-1556   	; 0x3846 <initialise+0x534>
    3e5a:	24 91       	lpm	r18, Z
    3e5c:	2d 93       	st	X+, r18
    3e5e:	31 96       	adiw	r30, 0x01	; 1
    3e60:	b7 cd       	rjmp	.-1170   	; 0x39d0 <initialise+0x6be>
    3e62:	12 30       	cpi	r17, 0x02	; 2
    3e64:	09 f0       	breq	.+2      	; 0x3e68 <initialise+0xb56>
    3e66:	14 cf       	rjmp	.-472    	; 0x3c90 <initialise+0x97e>
    3e68:	c3 5c       	subi	r28, 0xC3	; 195
    3e6a:	de 4f       	sbci	r29, 0xFE	; 254
    3e6c:	88 81       	ld	r24, Y
    3e6e:	cd 53       	subi	r28, 0x3D	; 61
    3e70:	d1 40       	sbci	r29, 0x01	; 1
    3e72:	80 93 e8 03 	sts	0x03E8, r24	; 0x8003e8 <tiltPin>
    3e76:	62 e0       	ldi	r22, 0x02	; 2
    3e78:	0e 94 b4 0b 	call	0x1768	; 0x1768 <pinMode>
    3e7c:	87 e8       	ldi	r24, 0x87	; 135
    3e7e:	9b e0       	ldi	r25, 0x0B	; 11
    3e80:	03 cf       	rjmp	.-506    	; 0x3c88 <initialise+0x976>
    3e82:	84 31       	cpi	r24, 0x14	; 20
    3e84:	08 f4       	brcc	.+2      	; 0x3e88 <initialise+0xb76>
    3e86:	39 cf       	rjmp	.-398    	; 0x3cfa <initialise+0x9e8>
    3e88:	3c ee       	ldi	r19, 0xEC	; 236
    3e8a:	38 0f       	add	r19, r24
    3e8c:	36 30       	cpi	r19, 0x06	; 6
    3e8e:	a8 f4       	brcc	.+42     	; 0x3eba <initialise+0xba8>
    3e90:	8a e1       	ldi	r24, 0x1A	; 26
    3e92:	e3 e1       	ldi	r30, 0x13	; 19
    3e94:	f1 e0       	ldi	r31, 0x01	; 1
    3e96:	ec 0f       	add	r30, r28
    3e98:	fd 1f       	adc	r31, r29
    3e9a:	f2 96       	adiw	r30, 0x32	; 50
    3e9c:	ac e3       	ldi	r26, 0x3C	; 60
    3e9e:	b4 e0       	ldi	r27, 0x04	; 4
    3ea0:	01 90       	ld	r0, Z+
    3ea2:	0d 92       	st	X+, r0
    3ea4:	8a 95       	dec	r24
    3ea6:	e1 f7       	brne	.-8      	; 0x3ea0 <initialise+0xb8e>
    3ea8:	10 92 3a 04 	sts	0x043A, r1	; 0x80043a <joyThresholdKb>
    3eac:	20 93 3b 04 	sts	0x043B, r18	; 0x80043b <joyThresholdKb+0x1>
    3eb0:	10 92 38 04 	sts	0x0438, r1	; 0x800438 <triggerThresholdKb>
    3eb4:	90 93 39 04 	sts	0x0439, r25	; 0x800439 <triggerThresholdKb+0x1>
    3eb8:	20 cf       	rjmp	.-448    	; 0x3cfa <initialise+0x9e8>
    3eba:	80 32       	cpi	r24, 0x20	; 32
    3ebc:	58 f0       	brcs	.+22     	; 0x3ed4 <initialise+0xbc2>
    3ebe:	46 e0       	ldi	r20, 0x06	; 6
    3ec0:	50 e0       	ldi	r21, 0x00	; 0
    3ec2:	62 ea       	ldi	r22, 0xA2	; 162
    3ec4:	71 e0       	ldi	r23, 0x01	; 1
    3ec6:	87 e3       	ldi	r24, 0x37	; 55
    3ec8:	91 e0       	ldi	r25, 0x01	; 1
    3eca:	0e 94 e9 2b 	call	0x57d2	; 0x57d2 <memcpy_P>
    3ece:	86 e0       	ldi	r24, 0x06	; 6
    3ed0:	80 93 56 04 	sts	0x0456, r24	; 0x800456 <currentAxisBindingsLen>
    3ed4:	80 91 5c 04 	lds	r24, 0x045C	; 0x80045c <fullDeviceType>
    3ed8:	8a 31       	cpi	r24, 0x1A	; 26
    3eda:	39 f4       	brne	.+14     	; 0x3eea <initialise+0xbd8>
    3edc:	8d e0       	ldi	r24, 0x0D	; 13
    3ede:	80 93 2a 01 	sts	0x012A, r24	; 0x80012a <ps3ButtonBindings+0x1>
    3ee2:	8c e0       	ldi	r24, 0x0C	; 12
    3ee4:	80 93 2b 01 	sts	0x012B, r24	; 0x80012b <ps3ButtonBindings+0x2>
    3ee8:	08 cf       	rjmp	.-496    	; 0x3cfa <initialise+0x9e8>
    3eea:	98 2f       	mov	r25, r24
    3eec:	9d 7f       	andi	r25, 0xFD	; 253
    3eee:	4e e0       	ldi	r20, 0x0E	; 14
    3ef0:	50 e0       	ldi	r21, 0x00	; 0
    3ef2:	6c e0       	ldi	r22, 0x0C	; 12
    3ef4:	7e e0       	ldi	r23, 0x0E	; 14
    3ef6:	9c 31       	cpi	r25, 0x1C	; 28
    3ef8:	79 f0       	breq	.+30     	; 0x3f18 <initialise+0xc06>
    3efa:	4e e0       	ldi	r20, 0x0E	; 14
    3efc:	50 e0       	ldi	r21, 0x00	; 0
    3efe:	6e ef       	ldi	r22, 0xFE	; 254
    3f00:	7d e0       	ldi	r23, 0x0D	; 13
    3f02:	8b 31       	cpi	r24, 0x1B	; 27
    3f04:	49 f0       	breq	.+18     	; 0x3f18 <initialise+0xc06>
    3f06:	8d 31       	cpi	r24, 0x1D	; 29
    3f08:	19 f0       	breq	.+6      	; 0x3f10 <initialise+0xbfe>
    3f0a:	80 32       	cpi	r24, 0x20	; 32
    3f0c:	09 f0       	breq	.+2      	; 0x3f10 <initialise+0xbfe>
    3f0e:	f5 ce       	rjmp	.-534    	; 0x3cfa <initialise+0x9e8>
    3f10:	4e e0       	ldi	r20, 0x0E	; 14
    3f12:	50 e0       	ldi	r21, 0x00	; 0
    3f14:	60 ef       	ldi	r22, 0xF0	; 240
    3f16:	7d e0       	ldi	r23, 0x0D	; 13
    3f18:	89 e2       	ldi	r24, 0x29	; 41
    3f1a:	91 e0       	ldi	r25, 0x01	; 1
    3f1c:	0e 94 e9 2b 	call	0x57d2	; 0x57d2 <memcpy_P>
    3f20:	ec ce       	rjmp	.-552    	; 0x3cfa <initialise+0x9e8>

00003f22 <q15_from_double>:
    3f22:	cf 93       	push	r28
    3f24:	df 93       	push	r29
    3f26:	00 d0       	rcall	.+0      	; 0x3f28 <q15_from_double+0x6>
    3f28:	00 d0       	rcall	.+0      	; 0x3f2a <q15_from_double+0x8>
    3f2a:	cd b7       	in	r28, 0x3d	; 61
    3f2c:	de b7       	in	r29, 0x3e	; 62
    3f2e:	20 e0       	ldi	r18, 0x00	; 0
    3f30:	30 e0       	ldi	r19, 0x00	; 0
    3f32:	40 e0       	ldi	r20, 0x00	; 0
    3f34:	57 e4       	ldi	r21, 0x47	; 71
    3f36:	69 83       	std	Y+1, r22	; 0x01
    3f38:	7a 83       	std	Y+2, r23	; 0x02
    3f3a:	8b 83       	std	Y+3, r24	; 0x03
    3f3c:	9c 83       	std	Y+4, r25	; 0x04
    3f3e:	69 81       	ldd	r22, Y+1	; 0x01
    3f40:	7a 81       	ldd	r23, Y+2	; 0x02
    3f42:	8b 81       	ldd	r24, Y+3	; 0x03
    3f44:	9c 81       	ldd	r25, Y+4	; 0x04
    3f46:	0e 94 b8 2a 	call	0x5570	; 0x5570 <__mulsf3>
    3f4a:	69 83       	std	Y+1, r22	; 0x01
    3f4c:	7a 83       	std	Y+2, r23	; 0x02
    3f4e:	8b 83       	std	Y+3, r24	; 0x03
    3f50:	9c 83       	std	Y+4, r25	; 0x04
    3f52:	69 81       	ldd	r22, Y+1	; 0x01
    3f54:	7a 81       	ldd	r23, Y+2	; 0x02
    3f56:	8b 81       	ldd	r24, Y+3	; 0x03
    3f58:	9c 81       	ldd	r25, Y+4	; 0x04
    3f5a:	0e 94 55 2a 	call	0x54aa	; 0x54aa <lrint>
    3f5e:	cb 01       	movw	r24, r22
    3f60:	0f 90       	pop	r0
    3f62:	0f 90       	pop	r0
    3f64:	0f 90       	pop	r0
    3f66:	0f 90       	pop	r0
    3f68:	df 91       	pop	r29
    3f6a:	cf 91       	pop	r28
    3f6c:	08 95       	ret

00003f6e <fxpt_atan2>:
    3f6e:	8f 92       	push	r8
    3f70:	9f 92       	push	r9
    3f72:	af 92       	push	r10
    3f74:	bf 92       	push	r11
    3f76:	cf 92       	push	r12
    3f78:	df 92       	push	r13
    3f7a:	ef 92       	push	r14
    3f7c:	ff 92       	push	r15
    3f7e:	0f 93       	push	r16
    3f80:	1f 93       	push	r17
    3f82:	cf 93       	push	r28
    3f84:	df 93       	push	r29
    3f86:	cd b7       	in	r28, 0x3d	; 61
    3f88:	de b7       	in	r29, 0x3e	; 62
    3f8a:	28 97       	sbiw	r28, 0x08	; 8
    3f8c:	0f b6       	in	r0, 0x3f	; 63
    3f8e:	f8 94       	cli
    3f90:	de bf       	out	0x3e, r29	; 62
    3f92:	0f be       	out	0x3f, r0	; 63
    3f94:	cd bf       	out	0x3d, r28	; 61
    3f96:	8c 01       	movw	r16, r24
    3f98:	6f 83       	std	Y+7, r22	; 0x07
    3f9a:	78 87       	std	Y+8, r23	; 0x08
    3f9c:	2f 81       	ldd	r18, Y+7	; 0x07
    3f9e:	38 85       	ldd	r19, Y+8	; 0x08
    3fa0:	28 17       	cp	r18, r24
    3fa2:	39 07       	cpc	r19, r25
    3fa4:	71 f4       	brne	.+28     	; 0x3fc2 <fxpt_atan2+0x54>
    3fa6:	80 e0       	ldi	r24, 0x00	; 0
    3fa8:	90 e2       	ldi	r25, 0x20	; 32
    3faa:	12 16       	cp	r1, r18
    3fac:	13 06       	cpc	r1, r19
    3fae:	0c f4       	brge	.+2      	; 0x3fb2 <fxpt_atan2+0x44>
    3fb0:	71 c0       	rjmp	.+226    	; 0x4094 <fxpt_atan2+0x126>
    3fb2:	90 e0       	ldi	r25, 0x00	; 0
    3fb4:	80 e0       	ldi	r24, 0x00	; 0
    3fb6:	23 2b       	or	r18, r19
    3fb8:	09 f4       	brne	.+2      	; 0x3fbc <fxpt_atan2+0x4e>
    3fba:	6c c0       	rjmp	.+216    	; 0x4094 <fxpt_atan2+0x126>
    3fbc:	80 e0       	ldi	r24, 0x00	; 0
    3fbe:	90 ea       	ldi	r25, 0xA0	; 160
    3fc0:	69 c0       	rjmp	.+210    	; 0x4094 <fxpt_atan2+0x126>
    3fc2:	99 0f       	add	r25, r25
    3fc4:	88 0b       	sbc	r24, r24
    3fc6:	98 2f       	mov	r25, r24
    3fc8:	80 95       	com	r24
    3fca:	90 95       	com	r25
    3fcc:	98 01       	movw	r18, r16
    3fce:	28 27       	eor	r18, r24
    3fd0:	39 27       	eor	r19, r25
    3fd2:	a9 01       	movw	r20, r18
    3fd4:	48 1b       	sub	r20, r24
    3fd6:	59 0b       	sbc	r21, r25
    3fd8:	5e 83       	std	Y+6, r21	; 0x06
    3fda:	4d 83       	std	Y+5, r20	; 0x05
    3fdc:	8f 81       	ldd	r24, Y+7	; 0x07
    3fde:	98 85       	ldd	r25, Y+8	; 0x08
    3fe0:	99 0f       	add	r25, r25
    3fe2:	88 0b       	sbc	r24, r24
    3fe4:	98 2f       	mov	r25, r24
    3fe6:	80 95       	com	r24
    3fe8:	90 95       	com	r25
    3fea:	2f 81       	ldd	r18, Y+7	; 0x07
    3fec:	38 85       	ldd	r19, Y+8	; 0x08
    3fee:	28 27       	eor	r18, r24
    3ff0:	39 27       	eor	r19, r25
    3ff2:	b9 01       	movw	r22, r18
    3ff4:	68 1b       	sub	r22, r24
    3ff6:	79 0b       	sbc	r23, r25
    3ff8:	7a 83       	std	Y+2, r23	; 0x02
    3ffa:	69 83       	std	Y+1, r22	; 0x01
    3ffc:	64 ee       	ldi	r22, 0xE4	; 228
    3ffe:	77 ef       	ldi	r23, 0xF7	; 247
    4000:	81 eb       	ldi	r24, 0xB1	; 177
    4002:	9d e3       	ldi	r25, 0x3D	; 61
    4004:	8e df       	rcall	.-228    	; 0x3f22 <q15_from_double>
    4006:	d8 2e       	mov	r13, r24
    4008:	c9 2e       	mov	r12, r25
    400a:	69 ef       	ldi	r22, 0xF9	; 249
    400c:	7d e7       	ldi	r23, 0x7D	; 125
    400e:	8c ea       	ldi	r24, 0xAC	; 172
    4010:	9e e3       	ldi	r25, 0x3E	; 62
    4012:	87 df       	rcall	.-242    	; 0x3f22 <q15_from_double>
    4014:	7c 01       	movw	r14, r24
    4016:	8f 81       	ldd	r24, Y+7	; 0x07
    4018:	98 85       	ldd	r25, Y+8	; 0x08
    401a:	9c 01       	movw	r18, r24
    401c:	99 0f       	add	r25, r25
    401e:	44 0b       	sbc	r20, r20
    4020:	55 0b       	sbc	r21, r21
    4022:	48 01       	movw	r8, r16
    4024:	01 2e       	mov	r0, r17
    4026:	00 0c       	add	r0, r0
    4028:	aa 08       	sbc	r10, r10
    402a:	bb 08       	sbc	r11, r11
    402c:	a9 81       	ldd	r26, Y+1	; 0x01
    402e:	ba 81       	ldd	r27, Y+2	; 0x02
    4030:	6d 81       	ldd	r22, Y+5	; 0x05
    4032:	7e 81       	ldd	r23, Y+6	; 0x06
    4034:	a6 17       	cp	r26, r22
    4036:	b7 07       	cpc	r27, r23
    4038:	0c f0       	brlt	.+2      	; 0x403c <fxpt_atan2+0xce>
    403a:	3f c0       	rjmp	.+126    	; 0x40ba <fxpt_atan2+0x14c>
    403c:	d5 01       	movw	r26, r10
    403e:	c4 01       	movw	r24, r8
    4040:	6f e0       	ldi	r22, 0x0F	; 15
    4042:	88 0f       	add	r24, r24
    4044:	99 1f       	adc	r25, r25
    4046:	aa 1f       	adc	r26, r26
    4048:	bb 1f       	adc	r27, r27
    404a:	6a 95       	dec	r22
    404c:	d1 f7       	brne	.-12     	; 0x4042 <fxpt_atan2+0xd4>
    404e:	89 83       	std	Y+1, r24	; 0x01
    4050:	9a 83       	std	Y+2, r25	; 0x02
    4052:	ab 83       	std	Y+3, r26	; 0x03
    4054:	bc 83       	std	Y+4, r27	; 0x04
    4056:	bc 01       	movw	r22, r24
    4058:	cd 01       	movw	r24, r26
    405a:	0e 94 9b 2b 	call	0x5736	; 0x5736 <__divmodsi4>
    405e:	49 01       	movw	r8, r18
    4060:	c9 01       	movw	r24, r18
    4062:	99 0f       	add	r25, r25
    4064:	88 0b       	sbc	r24, r24
    4066:	98 2f       	mov	r25, r24
    4068:	80 95       	com	r24
    406a:	90 95       	com	r25
    406c:	bc 01       	movw	r22, r24
    406e:	62 27       	eor	r22, r18
    4070:	79 25       	eor	r23, r9
    4072:	68 1b       	sub	r22, r24
    4074:	79 0b       	sbc	r23, r25
    4076:	8d 2d       	mov	r24, r13
    4078:	9c 2d       	mov	r25, r12
    407a:	0e 94 c7 0e 	call	0x1d8e	; 0x1d8e <q15_mul>
    407e:	b4 01       	movw	r22, r8
    4080:	8e 0d       	add	r24, r14
    4082:	9f 1d       	adc	r25, r15
    4084:	0e 94 c7 0e 	call	0x1d8e	; 0x1d8e <q15_mul>
    4088:	af 81       	ldd	r26, Y+7	; 0x07
    408a:	b8 85       	ldd	r27, Y+8	; 0x08
    408c:	1a 16       	cp	r1, r26
    408e:	1b 06       	cpc	r1, r27
    4090:	0c f0       	brlt	.+2      	; 0x4094 <fxpt_atan2+0x126>
    4092:	90 58       	subi	r25, 0x80	; 128
    4094:	28 96       	adiw	r28, 0x08	; 8
    4096:	0f b6       	in	r0, 0x3f	; 63
    4098:	f8 94       	cli
    409a:	de bf       	out	0x3e, r29	; 62
    409c:	0f be       	out	0x3f, r0	; 63
    409e:	cd bf       	out	0x3d, r28	; 61
    40a0:	df 91       	pop	r29
    40a2:	cf 91       	pop	r28
    40a4:	1f 91       	pop	r17
    40a6:	0f 91       	pop	r16
    40a8:	ff 90       	pop	r15
    40aa:	ef 90       	pop	r14
    40ac:	df 90       	pop	r13
    40ae:	cf 90       	pop	r12
    40b0:	bf 90       	pop	r11
    40b2:	af 90       	pop	r10
    40b4:	9f 90       	pop	r9
    40b6:	8f 90       	pop	r8
    40b8:	08 95       	ret
    40ba:	ca 01       	movw	r24, r20
    40bc:	b9 01       	movw	r22, r18
    40be:	2f e0       	ldi	r18, 0x0F	; 15
    40c0:	66 0f       	add	r22, r22
    40c2:	77 1f       	adc	r23, r23
    40c4:	88 1f       	adc	r24, r24
    40c6:	99 1f       	adc	r25, r25
    40c8:	2a 95       	dec	r18
    40ca:	d1 f7       	brne	.-12     	; 0x40c0 <fxpt_atan2+0x152>
    40cc:	69 83       	std	Y+1, r22	; 0x01
    40ce:	7a 83       	std	Y+2, r23	; 0x02
    40d0:	8b 83       	std	Y+3, r24	; 0x03
    40d2:	9c 83       	std	Y+4, r25	; 0x04
    40d4:	a5 01       	movw	r20, r10
    40d6:	94 01       	movw	r18, r8
    40d8:	0e 94 9b 2b 	call	0x5736	; 0x5736 <__divmodsi4>
    40dc:	49 01       	movw	r8, r18
    40de:	c9 01       	movw	r24, r18
    40e0:	99 0f       	add	r25, r25
    40e2:	88 0b       	sbc	r24, r24
    40e4:	98 2f       	mov	r25, r24
    40e6:	80 95       	com	r24
    40e8:	90 95       	com	r25
    40ea:	bc 01       	movw	r22, r24
    40ec:	68 25       	eor	r22, r8
    40ee:	79 25       	eor	r23, r9
    40f0:	68 1b       	sub	r22, r24
    40f2:	79 0b       	sbc	r23, r25
    40f4:	8d 2d       	mov	r24, r13
    40f6:	9c 2d       	mov	r25, r12
    40f8:	0e 94 c7 0e 	call	0x1d8e	; 0x1d8e <q15_mul>
    40fc:	b4 01       	movw	r22, r8
    40fe:	8e 0d       	add	r24, r14
    4100:	9f 1d       	adc	r25, r15
    4102:	0e 94 c7 0e 	call	0x1d8e	; 0x1d8e <q15_mul>
    4106:	9c 01       	movw	r18, r24
    4108:	80 e0       	ldi	r24, 0x00	; 0
    410a:	90 e4       	ldi	r25, 0x40	; 64
    410c:	10 16       	cp	r1, r16
    410e:	11 06       	cpc	r1, r17
    4110:	14 f0       	brlt	.+4      	; 0x4116 <fxpt_atan2+0x1a8>
    4112:	80 e0       	ldi	r24, 0x00	; 0
    4114:	90 ec       	ldi	r25, 0xC0	; 192
    4116:	82 1b       	sub	r24, r18
    4118:	93 0b       	sbc	r25, r19
    411a:	bc cf       	rjmp	.-136    	; 0x4094 <fxpt_atan2+0x126>

0000411c <tickMPUTilt>:
    411c:	8f 92       	push	r8
    411e:	9f 92       	push	r9
    4120:	af 92       	push	r10
    4122:	bf 92       	push	r11
    4124:	cf 92       	push	r12
    4126:	df 92       	push	r13
    4128:	ef 92       	push	r14
    412a:	ff 92       	push	r15
    412c:	0f 93       	push	r16
    412e:	1f 93       	push	r17
    4130:	cf 93       	push	r28
    4132:	df 93       	push	r29
    4134:	cd b7       	in	r28, 0x3d	; 61
    4136:	de b7       	in	r29, 0x3e	; 62
    4138:	ea 97       	sbiw	r28, 0x3a	; 58
    413a:	0f b6       	in	r0, 0x3f	; 63
    413c:	f8 94       	cli
    413e:	de bf       	out	0x3e, r29	; 62
    4140:	0f be       	out	0x3f, r0	; 63
    4142:	cd bf       	out	0x3d, r28	; 61
    4144:	89 af       	std	Y+57, r24	; 0x39
    4146:	9a af       	std	Y+58, r25	; 0x3a
    4148:	10 92 e9 01 	sts	0x01E9, r1	; 0x8001e9 <sensors.2+0x1>
    414c:	10 92 e8 01 	sts	0x01E8, r1	; 0x8001e8 <sensors.2>
    4150:	d0 90 e0 03 	lds	r13, 0x03E0	; 0x8003e0 <dmp+0xa>
    4154:	ed 2c       	mov	r14, r13
    4156:	f1 2c       	mov	r15, r1
    4158:	80 91 23 01 	lds	r24, 0x0123	; 0x800123 <st+0x1d>
    415c:	88 23       	and	r24, r24
    415e:	11 f1       	breq	.+68     	; 0x41a4 <tickMPUTilt+0x88>
    4160:	80 91 0c 01 	lds	r24, 0x010C	; 0x80010c <st+0x6>
    4164:	88 23       	and	r24, r24
    4166:	f1 f0       	breq	.+60     	; 0x41a4 <tickMPUTilt+0x88>
    4168:	a0 91 06 01 	lds	r26, 0x0106	; 0x800106 <st>
    416c:	b0 91 07 01 	lds	r27, 0x0107	; 0x800107 <st+0x1>
    4170:	e0 91 08 01 	lds	r30, 0x0108	; 0x800108 <st+0x2>
    4174:	f0 91 09 01 	lds	r31, 0x0109	; 0x800109 <st+0x3>
    4178:	9e 01       	movw	r18, r28
    417a:	2f 5d       	subi	r18, 0xDF	; 223
    417c:	3f 4f       	sbci	r19, 0xFF	; 255
    417e:	42 e0       	ldi	r20, 0x02	; 2
    4180:	1c 96       	adiw	r26, 0x0c	; 12
    4182:	6c 91       	ld	r22, X
    4184:	80 81       	ld	r24, Z
    4186:	0e 94 75 10 	call	0x20ea	; 0x20ea <twi_readFromPointer>
    418a:	88 23       	and	r24, r24
    418c:	59 f0       	breq	.+22     	; 0x41a4 <tickMPUTilt+0x88>
    418e:	09 a1       	ldd	r16, Y+33	; 0x21
    4190:	1a a1       	ldd	r17, Y+34	; 0x22
    4192:	10 27       	eor	r17, r16
    4194:	01 27       	eor	r16, r17
    4196:	10 27       	eor	r17, r16
    4198:	0e 15       	cp	r16, r14
    419a:	1f 05       	cpc	r17, r15
    419c:	08 f0       	brcs	.+2      	; 0x41a0 <tickMPUTilt+0x84>
    419e:	8f c0       	rjmp	.+286    	; 0x42be <tickMPUTilt+0x1a2>
    41a0:	10 92 e7 01 	sts	0x01E7, r1	; 0x8001e7 <fifoCount.1>
    41a4:	80 91 e8 01 	lds	r24, 0x01E8	; 0x8001e8 <sensors.2>
    41a8:	90 91 e9 01 	lds	r25, 0x01E9	; 0x8001e9 <sensors.2+0x1>
    41ac:	81 15       	cp	r24, r1
    41ae:	91 40       	sbci	r25, 0x01	; 1
    41b0:	09 f0       	breq	.+2      	; 0x41b4 <tickMPUTilt+0x98>
    41b2:	e5 c2       	rjmp	.+1482   	; 0x477e <tickMPUTilt+0x662>
    41b4:	c0 90 ea 01 	lds	r12, 0x01EA	; 0x8001ea <q>
    41b8:	d0 90 eb 01 	lds	r13, 0x01EB	; 0x8001eb <q+0x1>
    41bc:	e0 90 ec 01 	lds	r14, 0x01EC	; 0x8001ec <q+0x2>
    41c0:	f0 90 ed 01 	lds	r15, 0x01ED	; 0x8001ed <q+0x3>
    41c4:	77 e1       	ldi	r23, 0x17	; 23
    41c6:	f5 94       	asr	r15
    41c8:	e7 94       	ror	r14
    41ca:	d7 94       	ror	r13
    41cc:	c7 94       	ror	r12
    41ce:	7a 95       	dec	r23
    41d0:	d1 f7       	brne	.-12     	; 0x41c6 <tickMPUTilt+0xaa>
    41d2:	d0 92 eb 01 	sts	0x01EB, r13	; 0x8001eb <q+0x1>
    41d6:	c0 92 ea 01 	sts	0x01EA, r12	; 0x8001ea <q>
    41da:	80 90 ee 01 	lds	r8, 0x01EE	; 0x8001ee <q+0x4>
    41de:	90 90 ef 01 	lds	r9, 0x01EF	; 0x8001ef <q+0x5>
    41e2:	a0 90 f0 01 	lds	r10, 0x01F0	; 0x8001f0 <q+0x6>
    41e6:	b0 90 f1 01 	lds	r11, 0x01F1	; 0x8001f1 <q+0x7>
    41ea:	e7 e1       	ldi	r30, 0x17	; 23
    41ec:	b5 94       	asr	r11
    41ee:	a7 94       	ror	r10
    41f0:	97 94       	ror	r9
    41f2:	87 94       	ror	r8
    41f4:	ea 95       	dec	r30
    41f6:	d1 f7       	brne	.-12     	; 0x41ec <tickMPUTilt+0xd0>
    41f8:	90 92 ed 01 	sts	0x01ED, r9	; 0x8001ed <q+0x3>
    41fc:	80 92 ec 01 	sts	0x01EC, r8	; 0x8001ec <q+0x2>
    4200:	40 91 f2 01 	lds	r20, 0x01F2	; 0x8001f2 <q+0x8>
    4204:	50 91 f3 01 	lds	r21, 0x01F3	; 0x8001f3 <q+0x9>
    4208:	60 91 f4 01 	lds	r22, 0x01F4	; 0x8001f4 <q+0xa>
    420c:	70 91 f5 01 	lds	r23, 0x01F5	; 0x8001f5 <q+0xb>
    4210:	f7 e1       	ldi	r31, 0x17	; 23
    4212:	75 95       	asr	r23
    4214:	67 95       	ror	r22
    4216:	57 95       	ror	r21
    4218:	47 95       	ror	r20
    421a:	fa 95       	dec	r31
    421c:	d1 f7       	brne	.-12     	; 0x4212 <tickMPUTilt+0xf6>
    421e:	50 93 ef 01 	sts	0x01EF, r21	; 0x8001ef <q+0x5>
    4222:	40 93 ee 01 	sts	0x01EE, r20	; 0x8001ee <q+0x4>
    4226:	00 91 f6 01 	lds	r16, 0x01F6	; 0x8001f6 <q+0xc>
    422a:	10 91 f7 01 	lds	r17, 0x01F7	; 0x8001f7 <q+0xd>
    422e:	20 91 f8 01 	lds	r18, 0x01F8	; 0x8001f8 <q+0xe>
    4232:	30 91 f9 01 	lds	r19, 0x01F9	; 0x8001f9 <q+0xf>
    4236:	a7 e1       	ldi	r26, 0x17	; 23
    4238:	35 95       	asr	r19
    423a:	27 95       	ror	r18
    423c:	17 95       	ror	r17
    423e:	07 95       	ror	r16
    4240:	aa 95       	dec	r26
    4242:	d1 f7       	brne	.-12     	; 0x4238 <tickMPUTilt+0x11c>
    4244:	10 93 f1 01 	sts	0x01F1, r17	; 0x8001f1 <q+0x7>
    4248:	00 93 f0 01 	sts	0x01F0, r16	; 0x8001f0 <q+0x6>
    424c:	80 91 eb 03 	lds	r24, 0x03EB	; 0x8003eb <mpuOrientation>
    4250:	00 9f       	mul	r16, r16
    4252:	f0 01       	movw	r30, r0
    4254:	01 9f       	mul	r16, r17
    4256:	f0 0d       	add	r31, r0
    4258:	f0 0d       	add	r31, r0
    425a:	11 24       	eor	r1, r1
    425c:	81 30       	cpi	r24, 0x01	; 1
    425e:	09 f4       	brne	.+2      	; 0x4262 <tickMPUTilt+0x146>
    4260:	d7 c1       	rjmp	.+942    	; 0x4610 <tickMPUTilt+0x4f4>
    4262:	82 30       	cpi	r24, 0x02	; 2
    4264:	09 f4       	brne	.+2      	; 0x4268 <tickMPUTilt+0x14c>
    4266:	df c2       	rjmp	.+1470   	; 0x4826 <tickMPUTilt+0x70a>
    4268:	81 11       	cpse	r24, r1
    426a:	65 c2       	rjmp	.+1226   	; 0x4736 <tickMPUTilt+0x61a>
    426c:	44 9f       	mul	r20, r20
    426e:	c0 01       	movw	r24, r0
    4270:	45 9f       	mul	r20, r21
    4272:	90 0d       	add	r25, r0
    4274:	90 0d       	add	r25, r0
    4276:	11 24       	eor	r1, r1
    4278:	8e 0f       	add	r24, r30
    427a:	9f 1f       	adc	r25, r31
    427c:	88 0f       	add	r24, r24
    427e:	99 1f       	adc	r25, r25
    4280:	e0 e0       	ldi	r30, 0x00	; 0
    4282:	f0 e8       	ldi	r31, 0x80	; 128
    4284:	e8 1b       	sub	r30, r24
    4286:	f9 0b       	sbc	r31, r25
    4288:	48 9d       	mul	r20, r8
    428a:	d0 01       	movw	r26, r0
    428c:	49 9d       	mul	r20, r9
    428e:	b0 0d       	add	r27, r0
    4290:	58 9d       	mul	r21, r8
    4292:	b0 0d       	add	r27, r0
    4294:	11 24       	eor	r1, r1
    4296:	0c 9d       	mul	r16, r12
    4298:	c0 01       	movw	r24, r0
    429a:	0d 9d       	mul	r16, r13
    429c:	90 0d       	add	r25, r0
    429e:	1c 9d       	mul	r17, r12
    42a0:	90 0d       	add	r25, r0
    42a2:	11 24       	eor	r1, r1
    42a4:	9d 01       	movw	r18, r26
    42a6:	28 1b       	sub	r18, r24
    42a8:	39 0b       	sbc	r19, r25
    42aa:	c9 01       	movw	r24, r18
    42ac:	bf 01       	movw	r22, r30
    42ae:	88 0f       	add	r24, r24
    42b0:	99 1f       	adc	r25, r25
    42b2:	5d de       	rcall	.-838    	; 0x3f6e <fxpt_atan2>
    42b4:	90 93 e6 01 	sts	0x01E6, r25	; 0x8001e6 <mpuTilt+0x1>
    42b8:	80 93 e5 01 	sts	0x01E5, r24	; 0x8001e5 <mpuTilt>
    42bc:	3c c2       	rjmp	.+1144   	; 0x4736 <tickMPUTilt+0x61a>
    42be:	e0 91 08 01 	lds	r30, 0x0108	; 0x800108 <st+0x2>
    42c2:	f0 91 09 01 	lds	r31, 0x0109	; 0x800109 <st+0x3>
    42c6:	81 81       	ldd	r24, Z+1	; 0x01
    42c8:	92 81       	ldd	r25, Z+2	; 0x02
    42ca:	96 95       	lsr	r25
    42cc:	87 95       	ror	r24
    42ce:	80 17       	cp	r24, r16
    42d0:	91 07       	cpc	r25, r17
    42d2:	b0 f4       	brcc	.+44     	; 0x4300 <tickMPUTilt+0x1e4>
    42d4:	a0 91 06 01 	lds	r26, 0x0106	; 0x800106 <st>
    42d8:	b0 91 07 01 	lds	r27, 0x0107	; 0x800107 <st+0x1>
    42dc:	9e 01       	movw	r18, r28
    42de:	2f 5d       	subi	r18, 0xDF	; 223
    42e0:	3f 4f       	sbci	r19, 0xFF	; 255
    42e2:	41 e0       	ldi	r20, 0x01	; 1
    42e4:	53 96       	adiw	r26, 0x13	; 19
    42e6:	6c 91       	ld	r22, X
    42e8:	80 81       	ld	r24, Z
    42ea:	0e 94 75 10 	call	0x20ea	; 0x20ea <twi_readFromPointer>
    42ee:	88 23       	and	r24, r24
    42f0:	09 f4       	brne	.+2      	; 0x42f4 <tickMPUTilt+0x1d8>
    42f2:	58 cf       	rjmp	.-336    	; 0x41a4 <tickMPUTilt+0x88>
    42f4:	89 a1       	ldd	r24, Y+33	; 0x21
    42f6:	84 ff       	sbrs	r24, 4
    42f8:	03 c0       	rjmp	.+6      	; 0x4300 <tickMPUTilt+0x1e4>
    42fa:	0e 94 49 14 	call	0x2892	; 0x2892 <mpu_reset_fifo>
    42fe:	52 cf       	rjmp	.-348    	; 0x41a4 <tickMPUTilt+0x88>
    4300:	a0 91 06 01 	lds	r26, 0x0106	; 0x800106 <st>
    4304:	b0 91 07 01 	lds	r27, 0x0107	; 0x800107 <st+0x1>
    4308:	e0 91 08 01 	lds	r30, 0x0108	; 0x800108 <st+0x2>
    430c:	f0 91 09 01 	lds	r31, 0x0109	; 0x800109 <st+0x3>
    4310:	9e 01       	movw	r18, r28
    4312:	2f 5f       	subi	r18, 0xFF	; 255
    4314:	3f 4f       	sbci	r19, 0xFF	; 255
    4316:	4d 2d       	mov	r20, r13
    4318:	1d 96       	adiw	r26, 0x0d	; 13
    431a:	6c 91       	ld	r22, X
    431c:	80 81       	ld	r24, Z
    431e:	0e 94 75 10 	call	0x20ea	; 0x20ea <twi_readFromPointer>
    4322:	88 23       	and	r24, r24
    4324:	09 f4       	brne	.+2      	; 0x4328 <tickMPUTilt+0x20c>
    4326:	3e cf       	rjmp	.-388    	; 0x41a4 <tickMPUTilt+0x88>
    4328:	c8 01       	movw	r24, r16
    432a:	b7 01       	movw	r22, r14
    432c:	0e 94 52 2b 	call	0x56a4	; 0x56a4 <__udivmodhi4>
    4330:	61 50       	subi	r22, 0x01	; 1
    4332:	60 93 e7 01 	sts	0x01E7, r22	; 0x8001e7 <fifoCount.1>
    4336:	e0 91 dc 03 	lds	r30, 0x03DC	; 0x8003dc <dmp+0x6>
    433a:	f0 91 dd 03 	lds	r31, 0x03DD	; 0x8003dd <dmp+0x7>
    433e:	cf 01       	movw	r24, r30
    4340:	84 71       	andi	r24, 0x14	; 20
    4342:	99 27       	eor	r25, r25
    4344:	89 2b       	or	r24, r25
    4346:	09 f4       	brne	.+2      	; 0x434a <tickMPUTilt+0x22e>
    4348:	61 c1       	rjmp	.+706    	; 0x460c <tickMPUTilt+0x4f0>
    434a:	29 81       	ldd	r18, Y+1	; 0x01
    434c:	3a 81       	ldd	r19, Y+2	; 0x02
    434e:	4b 81       	ldd	r20, Y+3	; 0x03
    4350:	5c 81       	ldd	r21, Y+4	; 0x04
    4352:	ca 01       	movw	r24, r20
    4354:	b9 01       	movw	r22, r18
    4356:	0e 94 b7 2b 	call	0x576e	; 0x576e <__bswapsi2>
    435a:	4b 01       	movw	r8, r22
    435c:	5c 01       	movw	r10, r24
    435e:	80 92 ea 01 	sts	0x01EA, r8	; 0x8001ea <q>
    4362:	90 92 eb 01 	sts	0x01EB, r9	; 0x8001eb <q+0x1>
    4366:	a0 92 ec 01 	sts	0x01EC, r10	; 0x8001ec <q+0x2>
    436a:	b0 92 ed 01 	sts	0x01ED, r11	; 0x8001ed <q+0x3>
    436e:	8d 81       	ldd	r24, Y+5	; 0x05
    4370:	9e 81       	ldd	r25, Y+6	; 0x06
    4372:	af 81       	ldd	r26, Y+7	; 0x07
    4374:	b8 85       	ldd	r27, Y+8	; 0x08
    4376:	bc 01       	movw	r22, r24
    4378:	cd 01       	movw	r24, r26
    437a:	0e 94 b7 2b 	call	0x576e	; 0x576e <__bswapsi2>
    437e:	6b 01       	movw	r12, r22
    4380:	7c 01       	movw	r14, r24
    4382:	c0 92 ee 01 	sts	0x01EE, r12	; 0x8001ee <q+0x4>
    4386:	d0 92 ef 01 	sts	0x01EF, r13	; 0x8001ef <q+0x5>
    438a:	e0 92 f0 01 	sts	0x01F0, r14	; 0x8001f0 <q+0x6>
    438e:	f0 92 f1 01 	sts	0x01F1, r15	; 0x8001f1 <q+0x7>
    4392:	29 85       	ldd	r18, Y+9	; 0x09
    4394:	3a 85       	ldd	r19, Y+10	; 0x0a
    4396:	4b 85       	ldd	r20, Y+11	; 0x0b
    4398:	5c 85       	ldd	r21, Y+12	; 0x0c
    439a:	ca 01       	movw	r24, r20
    439c:	b9 01       	movw	r22, r18
    439e:	0e 94 b7 2b 	call	0x576e	; 0x576e <__bswapsi2>
    43a2:	8b 01       	movw	r16, r22
    43a4:	9c 01       	movw	r18, r24
    43a6:	00 93 f2 01 	sts	0x01F2, r16	; 0x8001f2 <q+0x8>
    43aa:	10 93 f3 01 	sts	0x01F3, r17	; 0x8001f3 <q+0x9>
    43ae:	20 93 f4 01 	sts	0x01F4, r18	; 0x8001f4 <q+0xa>
    43b2:	30 93 f5 01 	sts	0x01F5, r19	; 0x8001f5 <q+0xb>
    43b6:	8d 85       	ldd	r24, Y+13	; 0x0d
    43b8:	9e 85       	ldd	r25, Y+14	; 0x0e
    43ba:	af 85       	ldd	r26, Y+15	; 0x0f
    43bc:	b8 89       	ldd	r27, Y+16	; 0x10
    43be:	bc 01       	movw	r22, r24
    43c0:	cd 01       	movw	r24, r26
    43c2:	0e 94 b7 2b 	call	0x576e	; 0x576e <__bswapsi2>
    43c6:	ab 01       	movw	r20, r22
    43c8:	bc 01       	movw	r22, r24
    43ca:	40 93 f6 01 	sts	0x01F6, r20	; 0x8001f6 <q+0xc>
    43ce:	50 93 f7 01 	sts	0x01F7, r21	; 0x8001f7 <q+0xd>
    43d2:	60 93 f8 01 	sts	0x01F8, r22	; 0x8001f8 <q+0xe>
    43d6:	70 93 f9 01 	sts	0x01F9, r23	; 0x8001f9 <q+0xf>
    43da:	c5 01       	movw	r24, r10
    43dc:	bb 27       	eor	r27, r27
    43de:	97 fd       	sbrc	r25, 7
    43e0:	b0 95       	com	r27
    43e2:	ab 2f       	mov	r26, r27
    43e4:	8b a3       	std	Y+35, r24	; 0x23
    43e6:	9c a3       	std	Y+36, r25	; 0x24
    43e8:	ad a3       	std	Y+37, r26	; 0x25
    43ea:	be a3       	std	Y+38, r27	; 0x26
    43ec:	c7 01       	movw	r24, r14
    43ee:	bb 27       	eor	r27, r27
    43f0:	97 fd       	sbrc	r25, 7
    43f2:	b0 95       	com	r27
    43f4:	ab 2f       	mov	r26, r27
    43f6:	8f a3       	std	Y+39, r24	; 0x27
    43f8:	98 a7       	std	Y+40, r25	; 0x28
    43fa:	a9 a7       	std	Y+41, r26	; 0x29
    43fc:	ba a7       	std	Y+42, r27	; 0x2a
    43fe:	c9 01       	movw	r24, r18
    4400:	bb 27       	eor	r27, r27
    4402:	97 fd       	sbrc	r25, 7
    4404:	b0 95       	com	r27
    4406:	ab 2f       	mov	r26, r27
    4408:	8b a7       	std	Y+43, r24	; 0x2b
    440a:	9c a7       	std	Y+44, r25	; 0x2c
    440c:	ad a7       	std	Y+45, r26	; 0x2d
    440e:	be a7       	std	Y+46, r27	; 0x2e
    4410:	cb 01       	movw	r24, r22
    4412:	bb 27       	eor	r27, r27
    4414:	97 fd       	sbrc	r25, 7
    4416:	b0 95       	com	r27
    4418:	ab 2f       	mov	r26, r27
    441a:	8f a7       	std	Y+47, r24	; 0x2f
    441c:	98 ab       	std	Y+48, r25	; 0x30
    441e:	a9 ab       	std	Y+49, r26	; 0x31
    4420:	ba ab       	std	Y+50, r27	; 0x32
    4422:	2b a1       	ldd	r18, Y+35	; 0x23
    4424:	3c a1       	ldd	r19, Y+36	; 0x24
    4426:	4d a1       	ldd	r20, Y+37	; 0x25
    4428:	5e a1       	ldd	r21, Y+38	; 0x26
    442a:	ca 01       	movw	r24, r20
    442c:	b9 01       	movw	r22, r18
    442e:	0e 94 43 2b 	call	0x5686	; 0x5686 <__mulsi3>
    4432:	6b a3       	std	Y+35, r22	; 0x23
    4434:	7c a3       	std	Y+36, r23	; 0x24
    4436:	8d a3       	std	Y+37, r24	; 0x25
    4438:	9e a3       	std	Y+38, r25	; 0x26
    443a:	2f a1       	ldd	r18, Y+39	; 0x27
    443c:	38 a5       	ldd	r19, Y+40	; 0x28
    443e:	49 a5       	ldd	r20, Y+41	; 0x29
    4440:	5a a5       	ldd	r21, Y+42	; 0x2a
    4442:	ca 01       	movw	r24, r20
    4444:	b9 01       	movw	r22, r18
    4446:	0e 94 43 2b 	call	0x5686	; 0x5686 <__mulsi3>
    444a:	6f a3       	std	Y+39, r22	; 0x27
    444c:	78 a7       	std	Y+40, r23	; 0x28
    444e:	89 a7       	std	Y+41, r24	; 0x29
    4450:	9a a7       	std	Y+42, r25	; 0x2a
    4452:	cb a0       	ldd	r12, Y+35	; 0x23
    4454:	dc a0       	ldd	r13, Y+36	; 0x24
    4456:	ed a0       	ldd	r14, Y+37	; 0x25
    4458:	fe a0       	ldd	r15, Y+38	; 0x26
    445a:	c6 0e       	add	r12, r22
    445c:	d7 1e       	adc	r13, r23
    445e:	e8 1e       	adc	r14, r24
    4460:	f9 1e       	adc	r15, r25
    4462:	2b a5       	ldd	r18, Y+43	; 0x2b
    4464:	3c a5       	ldd	r19, Y+44	; 0x2c
    4466:	4d a5       	ldd	r20, Y+45	; 0x2d
    4468:	5e a5       	ldd	r21, Y+46	; 0x2e
    446a:	ca 01       	movw	r24, r20
    446c:	b9 01       	movw	r22, r18
    446e:	0e 94 43 2b 	call	0x5686	; 0x5686 <__mulsi3>
    4472:	c6 0e       	add	r12, r22
    4474:	d7 1e       	adc	r13, r23
    4476:	e8 1e       	adc	r14, r24
    4478:	f9 1e       	adc	r15, r25
    447a:	2f a5       	ldd	r18, Y+47	; 0x2f
    447c:	38 a9       	ldd	r19, Y+48	; 0x30
    447e:	49 a9       	ldd	r20, Y+49	; 0x31
    4480:	5a a9       	ldd	r21, Y+50	; 0x32
    4482:	ca 01       	movw	r24, r20
    4484:	b9 01       	movw	r22, r18
    4486:	0e 94 43 2b 	call	0x5686	; 0x5686 <__mulsi3>
    448a:	6b a3       	std	Y+35, r22	; 0x23
    448c:	7c a3       	std	Y+36, r23	; 0x24
    448e:	8d a3       	std	Y+37, r24	; 0x25
    4490:	9e a3       	std	Y+38, r25	; 0x26
    4492:	c6 0e       	add	r12, r22
    4494:	d7 1e       	adc	r13, r23
    4496:	e8 1e       	adc	r14, r24
    4498:	f9 1e       	adc	r15, r25
    449a:	9f e0       	ldi	r25, 0x0F	; 15
    449c:	f9 1a       	sub	r15, r25
    449e:	a1 e0       	ldi	r26, 0x01	; 1
    44a0:	ca 16       	cp	r12, r26
    44a2:	d1 04       	cpc	r13, r1
    44a4:	e1 04       	cpc	r14, r1
    44a6:	a2 e0       	ldi	r26, 0x02	; 2
    44a8:	fa 06       	cpc	r15, r26
    44aa:	38 f0       	brcs	.+14     	; 0x44ba <tickMPUTilt+0x39e>
    44ac:	0e 94 49 14 	call	0x2892	; 0x2892 <mpu_reset_fifo>
    44b0:	10 92 e9 01 	sts	0x01E9, r1	; 0x8001e9 <sensors.2+0x1>
    44b4:	10 92 e8 01 	sts	0x01E8, r1	; 0x8001e8 <sensors.2>
    44b8:	75 ce       	rjmp	.-790    	; 0x41a4 <tickMPUTilt+0x88>
    44ba:	80 91 e8 01 	lds	r24, 0x01E8	; 0x8001e8 <sensors.2>
    44be:	90 91 e9 01 	lds	r25, 0x01E9	; 0x8001e9 <sensors.2+0x1>
    44c2:	91 60       	ori	r25, 0x01	; 1
    44c4:	90 93 e9 01 	sts	0x01E9, r25	; 0x8001e9 <sensors.2+0x1>
    44c8:	80 93 e8 01 	sts	0x01E8, r24	; 0x8001e8 <sensors.2>
    44cc:	80 e1       	ldi	r24, 0x10	; 16
    44ce:	e6 ff       	sbrs	r30, 6
    44d0:	4d c0       	rjmp	.+154    	; 0x456c <tickMPUTilt+0x450>
    44d2:	a1 e0       	ldi	r26, 0x01	; 1
    44d4:	b0 e0       	ldi	r27, 0x00	; 0
    44d6:	ac 0f       	add	r26, r28
    44d8:	bd 1f       	adc	r27, r29
    44da:	a8 0f       	add	r26, r24
    44dc:	b1 1d       	adc	r27, r1
    44de:	9c 91       	ld	r25, X
    44e0:	21 e0       	ldi	r18, 0x01	; 1
    44e2:	28 0f       	add	r18, r24
    44e4:	a1 e0       	ldi	r26, 0x01	; 1
    44e6:	b0 e0       	ldi	r27, 0x00	; 0
    44e8:	ac 0f       	add	r26, r28
    44ea:	bd 1f       	adc	r27, r29
    44ec:	a2 0f       	add	r26, r18
    44ee:	b1 1d       	adc	r27, r1
    44f0:	2c 91       	ld	r18, X
    44f2:	39 2f       	mov	r19, r25
    44f4:	30 93 01 00 	sts	0x0001, r19	; 0x800001 <__TEXT_REGION_LENGTH__+0x7e0001>
    44f8:	20 93 00 00 	sts	0x0000, r18	; 0x800000 <__TEXT_REGION_LENGTH__+0x7e0000>
    44fc:	92 e0       	ldi	r25, 0x02	; 2
    44fe:	98 0f       	add	r25, r24
    4500:	a1 e0       	ldi	r26, 0x01	; 1
    4502:	b0 e0       	ldi	r27, 0x00	; 0
    4504:	ac 0f       	add	r26, r28
    4506:	bd 1f       	adc	r27, r29
    4508:	a9 0f       	add	r26, r25
    450a:	b1 1d       	adc	r27, r1
    450c:	9c 91       	ld	r25, X
    450e:	23 e0       	ldi	r18, 0x03	; 3
    4510:	28 0f       	add	r18, r24
    4512:	a1 e0       	ldi	r26, 0x01	; 1
    4514:	b0 e0       	ldi	r27, 0x00	; 0
    4516:	ac 0f       	add	r26, r28
    4518:	bd 1f       	adc	r27, r29
    451a:	a2 0f       	add	r26, r18
    451c:	b1 1d       	adc	r27, r1
    451e:	2c 91       	ld	r18, X
    4520:	39 2f       	mov	r19, r25
    4522:	30 93 03 00 	sts	0x0003, r19	; 0x800003 <__TEXT_REGION_LENGTH__+0x7e0003>
    4526:	20 93 02 00 	sts	0x0002, r18	; 0x800002 <__TEXT_REGION_LENGTH__+0x7e0002>
    452a:	94 e0       	ldi	r25, 0x04	; 4
    452c:	98 0f       	add	r25, r24
    452e:	a1 e0       	ldi	r26, 0x01	; 1
    4530:	b0 e0       	ldi	r27, 0x00	; 0
    4532:	ac 0f       	add	r26, r28
    4534:	bd 1f       	adc	r27, r29
    4536:	a9 0f       	add	r26, r25
    4538:	b1 1d       	adc	r27, r1
    453a:	9c 91       	ld	r25, X
    453c:	25 e0       	ldi	r18, 0x05	; 5
    453e:	28 0f       	add	r18, r24
    4540:	a1 e0       	ldi	r26, 0x01	; 1
    4542:	b0 e0       	ldi	r27, 0x00	; 0
    4544:	ac 0f       	add	r26, r28
    4546:	bd 1f       	adc	r27, r29
    4548:	a2 0f       	add	r26, r18
    454a:	b1 1d       	adc	r27, r1
    454c:	2c 91       	ld	r18, X
    454e:	39 2f       	mov	r19, r25
    4550:	30 93 05 00 	sts	0x0005, r19	; 0x800005 <__TEXT_REGION_LENGTH__+0x7e0005>
    4554:	20 93 04 00 	sts	0x0004, r18	; 0x800004 <__TEXT_REGION_LENGTH__+0x7e0004>
    4558:	8a 5f       	subi	r24, 0xFA	; 250
    455a:	20 91 e8 01 	lds	r18, 0x01E8	; 0x8001e8 <sensors.2>
    455e:	30 91 e9 01 	lds	r19, 0x01E9	; 0x8001e9 <sensors.2+0x1>
    4562:	28 60       	ori	r18, 0x08	; 8
    4564:	30 93 e9 01 	sts	0x01E9, r19	; 0x8001e9 <sensors.2+0x1>
    4568:	20 93 e8 01 	sts	0x01E8, r18	; 0x8001e8 <sensors.2>
    456c:	e0 78       	andi	r30, 0x80	; 128
    456e:	f1 70       	andi	r31, 0x01	; 1
    4570:	ef 2b       	or	r30, r31
    4572:	09 f4       	brne	.+2      	; 0x4576 <tickMPUTilt+0x45a>
    4574:	17 ce       	rjmp	.-978    	; 0x41a4 <tickMPUTilt+0x88>
    4576:	e1 e0       	ldi	r30, 0x01	; 1
    4578:	f0 e0       	ldi	r31, 0x00	; 0
    457a:	ec 0f       	add	r30, r28
    457c:	fd 1f       	adc	r31, r29
    457e:	e8 0f       	add	r30, r24
    4580:	f1 1d       	adc	r31, r1
    4582:	90 81       	ld	r25, Z
    4584:	21 e0       	ldi	r18, 0x01	; 1
    4586:	28 0f       	add	r18, r24
    4588:	e1 e0       	ldi	r30, 0x01	; 1
    458a:	f0 e0       	ldi	r31, 0x00	; 0
    458c:	ec 0f       	add	r30, r28
    458e:	fd 1f       	adc	r31, r29
    4590:	e2 0f       	add	r30, r18
    4592:	f1 1d       	adc	r31, r1
    4594:	20 81       	ld	r18, Z
    4596:	39 2f       	mov	r19, r25
    4598:	30 93 01 00 	sts	0x0001, r19	; 0x800001 <__TEXT_REGION_LENGTH__+0x7e0001>
    459c:	20 93 00 00 	sts	0x0000, r18	; 0x800000 <__TEXT_REGION_LENGTH__+0x7e0000>
    45a0:	92 e0       	ldi	r25, 0x02	; 2
    45a2:	98 0f       	add	r25, r24
    45a4:	e1 e0       	ldi	r30, 0x01	; 1
    45a6:	f0 e0       	ldi	r31, 0x00	; 0
    45a8:	ec 0f       	add	r30, r28
    45aa:	fd 1f       	adc	r31, r29
    45ac:	e9 0f       	add	r30, r25
    45ae:	f1 1d       	adc	r31, r1
    45b0:	90 81       	ld	r25, Z
    45b2:	23 e0       	ldi	r18, 0x03	; 3
    45b4:	28 0f       	add	r18, r24
    45b6:	e1 e0       	ldi	r30, 0x01	; 1
    45b8:	f0 e0       	ldi	r31, 0x00	; 0
    45ba:	ec 0f       	add	r30, r28
    45bc:	fd 1f       	adc	r31, r29
    45be:	e2 0f       	add	r30, r18
    45c0:	f1 1d       	adc	r31, r1
    45c2:	20 81       	ld	r18, Z
    45c4:	39 2f       	mov	r19, r25
    45c6:	30 93 03 00 	sts	0x0003, r19	; 0x800003 <__TEXT_REGION_LENGTH__+0x7e0003>
    45ca:	20 93 02 00 	sts	0x0002, r18	; 0x800002 <__TEXT_REGION_LENGTH__+0x7e0002>
    45ce:	94 e0       	ldi	r25, 0x04	; 4
    45d0:	98 0f       	add	r25, r24
    45d2:	e1 e0       	ldi	r30, 0x01	; 1
    45d4:	f0 e0       	ldi	r31, 0x00	; 0
    45d6:	ec 0f       	add	r30, r28
    45d8:	fd 1f       	adc	r31, r29
    45da:	e9 0f       	add	r30, r25
    45dc:	f1 1d       	adc	r31, r1
    45de:	90 81       	ld	r25, Z
    45e0:	8b 5f       	subi	r24, 0xFB	; 251
    45e2:	e1 e0       	ldi	r30, 0x01	; 1
    45e4:	f0 e0       	ldi	r31, 0x00	; 0
    45e6:	ec 0f       	add	r30, r28
    45e8:	fd 1f       	adc	r31, r29
    45ea:	e8 0f       	add	r30, r24
    45ec:	f1 1d       	adc	r31, r1
    45ee:	80 81       	ld	r24, Z
    45f0:	90 93 05 00 	sts	0x0005, r25	; 0x800005 <__TEXT_REGION_LENGTH__+0x7e0005>
    45f4:	80 93 04 00 	sts	0x0004, r24	; 0x800004 <__TEXT_REGION_LENGTH__+0x7e0004>
    45f8:	80 91 e8 01 	lds	r24, 0x01E8	; 0x8001e8 <sensors.2>
    45fc:	90 91 e9 01 	lds	r25, 0x01E9	; 0x8001e9 <sensors.2+0x1>
    4600:	80 67       	ori	r24, 0x70	; 112
    4602:	90 93 e9 01 	sts	0x01E9, r25	; 0x8001e9 <sensors.2+0x1>
    4606:	80 93 e8 01 	sts	0x01E8, r24	; 0x8001e8 <sensors.2>
    460a:	cc cd       	rjmp	.-1128   	; 0x41a4 <tickMPUTilt+0x88>
    460c:	80 e0       	ldi	r24, 0x00	; 0
    460e:	5f cf       	rjmp	.-322    	; 0x44ce <tickMPUTilt+0x3b2>
    4610:	08 9d       	mul	r16, r8
    4612:	c0 01       	movw	r24, r0
    4614:	09 9d       	mul	r16, r9
    4616:	90 0d       	add	r25, r0
    4618:	18 9d       	mul	r17, r8
    461a:	90 0d       	add	r25, r0
    461c:	11 24       	eor	r1, r1
    461e:	4c 9d       	mul	r20, r12
    4620:	90 01       	movw	r18, r0
    4622:	4d 9d       	mul	r20, r13
    4624:	30 0d       	add	r19, r0
    4626:	5c 9d       	mul	r21, r12
    4628:	30 0d       	add	r19, r0
    462a:	11 24       	eor	r1, r1
    462c:	7c 01       	movw	r14, r24
    462e:	e2 1a       	sub	r14, r18
    4630:	f3 0a       	sbc	r15, r19
    4632:	b7 01       	movw	r22, r14
    4634:	c7 01       	movw	r24, r14
    4636:	0e 94 c7 0e 	call	0x1d8e	; 0x1d8e <q15_mul>
    463a:	8c 01       	movw	r16, r24
    463c:	bc 01       	movw	r22, r24
    463e:	0e 94 c7 0e 	call	0x1d8e	; 0x1d8e <q15_mul>
    4642:	5c 01       	movw	r10, r24
    4644:	bc 01       	movw	r22, r24
    4646:	0e 94 c7 0e 	call	0x1d8e	; 0x1d8e <q15_mul>
    464a:	6c 01       	movw	r12, r24
    464c:	60 e6       	ldi	r22, 0x60	; 96
    464e:	70 eb       	ldi	r23, 0xB0	; 176
    4650:	89 e3       	ldi	r24, 0x39	; 57
    4652:	9d e3       	ldi	r25, 0x3D	; 61
    4654:	66 dc       	rcall	.-1844   	; 0x3f22 <q15_from_double>
    4656:	b8 01       	movw	r22, r16
    4658:	0e 94 c7 0e 	call	0x1d8e	; 0x1d8e <q15_mul>
    465c:	8b a3       	std	Y+35, r24	; 0x23
    465e:	9c a3       	std	Y+36, r25	; 0x24
    4660:	6a e2       	ldi	r22, 0x2A	; 42
    4662:	7e ee       	ldi	r23, 0xEE	; 238
    4664:	87 e3       	ldi	r24, 0x37	; 55
    4666:	9c e3       	ldi	r25, 0x3C	; 60
    4668:	5c dc       	rcall	.-1864   	; 0x3f22 <q15_from_double>
    466a:	8f a3       	std	Y+39, r24	; 0x27
    466c:	98 a7       	std	Y+40, r25	; 0x28
    466e:	6e ef       	ldi	r22, 0xFE	; 254
    4670:	7a eb       	ldi	r23, 0xBA	; 186
    4672:	87 ed       	ldi	r24, 0xD7	; 215
    4674:	9c e3       	ldi	r25, 0x3C	; 60
    4676:	55 dc       	rcall	.-1878   	; 0x3f22 <q15_from_double>
    4678:	b8 01       	movw	r22, r16
    467a:	0e 94 c7 0e 	call	0x1d8e	; 0x1d8e <q15_mul>
    467e:	8b a7       	std	Y+43, r24	; 0x2b
    4680:	9c a7       	std	Y+44, r25	; 0x2c
    4682:	66 ea       	ldi	r22, 0xA6	; 166
    4684:	79 eb       	ldi	r23, 0xB9	; 185
    4686:	88 ea       	ldi	r24, 0xA8	; 168
    4688:	9c e3       	ldi	r25, 0x3C	; 60
    468a:	4b dc       	rcall	.-1898   	; 0x3f22 <q15_from_double>
    468c:	8f a7       	std	Y+47, r24	; 0x2f
    468e:	98 ab       	std	Y+48, r25	; 0x30
    4690:	62 e3       	ldi	r22, 0x32	; 50
    4692:	77 e8       	ldi	r23, 0x87	; 135
    4694:	8a ef       	ldi	r24, 0xFA	; 250
    4696:	9c e3       	ldi	r25, 0x3C	; 60
    4698:	44 dc       	rcall	.-1912   	; 0x3f22 <q15_from_double>
    469a:	b8 01       	movw	r22, r16
    469c:	0e 94 c7 0e 	call	0x1d8e	; 0x1d8e <q15_mul>
    46a0:	8b ab       	std	Y+51, r24	; 0x33
    46a2:	9c ab       	std	Y+52, r25	; 0x34
    46a4:	63 e8       	ldi	r22, 0x83	; 131
    46a6:	7e ec       	ldi	r23, 0xCE	; 206
    46a8:	86 e3       	ldi	r24, 0x36	; 54
    46aa:	9d e3       	ldi	r25, 0x3D	; 61
    46ac:	3a dc       	rcall	.-1932   	; 0x3f22 <q15_from_double>
    46ae:	8d ab       	std	Y+53, r24	; 0x35
    46b0:	9e ab       	std	Y+54, r25	; 0x36
    46b2:	6a ec       	ldi	r22, 0xCA	; 202
    46b4:	79 e9       	ldi	r23, 0x99	; 153
    46b6:	89 e9       	ldi	r24, 0x99	; 153
    46b8:	9d e3       	ldi	r25, 0x3D	; 61
    46ba:	33 dc       	rcall	.-1946   	; 0x3f22 <q15_from_double>
    46bc:	b8 01       	movw	r22, r16
    46be:	0e 94 c7 0e 	call	0x1d8e	; 0x1d8e <q15_mul>
    46c2:	8f ab       	std	Y+55, r24	; 0x37
    46c4:	98 af       	std	Y+56, r25	; 0x38
    46c6:	6a ea       	ldi	r22, 0xAA	; 170
    46c8:	7a ea       	ldi	r23, 0xAA	; 170
    46ca:	8a e2       	ldi	r24, 0x2A	; 42
    46cc:	9e e3       	ldi	r25, 0x3E	; 62
    46ce:	29 dc       	rcall	.-1966   	; 0x3f22 <q15_from_double>
    46d0:	4c 01       	movw	r8, r24
    46d2:	b5 01       	movw	r22, r10
    46d4:	8b a1       	ldd	r24, Y+35	; 0x23
    46d6:	9c a1       	ldd	r25, Y+36	; 0x24
    46d8:	4f a1       	ldd	r20, Y+39	; 0x27
    46da:	58 a5       	ldd	r21, Y+40	; 0x28
    46dc:	84 1b       	sub	r24, r20
    46de:	95 0b       	sbc	r25, r21
    46e0:	0e 94 c7 0e 	call	0x1d8e	; 0x1d8e <q15_mul>
    46e4:	2b a5       	ldd	r18, Y+43	; 0x2b
    46e6:	3c a5       	ldd	r19, Y+44	; 0x2c
    46e8:	af a5       	ldd	r26, Y+47	; 0x2f
    46ea:	b8 a9       	ldd	r27, Y+48	; 0x30
    46ec:	2a 0f       	add	r18, r26
    46ee:	3b 1f       	adc	r19, r27
    46f0:	b6 01       	movw	r22, r12
    46f2:	82 0f       	add	r24, r18
    46f4:	93 1f       	adc	r25, r19
    46f6:	0e 94 c7 0e 	call	0x1d8e	; 0x1d8e <q15_mul>
    46fa:	6c 01       	movw	r12, r24
    46fc:	b5 01       	movw	r22, r10
    46fe:	8b a9       	ldd	r24, Y+51	; 0x33
    4700:	9c a9       	ldd	r25, Y+52	; 0x34
    4702:	ed a9       	ldd	r30, Y+53	; 0x35
    4704:	fe a9       	ldd	r31, Y+54	; 0x36
    4706:	8e 0f       	add	r24, r30
    4708:	9f 1f       	adc	r25, r31
    470a:	0e 94 c7 0e 	call	0x1d8e	; 0x1d8e <q15_mul>
    470e:	8c 0d       	add	r24, r12
    4710:	9d 1d       	adc	r25, r13
    4712:	2f a9       	ldd	r18, Y+55	; 0x37
    4714:	38 ad       	ldd	r19, Y+56	; 0x38
    4716:	82 0e       	add	r8, r18
    4718:	93 1e       	adc	r9, r19
    471a:	b8 01       	movw	r22, r16
    471c:	88 0d       	add	r24, r8
    471e:	99 1d       	adc	r25, r9
    4720:	0e 94 c7 0e 	call	0x1d8e	; 0x1d8e <q15_mul>
    4724:	b7 01       	movw	r22, r14
    4726:	0e 94 c7 0e 	call	0x1d8e	; 0x1d8e <q15_mul>
    472a:	e8 0e       	add	r14, r24
    472c:	f9 1e       	adc	r15, r25
    472e:	f0 92 e6 01 	sts	0x01E6, r15	; 0x8001e6 <mpuTilt+0x1>
    4732:	e0 92 e5 01 	sts	0x01E5, r14	; 0x8001e5 <mpuTilt>
    4736:	80 91 e5 01 	lds	r24, 0x01E5	; 0x8001e5 <mpuTilt>
    473a:	90 91 e6 01 	lds	r25, 0x01E6	; 0x8001e6 <mpuTilt+0x1>
    473e:	8a 39       	cpi	r24, 0x9A	; 154
    4740:	39 e1       	ldi	r19, 0x19	; 25
    4742:	93 07       	cpc	r25, r19
    4744:	0c f4       	brge	.+2      	; 0x4748 <tickMPUTilt+0x62c>
    4746:	8e c0       	rjmp	.+284    	; 0x4864 <tickMPUTilt+0x748>
    4748:	89 e9       	ldi	r24, 0x99	; 153
    474a:	99 e1       	ldi	r25, 0x19	; 25
    474c:	90 93 e6 01 	sts	0x01E6, r25	; 0x8001e6 <mpuTilt+0x1>
    4750:	80 93 e5 01 	sts	0x01E5, r24	; 0x8001e5 <mpuTilt>
    4754:	20 91 e5 01 	lds	r18, 0x01E5	; 0x8001e5 <mpuTilt>
    4758:	30 91 e6 01 	lds	r19, 0x01E6	; 0x8001e6 <mpuTilt+0x1>
    475c:	45 e0       	ldi	r20, 0x05	; 5
    475e:	42 9f       	mul	r20, r18
    4760:	c0 01       	movw	r24, r0
    4762:	43 9f       	mul	r20, r19
    4764:	90 0d       	add	r25, r0
    4766:	11 24       	eor	r1, r1
    4768:	20 91 e1 03 	lds	r18, 0x03E1	; 0x8003e1 <tiltInverted>
    476c:	22 23       	and	r18, r18
    476e:	19 f0       	breq	.+6      	; 0x4776 <tickMPUTilt+0x65a>
    4770:	91 95       	neg	r25
    4772:	81 95       	neg	r24
    4774:	91 09       	sbc	r25, r1
    4776:	90 93 e6 01 	sts	0x01E6, r25	; 0x8001e6 <mpuTilt+0x1>
    477a:	80 93 e5 01 	sts	0x01E5, r24	; 0x8001e5 <mpuTilt>
    477e:	20 91 e5 01 	lds	r18, 0x01E5	; 0x8001e5 <mpuTilt>
    4782:	30 91 e6 01 	lds	r19, 0x01E6	; 0x8001e6 <mpuTilt+0x1>
    4786:	30 93 4b 02 	sts	0x024B, r19	; 0x80024b <analogueData+0xb>
    478a:	20 93 4a 02 	sts	0x024A, r18	; 0x80024a <analogueData+0xa>
    478e:	03 2e       	mov	r0, r19
    4790:	00 0c       	add	r0, r0
    4792:	44 0b       	sbc	r20, r20
    4794:	55 0b       	sbc	r21, r21
    4796:	80 91 e4 03 	lds	r24, 0x03E4	; 0x8003e4 <scale+0x2>
    479a:	90 91 e5 03 	lds	r25, 0x03E5	; 0x8003e5 <scale+0x3>
    479e:	09 2e       	mov	r0, r25
    47a0:	00 0c       	add	r0, r0
    47a2:	aa 0b       	sbc	r26, r26
    47a4:	bb 0b       	sbc	r27, r27
    47a6:	28 1b       	sub	r18, r24
    47a8:	39 0b       	sbc	r19, r25
    47aa:	4a 0b       	sbc	r20, r26
    47ac:	5b 0b       	sbc	r21, r27
    47ae:	a0 91 e2 03 	lds	r26, 0x03E2	; 0x8003e2 <scale>
    47b2:	b0 91 e3 03 	lds	r27, 0x03E3	; 0x8003e3 <scale+0x1>
    47b6:	0e 94 e3 2b 	call	0x57c6	; 0x57c6 <__mulshisi3>
    47ba:	20 e0       	ldi	r18, 0x00	; 0
    47bc:	34 e0       	ldi	r19, 0x04	; 4
    47be:	40 e0       	ldi	r20, 0x00	; 0
    47c0:	50 e0       	ldi	r21, 0x00	; 0
    47c2:	b9 d7       	rcall	.+3954   	; 0x5736 <__divmodsi4>
    47c4:	da 01       	movw	r26, r20
    47c6:	c9 01       	movw	r24, r18
    47c8:	90 58       	subi	r25, 0x80	; 128
    47ca:	a1 09       	sbc	r26, r1
    47cc:	b1 09       	sbc	r27, r1
    47ce:	81 15       	cp	r24, r1
    47d0:	50 e8       	ldi	r21, 0x80	; 128
    47d2:	95 07       	cpc	r25, r21
    47d4:	5f ef       	ldi	r21, 0xFF	; 255
    47d6:	a5 07       	cpc	r26, r21
    47d8:	b5 07       	cpc	r27, r21
    47da:	24 f4       	brge	.+8      	; 0x47e4 <tickMPUTilt+0x6c8>
    47dc:	80 e0       	ldi	r24, 0x00	; 0
    47de:	90 e8       	ldi	r25, 0x80	; 128
    47e0:	af ef       	ldi	r26, 0xFF	; 255
    47e2:	bf ef       	ldi	r27, 0xFF	; 255
    47e4:	81 15       	cp	r24, r1
    47e6:	e0 e8       	ldi	r30, 0x80	; 128
    47e8:	9e 07       	cpc	r25, r30
    47ea:	a1 05       	cpc	r26, r1
    47ec:	b1 05       	cpc	r27, r1
    47ee:	24 f0       	brlt	.+8      	; 0x47f8 <tickMPUTilt+0x6dc>
    47f0:	8f ef       	ldi	r24, 0xFF	; 255
    47f2:	9f e7       	ldi	r25, 0x7F	; 127
    47f4:	a0 e0       	ldi	r26, 0x00	; 0
    47f6:	b0 e0       	ldi	r27, 0x00	; 0
    47f8:	e9 ad       	ldd	r30, Y+57	; 0x39
    47fa:	fa ad       	ldd	r31, Y+58	; 0x3a
    47fc:	93 87       	std	Z+11, r25	; 0x0b
    47fe:	82 87       	std	Z+10, r24	; 0x0a
    4800:	ea 96       	adiw	r28, 0x3a	; 58
    4802:	0f b6       	in	r0, 0x3f	; 63
    4804:	f8 94       	cli
    4806:	de bf       	out	0x3e, r29	; 62
    4808:	0f be       	out	0x3f, r0	; 63
    480a:	cd bf       	out	0x3d, r28	; 61
    480c:	df 91       	pop	r29
    480e:	cf 91       	pop	r28
    4810:	1f 91       	pop	r17
    4812:	0f 91       	pop	r16
    4814:	ff 90       	pop	r15
    4816:	ef 90       	pop	r14
    4818:	df 90       	pop	r13
    481a:	cf 90       	pop	r12
    481c:	bf 90       	pop	r11
    481e:	af 90       	pop	r10
    4820:	9f 90       	pop	r9
    4822:	8f 90       	pop	r8
    4824:	08 95       	ret
    4826:	cc 9c       	mul	r12, r12
    4828:	c0 01       	movw	r24, r0
    482a:	cd 9c       	mul	r12, r13
    482c:	90 0d       	add	r25, r0
    482e:	90 0d       	add	r25, r0
    4830:	11 24       	eor	r1, r1
    4832:	8e 0f       	add	r24, r30
    4834:	9f 1f       	adc	r25, r31
    4836:	88 0f       	add	r24, r24
    4838:	99 1f       	adc	r25, r25
    483a:	e0 e0       	ldi	r30, 0x00	; 0
    483c:	f0 e8       	ldi	r31, 0x80	; 128
    483e:	e8 1b       	sub	r30, r24
    4840:	f9 0b       	sbc	r31, r25
    4842:	8c 9c       	mul	r8, r12
    4844:	d0 01       	movw	r26, r0
    4846:	8d 9c       	mul	r8, r13
    4848:	b0 0d       	add	r27, r0
    484a:	9c 9c       	mul	r9, r12
    484c:	b0 0d       	add	r27, r0
    484e:	11 24       	eor	r1, r1
    4850:	04 9f       	mul	r16, r20
    4852:	c0 01       	movw	r24, r0
    4854:	05 9f       	mul	r16, r21
    4856:	90 0d       	add	r25, r0
    4858:	14 9f       	mul	r17, r20
    485a:	90 0d       	add	r25, r0
    485c:	11 24       	eor	r1, r1
    485e:	8a 0f       	add	r24, r26
    4860:	9b 1f       	adc	r25, r27
    4862:	24 cd       	rjmp	.-1464   	; 0x42ac <tickMPUTilt+0x190>
    4864:	87 36       	cpi	r24, 0x67	; 103
    4866:	96 4e       	sbci	r25, 0xE6	; 230
    4868:	0c f0       	brlt	.+2      	; 0x486c <tickMPUTilt+0x750>
    486a:	74 cf       	rjmp	.-280    	; 0x4754 <tickMPUTilt+0x638>
    486c:	87 e6       	ldi	r24, 0x67	; 103
    486e:	96 ee       	ldi	r25, 0xE6	; 230
    4870:	6d cf       	rjmp	.-294    	; 0x474c <tickMPUTilt+0x630>

00004872 <readNunchukExt>:
    4872:	8f 92       	push	r8
    4874:	9f 92       	push	r9
    4876:	af 92       	push	r10
    4878:	bf 92       	push	r11
    487a:	cf 92       	push	r12
    487c:	df 92       	push	r13
    487e:	ef 92       	push	r14
    4880:	ff 92       	push	r15
    4882:	0f 93       	push	r16
    4884:	1f 93       	push	r17
    4886:	cf 93       	push	r28
    4888:	df 93       	push	r29
    488a:	8c 01       	movw	r16, r24
    488c:	eb 01       	movw	r28, r22
    488e:	88 81       	ld	r24, Y
    4890:	80 58       	subi	r24, 0x80	; 128
    4892:	99 0b       	sbc	r25, r25
    4894:	f8 01       	movw	r30, r16
    4896:	14 82       	std	Z+4, r1	; 0x04
    4898:	85 83       	std	Z+5, r24	; 0x05
    489a:	89 81       	ldd	r24, Y+1	; 0x01
    489c:	80 58       	subi	r24, 0x80	; 128
    489e:	99 0b       	sbc	r25, r25
    48a0:	16 82       	std	Z+6, r1	; 0x06
    48a2:	87 83       	std	Z+7, r24	; 0x07
    48a4:	80 91 cb 02 	lds	r24, 0x02CB	; 0x8002cb <mapNunchukAccelToRightJoy>
    48a8:	88 23       	and	r24, r24
    48aa:	09 f4       	brne	.+2      	; 0x48ae <readNunchukExt+0x3c>
    48ac:	3e c0       	rjmp	.+124    	; 0x492a <readNunchukExt+0xb8>
    48ae:	2d 81       	ldd	r18, Y+5	; 0x05
    48b0:	82 2f       	mov	r24, r18
    48b2:	90 e0       	ldi	r25, 0x00	; 0
    48b4:	cb 80       	ldd	r12, Y+3	; 0x03
    48b6:	f4 e0       	ldi	r31, 0x04	; 4
    48b8:	cf 9e       	mul	r12, r31
    48ba:	60 01       	movw	r12, r0
    48bc:	11 24       	eor	r1, r1
    48be:	ac 01       	movw	r20, r24
    48c0:	34 e0       	ldi	r19, 0x04	; 4
    48c2:	55 95       	asr	r21
    48c4:	47 95       	ror	r20
    48c6:	3a 95       	dec	r19
    48c8:	e1 f7       	brne	.-8      	; 0x48c2 <readNunchukExt+0x50>
    48ca:	43 70       	andi	r20, 0x03	; 3
    48cc:	55 27       	eor	r21, r21
    48ce:	c4 2a       	or	r12, r20
    48d0:	d5 2a       	or	r13, r21
    48d2:	3f ef       	ldi	r19, 0xFF	; 255
    48d4:	c3 1a       	sub	r12, r19
    48d6:	31 e0       	ldi	r19, 0x01	; 1
    48d8:	d3 0a       	sbc	r13, r19
    48da:	ec 80       	ldd	r14, Y+4	; 0x04
    48dc:	e4 e0       	ldi	r30, 0x04	; 4
    48de:	ee 9e       	mul	r14, r30
    48e0:	70 01       	movw	r14, r0
    48e2:	11 24       	eor	r1, r1
    48e4:	95 95       	asr	r25
    48e6:	87 95       	ror	r24
    48e8:	95 95       	asr	r25
    48ea:	87 95       	ror	r24
    48ec:	83 70       	andi	r24, 0x03	; 3
    48ee:	99 27       	eor	r25, r25
    48f0:	e8 2a       	or	r14, r24
    48f2:	f9 2a       	or	r15, r25
    48f4:	ff ef       	ldi	r31, 0xFF	; 255
    48f6:	ef 1a       	sub	r14, r31
    48f8:	f1 e0       	ldi	r31, 0x01	; 1
    48fa:	ff 0a       	sbc	r15, r31
    48fc:	8a 81       	ldd	r24, Y+2	; 0x02
    48fe:	34 e0       	ldi	r19, 0x04	; 4
    4900:	83 9f       	mul	r24, r19
    4902:	c0 01       	movw	r24, r0
    4904:	11 24       	eor	r1, r1
    4906:	22 95       	swap	r18
    4908:	26 95       	lsr	r18
    490a:	26 95       	lsr	r18
    490c:	23 70       	andi	r18, 0x03	; 3
    490e:	82 2b       	or	r24, r18
    4910:	b7 01       	movw	r22, r14
    4912:	8f 5f       	subi	r24, 0xFF	; 255
    4914:	91 40       	sbci	r25, 0x01	; 1
    4916:	2b db       	rcall	.-2474   	; 0x3f6e <fxpt_atan2>
    4918:	f8 01       	movw	r30, r16
    491a:	91 87       	std	Z+9, r25	; 0x09
    491c:	80 87       	std	Z+8, r24	; 0x08
    491e:	b7 01       	movw	r22, r14
    4920:	c6 01       	movw	r24, r12
    4922:	25 db       	rcall	.-2486   	; 0x3f6e <fxpt_atan2>
    4924:	f8 01       	movw	r30, r16
    4926:	93 87       	std	Z+11, r25	; 0x0b
    4928:	82 87       	std	Z+10, r24	; 0x0a
    492a:	8d 81       	ldd	r24, Y+5	; 0x05
    492c:	98 2f       	mov	r25, r24
    492e:	90 95       	com	r25
    4930:	91 70       	andi	r25, 0x01	; 1
    4932:	b9 2e       	mov	r11, r25
    4934:	b2 94       	swap	r11
    4936:	90 ef       	ldi	r25, 0xF0	; 240
    4938:	b9 22       	and	r11, r25
    493a:	a1 2c       	mov	r10, r1
    493c:	86 95       	lsr	r24
    493e:	91 e0       	ldi	r25, 0x01	; 1
    4940:	89 27       	eor	r24, r25
    4942:	81 70       	andi	r24, 0x01	; 1
    4944:	98 2e       	mov	r9, r24
    4946:	92 94       	swap	r9
    4948:	99 0c       	add	r9, r9
    494a:	99 0c       	add	r9, r9
    494c:	20 ec       	ldi	r18, 0xC0	; 192
    494e:	92 22       	and	r9, r18
    4950:	81 2c       	mov	r8, r1
    4952:	a8 28       	or	r10, r8
    4954:	b9 28       	or	r11, r9
    4956:	b0 92 c4 01 	sts	0x01C4, r11	; 0x8001c4 <buttons+0x1>
    495a:	a0 92 c3 01 	sts	0x01C3, r10	; 0x8001c3 <buttons>
    495e:	df 91       	pop	r29
    4960:	cf 91       	pop	r28
    4962:	1f 91       	pop	r17
    4964:	0f 91       	pop	r16
    4966:	ff 90       	pop	r15
    4968:	ef 90       	pop	r14
    496a:	df 90       	pop	r13
    496c:	cf 90       	pop	r12
    496e:	bf 90       	pop	r11
    4970:	af 90       	pop	r10
    4972:	9f 90       	pop	r9
    4974:	8f 90       	pop	r8
    4976:	08 95       	ret

00004978 <__vector_2>:
    4978:	1f 92       	push	r1
    497a:	0f 92       	push	r0
    497c:	0f b6       	in	r0, 0x3f	; 63
    497e:	0f 92       	push	r0
    4980:	11 24       	eor	r1, r1
    4982:	2f 93       	push	r18
    4984:	3f 93       	push	r19
    4986:	4f 93       	push	r20
    4988:	5f 93       	push	r21
    498a:	6f 93       	push	r22
    498c:	7f 93       	push	r23
    498e:	8f 93       	push	r24
    4990:	9f 93       	push	r25
    4992:	af 93       	push	r26
    4994:	bf 93       	push	r27
    4996:	ef 93       	push	r30
    4998:	ff 93       	push	r31
    499a:	cf 93       	push	r28
    499c:	df 93       	push	r29
    499e:	00 d0       	rcall	.+0      	; 0x49a0 <__vector_2+0x28>
    49a0:	00 d0       	rcall	.+0      	; 0x49a2 <__vector_2+0x2a>
    49a2:	cd b7       	in	r28, 0x3d	; 61
    49a4:	de b7       	in	r29, 0x3e	; 62
    49a6:	83 b7       	in	r24, 0x33	; 51
    49a8:	8e 7f       	andi	r24, 0xFE	; 254
    49aa:	83 bf       	out	0x33, r24	; 51
    49ac:	e4 e6       	ldi	r30, 0x64	; 100
    49ae:	f0 e0       	ldi	r31, 0x00	; 0
    49b0:	80 81       	ld	r24, Z
    49b2:	80 71       	andi	r24, 0x10	; 16
    49b4:	80 83       	st	Z, r24
    49b6:	0e 94 5c 0c 	call	0x18b8	; 0x18b8 <setupADC>
    49ba:	e4 e0       	ldi	r30, 0x04	; 4
    49bc:	fb e7       	ldi	r31, 0x7B	; 123
    49be:	25 91       	lpm	r18, Z+
    49c0:	35 91       	lpm	r19, Z+
    49c2:	45 91       	lpm	r20, Z+
    49c4:	54 91       	lpm	r21, Z
    49c6:	e0 e0       	ldi	r30, 0x00	; 0
    49c8:	fb e7       	ldi	r31, 0x7B	; 123
    49ca:	85 91       	lpm	r24, Z+
    49cc:	95 91       	lpm	r25, Z+
    49ce:	a5 91       	lpm	r26, Z+
    49d0:	b4 91       	lpm	r27, Z
    49d2:	89 83       	std	Y+1, r24	; 0x01
    49d4:	9a 83       	std	Y+2, r25	; 0x02
    49d6:	ab 83       	std	Y+3, r26	; 0x03
    49d8:	bc 83       	std	Y+4, r27	; 0x04
    49da:	bc 01       	movw	r22, r24
    49dc:	cd 01       	movw	r24, r26
    49de:	0e 94 23 13 	call	0x2646	; 0x2646 <initRF.constprop.0>
    49e2:	e9 e6       	ldi	r30, 0x69	; 105
    49e4:	f0 e0       	ldi	r31, 0x00	; 0
    49e6:	80 81       	ld	r24, Z
    49e8:	87 7f       	andi	r24, 0xF7	; 247
    49ea:	80 83       	st	Z, r24
    49ec:	e9 98       	cbi	0x1d, 1	; 29
    49ee:	0f 90       	pop	r0
    49f0:	0f 90       	pop	r0
    49f2:	0f 90       	pop	r0
    49f4:	0f 90       	pop	r0
    49f6:	df 91       	pop	r29
    49f8:	cf 91       	pop	r28
    49fa:	ff 91       	pop	r31
    49fc:	ef 91       	pop	r30
    49fe:	bf 91       	pop	r27
    4a00:	af 91       	pop	r26
    4a02:	9f 91       	pop	r25
    4a04:	8f 91       	pop	r24
    4a06:	7f 91       	pop	r23
    4a08:	6f 91       	pop	r22
    4a0a:	5f 91       	pop	r21
    4a0c:	4f 91       	pop	r20
    4a0e:	3f 91       	pop	r19
    4a10:	2f 91       	pop	r18
    4a12:	0f 90       	pop	r0
    4a14:	0f be       	out	0x3f, r0	; 63
    4a16:	0f 90       	pop	r0
    4a18:	1f 90       	pop	r1
    4a1a:	18 95       	reti

00004a1c <__vector_16>:
    4a1c:	1f 92       	push	r1
    4a1e:	1f b6       	in	r1, 0x3f	; 63
    4a20:	1f 92       	push	r1
    4a22:	11 24       	eor	r1, r1
    4a24:	8f 93       	push	r24
    4a26:	9f 93       	push	r25
    4a28:	af 93       	push	r26
    4a2a:	bf 93       	push	r27
    4a2c:	80 91 34 02 	lds	r24, 0x0234	; 0x800234 <timer0_overflow_count>
    4a30:	90 91 35 02 	lds	r25, 0x0235	; 0x800235 <timer0_overflow_count+0x1>
    4a34:	a0 91 36 02 	lds	r26, 0x0236	; 0x800236 <timer0_overflow_count+0x2>
    4a38:	b0 91 37 02 	lds	r27, 0x0237	; 0x800237 <timer0_overflow_count+0x3>
    4a3c:	01 96       	adiw	r24, 0x01	; 1
    4a3e:	a1 1d       	adc	r26, r1
    4a40:	b1 1d       	adc	r27, r1
    4a42:	80 93 34 02 	sts	0x0234, r24	; 0x800234 <timer0_overflow_count>
    4a46:	90 93 35 02 	sts	0x0235, r25	; 0x800235 <timer0_overflow_count+0x1>
    4a4a:	a0 93 36 02 	sts	0x0236, r26	; 0x800236 <timer0_overflow_count+0x2>
    4a4e:	b0 93 37 02 	sts	0x0237, r27	; 0x800237 <timer0_overflow_count+0x3>
    4a52:	bf 91       	pop	r27
    4a54:	af 91       	pop	r26
    4a56:	9f 91       	pop	r25
    4a58:	8f 91       	pop	r24
    4a5a:	1f 90       	pop	r1
    4a5c:	1f be       	out	0x3f, r1	; 63
    4a5e:	1f 90       	pop	r1
    4a60:	18 95       	reti

00004a62 <__vector_24>:
    4a62:	1f 92       	push	r1
    4a64:	0f 92       	push	r0
    4a66:	0f b6       	in	r0, 0x3f	; 63
    4a68:	0f 92       	push	r0
    4a6a:	11 24       	eor	r1, r1
    4a6c:	2f 93       	push	r18
    4a6e:	3f 93       	push	r19
    4a70:	4f 93       	push	r20
    4a72:	5f 93       	push	r21
    4a74:	6f 93       	push	r22
    4a76:	7f 93       	push	r23
    4a78:	8f 93       	push	r24
    4a7a:	9f 93       	push	r25
    4a7c:	af 93       	push	r26
    4a7e:	bf 93       	push	r27
    4a80:	ef 93       	push	r30
    4a82:	ff 93       	push	r31
    4a84:	80 91 b9 00 	lds	r24, 0x00B9	; 0x8000b9 <__TEXT_REGION_LENGTH__+0x7e00b9>
    4a88:	88 7f       	andi	r24, 0xF8	; 248
    4a8a:	88 33       	cpi	r24, 0x38	; 56
    4a8c:	09 f4       	brne	.+2      	; 0x4a90 <__vector_24+0x2e>
    4a8e:	61 c0       	rjmp	.+194    	; 0x4b52 <__vector_24+0xf0>
    4a90:	b8 f5       	brcc	.+110    	; 0x4b00 <__vector_24+0x9e>
    4a92:	80 32       	cpi	r24, 0x20	; 32
    4a94:	91 f1       	breq	.+100    	; 0x4afa <__vector_24+0x98>
    4a96:	68 f5       	brcc	.+90     	; 0x4af2 <__vector_24+0x90>
    4a98:	88 30       	cpi	r24, 0x08	; 8
    4a9a:	09 f4       	brne	.+2      	; 0x4a9e <__vector_24+0x3c>
    4a9c:	52 c0       	rjmp	.+164    	; 0x4b42 <__vector_24+0xe0>
    4a9e:	a0 f4       	brcc	.+40     	; 0x4ac8 <__vector_24+0x66>
    4aa0:	88 23       	and	r24, r24
    4aa2:	09 f4       	brne	.+2      	; 0x4aa6 <__vector_24+0x44>
    4aa4:	72 c0       	rjmp	.+228    	; 0x4b8a <__vector_24+0x128>
    4aa6:	ff 91       	pop	r31
    4aa8:	ef 91       	pop	r30
    4aaa:	bf 91       	pop	r27
    4aac:	af 91       	pop	r26
    4aae:	9f 91       	pop	r25
    4ab0:	8f 91       	pop	r24
    4ab2:	7f 91       	pop	r23
    4ab4:	6f 91       	pop	r22
    4ab6:	5f 91       	pop	r21
    4ab8:	4f 91       	pop	r20
    4aba:	3f 91       	pop	r19
    4abc:	2f 91       	pop	r18
    4abe:	0f 90       	pop	r0
    4ac0:	0f be       	out	0x3f, r0	; 63
    4ac2:	0f 90       	pop	r0
    4ac4:	1f 90       	pop	r1
    4ac6:	18 95       	reti
    4ac8:	80 31       	cpi	r24, 0x10	; 16
    4aca:	d9 f1       	breq	.+118    	; 0x4b42 <__vector_24+0xe0>
    4acc:	88 31       	cpi	r24, 0x18	; 24
    4ace:	59 f7       	brne	.-42     	; 0x4aa6 <__vector_24+0x44>
    4ad0:	90 91 1c 02 	lds	r25, 0x021C	; 0x80021c <twi_masterBufferIndex>
    4ad4:	80 91 1b 02 	lds	r24, 0x021B	; 0x80021b <twi_masterBufferLength>
    4ad8:	98 17       	cp	r25, r24
    4ada:	50 f5       	brcc	.+84     	; 0x4b30 <__vector_24+0xce>
    4adc:	e0 91 1c 02 	lds	r30, 0x021C	; 0x80021c <twi_masterBufferIndex>
    4ae0:	81 e0       	ldi	r24, 0x01	; 1
    4ae2:	8e 0f       	add	r24, r30
    4ae4:	80 93 1c 02 	sts	0x021C, r24	; 0x80021c <twi_masterBufferIndex>
    4ae8:	f0 e0       	ldi	r31, 0x00	; 0
    4aea:	e5 50       	subi	r30, 0x05	; 5
    4aec:	fe 4f       	sbci	r31, 0xFE	; 254
    4aee:	80 81       	ld	r24, Z
    4af0:	2a c0       	rjmp	.+84     	; 0x4b46 <__vector_24+0xe4>
    4af2:	88 32       	cpi	r24, 0x28	; 40
    4af4:	69 f3       	breq	.-38     	; 0x4ad0 <__vector_24+0x6e>
    4af6:	80 33       	cpi	r24, 0x30	; 48
    4af8:	b1 f6       	brne	.-84     	; 0x4aa6 <__vector_24+0x44>
    4afa:	80 93 fa 01 	sts	0x01FA, r24	; 0x8001fa <twi_error>
    4afe:	07 c0       	rjmp	.+14     	; 0x4b0e <__vector_24+0xac>
    4b00:	80 35       	cpi	r24, 0x50	; 80
    4b02:	79 f1       	breq	.+94     	; 0x4b62 <__vector_24+0x100>
    4b04:	38 f4       	brcc	.+14     	; 0x4b14 <__vector_24+0xb2>
    4b06:	80 34       	cpi	r24, 0x40	; 64
    4b08:	c1 f1       	breq	.+112    	; 0x4b7a <__vector_24+0x118>
    4b0a:	88 34       	cpi	r24, 0x48	; 72
    4b0c:	61 f6       	brne	.-104    	; 0x4aa6 <__vector_24+0x44>
    4b0e:	0e 94 9c 0f 	call	0x1f38	; 0x1f38 <twi_stop.isra.0>
    4b12:	c9 cf       	rjmp	.-110    	; 0x4aa6 <__vector_24+0x44>
    4b14:	88 35       	cpi	r24, 0x58	; 88
    4b16:	39 f6       	brne	.-114    	; 0x4aa6 <__vector_24+0x44>
    4b18:	e0 91 1c 02 	lds	r30, 0x021C	; 0x80021c <twi_masterBufferIndex>
    4b1c:	81 e0       	ldi	r24, 0x01	; 1
    4b1e:	8e 0f       	add	r24, r30
    4b20:	80 93 1c 02 	sts	0x021C, r24	; 0x80021c <twi_masterBufferIndex>
    4b24:	80 91 bb 00 	lds	r24, 0x00BB	; 0x8000bb <__TEXT_REGION_LENGTH__+0x7e00bb>
    4b28:	f0 e0       	ldi	r31, 0x00	; 0
    4b2a:	e5 50       	subi	r30, 0x05	; 5
    4b2c:	fe 4f       	sbci	r31, 0xFE	; 254
    4b2e:	80 83       	st	Z, r24
    4b30:	80 91 e8 02 	lds	r24, 0x02E8	; 0x8002e8 <twi_sendStop>
    4b34:	81 11       	cpse	r24, r1
    4b36:	eb cf       	rjmp	.-42     	; 0x4b0e <__vector_24+0xac>
    4b38:	81 e0       	ldi	r24, 0x01	; 1
    4b3a:	80 93 e7 02 	sts	0x02E7, r24	; 0x8002e7 <twi_inRepStart>
    4b3e:	84 ea       	ldi	r24, 0xA4	; 164
    4b40:	0b c0       	rjmp	.+22     	; 0x4b58 <__vector_24+0xf6>
    4b42:	80 91 1d 02 	lds	r24, 0x021D	; 0x80021d <twi_slarw>
    4b46:	80 93 bb 00 	sts	0x00BB, r24	; 0x8000bb <__TEXT_REGION_LENGTH__+0x7e00bb>
    4b4a:	85 ec       	ldi	r24, 0xC5	; 197
    4b4c:	80 93 bc 00 	sts	0x00BC, r24	; 0x8000bc <__TEXT_REGION_LENGTH__+0x7e00bc>
    4b50:	aa cf       	rjmp	.-172    	; 0x4aa6 <__vector_24+0x44>
    4b52:	80 93 fa 01 	sts	0x01FA, r24	; 0x8001fa <twi_error>
    4b56:	85 ec       	ldi	r24, 0xC5	; 197
    4b58:	80 93 bc 00 	sts	0x00BC, r24	; 0x8000bc <__TEXT_REGION_LENGTH__+0x7e00bc>
    4b5c:	10 92 e9 02 	sts	0x02E9, r1	; 0x8002e9 <twi_state>
    4b60:	a2 cf       	rjmp	.-188    	; 0x4aa6 <__vector_24+0x44>
    4b62:	e0 91 1c 02 	lds	r30, 0x021C	; 0x80021c <twi_masterBufferIndex>
    4b66:	81 e0       	ldi	r24, 0x01	; 1
    4b68:	8e 0f       	add	r24, r30
    4b6a:	80 93 1c 02 	sts	0x021C, r24	; 0x80021c <twi_masterBufferIndex>
    4b6e:	80 91 bb 00 	lds	r24, 0x00BB	; 0x8000bb <__TEXT_REGION_LENGTH__+0x7e00bb>
    4b72:	f0 e0       	ldi	r31, 0x00	; 0
    4b74:	e5 50       	subi	r30, 0x05	; 5
    4b76:	fe 4f       	sbci	r31, 0xFE	; 254
    4b78:	80 83       	st	Z, r24
    4b7a:	90 91 1c 02 	lds	r25, 0x021C	; 0x80021c <twi_masterBufferIndex>
    4b7e:	80 91 1b 02 	lds	r24, 0x021B	; 0x80021b <twi_masterBufferLength>
    4b82:	98 17       	cp	r25, r24
    4b84:	10 f3       	brcs	.-60     	; 0x4b4a <__vector_24+0xe8>
    4b86:	85 e8       	ldi	r24, 0x85	; 133
    4b88:	e1 cf       	rjmp	.-62     	; 0x4b4c <__vector_24+0xea>
    4b8a:	10 92 fa 01 	sts	0x01FA, r1	; 0x8001fa <twi_error>
    4b8e:	bf cf       	rjmp	.-130    	; 0x4b0e <__vector_24+0xac>

00004b90 <__vector_1>:
    4b90:	8f 93       	push	r24
    4b92:	81 e0       	ldi	r24, 0x01	; 1
    4b94:	80 93 8c 02 	sts	0x028C, r24	; 0x80028c <rf_interrupt>
    4b98:	8f 91       	pop	r24
    4b9a:	18 95       	reti

00004b9c <main>:
    4b9c:	cd b7       	in	r28, 0x3d	; 61
    4b9e:	de b7       	in	r29, 0x3e	; 62
    4ba0:	cc 54       	subi	r28, 0x4C	; 76
    4ba2:	d1 09       	sbc	r29, r1
    4ba4:	0f b6       	in	r0, 0x3f	; 63
    4ba6:	f8 94       	cli
    4ba8:	de bf       	out	0x3e, r29	; 62
    4baa:	0f be       	out	0x3f, r0	; 63
    4bac:	cd bf       	out	0x3d, r28	; 61
    4bae:	0e 94 89 19 	call	0x3312	; 0x3312 <initialise>
    4bb2:	e4 e0       	ldi	r30, 0x04	; 4
    4bb4:	fb e7       	ldi	r31, 0x7B	; 123
    4bb6:	25 91       	lpm	r18, Z+
    4bb8:	35 91       	lpm	r19, Z+
    4bba:	45 91       	lpm	r20, Z+
    4bbc:	54 91       	lpm	r21, Z
    4bbe:	e0 e0       	ldi	r30, 0x00	; 0
    4bc0:	fb e7       	ldi	r31, 0x7B	; 123
    4bc2:	85 91       	lpm	r24, Z+
    4bc4:	95 91       	lpm	r25, Z+
    4bc6:	a5 91       	lpm	r26, Z+
    4bc8:	b4 91       	lpm	r27, Z
    4bca:	bc 01       	movw	r22, r24
    4bcc:	cd 01       	movw	r24, r26
    4bce:	0e 94 23 13 	call	0x2646	; 0x2646 <initRF.constprop.0>
    4bd2:	0e 94 4c 09 	call	0x1298	; 0x1298 <millis>
    4bd6:	22 96       	adiw	r28, 0x02	; 2
    4bd8:	6f af       	std	Y+63, r22	; 0x3f
    4bda:	22 97       	sbiw	r28, 0x02	; 2
    4bdc:	23 96       	adiw	r28, 0x03	; 3
    4bde:	7f af       	std	Y+63, r23	; 0x3f
    4be0:	23 97       	sbiw	r28, 0x03	; 3
    4be2:	24 96       	adiw	r28, 0x04	; 4
    4be4:	8f af       	std	Y+63, r24	; 0x3f
    4be6:	24 97       	sbiw	r28, 0x04	; 4
    4be8:	25 96       	adiw	r28, 0x05	; 5
    4bea:	9f af       	std	Y+63, r25	; 0x3f
    4bec:	25 97       	sbiw	r28, 0x05	; 5
    4bee:	2d 96       	adiw	r28, 0x0d	; 13
    4bf0:	1c ae       	std	Y+60, r1	; 0x3c
    4bf2:	1d ae       	std	Y+61, r1	; 0x3d
    4bf4:	1e ae       	std	Y+62, r1	; 0x3e
    4bf6:	1f ae       	std	Y+63, r1	; 0x3f
    4bf8:	2d 97       	sbiw	r28, 0x0d	; 13
    4bfa:	0e 94 4c 09 	call	0x1298	; 0x1298 <millis>
    4bfe:	29 96       	adiw	r28, 0x09	; 9
    4c00:	6c af       	std	Y+60, r22	; 0x3c
    4c02:	7d af       	std	Y+61, r23	; 0x3d
    4c04:	8e af       	std	Y+62, r24	; 0x3e
    4c06:	9f af       	std	Y+63, r25	; 0x3f
    4c08:	29 97       	sbiw	r28, 0x09	; 9
    4c0a:	dc 01       	movw	r26, r24
    4c0c:	cb 01       	movw	r24, r22
    4c0e:	25 96       	adiw	r28, 0x05	; 5
    4c10:	2c ad       	ldd	r18, Y+60	; 0x3c
    4c12:	3d ad       	ldd	r19, Y+61	; 0x3d
    4c14:	4e ad       	ldd	r20, Y+62	; 0x3e
    4c16:	5f ad       	ldd	r21, Y+63	; 0x3f
    4c18:	25 97       	sbiw	r28, 0x05	; 5
    4c1a:	82 1b       	sub	r24, r18
    4c1c:	93 0b       	sbc	r25, r19
    4c1e:	a4 0b       	sbc	r26, r20
    4c20:	b5 0b       	sbc	r27, r21
    4c22:	81 3c       	cpi	r24, 0xC1	; 193
    4c24:	97 42       	sbci	r25, 0x27	; 39
    4c26:	a9 40       	sbci	r26, 0x09	; 9
    4c28:	b1 05       	cpc	r27, r1
    4c2a:	c0 f1       	brcs	.+112    	; 0x4c9c <main+0x100>
    4c2c:	0e 94 4c 09 	call	0x1298	; 0x1298 <millis>
    4c30:	22 96       	adiw	r28, 0x02	; 2
    4c32:	6f af       	std	Y+63, r22	; 0x3f
    4c34:	22 97       	sbiw	r28, 0x02	; 2
    4c36:	23 96       	adiw	r28, 0x03	; 3
    4c38:	7f af       	std	Y+63, r23	; 0x3f
    4c3a:	23 97       	sbiw	r28, 0x03	; 3
    4c3c:	24 96       	adiw	r28, 0x04	; 4
    4c3e:	8f af       	std	Y+63, r24	; 0x3f
    4c40:	24 97       	sbiw	r28, 0x04	; 4
    4c42:	25 96       	adiw	r28, 0x05	; 5
    4c44:	9f af       	std	Y+63, r25	; 0x3f
    4c46:	25 97       	sbiw	r28, 0x05	; 5
    4c48:	10 92 7a 00 	sts	0x007A, r1	; 0x80007a <__TEXT_REGION_LENGTH__+0x7e007a>
    4c4c:	60 e0       	ldi	r22, 0x00	; 0
    4c4e:	88 e0       	ldi	r24, 0x08	; 8
    4c50:	0e 94 4f 0b 	call	0x169e	; 0x169e <digitalWrite>
    4c54:	19 82       	std	Y+1, r1	; 0x01
    4c56:	be 01       	movw	r22, r28
    4c58:	6f 5f       	subi	r22, 0xFF	; 255
    4c5a:	7f 4f       	sbci	r23, 0xFF	; 255
    4c5c:	80 e0       	ldi	r24, 0x00	; 0
    4c5e:	0e 94 1d 0f 	call	0x1e3a	; 0x1e3a <nrf24_readRegister.constprop.0>
    4c62:	69 81       	ldd	r22, Y+1	; 0x01
    4c64:	6d 7f       	andi	r22, 0xFD	; 253
    4c66:	69 83       	std	Y+1, r22	; 0x01
    4c68:	80 e0       	ldi	r24, 0x00	; 0
    4c6a:	0e 94 b8 0e 	call	0x1d70	; 0x1d70 <nrf24_configRegister>
    4c6e:	80 91 64 00 	lds	r24, 0x0064	; 0x800064 <__TEXT_REGION_LENGTH__+0x7e0064>
    4c72:	8f 6e       	ori	r24, 0xEF	; 239
    4c74:	80 93 64 00 	sts	0x0064, r24	; 0x800064 <__TEXT_REGION_LENGTH__+0x7e0064>
    4c78:	83 b7       	in	r24, 0x33	; 51
    4c7a:	81 7f       	andi	r24, 0xF1	; 241
    4c7c:	84 60       	ori	r24, 0x04	; 4
    4c7e:	83 bf       	out	0x33, r24	; 51
    4c80:	f8 94       	cli
    4c82:	82 e0       	ldi	r24, 0x02	; 2
    4c84:	8c bb       	out	0x1c, r24	; 28
    4c86:	80 91 69 00 	lds	r24, 0x0069	; 0x800069 <__TEXT_REGION_LENGTH__+0x7e0069>
    4c8a:	88 60       	ori	r24, 0x08	; 8
    4c8c:	80 93 69 00 	sts	0x0069, r24	; 0x800069 <__TEXT_REGION_LENGTH__+0x7e0069>
    4c90:	e9 9a       	sbi	0x1d, 1	; 29
    4c92:	83 b7       	in	r24, 0x33	; 51
    4c94:	81 60       	ori	r24, 0x01	; 1
    4c96:	83 bf       	out	0x33, r24	; 51
    4c98:	78 94       	sei
    4c9a:	88 95       	sleep
    4c9c:	0e 94 4c 09 	call	0x1298	; 0x1298 <millis>
    4ca0:	29 96       	adiw	r28, 0x09	; 9
    4ca2:	6c af       	std	Y+60, r22	; 0x3c
    4ca4:	7d af       	std	Y+61, r23	; 0x3d
    4ca6:	8e af       	std	Y+62, r24	; 0x3e
    4ca8:	9f af       	std	Y+63, r25	; 0x3f
    4caa:	29 97       	sbiw	r28, 0x09	; 9
    4cac:	80 91 c7 02 	lds	r24, 0x02C7	; 0x8002c7 <lastPoll>
    4cb0:	90 91 c8 02 	lds	r25, 0x02C8	; 0x8002c8 <lastPoll+0x1>
    4cb4:	a0 91 c9 02 	lds	r26, 0x02C9	; 0x8002c9 <lastPoll+0x2>
    4cb8:	b0 91 ca 02 	lds	r27, 0x02CA	; 0x8002ca <lastPoll+0x3>
    4cbc:	29 96       	adiw	r28, 0x09	; 9
    4cbe:	4c ad       	ldd	r20, Y+60	; 0x3c
    4cc0:	5d ad       	ldd	r21, Y+61	; 0x3d
    4cc2:	6e ad       	ldd	r22, Y+62	; 0x3e
    4cc4:	7f ad       	ldd	r23, Y+63	; 0x3f
    4cc6:	29 97       	sbiw	r28, 0x09	; 9
    4cc8:	48 1b       	sub	r20, r24
    4cca:	59 0b       	sbc	r21, r25
    4ccc:	6a 0b       	sbc	r22, r26
    4cce:	7b 0b       	sbc	r23, r27
    4cd0:	80 91 5a 04 	lds	r24, 0x045A	; 0x80045a <pollRate>
    4cd4:	90 e0       	ldi	r25, 0x00	; 0
    4cd6:	b0 e0       	ldi	r27, 0x00	; 0
    4cd8:	a0 e0       	ldi	r26, 0x00	; 0
    4cda:	84 17       	cp	r24, r20
    4cdc:	95 07       	cpc	r25, r21
    4cde:	a6 07       	cpc	r26, r22
    4ce0:	b7 07       	cpc	r27, r23
    4ce2:	08 f0       	brcs	.+2      	; 0x4ce6 <main+0x14a>
    4ce4:	8a cf       	rjmp	.-236    	; 0x4bfa <main+0x5e>
    4ce6:	e0 91 f2 03 	lds	r30, 0x03F2	; 0x8003f2 <tick_function>
    4cea:	f0 91 f3 03 	lds	r31, 0x03F3	; 0x8003f3 <tick_function+0x1>
    4cee:	30 97       	sbiw	r30, 0x00	; 0
    4cf0:	19 f0       	breq	.+6      	; 0x4cf8 <main+0x15c>
    4cf2:	8b eb       	ldi	r24, 0xBB	; 187
    4cf4:	92 e0       	ldi	r25, 0x02	; 2
    4cf6:	09 95       	icall
    4cf8:	80 91 99 02 	lds	r24, 0x0299	; 0x800299 <lookingForAnalog>
    4cfc:	88 23       	and	r24, r24
    4cfe:	09 f4       	brne	.+2      	; 0x4d02 <main+0x166>
    4d00:	e3 c0       	rjmp	.+454    	; 0x4ec8 <main+0x32c>
    4d02:	0d e8       	ldi	r16, 0x8D	; 141
    4d04:	12 e0       	ldi	r17, 0x02	; 2
    4d06:	f1 2c       	mov	r15, r1
    4d08:	8f 2d       	mov	r24, r15
    4d0a:	0e 94 9b 0b 	call	0x1736	; 0x1736 <analogRead>
    4d0e:	d8 01       	movw	r26, r16
    4d10:	2d 91       	ld	r18, X+
    4d12:	3d 91       	ld	r19, X+
    4d14:	8d 01       	movw	r16, r26
    4d16:	82 1b       	sub	r24, r18
    4d18:	93 0b       	sbc	r25, r19
    4d1a:	97 ff       	sbrs	r25, 7
    4d1c:	03 c0       	rjmp	.+6      	; 0x4d24 <main+0x188>
    4d1e:	91 95       	neg	r25
    4d20:	81 95       	neg	r24
    4d22:	91 09       	sbc	r25, r1
    4d24:	0b 97       	sbiw	r24, 0x0b	; 11
    4d26:	0c f4       	brge	.+2      	; 0x4d2a <main+0x18e>
    4d28:	ca c0       	rjmp	.+404    	; 0x4ebe <main+0x322>
    4d2a:	8e e0       	ldi	r24, 0x0E	; 14
    4d2c:	8f 0d       	add	r24, r15
    4d2e:	80 93 05 01 	sts	0x0105, r24	; 0x800105 <detectedPin>
    4d32:	10 92 99 02 	sts	0x0299, r1	; 0x800299 <lookingForAnalog>
    4d36:	b1 2c       	mov	r11, r1
    4d38:	89 e0       	ldi	r24, 0x09	; 9
    4d3a:	a8 2e       	mov	r10, r24
    4d3c:	cc 24       	eor	r12, r12
    4d3e:	c3 94       	inc	r12
    4d40:	d1 2c       	mov	r13, r1
    4d42:	2b 2d       	mov	r18, r11
    4d44:	30 e0       	ldi	r19, 0x00	; 0
    4d46:	80 91 ae 03 	lds	r24, 0x03AE	; 0x8003ae <validPins>
    4d4a:	90 91 af 03 	lds	r25, 0x03AF	; 0x8003af <validPins+0x1>
    4d4e:	28 17       	cp	r18, r24
    4d50:	39 07       	cpc	r19, r25
    4d52:	0c f4       	brge	.+2      	; 0x4d56 <main+0x1ba>
    4d54:	f6 c1       	rjmp	.+1004   	; 0x5142 <main+0x5a6>
    4d56:	80 91 f5 03 	lds	r24, 0x03F5	; 0x8003f5 <mapJoyLeftDpad>
    4d5a:	88 23       	and	r24, r24
    4d5c:	09 f4       	brne	.+2      	; 0x4d60 <main+0x1c4>
    4d5e:	40 c0       	rjmp	.+128    	; 0x4de0 <main+0x244>
    4d60:	60 91 bf 02 	lds	r22, 0x02BF	; 0x8002bf <controller+0x4>
    4d64:	70 91 c0 02 	lds	r23, 0x02C0	; 0x8002c0 <controller+0x5>
    4d68:	80 91 ee 03 	lds	r24, 0x03EE	; 0x8003ee <joyThreshold>
    4d6c:	90 91 ef 03 	lds	r25, 0x03EF	; 0x8003ef <joyThreshold+0x1>
    4d70:	44 27       	eor	r20, r20
    4d72:	55 27       	eor	r21, r21
    4d74:	48 1b       	sub	r20, r24
    4d76:	59 0b       	sbc	r21, r25
    4d78:	64 17       	cp	r22, r20
    4d7a:	75 07       	cpc	r23, r21
    4d7c:	4c f4       	brge	.+18     	; 0x4d90 <main+0x1f4>
    4d7e:	20 91 bb 02 	lds	r18, 0x02BB	; 0x8002bb <controller>
    4d82:	30 91 bc 02 	lds	r19, 0x02BC	; 0x8002bc <controller+0x1>
    4d86:	24 60       	ori	r18, 0x04	; 4
    4d88:	30 93 bc 02 	sts	0x02BC, r19	; 0x8002bc <controller+0x1>
    4d8c:	20 93 bb 02 	sts	0x02BB, r18	; 0x8002bb <controller>
    4d90:	86 17       	cp	r24, r22
    4d92:	97 07       	cpc	r25, r23
    4d94:	4c f4       	brge	.+18     	; 0x4da8 <main+0x20c>
    4d96:	20 91 bb 02 	lds	r18, 0x02BB	; 0x8002bb <controller>
    4d9a:	30 91 bc 02 	lds	r19, 0x02BC	; 0x8002bc <controller+0x1>
    4d9e:	28 60       	ori	r18, 0x08	; 8
    4da0:	30 93 bc 02 	sts	0x02BC, r19	; 0x8002bc <controller+0x1>
    4da4:	20 93 bb 02 	sts	0x02BB, r18	; 0x8002bb <controller>
    4da8:	60 91 c1 02 	lds	r22, 0x02C1	; 0x8002c1 <controller+0x6>
    4dac:	70 91 c2 02 	lds	r23, 0x02C2	; 0x8002c2 <controller+0x7>
    4db0:	64 17       	cp	r22, r20
    4db2:	75 07       	cpc	r23, r21
    4db4:	4c f4       	brge	.+18     	; 0x4dc8 <main+0x22c>
    4db6:	20 91 bb 02 	lds	r18, 0x02BB	; 0x8002bb <controller>
    4dba:	30 91 bc 02 	lds	r19, 0x02BC	; 0x8002bc <controller+0x1>
    4dbe:	22 60       	ori	r18, 0x02	; 2
    4dc0:	30 93 bc 02 	sts	0x02BC, r19	; 0x8002bc <controller+0x1>
    4dc4:	20 93 bb 02 	sts	0x02BB, r18	; 0x8002bb <controller>
    4dc8:	86 17       	cp	r24, r22
    4dca:	97 07       	cpc	r25, r23
    4dcc:	4c f4       	brge	.+18     	; 0x4de0 <main+0x244>
    4dce:	80 91 bb 02 	lds	r24, 0x02BB	; 0x8002bb <controller>
    4dd2:	90 91 bc 02 	lds	r25, 0x02BC	; 0x8002bc <controller+0x1>
    4dd6:	81 60       	ori	r24, 0x01	; 1
    4dd8:	90 93 bc 02 	sts	0x02BC, r25	; 0x8002bc <controller+0x1>
    4ddc:	80 93 bb 02 	sts	0x02BB, r24	; 0x8002bb <controller>
    4de0:	80 91 f4 03 	lds	r24, 0x03F4	; 0x8003f4 <mapStartSelectHome>
    4de4:	88 23       	and	r24, r24
    4de6:	81 f0       	breq	.+32     	; 0x4e08 <main+0x26c>
    4de8:	80 91 bb 02 	lds	r24, 0x02BB	; 0x8002bb <controller>
    4dec:	90 91 bc 02 	lds	r25, 0x02BC	; 0x8002bc <controller+0x1>
    4df0:	9c 01       	movw	r18, r24
    4df2:	20 73       	andi	r18, 0x30	; 48
    4df4:	33 27       	eor	r19, r19
    4df6:	20 33       	cpi	r18, 0x30	; 48
    4df8:	31 05       	cpc	r19, r1
    4dfa:	31 f4       	brne	.+12     	; 0x4e08 <main+0x26c>
    4dfc:	8f 7c       	andi	r24, 0xCF	; 207
    4dfe:	94 60       	ori	r25, 0x04	; 4
    4e00:	90 93 bc 02 	sts	0x02BC, r25	; 0x8002bc <controller+0x1>
    4e04:	80 93 bb 02 	sts	0x02BB, r24	; 0x8002bb <controller>
    4e08:	80 91 57 04 	lds	r24, 0x0457	; 0x800457 <typeIsGuitar>
    4e0c:	88 23       	and	r24, r24
    4e0e:	49 f0       	breq	.+18     	; 0x4e22 <main+0x286>
    4e10:	e0 91 e9 03 	lds	r30, 0x03E9	; 0x8003e9 <tick>
    4e14:	f0 91 ea 03 	lds	r31, 0x03EA	; 0x8003ea <tick+0x1>
    4e18:	30 97       	sbiw	r30, 0x00	; 0
    4e1a:	19 f0       	breq	.+6      	; 0x4e22 <main+0x286>
    4e1c:	8b eb       	ldi	r24, 0xBB	; 187
    4e1e:	92 e0       	ldi	r25, 0x02	; 2
    4e20:	09 95       	icall
    4e22:	4c e0       	ldi	r20, 0x0C	; 12
    4e24:	50 e0       	ldi	r21, 0x00	; 0
    4e26:	6f ea       	ldi	r22, 0xAF	; 175
    4e28:	72 e0       	ldi	r23, 0x02	; 2
    4e2a:	8b eb       	ldi	r24, 0xBB	; 187
    4e2c:	92 e0       	ldi	r25, 0x02	; 2
    4e2e:	e1 d4       	rcall	.+2498   	; 0x57f2 <memcmp>
    4e30:	89 2b       	or	r24, r25
    4e32:	09 f4       	brne	.+2      	; 0x4e36 <main+0x29a>
    4e34:	ec c1       	rjmp	.+984    	; 0x520e <main+0x672>
    4e36:	0e 94 4c 09 	call	0x1298	; 0x1298 <millis>
    4e3a:	60 93 c7 02 	sts	0x02C7, r22	; 0x8002c7 <lastPoll>
    4e3e:	70 93 c8 02 	sts	0x02C8, r23	; 0x8002c8 <lastPoll+0x1>
    4e42:	80 93 c9 02 	sts	0x02C9, r24	; 0x8002c9 <lastPoll+0x2>
    4e46:	90 93 ca 02 	sts	0x02CA, r25	; 0x8002ca <lastPoll+0x3>
    4e4a:	4c e0       	ldi	r20, 0x0C	; 12
    4e4c:	be 01       	movw	r22, r28
    4e4e:	6f 5d       	subi	r22, 0xDF	; 223
    4e50:	7f 4f       	sbci	r23, 0xFF	; 255
    4e52:	8b eb       	ldi	r24, 0xBB	; 187
    4e54:	92 e0       	ldi	r25, 0x02	; 2
    4e56:	0e 94 69 0f 	call	0x1ed2	; 0x1ed2 <tickRFTX>
    4e5a:	89 2b       	or	r24, r25
    4e5c:	09 f0       	breq	.+2      	; 0x4e60 <main+0x2c4>
    4e5e:	fa c1       	rjmp	.+1012   	; 0x5254 <main+0x6b8>
    4e60:	8c e0       	ldi	r24, 0x0C	; 12
    4e62:	eb eb       	ldi	r30, 0xBB	; 187
    4e64:	f2 e0       	ldi	r31, 0x02	; 2
    4e66:	af ea       	ldi	r26, 0xAF	; 175
    4e68:	b2 e0       	ldi	r27, 0x02	; 2
    4e6a:	01 90       	ld	r0, Z+
    4e6c:	0d 92       	st	X+, r0
    4e6e:	8a 95       	dec	r24
    4e70:	e1 f7       	brne	.-8      	; 0x4e6a <main+0x2ce>
    4e72:	c0 90 bb 02 	lds	r12, 0x02BB	; 0x8002bb <controller>
    4e76:	d0 90 bc 02 	lds	r13, 0x02BC	; 0x8002bc <controller+0x1>
    4e7a:	f1 2c       	mov	r15, r1
    4e7c:	e1 2c       	mov	r14, r1
    4e7e:	2d 96       	adiw	r28, 0x0d	; 13
    4e80:	2c ad       	ldd	r18, Y+60	; 0x3c
    4e82:	3d ad       	ldd	r19, Y+61	; 0x3d
    4e84:	4e ad       	ldd	r20, Y+62	; 0x3e
    4e86:	5f ad       	ldd	r21, Y+63	; 0x3f
    4e88:	2d 97       	sbiw	r28, 0x0d	; 13
    4e8a:	c2 16       	cp	r12, r18
    4e8c:	d3 06       	cpc	r13, r19
    4e8e:	e4 06       	cpc	r14, r20
    4e90:	f5 06       	cpc	r15, r21
    4e92:	71 f0       	breq	.+28     	; 0x4eb0 <main+0x314>
    4e94:	0e 94 4c 09 	call	0x1298	; 0x1298 <millis>
    4e98:	22 96       	adiw	r28, 0x02	; 2
    4e9a:	6f af       	std	Y+63, r22	; 0x3f
    4e9c:	22 97       	sbiw	r28, 0x02	; 2
    4e9e:	23 96       	adiw	r28, 0x03	; 3
    4ea0:	7f af       	std	Y+63, r23	; 0x3f
    4ea2:	23 97       	sbiw	r28, 0x03	; 3
    4ea4:	24 96       	adiw	r28, 0x04	; 4
    4ea6:	8f af       	std	Y+63, r24	; 0x3f
    4ea8:	24 97       	sbiw	r28, 0x04	; 4
    4eaa:	25 96       	adiw	r28, 0x05	; 5
    4eac:	9f af       	std	Y+63, r25	; 0x3f
    4eae:	25 97       	sbiw	r28, 0x05	; 5
    4eb0:	2d 96       	adiw	r28, 0x0d	; 13
    4eb2:	cc ae       	std	Y+60, r12	; 0x3c
    4eb4:	dd ae       	std	Y+61, r13	; 0x3d
    4eb6:	ee ae       	std	Y+62, r14	; 0x3e
    4eb8:	ff ae       	std	Y+63, r15	; 0x3f
    4eba:	2d 97       	sbiw	r28, 0x0d	; 13
    4ebc:	9e ce       	rjmp	.-708    	; 0x4bfa <main+0x5e>
    4ebe:	f3 94       	inc	r15
    4ec0:	b6 e0       	ldi	r27, 0x06	; 6
    4ec2:	fb 12       	cpse	r15, r27
    4ec4:	21 cf       	rjmp	.-446    	; 0x4d08 <main+0x16c>
    4ec6:	37 cf       	rjmp	.-402    	; 0x4d36 <main+0x19a>
    4ec8:	80 91 ae 02 	lds	r24, 0x02AE	; 0x8002ae <lookingForDigital>
    4ecc:	88 23       	and	r24, r24
    4ece:	e9 f0       	breq	.+58     	; 0x4f0a <main+0x36e>
    4ed0:	10 e0       	ldi	r17, 0x00	; 0
    4ed2:	00 e0       	ldi	r16, 0x00	; 0
    4ed4:	80 2f       	mov	r24, r16
    4ed6:	0e 94 6e 0c 	call	0x18dc	; 0x18dc <shouldSkipPin>
    4eda:	81 11       	cpse	r24, r1
    4edc:	10 c0       	rjmp	.+32     	; 0x4efe <main+0x362>
    4ede:	80 2f       	mov	r24, r16
    4ee0:	0e 94 6f 0b 	call	0x16de	; 0x16de <digitalRead>
    4ee4:	f8 01       	movw	r30, r16
    4ee6:	e6 56       	subi	r30, 0x66	; 102
    4ee8:	fd 4f       	sbci	r31, 0xFD	; 253
    4eea:	90 81       	ld	r25, Z
    4eec:	89 17       	cp	r24, r25
    4eee:	39 f0       	breq	.+14     	; 0x4efe <main+0x362>
    4ef0:	0e 94 89 0c 	call	0x1912	; 0x1912 <stopSearching>
    4ef4:	00 93 05 01 	sts	0x0105, r16	; 0x800105 <detectedPin>
    4ef8:	10 92 ae 02 	sts	0x02AE, r1	; 0x8002ae <lookingForDigital>
    4efc:	1c cf       	rjmp	.-456    	; 0x4d36 <main+0x19a>
    4efe:	0f 5f       	subi	r16, 0xFF	; 255
    4f00:	1f 4f       	sbci	r17, 0xFF	; 255
    4f02:	04 31       	cpi	r16, 0x14	; 20
    4f04:	11 05       	cpc	r17, r1
    4f06:	31 f7       	brne	.-52     	; 0x4ed4 <main+0x338>
    4f08:	16 cf       	rjmp	.-468    	; 0x4d36 <main+0x19a>
    4f0a:	60 91 1c 03 	lds	r22, 0x031C	; 0x80031c <validAnalog>
    4f0e:	70 91 1d 03 	lds	r23, 0x031D	; 0x80031d <validAnalog+0x1>
    4f12:	61 15       	cp	r22, r1
    4f14:	71 05       	cpc	r23, r1
    4f16:	09 f4       	brne	.+2      	; 0x4f1a <main+0x37e>
    4f18:	52 c0       	rjmp	.+164    	; 0x4fbe <main+0x422>
    4f1a:	80 91 01 01 	lds	r24, 0x0101	; 0x800101 <first>
    4f1e:	81 11       	cpse	r24, r1
    4f20:	30 c0       	rjmp	.+96     	; 0x4f82 <main+0x3e6>
    4f22:	80 91 7a 00 	lds	r24, 0x007A	; 0x80007a <__TEXT_REGION_LENGTH__+0x7e007a>
    4f26:	86 fd       	sbrc	r24, 6
    4f28:	4a c0       	rjmp	.+148    	; 0x4fbe <main+0x422>
    4f2a:	80 91 78 00 	lds	r24, 0x0078	; 0x800078 <__TEXT_REGION_LENGTH__+0x7e0078>
    4f2e:	90 91 79 00 	lds	r25, 0x0079	; 0x800079 <__TEXT_REGION_LENGTH__+0x7e0079>
    4f32:	20 91 ea 02 	lds	r18, 0x02EA	; 0x8002ea <currentAnalog>
    4f36:	30 91 eb 02 	lds	r19, 0x02EB	; 0x8002eb <currentAnalog+0x1>
    4f3a:	a9 01       	movw	r20, r18
    4f3c:	f3 e0       	ldi	r31, 0x03	; 3
    4f3e:	44 0f       	add	r20, r20
    4f40:	55 1f       	adc	r21, r21
    4f42:	fa 95       	dec	r31
    4f44:	e1 f7       	brne	.-8      	; 0x4f3e <main+0x3a2>
    4f46:	fa 01       	movw	r30, r20
    4f48:	e4 51       	subi	r30, 0x14	; 20
    4f4a:	fd 4f       	sbci	r31, 0xFD	; 253
    4f4c:	a7 81       	ldd	r26, Z+7	; 0x07
    4f4e:	a1 11       	cpse	r26, r1
    4f50:	09 c0       	rjmp	.+18     	; 0x4f64 <main+0x3c8>
    4f52:	e2 81       	ldd	r30, Z+2	; 0x02
    4f54:	e1 11       	cpse	r30, r1
    4f56:	5c c0       	rjmp	.+184    	; 0x5010 <main+0x474>
    4f58:	92 50       	subi	r25, 0x02	; 2
    4f5a:	e6 e0       	ldi	r30, 0x06	; 6
    4f5c:	88 0f       	add	r24, r24
    4f5e:	99 1f       	adc	r25, r25
    4f60:	ea 95       	dec	r30
    4f62:	e1 f7       	brne	.-8      	; 0x4f5c <main+0x3c0>
    4f64:	44 51       	subi	r20, 0x14	; 20
    4f66:	5d 4f       	sbci	r21, 0xFD	; 253
    4f68:	fa 01       	movw	r30, r20
    4f6a:	94 83       	std	Z+4, r25	; 0x04
    4f6c:	83 83       	std	Z+3, r24	; 0x03
    4f6e:	2f 5f       	subi	r18, 0xFF	; 255
    4f70:	3f 4f       	sbci	r19, 0xFF	; 255
    4f72:	62 17       	cp	r22, r18
    4f74:	73 07       	cpc	r23, r19
    4f76:	09 f4       	brne	.+2      	; 0x4f7a <main+0x3de>
    4f78:	52 c0       	rjmp	.+164    	; 0x501e <main+0x482>
    4f7a:	30 93 eb 02 	sts	0x02EB, r19	; 0x8002eb <currentAnalog+0x1>
    4f7e:	20 93 ea 02 	sts	0x02EA, r18	; 0x8002ea <currentAnalog>
    4f82:	10 92 01 01 	sts	0x0101, r1	; 0x800101 <first>
    4f86:	e0 91 ea 02 	lds	r30, 0x02EA	; 0x8002ea <currentAnalog>
    4f8a:	f0 91 eb 02 	lds	r31, 0x02EB	; 0x8002eb <currentAnalog+0x1>
    4f8e:	53 e0       	ldi	r21, 0x03	; 3
    4f90:	ee 0f       	add	r30, r30
    4f92:	ff 1f       	adc	r31, r31
    4f94:	5a 95       	dec	r21
    4f96:	e1 f7       	brne	.-8      	; 0x4f90 <main+0x3f4>
    4f98:	e4 51       	subi	r30, 0x14	; 20
    4f9a:	fd 4f       	sbci	r31, 0xFD	; 253
    4f9c:	88 e0       	ldi	r24, 0x08	; 8
    4f9e:	de 01       	movw	r26, r28
    4fa0:	11 96       	adiw	r26, 0x01	; 1
    4fa2:	01 90       	ld	r0, Z+
    4fa4:	0d 92       	st	X+, r0
    4fa6:	8a 95       	dec	r24
    4fa8:	e1 f7       	brne	.-8      	; 0x4fa2 <main+0x406>
    4faa:	8a 81       	ldd	r24, Y+2	; 0x02
    4fac:	87 70       	andi	r24, 0x07	; 7
    4fae:	80 64       	ori	r24, 0x40	; 64
    4fb0:	80 93 7c 00 	sts	0x007C, r24	; 0x80007c <__TEXT_REGION_LENGTH__+0x7e007c>
    4fb4:	80 91 7a 00 	lds	r24, 0x007A	; 0x80007a <__TEXT_REGION_LENGTH__+0x7e007a>
    4fb8:	80 64       	ori	r24, 0x40	; 64
    4fba:	80 93 7a 00 	sts	0x007A, r24	; 0x80007a <__TEXT_REGION_LENGTH__+0x7e007a>
    4fbe:	10 e0       	ldi	r17, 0x00	; 0
    4fc0:	46 e0       	ldi	r20, 0x06	; 6
    4fc2:	d4 2e       	mov	r13, r20
    4fc4:	e1 2f       	mov	r30, r17
    4fc6:	01 2e       	mov	r0, r17
    4fc8:	00 0c       	add	r0, r0
    4fca:	ff 0b       	sbc	r31, r31
    4fcc:	80 91 1c 03 	lds	r24, 0x031C	; 0x80031c <validAnalog>
    4fd0:	90 91 1d 03 	lds	r25, 0x031D	; 0x80031d <validAnalog+0x1>
    4fd4:	e8 17       	cp	r30, r24
    4fd6:	f9 07       	cpc	r31, r25
    4fd8:	0c f0       	brlt	.+2      	; 0x4fdc <main+0x440>
    4fda:	ad ce       	rjmp	.-678    	; 0x4d36 <main+0x19a>
    4fdc:	33 e0       	ldi	r19, 0x03	; 3
    4fde:	ee 0f       	add	r30, r30
    4fe0:	ff 1f       	adc	r31, r31
    4fe2:	3a 95       	dec	r19
    4fe4:	e1 f7       	brne	.-8      	; 0x4fde <main+0x442>
    4fe6:	e4 51       	subi	r30, 0x14	; 20
    4fe8:	fd 4f       	sbci	r31, 0xFD	; 253
    4fea:	88 e0       	ldi	r24, 0x08	; 8
    4fec:	de 01       	movw	r26, r28
    4fee:	11 96       	adiw	r26, 0x01	; 1
    4ff0:	01 90       	ld	r0, Z+
    4ff2:	0d 92       	st	X+, r0
    4ff4:	8a 95       	dec	r24
    4ff6:	e1 f7       	brne	.-8      	; 0x4ff0 <main+0x454>
    4ff8:	88 85       	ldd	r24, Y+8	; 0x08
    4ffa:	88 23       	and	r24, r24
    4ffc:	a9 f0       	breq	.+42     	; 0x5028 <main+0x48c>
    4ffe:	8c 81       	ldd	r24, Y+4	; 0x04
    5000:	9d 81       	ldd	r25, Y+5	; 0x05
    5002:	e9 81       	ldd	r30, Y+1	; 0x01
    5004:	f0 e0       	ldi	r31, 0x00	; 0
    5006:	e0 5d       	subi	r30, 0xD0	; 208
    5008:	fd 4f       	sbci	r31, 0xFD	; 253
    500a:	80 83       	st	Z, r24
    500c:	1f 5f       	subi	r17, 0xFF	; 255
    500e:	da cf       	rjmp	.-76     	; 0x4fc4 <main+0x428>
    5010:	e0 e0       	ldi	r30, 0x00	; 0
    5012:	f2 e0       	ldi	r31, 0x02	; 2
    5014:	df 01       	movw	r26, r30
    5016:	a8 1b       	sub	r26, r24
    5018:	b9 0b       	sbc	r27, r25
    501a:	cd 01       	movw	r24, r26
    501c:	9e cf       	rjmp	.-196    	; 0x4f5a <main+0x3be>
    501e:	10 92 eb 02 	sts	0x02EB, r1	; 0x8002eb <currentAnalog+0x1>
    5022:	10 92 ea 02 	sts	0x02EA, r1	; 0x8002ea <currentAnalog>
    5026:	ad cf       	rjmp	.-166    	; 0x4f82 <main+0x3e6>
    5028:	15 30       	cpi	r17, 0x05	; 5
    502a:	41 f4       	brne	.+16     	; 0x503c <main+0x4a0>
    502c:	80 91 57 04 	lds	r24, 0x0457	; 0x800457 <typeIsGuitar>
    5030:	88 23       	and	r24, r24
    5032:	21 f0       	breq	.+8      	; 0x503c <main+0x4a0>
    5034:	80 91 d4 03 	lds	r24, 0x03D4	; 0x8003d4 <tiltType>
    5038:	82 30       	cpi	r24, 0x02	; 2
    503a:	41 f3       	breq	.-48     	; 0x500c <main+0x470>
    503c:	09 81       	ldd	r16, Y+1	; 0x01
    503e:	e0 2e       	mov	r14, r16
    5040:	f1 2c       	mov	r15, r1
    5042:	8c 81       	ldd	r24, Y+4	; 0x04
    5044:	9d 81       	ldd	r25, Y+5	; 0x05
    5046:	47 01       	movw	r8, r14
    5048:	88 0c       	add	r8, r8
    504a:	99 1c       	adc	r9, r9
    504c:	f4 01       	movw	r30, r8
    504e:	e0 5c       	subi	r30, 0xC0	; 192
    5050:	fd 4f       	sbci	r31, 0xFD	; 253
    5052:	91 83       	std	Z+1, r25	; 0x01
    5054:	80 83       	st	Z, r24
    5056:	de 9c       	mul	r13, r14
    5058:	f0 01       	movw	r30, r0
    505a:	df 9c       	mul	r13, r15
    505c:	f0 0d       	add	r31, r0
    505e:	11 24       	eor	r1, r1
    5060:	e0 55       	subi	r30, 0x50	; 80
    5062:	fc 4f       	sbci	r31, 0xFC	; 252
    5064:	a4 80       	ldd	r10, Z+4	; 0x04
    5066:	b5 80       	ldd	r11, Z+5	; 0x05
    5068:	2c 81       	ldd	r18, Y+4	; 0x04
    506a:	3d 81       	ldd	r19, Y+5	; 0x05
    506c:	03 2e       	mov	r0, r19
    506e:	00 0c       	add	r0, r0
    5070:	44 0b       	sbc	r20, r20
    5072:	55 0b       	sbc	r21, r21
    5074:	82 81       	ldd	r24, Z+2	; 0x02
    5076:	93 81       	ldd	r25, Z+3	; 0x03
    5078:	09 2e       	mov	r0, r25
    507a:	00 0c       	add	r0, r0
    507c:	aa 0b       	sbc	r26, r26
    507e:	bb 0b       	sbc	r27, r27
    5080:	28 1b       	sub	r18, r24
    5082:	39 0b       	sbc	r19, r25
    5084:	4a 0b       	sbc	r20, r26
    5086:	5b 0b       	sbc	r21, r27
    5088:	a0 81       	ld	r26, Z
    508a:	b1 81       	ldd	r27, Z+1	; 0x01
    508c:	9c d3       	rcall	.+1848   	; 0x57c6 <__mulshisi3>
    508e:	29 96       	adiw	r28, 0x09	; 9
    5090:	6c af       	std	Y+60, r22	; 0x3c
    5092:	7d af       	std	Y+61, r23	; 0x3d
    5094:	8e af       	std	Y+62, r24	; 0x3e
    5096:	9f af       	std	Y+63, r25	; 0x3f
    5098:	29 97       	sbiw	r28, 0x09	; 9
    509a:	20 e0       	ldi	r18, 0x00	; 0
    509c:	34 e0       	ldi	r19, 0x04	; 4
    509e:	40 e0       	ldi	r20, 0x00	; 0
    50a0:	50 e0       	ldi	r21, 0x00	; 0
    50a2:	49 d3       	rcall	.+1682   	; 0x5736 <__divmodsi4>
    50a4:	da 01       	movw	r26, r20
    50a6:	c9 01       	movw	r24, r18
    50a8:	90 58       	subi	r25, 0x80	; 128
    50aa:	a1 09       	sbc	r26, r1
    50ac:	b1 09       	sbc	r27, r1
    50ae:	81 15       	cp	r24, r1
    50b0:	f0 e8       	ldi	r31, 0x80	; 128
    50b2:	9f 07       	cpc	r25, r31
    50b4:	ff ef       	ldi	r31, 0xFF	; 255
    50b6:	af 07       	cpc	r26, r31
    50b8:	bf 07       	cpc	r27, r31
    50ba:	24 f4       	brge	.+8      	; 0x50c4 <main+0x528>
    50bc:	80 e0       	ldi	r24, 0x00	; 0
    50be:	90 e8       	ldi	r25, 0x80	; 128
    50c0:	af ef       	ldi	r26, 0xFF	; 255
    50c2:	bf ef       	ldi	r27, 0xFF	; 255
    50c4:	81 15       	cp	r24, r1
    50c6:	20 e8       	ldi	r18, 0x80	; 128
    50c8:	92 07       	cpc	r25, r18
    50ca:	a1 05       	cpc	r26, r1
    50cc:	b1 05       	cpc	r27, r1
    50ce:	24 f0       	brlt	.+8      	; 0x50d8 <main+0x53c>
    50d0:	8f ef       	ldi	r24, 0xFF	; 255
    50d2:	9f e7       	ldi	r25, 0x7F	; 127
    50d4:	a0 e0       	ldi	r26, 0x00	; 0
    50d6:	b0 e0       	ldi	r27, 0x00	; 0
    50d8:	a5 01       	movw	r20, r10
    50da:	0b 2c       	mov	r0, r11
    50dc:	00 0c       	add	r0, r0
    50de:	66 0b       	sbc	r22, r22
    50e0:	77 0b       	sbc	r23, r23
    50e2:	02 30       	cpi	r16, 0x02	; 2
    50e4:	30 f0       	brcs	.+12     	; 0x50f2 <main+0x556>
    50e6:	20 91 57 04 	lds	r18, 0x0457	; 0x800457 <typeIsGuitar>
    50ea:	22 23       	and	r18, r18
    50ec:	71 f0       	breq	.+28     	; 0x510a <main+0x56e>
    50ee:	04 30       	cpi	r16, 0x04	; 4
    50f0:	61 f4       	brne	.+24     	; 0x510a <main+0x56e>
    50f2:	84 17       	cp	r24, r20
    50f4:	95 07       	cpc	r25, r21
    50f6:	a6 07       	cpc	r26, r22
    50f8:	b7 07       	cpc	r27, r23
    50fa:	04 f1       	brlt	.+64     	; 0x513c <main+0x5a0>
    50fc:	02 30       	cpi	r16, 0x02	; 2
    50fe:	c0 f4       	brcc	.+48     	; 0x5130 <main+0x594>
    5100:	f7 01       	movw	r30, r14
    5102:	e5 54       	subi	r30, 0x45	; 69
    5104:	fd 4f       	sbci	r31, 0xFD	; 253
    5106:	92 83       	std	Z+2, r25	; 0x02
    5108:	81 cf       	rjmp	.-254    	; 0x500c <main+0x470>
    510a:	84 17       	cp	r24, r20
    510c:	95 07       	cpc	r25, r21
    510e:	a6 07       	cpc	r26, r22
    5110:	b7 07       	cpc	r27, r23
    5112:	74 f4       	brge	.+28     	; 0x5130 <main+0x594>
    5114:	b1 94       	neg	r11
    5116:	a1 94       	neg	r10
    5118:	b1 08       	sbc	r11, r1
    511a:	a5 01       	movw	r20, r10
    511c:	bb 0c       	add	r11, r11
    511e:	66 0b       	sbc	r22, r22
    5120:	77 0b       	sbc	r23, r23
    5122:	48 17       	cp	r20, r24
    5124:	59 07       	cpc	r21, r25
    5126:	6a 07       	cpc	r22, r26
    5128:	7b 07       	cpc	r23, r27
    512a:	14 f4       	brge	.+4      	; 0x5130 <main+0x594>
    512c:	80 e0       	ldi	r24, 0x00	; 0
    512e:	90 e0       	ldi	r25, 0x00	; 0
    5130:	f4 01       	movw	r30, r8
    5132:	e5 54       	subi	r30, 0x45	; 69
    5134:	fd 4f       	sbci	r31, 0xFD	; 253
    5136:	91 83       	std	Z+1, r25	; 0x01
    5138:	80 83       	st	Z, r24
    513a:	68 cf       	rjmp	.-304    	; 0x500c <main+0x470>
    513c:	80 e0       	ldi	r24, 0x00	; 0
    513e:	90 e8       	ldi	r25, 0x80	; 128
    5140:	dd cf       	rjmp	.-70     	; 0x50fc <main+0x560>
    5142:	a2 9e       	mul	r10, r18
    5144:	c0 01       	movw	r24, r0
    5146:	a3 9e       	mul	r10, r19
    5148:	90 0d       	add	r25, r0
    514a:	11 24       	eor	r1, r1
    514c:	82 5e       	subi	r24, 0xE2	; 226
    514e:	9c 4f       	sbci	r25, 0xFC	; 252
    5150:	fc 01       	movw	r30, r24
    5152:	de 01       	movw	r26, r28
    5154:	11 96       	adiw	r26, 0x01	; 1
    5156:	2a 2d       	mov	r18, r10
    5158:	01 90       	ld	r0, Z+
    515a:	0d 92       	st	X+, r0
    515c:	2a 95       	dec	r18
    515e:	e1 f7       	brne	.-8      	; 0x5158 <main+0x5bc>
    5160:	dc 01       	movw	r26, r24
    5162:	15 96       	adiw	r26, 0x05	; 5
    5164:	9c 90       	ld	r9, X
    5166:	15 97       	sbiw	r26, 0x05	; 5
    5168:	16 96       	adiw	r26, 0x06	; 6
    516a:	0c 91       	ld	r16, X
    516c:	16 97       	sbiw	r26, 0x06	; 6
    516e:	17 96       	adiw	r26, 0x07	; 7
    5170:	1c 91       	ld	r17, X
    5172:	0e 94 4c 09 	call	0x1298	; 0x1298 <millis>
    5176:	29 96       	adiw	r28, 0x09	; 9
    5178:	6c af       	std	Y+60, r22	; 0x3c
    517a:	7d af       	std	Y+61, r23	; 0x3d
    517c:	8e af       	std	Y+62, r24	; 0x3e
    517e:	9f af       	std	Y+63, r25	; 0x3f
    5180:	29 97       	sbiw	r28, 0x09	; 9
    5182:	ab 01       	movw	r20, r22
    5184:	bc 01       	movw	r22, r24
    5186:	40 1b       	sub	r20, r16
    5188:	51 09       	sbc	r21, r1
    518a:	61 09       	sbc	r22, r1
    518c:	71 09       	sbc	r23, r1
    518e:	81 2f       	mov	r24, r17
    5190:	90 e0       	ldi	r25, 0x00	; 0
    5192:	b0 e0       	ldi	r27, 0x00	; 0
    5194:	a0 e0       	ldi	r26, 0x00	; 0
    5196:	84 17       	cp	r24, r20
    5198:	95 07       	cpc	r25, r21
    519a:	a6 07       	cpc	r26, r22
    519c:	b7 07       	cpc	r27, r23
    519e:	a8 f5       	brcc	.+106    	; 0x520a <main+0x66e>
    51a0:	e0 91 f0 03 	lds	r30, 0x03F0	; 0x8003f0 <read_button_function>
    51a4:	f0 91 f1 03 	lds	r31, 0x03F1	; 0x8003f1 <read_button_function+0x1>
    51a8:	09 81       	ldd	r16, Y+1	; 0x01
    51aa:	1a 81       	ldd	r17, Y+2	; 0x02
    51ac:	2b 81       	ldd	r18, Y+3	; 0x03
    51ae:	3c 81       	ldd	r19, Y+4	; 0x04
    51b0:	4d 81       	ldd	r20, Y+5	; 0x05
    51b2:	5e 81       	ldd	r21, Y+6	; 0x06
    51b4:	6f 81       	ldd	r22, Y+7	; 0x07
    51b6:	78 85       	ldd	r23, Y+8	; 0x08
    51b8:	89 85       	ldd	r24, Y+9	; 0x09
    51ba:	09 95       	icall
    51bc:	86 01       	movw	r16, r12
    51be:	09 2c       	mov	r0, r9
    51c0:	02 c0       	rjmp	.+4      	; 0x51c6 <main+0x62a>
    51c2:	00 0f       	add	r16, r16
    51c4:	11 1f       	adc	r17, r17
    51c6:	0a 94       	dec	r0
    51c8:	e2 f7       	brpl	.-8      	; 0x51c2 <main+0x626>
    51ca:	e8 2e       	mov	r14, r24
    51cc:	f1 2c       	mov	r15, r1
    51ce:	80 91 bb 02 	lds	r24, 0x02BB	; 0x8002bb <controller>
    51d2:	90 91 bc 02 	lds	r25, 0x02BC	; 0x8002bc <controller+0x1>
    51d6:	80 23       	and	r24, r16
    51d8:	91 23       	and	r25, r17
    51da:	e8 16       	cp	r14, r24
    51dc:	f9 06       	cpc	r15, r25
    51de:	a9 f0       	breq	.+42     	; 0x520a <main+0x66e>
    51e0:	0e 94 4c 09 	call	0x1298	; 0x1298 <millis>
    51e4:	00 95       	com	r16
    51e6:	10 95       	com	r17
    51e8:	80 91 bb 02 	lds	r24, 0x02BB	; 0x8002bb <controller>
    51ec:	90 91 bc 02 	lds	r25, 0x02BC	; 0x8002bc <controller+0x1>
    51f0:	08 23       	and	r16, r24
    51f2:	19 23       	and	r17, r25
    51f4:	02 c0       	rjmp	.+4      	; 0x51fa <main+0x65e>
    51f6:	ee 0c       	add	r14, r14
    51f8:	ff 1c       	adc	r15, r15
    51fa:	9a 94       	dec	r9
    51fc:	e2 f7       	brpl	.-8      	; 0x51f6 <main+0x65a>
    51fe:	e0 2a       	or	r14, r16
    5200:	f1 2a       	or	r15, r17
    5202:	f0 92 bc 02 	sts	0x02BC, r15	; 0x8002bc <controller+0x1>
    5206:	e0 92 bb 02 	sts	0x02BB, r14	; 0x8002bb <controller>
    520a:	b3 94       	inc	r11
    520c:	9a cd       	rjmp	.-1228   	; 0x4d42 <main+0x1a6>
    520e:	0e 94 4c 09 	call	0x1298	; 0x1298 <millis>
    5212:	29 96       	adiw	r28, 0x09	; 9
    5214:	6c af       	std	Y+60, r22	; 0x3c
    5216:	7d af       	std	Y+61, r23	; 0x3d
    5218:	8e af       	std	Y+62, r24	; 0x3e
    521a:	9f af       	std	Y+63, r25	; 0x3f
    521c:	29 97       	sbiw	r28, 0x09	; 9
    521e:	80 91 c7 02 	lds	r24, 0x02C7	; 0x8002c7 <lastPoll>
    5222:	90 91 c8 02 	lds	r25, 0x02C8	; 0x8002c8 <lastPoll+0x1>
    5226:	a0 91 c9 02 	lds	r26, 0x02C9	; 0x8002c9 <lastPoll+0x2>
    522a:	b0 91 ca 02 	lds	r27, 0x02CA	; 0x8002ca <lastPoll+0x3>
    522e:	29 96       	adiw	r28, 0x09	; 9
    5230:	2c ad       	ldd	r18, Y+60	; 0x3c
    5232:	3d ad       	ldd	r19, Y+61	; 0x3d
    5234:	4e ad       	ldd	r20, Y+62	; 0x3e
    5236:	5f ad       	ldd	r21, Y+63	; 0x3f
    5238:	29 97       	sbiw	r28, 0x09	; 9
    523a:	28 1b       	sub	r18, r24
    523c:	39 0b       	sbc	r19, r25
    523e:	4a 0b       	sbc	r20, r26
    5240:	5b 0b       	sbc	r21, r27
    5242:	da 01       	movw	r26, r20
    5244:	c9 01       	movw	r24, r18
    5246:	85 36       	cpi	r24, 0x65	; 101
    5248:	91 05       	cpc	r25, r1
    524a:	a1 05       	cpc	r26, r1
    524c:	b1 05       	cpc	r27, r1
    524e:	08 f0       	brcs	.+2      	; 0x5252 <main+0x6b6>
    5250:	f2 cd       	rjmp	.-1052   	; 0x4e36 <main+0x29a>
    5252:	d3 cc       	rjmp	.-1626   	; 0x4bfa <main+0x5e>
    5254:	89 a1       	ldd	r24, Y+33	; 0x21
    5256:	9a a1       	ldd	r25, Y+34	; 0x22
    5258:	99 23       	and	r25, r25
    525a:	09 f4       	brne	.+2      	; 0x525e <main+0x6c2>
    525c:	ae c0       	rjmp	.+348    	; 0x53ba <main+0x81e>
    525e:	98 e0       	ldi	r25, 0x08	; 8
    5260:	90 93 4c 02 	sts	0x024C, r25	; 0x80024c <dbuf>
    5264:	8e 33       	cpi	r24, 0x3E	; 62
    5266:	10 f1       	brcs	.+68     	; 0x52ac <main+0x710>
    5268:	8e 53       	subi	r24, 0x3E	; 62
    526a:	99 0b       	sbc	r25, r25
    526c:	22 e3       	ldi	r18, 0x32	; 50
    526e:	28 9f       	mul	r18, r24
    5270:	b0 01       	movw	r22, r0
    5272:	29 9f       	mul	r18, r25
    5274:	70 0d       	add	r23, r0
    5276:	11 24       	eor	r1, r1
    5278:	02 e1       	ldi	r16, 0x12	; 18
    527a:	11 e0       	ldi	r17, 0x01	; 1
    527c:	06 1b       	sub	r16, r22
    527e:	17 0b       	sbc	r17, r23
    5280:	02 33       	cpi	r16, 0x32	; 50
    5282:	11 05       	cpc	r17, r1
    5284:	14 f0       	brlt	.+4      	; 0x528a <main+0x6ee>
    5286:	02 e3       	ldi	r16, 0x32	; 50
    5288:	10 e0       	ldi	r17, 0x00	; 0
    528a:	a8 01       	movw	r20, r16
    528c:	55 27       	eor	r21, r21
    528e:	6f 5f       	subi	r22, 0xFF	; 255
    5290:	7f 4f       	sbci	r23, 0xFF	; 255
    5292:	8d e4       	ldi	r24, 0x4D	; 77
    5294:	92 e0       	ldi	r25, 0x02	; 2
    5296:	ca d2       	rcall	.+1428   	; 0x582c <eeprom_read_block>
    5298:	41 e0       	ldi	r20, 0x01	; 1
    529a:	40 0f       	add	r20, r16
    529c:	be 01       	movw	r22, r28
    529e:	6f 5f       	subi	r22, 0xFF	; 255
    52a0:	7f 4f       	sbci	r23, 0xFF	; 255
    52a2:	8c e4       	ldi	r24, 0x4C	; 76
    52a4:	92 e0       	ldi	r25, 0x02	; 2
    52a6:	0e 94 69 0f 	call	0x1ed2	; 0x1ed2 <tickRFTX>
    52aa:	da cd       	rjmp	.-1100   	; 0x4e60 <main+0x2c4>
    52ac:	82 33       	cpi	r24, 0x32	; 50
    52ae:	19 f0       	breq	.+6      	; 0x52b6 <main+0x71a>
    52b0:	87 33       	cpi	r24, 0x37	; 55
    52b2:	09 f0       	breq	.+2      	; 0x52b6 <main+0x71a>
    52b4:	47 c0       	rjmp	.+142    	; 0x5344 <main+0x7a8>
    52b6:	6a eb       	ldi	r22, 0xBA	; 186
    52b8:	70 e0       	ldi	r23, 0x00	; 0
    52ba:	82 e5       	ldi	r24, 0x52	; 82
    52bc:	92 e0       	ldi	r25, 0x02	; 2
    52be:	92 d2       	rcall	.+1316   	; 0x57e4 <strcpy_P>
    52c0:	80 e0       	ldi	r24, 0x00	; 0
    52c2:	92 e1       	ldi	r25, 0x12	; 18
    52c4:	aa e7       	ldi	r26, 0x7A	; 122
    52c6:	b0 e0       	ldi	r27, 0x00	; 0
    52c8:	80 93 4d 02 	sts	0x024D, r24	; 0x80024d <dbuf+0x1>
    52cc:	90 93 4e 02 	sts	0x024E, r25	; 0x80024e <dbuf+0x2>
    52d0:	a0 93 4f 02 	sts	0x024F, r26	; 0x80024f <dbuf+0x3>
    52d4:	b0 93 50 02 	sts	0x0250, r27	; 0x800250 <dbuf+0x4>
    52d8:	87 e6       	ldi	r24, 0x67	; 103
    52da:	95 e4       	ldi	r25, 0x45	; 69
    52dc:	a3 e2       	ldi	r26, 0x23	; 35
    52de:	b1 e0       	ldi	r27, 0x01	; 1
    52e0:	f0 e0       	ldi	r31, 0x00	; 0
    52e2:	e0 e0       	ldi	r30, 0x00	; 0
    52e4:	11 e2       	ldi	r17, 0x21	; 33
    52e6:	10 93 57 00 	sts	0x0057, r17	; 0x800057 <__TEXT_REGION_LENGTH__+0x7e0057>
    52ea:	24 91       	lpm	r18, Z
    52ec:	82 27       	eor	r24, r18
    52ee:	28 e0       	ldi	r18, 0x08	; 8
    52f0:	30 e0       	ldi	r19, 0x00	; 0
    52f2:	ac 01       	movw	r20, r24
    52f4:	bd 01       	movw	r22, r26
    52f6:	41 70       	andi	r20, 0x01	; 1
    52f8:	55 27       	eor	r21, r21
    52fa:	66 27       	eor	r22, r22
    52fc:	77 27       	eor	r23, r23
    52fe:	b6 95       	lsr	r27
    5300:	a7 95       	ror	r26
    5302:	97 95       	ror	r25
    5304:	87 95       	ror	r24
    5306:	45 2b       	or	r20, r21
    5308:	46 2b       	or	r20, r22
    530a:	47 2b       	or	r20, r23
    530c:	41 f0       	breq	.+16     	; 0x531e <main+0x782>
    530e:	40 e2       	ldi	r20, 0x20	; 32
    5310:	84 27       	eor	r24, r20
    5312:	43 e8       	ldi	r20, 0x83	; 131
    5314:	94 27       	eor	r25, r20
    5316:	48 eb       	ldi	r20, 0xB8	; 184
    5318:	a4 27       	eor	r26, r20
    531a:	4d ee       	ldi	r20, 0xED	; 237
    531c:	b4 27       	eor	r27, r20
    531e:	21 50       	subi	r18, 0x01	; 1
    5320:	31 09       	sbc	r19, r1
    5322:	39 f7       	brne	.-50     	; 0x52f2 <main+0x756>
    5324:	31 96       	adiw	r30, 0x01	; 1
    5326:	e0 32       	cpi	r30, 0x20	; 32
    5328:	f1 05       	cpc	r31, r1
    532a:	e9 f6       	brne	.-70     	; 0x52e6 <main+0x74a>
    532c:	80 93 61 02 	sts	0x0261, r24	; 0x800261 <dbuf+0x15>
    5330:	90 93 62 02 	sts	0x0262, r25	; 0x800262 <dbuf+0x16>
    5334:	a0 93 63 02 	sts	0x0263, r26	; 0x800263 <dbuf+0x17>
    5338:	b0 93 64 02 	sts	0x0264, r27	; 0x800264 <dbuf+0x18>
    533c:	10 92 51 02 	sts	0x0251, r1	; 0x800251 <dbuf+0x5>
    5340:	49 e1       	ldi	r20, 0x19	; 25
    5342:	ac cf       	rjmp	.-168    	; 0x529c <main+0x700>
    5344:	8c 33       	cpi	r24, 0x3C	; 60
    5346:	59 f4       	brne	.+22     	; 0x535e <main+0x7c2>
    5348:	8c e0       	ldi	r24, 0x0C	; 12
    534a:	e0 e4       	ldi	r30, 0x40	; 64
    534c:	f2 e0       	ldi	r31, 0x02	; 2
    534e:	ad e4       	ldi	r26, 0x4D	; 77
    5350:	b2 e0       	ldi	r27, 0x02	; 2
    5352:	01 90       	ld	r0, Z+
    5354:	0d 92       	st	X+, r0
    5356:	8a 95       	dec	r24
    5358:	e1 f7       	brne	.-8      	; 0x5352 <main+0x7b6>
    535a:	4d e0       	ldi	r20, 0x0D	; 13
    535c:	9f cf       	rjmp	.-194    	; 0x529c <main+0x700>
    535e:	85 33       	cpi	r24, 0x35	; 53
    5360:	99 f4       	brne	.+38     	; 0x5388 <main+0x7ec>
    5362:	40 91 59 04 	lds	r20, 0x0459	; 0x800459 <inputType>
    5366:	41 30       	cpi	r20, 0x01	; 1
    5368:	41 f4       	brne	.+16     	; 0x537a <main+0x7de>
    536a:	80 91 03 01 	lds	r24, 0x0103	; 0x800103 <wiiExtensionID>
    536e:	80 93 4d 02 	sts	0x024D, r24	; 0x80024d <dbuf+0x1>
    5372:	10 92 4e 02 	sts	0x024E, r1	; 0x80024e <dbuf+0x2>
    5376:	43 e0       	ldi	r20, 0x03	; 3
    5378:	91 cf       	rjmp	.-222    	; 0x529c <main+0x700>
    537a:	43 30       	cpi	r20, 0x03	; 3
    537c:	e1 f7       	brne	.-8      	; 0x5376 <main+0x7da>
    537e:	80 91 02 01 	lds	r24, 0x0102	; 0x800102 <ps2CtrlType>
    5382:	80 93 4d 02 	sts	0x024D, r24	; 0x80024d <dbuf+0x1>
    5386:	8a cf       	rjmp	.-236    	; 0x529c <main+0x700>
    5388:	86 33       	cpi	r24, 0x36	; 54
    538a:	41 f4       	brne	.+16     	; 0x539c <main+0x800>
    538c:	80 91 05 01 	lds	r24, 0x0105	; 0x800105 <detectedPin>
    5390:	80 93 4d 02 	sts	0x024D, r24	; 0x80024d <dbuf+0x1>
    5394:	0e 94 89 0c 	call	0x1912	; 0x1912 <stopSearching>
    5398:	42 e0       	ldi	r20, 0x02	; 2
    539a:	80 cf       	rjmp	.-256    	; 0x529c <main+0x700>
    539c:	48 e0       	ldi	r20, 0x08	; 8
    539e:	50 e0       	ldi	r21, 0x00	; 0
    53a0:	62 eb       	ldi	r22, 0xB2	; 178
    53a2:	70 e0       	ldi	r23, 0x00	; 0
    53a4:	8d e4       	ldi	r24, 0x4D	; 77
    53a6:	92 e0       	ldi	r25, 0x02	; 2
    53a8:	14 d2       	rcall	.+1064   	; 0x57d2 <memcpy_P>
    53aa:	80 91 5c 04 	lds	r24, 0x045C	; 0x80045c <fullDeviceType>
    53ae:	8f 31       	cpi	r24, 0x1F	; 31
    53b0:	10 f4       	brcc	.+4      	; 0x53b6 <main+0x81a>
    53b2:	10 92 50 02 	sts	0x0250, r1	; 0x800250 <dbuf+0x4>
    53b6:	49 e0       	ldi	r20, 0x09	; 9
    53b8:	71 cf       	rjmp	.-286    	; 0x529c <main+0x700>
    53ba:	8d 33       	cpi	r24, 0x3D	; 61
    53bc:	69 f4       	brne	.+26     	; 0x53d8 <main+0x83c>
    53be:	6b a1       	ldd	r22, Y+35	; 0x23
    53c0:	5c e1       	ldi	r21, 0x1C	; 28
    53c2:	65 9f       	mul	r22, r21
    53c4:	b0 01       	movw	r22, r0
    53c6:	11 24       	eor	r1, r1
    53c8:	6f 5f       	subi	r22, 0xFF	; 255
    53ca:	7f 4f       	sbci	r23, 0xFF	; 255
    53cc:	4d e1       	ldi	r20, 0x1D	; 29
    53ce:	50 e0       	ldi	r21, 0x00	; 0
    53d0:	ce 01       	movw	r24, r28
    53d2:	84 96       	adiw	r24, 0x24	; 36
    53d4:	3b d2       	rcall	.+1142   	; 0x584c <eeprom_update_block>
    53d6:	44 cd       	rjmp	.-1400   	; 0x4e60 <main+0x2c4>
    53d8:	83 33       	cpi	r24, 0x33	; 51
    53da:	e9 f1       	breq	.+122    	; 0x5456 <main+0x8ba>
    53dc:	68 f4       	brcc	.+26     	; 0x53f8 <main+0x85c>
    53de:	80 33       	cpi	r24, 0x30	; 48
    53e0:	49 f0       	breq	.+18     	; 0x53f4 <main+0x858>
    53e2:	81 33       	cpi	r24, 0x31	; 49
    53e4:	09 f0       	breq	.+2      	; 0x53e8 <main+0x84c>
    53e6:	3c cd       	rjmp	.-1416   	; 0x4e60 <main+0x2c4>
    53e8:	87 e7       	ldi	r24, 0x77	; 119
    53ea:	97 e7       	ldi	r25, 0x77	; 119
    53ec:	90 93 01 08 	sts	0x0801, r25	; 0x800801 <__bss_end+0x3a4>
    53f0:	80 93 00 08 	sts	0x0800, r24	; 0x800800 <__bss_end+0x3a3>
    53f4:	0e 94 fd 0e 	call	0x1dfa	; 0x1dfa <reboot>
    53f8:	84 33       	cpi	r24, 0x34	; 52
    53fa:	31 f0       	breq	.+12     	; 0x5408 <main+0x86c>
    53fc:	8a 33       	cpi	r24, 0x3A	; 58
    53fe:	09 f0       	breq	.+2      	; 0x5402 <main+0x866>
    5400:	2f cd       	rjmp	.-1442   	; 0x4e60 <main+0x2c4>
    5402:	0e 94 ea 13 	call	0x27d4	; 0x27d4 <resetConfig>
    5406:	2c cd       	rjmp	.-1448   	; 0x4e60 <main+0x2c4>
    5408:	80 91 99 02 	lds	r24, 0x0299	; 0x800299 <lookingForAnalog>
    540c:	81 11       	cpse	r24, r1
    540e:	28 cd       	rjmp	.-1456   	; 0x4e60 <main+0x2c4>
    5410:	8f ef       	ldi	r24, 0xFF	; 255
    5412:	80 93 05 01 	sts	0x0105, r24	; 0x800105 <detectedPin>
    5416:	0e 94 ac 0b 	call	0x1758	; 0x1758 <stopReading>
    541a:	0d e8       	ldi	r16, 0x8D	; 141
    541c:	12 e0       	ldi	r17, 0x02	; 2
    541e:	8e e0       	ldi	r24, 0x0E	; 14
    5420:	f8 2e       	mov	r15, r24
    5422:	62 e0       	ldi	r22, 0x02	; 2
    5424:	8f 2d       	mov	r24, r15
    5426:	0e 94 b4 0b 	call	0x1768	; 0x1768 <pinMode>
    542a:	87 ec       	ldi	r24, 0xC7	; 199
    542c:	90 e0       	ldi	r25, 0x00	; 0
    542e:	01 97       	sbiw	r24, 0x01	; 1
    5430:	f1 f7       	brne	.-4      	; 0x542e <main+0x892>
    5432:	00 c0       	rjmp	.+0      	; 0x5434 <main+0x898>
    5434:	00 00       	nop
    5436:	82 ef       	ldi	r24, 0xF2	; 242
    5438:	8f 0d       	add	r24, r15
    543a:	0e 94 9b 0b 	call	0x1736	; 0x1736 <analogRead>
    543e:	d8 01       	movw	r26, r16
    5440:	8d 93       	st	X+, r24
    5442:	9d 93       	st	X+, r25
    5444:	8d 01       	movw	r16, r26
    5446:	f3 94       	inc	r15
    5448:	b4 e1       	ldi	r27, 0x14	; 20
    544a:	fb 12       	cpse	r15, r27
    544c:	ea cf       	rjmp	.-44     	; 0x5422 <main+0x886>
    544e:	81 e0       	ldi	r24, 0x01	; 1
    5450:	80 93 99 02 	sts	0x0299, r24	; 0x800299 <lookingForAnalog>
    5454:	05 cd       	rjmp	.-1526   	; 0x4e60 <main+0x2c4>
    5456:	80 91 ae 02 	lds	r24, 0x02AE	; 0x8002ae <lookingForDigital>
    545a:	81 11       	cpse	r24, r1
    545c:	01 cd       	rjmp	.-1534   	; 0x4e60 <main+0x2c4>
    545e:	8f ef       	ldi	r24, 0xFF	; 255
    5460:	80 93 05 01 	sts	0x0105, r24	; 0x800105 <detectedPin>
    5464:	0e 94 ac 0b 	call	0x1758	; 0x1758 <stopReading>
    5468:	10 e0       	ldi	r17, 0x00	; 0
    546a:	00 e0       	ldi	r16, 0x00	; 0
    546c:	80 2f       	mov	r24, r16
    546e:	0e 94 6e 0c 	call	0x18dc	; 0x18dc <shouldSkipPin>
    5472:	81 11       	cpse	r24, r1
    5474:	11 c0       	rjmp	.+34     	; 0x5498 <main+0x8fc>
    5476:	62 e0       	ldi	r22, 0x02	; 2
    5478:	80 2f       	mov	r24, r16
    547a:	0e 94 b4 0b 	call	0x1768	; 0x1768 <pinMode>
    547e:	e7 ec       	ldi	r30, 0xC7	; 199
    5480:	f0 e0       	ldi	r31, 0x00	; 0
    5482:	31 97       	sbiw	r30, 0x01	; 1
    5484:	f1 f7       	brne	.-4      	; 0x5482 <main+0x8e6>
    5486:	00 c0       	rjmp	.+0      	; 0x5488 <main+0x8ec>
    5488:	00 00       	nop
    548a:	80 2f       	mov	r24, r16
    548c:	0e 94 6f 0b 	call	0x16de	; 0x16de <digitalRead>
    5490:	f8 01       	movw	r30, r16
    5492:	e6 56       	subi	r30, 0x66	; 102
    5494:	fd 4f       	sbci	r31, 0xFD	; 253
    5496:	80 83       	st	Z, r24
    5498:	0f 5f       	subi	r16, 0xFF	; 255
    549a:	1f 4f       	sbci	r17, 0xFF	; 255
    549c:	04 31       	cpi	r16, 0x14	; 20
    549e:	11 05       	cpc	r17, r1
    54a0:	29 f7       	brne	.-54     	; 0x546c <main+0x8d0>
    54a2:	81 e0       	ldi	r24, 0x01	; 1
    54a4:	80 93 ae 02 	sts	0x02AE, r24	; 0x8002ae <lookingForDigital>
    54a8:	db cc       	rjmp	.-1610   	; 0x4e60 <main+0x2c4>

000054aa <lrint>:
    54aa:	41 d0       	rcall	.+130    	; 0x552e <__fp_splitA>
    54ac:	a8 f1       	brcs	.+106    	; 0x5518 <lrint+0x6e>
    54ae:	9e 57       	subi	r25, 0x7E	; 126
    54b0:	a8 f1       	brcs	.+106    	; 0x551c <lrint+0x72>
    54b2:	98 51       	subi	r25, 0x18	; 24
    54b4:	60 f0       	brcs	.+24     	; 0x54ce <lrint+0x24>
    54b6:	39 f1       	breq	.+78     	; 0x5506 <lrint+0x5c>
    54b8:	98 30       	cpi	r25, 0x08	; 8
    54ba:	70 f5       	brcc	.+92     	; 0x5518 <lrint+0x6e>
    54bc:	09 2e       	mov	r0, r25
    54be:	99 27       	eor	r25, r25
    54c0:	66 0f       	add	r22, r22
    54c2:	77 1f       	adc	r23, r23
    54c4:	88 1f       	adc	r24, r24
    54c6:	99 1f       	adc	r25, r25
    54c8:	0a 94       	dec	r0
    54ca:	d1 f7       	brne	.-12     	; 0x54c0 <lrint+0x16>
    54cc:	1c c0       	rjmp	.+56     	; 0x5506 <lrint+0x5c>
    54ce:	bb 27       	eor	r27, r27
    54d0:	99 3f       	cpi	r25, 0xF9	; 249
    54d2:	4c f4       	brge	.+18     	; 0x54e6 <lrint+0x3c>
    54d4:	b1 11       	cpse	r27, r1
    54d6:	b1 e0       	ldi	r27, 0x01	; 1
    54d8:	b6 2b       	or	r27, r22
    54da:	67 2f       	mov	r22, r23
    54dc:	78 2f       	mov	r23, r24
    54de:	88 27       	eor	r24, r24
    54e0:	98 5f       	subi	r25, 0xF8	; 248
    54e2:	b1 f7       	brne	.-20     	; 0x54d0 <lrint+0x26>
    54e4:	08 c0       	rjmp	.+16     	; 0x54f6 <lrint+0x4c>
    54e6:	86 95       	lsr	r24
    54e8:	77 95       	ror	r23
    54ea:	67 95       	ror	r22
    54ec:	b7 95       	ror	r27
    54ee:	08 f4       	brcc	.+2      	; 0x54f2 <lrint+0x48>
    54f0:	b1 60       	ori	r27, 0x01	; 1
    54f2:	93 95       	inc	r25
    54f4:	c1 f7       	brne	.-16     	; 0x54e6 <lrint+0x3c>
    54f6:	bb 0f       	add	r27, r27
    54f8:	30 f4       	brcc	.+12     	; 0x5506 <lrint+0x5c>
    54fa:	11 f4       	brne	.+4      	; 0x5500 <lrint+0x56>
    54fc:	60 ff       	sbrs	r22, 0
    54fe:	03 c0       	rjmp	.+6      	; 0x5506 <lrint+0x5c>
    5500:	6f 5f       	subi	r22, 0xFF	; 255
    5502:	7f 4f       	sbci	r23, 0xFF	; 255
    5504:	8f 4f       	sbci	r24, 0xFF	; 255
    5506:	3e f4       	brtc	.+14     	; 0x5516 <lrint+0x6c>
    5508:	90 95       	com	r25
    550a:	80 95       	com	r24
    550c:	70 95       	com	r23
    550e:	61 95       	neg	r22
    5510:	7f 4f       	sbci	r23, 0xFF	; 255
    5512:	8f 4f       	sbci	r24, 0xFF	; 255
    5514:	9f 4f       	sbci	r25, 0xFF	; 255
    5516:	08 95       	ret
    5518:	68 94       	set
    551a:	24 c0       	rjmp	.+72     	; 0x5564 <__fp_szero>
    551c:	22 c0       	rjmp	.+68     	; 0x5562 <__fp_zero>

0000551e <__fp_split3>:
    551e:	57 fd       	sbrc	r21, 7
    5520:	90 58       	subi	r25, 0x80	; 128
    5522:	44 0f       	add	r20, r20
    5524:	55 1f       	adc	r21, r21
    5526:	59 f0       	breq	.+22     	; 0x553e <__fp_splitA+0x10>
    5528:	5f 3f       	cpi	r21, 0xFF	; 255
    552a:	71 f0       	breq	.+28     	; 0x5548 <__fp_splitA+0x1a>
    552c:	47 95       	ror	r20

0000552e <__fp_splitA>:
    552e:	88 0f       	add	r24, r24
    5530:	97 fb       	bst	r25, 7
    5532:	99 1f       	adc	r25, r25
    5534:	61 f0       	breq	.+24     	; 0x554e <__fp_splitA+0x20>
    5536:	9f 3f       	cpi	r25, 0xFF	; 255
    5538:	79 f0       	breq	.+30     	; 0x5558 <__fp_splitA+0x2a>
    553a:	87 95       	ror	r24
    553c:	08 95       	ret
    553e:	12 16       	cp	r1, r18
    5540:	13 06       	cpc	r1, r19
    5542:	14 06       	cpc	r1, r20
    5544:	55 1f       	adc	r21, r21
    5546:	f2 cf       	rjmp	.-28     	; 0x552c <__fp_split3+0xe>
    5548:	46 95       	lsr	r20
    554a:	f1 df       	rcall	.-30     	; 0x552e <__fp_splitA>
    554c:	08 c0       	rjmp	.+16     	; 0x555e <__fp_splitA+0x30>
    554e:	16 16       	cp	r1, r22
    5550:	17 06       	cpc	r1, r23
    5552:	18 06       	cpc	r1, r24
    5554:	99 1f       	adc	r25, r25
    5556:	f1 cf       	rjmp	.-30     	; 0x553a <__fp_splitA+0xc>
    5558:	86 95       	lsr	r24
    555a:	71 05       	cpc	r23, r1
    555c:	61 05       	cpc	r22, r1
    555e:	08 94       	sec
    5560:	08 95       	ret

00005562 <__fp_zero>:
    5562:	e8 94       	clt

00005564 <__fp_szero>:
    5564:	bb 27       	eor	r27, r27
    5566:	66 27       	eor	r22, r22
    5568:	77 27       	eor	r23, r23
    556a:	cb 01       	movw	r24, r22
    556c:	97 f9       	bld	r25, 7
    556e:	08 95       	ret

00005570 <__mulsf3>:
    5570:	0b d0       	rcall	.+22     	; 0x5588 <__mulsf3x>
    5572:	78 c0       	rjmp	.+240    	; 0x5664 <__fp_round>
    5574:	69 d0       	rcall	.+210    	; 0x5648 <__fp_pscA>
    5576:	28 f0       	brcs	.+10     	; 0x5582 <__mulsf3+0x12>
    5578:	6e d0       	rcall	.+220    	; 0x5656 <__fp_pscB>
    557a:	18 f0       	brcs	.+6      	; 0x5582 <__mulsf3+0x12>
    557c:	95 23       	and	r25, r21
    557e:	09 f0       	breq	.+2      	; 0x5582 <__mulsf3+0x12>
    5580:	5a c0       	rjmp	.+180    	; 0x5636 <__fp_inf>
    5582:	5f c0       	rjmp	.+190    	; 0x5642 <__fp_nan>
    5584:	11 24       	eor	r1, r1
    5586:	ee cf       	rjmp	.-36     	; 0x5564 <__fp_szero>

00005588 <__mulsf3x>:
    5588:	ca df       	rcall	.-108    	; 0x551e <__fp_split3>
    558a:	a0 f3       	brcs	.-24     	; 0x5574 <__mulsf3+0x4>

0000558c <__mulsf3_pse>:
    558c:	95 9f       	mul	r25, r21
    558e:	d1 f3       	breq	.-12     	; 0x5584 <__mulsf3+0x14>
    5590:	95 0f       	add	r25, r21
    5592:	50 e0       	ldi	r21, 0x00	; 0
    5594:	55 1f       	adc	r21, r21
    5596:	62 9f       	mul	r22, r18
    5598:	f0 01       	movw	r30, r0
    559a:	72 9f       	mul	r23, r18
    559c:	bb 27       	eor	r27, r27
    559e:	f0 0d       	add	r31, r0
    55a0:	b1 1d       	adc	r27, r1
    55a2:	63 9f       	mul	r22, r19
    55a4:	aa 27       	eor	r26, r26
    55a6:	f0 0d       	add	r31, r0
    55a8:	b1 1d       	adc	r27, r1
    55aa:	aa 1f       	adc	r26, r26
    55ac:	64 9f       	mul	r22, r20
    55ae:	66 27       	eor	r22, r22
    55b0:	b0 0d       	add	r27, r0
    55b2:	a1 1d       	adc	r26, r1
    55b4:	66 1f       	adc	r22, r22
    55b6:	82 9f       	mul	r24, r18
    55b8:	22 27       	eor	r18, r18
    55ba:	b0 0d       	add	r27, r0
    55bc:	a1 1d       	adc	r26, r1
    55be:	62 1f       	adc	r22, r18
    55c0:	73 9f       	mul	r23, r19
    55c2:	b0 0d       	add	r27, r0
    55c4:	a1 1d       	adc	r26, r1
    55c6:	62 1f       	adc	r22, r18
    55c8:	83 9f       	mul	r24, r19
    55ca:	a0 0d       	add	r26, r0
    55cc:	61 1d       	adc	r22, r1
    55ce:	22 1f       	adc	r18, r18
    55d0:	74 9f       	mul	r23, r20
    55d2:	33 27       	eor	r19, r19
    55d4:	a0 0d       	add	r26, r0
    55d6:	61 1d       	adc	r22, r1
    55d8:	23 1f       	adc	r18, r19
    55da:	84 9f       	mul	r24, r20
    55dc:	60 0d       	add	r22, r0
    55de:	21 1d       	adc	r18, r1
    55e0:	82 2f       	mov	r24, r18
    55e2:	76 2f       	mov	r23, r22
    55e4:	6a 2f       	mov	r22, r26
    55e6:	11 24       	eor	r1, r1
    55e8:	9f 57       	subi	r25, 0x7F	; 127
    55ea:	50 40       	sbci	r21, 0x00	; 0
    55ec:	8a f0       	brmi	.+34     	; 0x5610 <__mulsf3_pse+0x84>
    55ee:	e1 f0       	breq	.+56     	; 0x5628 <__mulsf3_pse+0x9c>
    55f0:	88 23       	and	r24, r24
    55f2:	4a f0       	brmi	.+18     	; 0x5606 <__mulsf3_pse+0x7a>
    55f4:	ee 0f       	add	r30, r30
    55f6:	ff 1f       	adc	r31, r31
    55f8:	bb 1f       	adc	r27, r27
    55fa:	66 1f       	adc	r22, r22
    55fc:	77 1f       	adc	r23, r23
    55fe:	88 1f       	adc	r24, r24
    5600:	91 50       	subi	r25, 0x01	; 1
    5602:	50 40       	sbci	r21, 0x00	; 0
    5604:	a9 f7       	brne	.-22     	; 0x55f0 <__mulsf3_pse+0x64>
    5606:	9e 3f       	cpi	r25, 0xFE	; 254
    5608:	51 05       	cpc	r21, r1
    560a:	70 f0       	brcs	.+28     	; 0x5628 <__mulsf3_pse+0x9c>
    560c:	14 c0       	rjmp	.+40     	; 0x5636 <__fp_inf>
    560e:	aa cf       	rjmp	.-172    	; 0x5564 <__fp_szero>
    5610:	5f 3f       	cpi	r21, 0xFF	; 255
    5612:	ec f3       	brlt	.-6      	; 0x560e <__mulsf3_pse+0x82>
    5614:	98 3e       	cpi	r25, 0xE8	; 232
    5616:	dc f3       	brlt	.-10     	; 0x560e <__mulsf3_pse+0x82>
    5618:	86 95       	lsr	r24
    561a:	77 95       	ror	r23
    561c:	67 95       	ror	r22
    561e:	b7 95       	ror	r27
    5620:	f7 95       	ror	r31
    5622:	e7 95       	ror	r30
    5624:	9f 5f       	subi	r25, 0xFF	; 255
    5626:	c1 f7       	brne	.-16     	; 0x5618 <__mulsf3_pse+0x8c>
    5628:	fe 2b       	or	r31, r30
    562a:	88 0f       	add	r24, r24
    562c:	91 1d       	adc	r25, r1
    562e:	96 95       	lsr	r25
    5630:	87 95       	ror	r24
    5632:	97 f9       	bld	r25, 7
    5634:	08 95       	ret

00005636 <__fp_inf>:
    5636:	97 f9       	bld	r25, 7
    5638:	9f 67       	ori	r25, 0x7F	; 127
    563a:	80 e8       	ldi	r24, 0x80	; 128
    563c:	70 e0       	ldi	r23, 0x00	; 0
    563e:	60 e0       	ldi	r22, 0x00	; 0
    5640:	08 95       	ret

00005642 <__fp_nan>:
    5642:	9f ef       	ldi	r25, 0xFF	; 255
    5644:	80 ec       	ldi	r24, 0xC0	; 192
    5646:	08 95       	ret

00005648 <__fp_pscA>:
    5648:	00 24       	eor	r0, r0
    564a:	0a 94       	dec	r0
    564c:	16 16       	cp	r1, r22
    564e:	17 06       	cpc	r1, r23
    5650:	18 06       	cpc	r1, r24
    5652:	09 06       	cpc	r0, r25
    5654:	08 95       	ret

00005656 <__fp_pscB>:
    5656:	00 24       	eor	r0, r0
    5658:	0a 94       	dec	r0
    565a:	12 16       	cp	r1, r18
    565c:	13 06       	cpc	r1, r19
    565e:	14 06       	cpc	r1, r20
    5660:	05 06       	cpc	r0, r21
    5662:	08 95       	ret

00005664 <__fp_round>:
    5664:	09 2e       	mov	r0, r25
    5666:	03 94       	inc	r0
    5668:	00 0c       	add	r0, r0
    566a:	11 f4       	brne	.+4      	; 0x5670 <__fp_round+0xc>
    566c:	88 23       	and	r24, r24
    566e:	52 f0       	brmi	.+20     	; 0x5684 <__fp_round+0x20>
    5670:	bb 0f       	add	r27, r27
    5672:	40 f4       	brcc	.+16     	; 0x5684 <__fp_round+0x20>
    5674:	bf 2b       	or	r27, r31
    5676:	11 f4       	brne	.+4      	; 0x567c <__fp_round+0x18>
    5678:	60 ff       	sbrs	r22, 0
    567a:	04 c0       	rjmp	.+8      	; 0x5684 <__fp_round+0x20>
    567c:	6f 5f       	subi	r22, 0xFF	; 255
    567e:	7f 4f       	sbci	r23, 0xFF	; 255
    5680:	8f 4f       	sbci	r24, 0xFF	; 255
    5682:	9f 4f       	sbci	r25, 0xFF	; 255
    5684:	08 95       	ret

00005686 <__mulsi3>:
    5686:	db 01       	movw	r26, r22
    5688:	8f 93       	push	r24
    568a:	9f 93       	push	r25
    568c:	92 d0       	rcall	.+292    	; 0x57b2 <__muluhisi3>
    568e:	bf 91       	pop	r27
    5690:	af 91       	pop	r26
    5692:	a2 9f       	mul	r26, r18
    5694:	80 0d       	add	r24, r0
    5696:	91 1d       	adc	r25, r1
    5698:	a3 9f       	mul	r26, r19
    569a:	90 0d       	add	r25, r0
    569c:	b2 9f       	mul	r27, r18
    569e:	90 0d       	add	r25, r0
    56a0:	11 24       	eor	r1, r1
    56a2:	08 95       	ret

000056a4 <__udivmodhi4>:
    56a4:	aa 1b       	sub	r26, r26
    56a6:	bb 1b       	sub	r27, r27
    56a8:	51 e1       	ldi	r21, 0x11	; 17
    56aa:	07 c0       	rjmp	.+14     	; 0x56ba <__udivmodhi4_ep>

000056ac <__udivmodhi4_loop>:
    56ac:	aa 1f       	adc	r26, r26
    56ae:	bb 1f       	adc	r27, r27
    56b0:	a6 17       	cp	r26, r22
    56b2:	b7 07       	cpc	r27, r23
    56b4:	10 f0       	brcs	.+4      	; 0x56ba <__udivmodhi4_ep>
    56b6:	a6 1b       	sub	r26, r22
    56b8:	b7 0b       	sbc	r27, r23

000056ba <__udivmodhi4_ep>:
    56ba:	88 1f       	adc	r24, r24
    56bc:	99 1f       	adc	r25, r25
    56be:	5a 95       	dec	r21
    56c0:	a9 f7       	brne	.-22     	; 0x56ac <__udivmodhi4_loop>
    56c2:	80 95       	com	r24
    56c4:	90 95       	com	r25
    56c6:	bc 01       	movw	r22, r24
    56c8:	cd 01       	movw	r24, r26
    56ca:	08 95       	ret

000056cc <__divmodhi4>:
    56cc:	97 fb       	bst	r25, 7
    56ce:	07 2e       	mov	r0, r23
    56d0:	16 f4       	brtc	.+4      	; 0x56d6 <__divmodhi4+0xa>
    56d2:	00 94       	com	r0
    56d4:	06 d0       	rcall	.+12     	; 0x56e2 <__divmodhi4_neg1>
    56d6:	77 fd       	sbrc	r23, 7
    56d8:	08 d0       	rcall	.+16     	; 0x56ea <__divmodhi4_neg2>
    56da:	e4 df       	rcall	.-56     	; 0x56a4 <__udivmodhi4>
    56dc:	07 fc       	sbrc	r0, 7
    56de:	05 d0       	rcall	.+10     	; 0x56ea <__divmodhi4_neg2>
    56e0:	3e f4       	brtc	.+14     	; 0x56f0 <__divmodhi4_exit>

000056e2 <__divmodhi4_neg1>:
    56e2:	90 95       	com	r25
    56e4:	81 95       	neg	r24
    56e6:	9f 4f       	sbci	r25, 0xFF	; 255
    56e8:	08 95       	ret

000056ea <__divmodhi4_neg2>:
    56ea:	70 95       	com	r23
    56ec:	61 95       	neg	r22
    56ee:	7f 4f       	sbci	r23, 0xFF	; 255

000056f0 <__divmodhi4_exit>:
    56f0:	08 95       	ret

000056f2 <__udivmodsi4>:
    56f2:	a1 e2       	ldi	r26, 0x21	; 33
    56f4:	1a 2e       	mov	r1, r26
    56f6:	aa 1b       	sub	r26, r26
    56f8:	bb 1b       	sub	r27, r27
    56fa:	fd 01       	movw	r30, r26
    56fc:	0d c0       	rjmp	.+26     	; 0x5718 <__udivmodsi4_ep>

000056fe <__udivmodsi4_loop>:
    56fe:	aa 1f       	adc	r26, r26
    5700:	bb 1f       	adc	r27, r27
    5702:	ee 1f       	adc	r30, r30
    5704:	ff 1f       	adc	r31, r31
    5706:	a2 17       	cp	r26, r18
    5708:	b3 07       	cpc	r27, r19
    570a:	e4 07       	cpc	r30, r20
    570c:	f5 07       	cpc	r31, r21
    570e:	20 f0       	brcs	.+8      	; 0x5718 <__udivmodsi4_ep>
    5710:	a2 1b       	sub	r26, r18
    5712:	b3 0b       	sbc	r27, r19
    5714:	e4 0b       	sbc	r30, r20
    5716:	f5 0b       	sbc	r31, r21

00005718 <__udivmodsi4_ep>:
    5718:	66 1f       	adc	r22, r22
    571a:	77 1f       	adc	r23, r23
    571c:	88 1f       	adc	r24, r24
    571e:	99 1f       	adc	r25, r25
    5720:	1a 94       	dec	r1
    5722:	69 f7       	brne	.-38     	; 0x56fe <__udivmodsi4_loop>
    5724:	60 95       	com	r22
    5726:	70 95       	com	r23
    5728:	80 95       	com	r24
    572a:	90 95       	com	r25
    572c:	9b 01       	movw	r18, r22
    572e:	ac 01       	movw	r20, r24
    5730:	bd 01       	movw	r22, r26
    5732:	cf 01       	movw	r24, r30
    5734:	08 95       	ret

00005736 <__divmodsi4>:
    5736:	05 2e       	mov	r0, r21
    5738:	97 fb       	bst	r25, 7
    573a:	16 f4       	brtc	.+4      	; 0x5740 <__divmodsi4+0xa>
    573c:	00 94       	com	r0
    573e:	0f d0       	rcall	.+30     	; 0x575e <__negsi2>
    5740:	57 fd       	sbrc	r21, 7
    5742:	05 d0       	rcall	.+10     	; 0x574e <__divmodsi4_neg2>
    5744:	d6 df       	rcall	.-84     	; 0x56f2 <__udivmodsi4>
    5746:	07 fc       	sbrc	r0, 7
    5748:	02 d0       	rcall	.+4      	; 0x574e <__divmodsi4_neg2>
    574a:	46 f4       	brtc	.+16     	; 0x575c <__divmodsi4_exit>
    574c:	08 c0       	rjmp	.+16     	; 0x575e <__negsi2>

0000574e <__divmodsi4_neg2>:
    574e:	50 95       	com	r21
    5750:	40 95       	com	r20
    5752:	30 95       	com	r19
    5754:	21 95       	neg	r18
    5756:	3f 4f       	sbci	r19, 0xFF	; 255
    5758:	4f 4f       	sbci	r20, 0xFF	; 255
    575a:	5f 4f       	sbci	r21, 0xFF	; 255

0000575c <__divmodsi4_exit>:
    575c:	08 95       	ret

0000575e <__negsi2>:
    575e:	90 95       	com	r25
    5760:	80 95       	com	r24
    5762:	70 95       	com	r23
    5764:	61 95       	neg	r22
    5766:	7f 4f       	sbci	r23, 0xFF	; 255
    5768:	8f 4f       	sbci	r24, 0xFF	; 255
    576a:	9f 4f       	sbci	r25, 0xFF	; 255
    576c:	08 95       	ret

0000576e <__bswapsi2>:
    576e:	69 27       	eor	r22, r25
    5770:	96 27       	eor	r25, r22
    5772:	69 27       	eor	r22, r25
    5774:	78 27       	eor	r23, r24
    5776:	87 27       	eor	r24, r23
    5778:	78 27       	eor	r23, r24
    577a:	08 95       	ret

0000577c <__mulhisi3>:
    577c:	05 d0       	rcall	.+10     	; 0x5788 <__umulhisi3>
    577e:	33 23       	and	r19, r19
    5780:	12 f4       	brpl	.+4      	; 0x5786 <__mulhisi3+0xa>
    5782:	8a 1b       	sub	r24, r26
    5784:	9b 0b       	sbc	r25, r27
    5786:	10 c0       	rjmp	.+32     	; 0x57a8 <__usmulhisi3_tail>

00005788 <__umulhisi3>:
    5788:	a2 9f       	mul	r26, r18
    578a:	b0 01       	movw	r22, r0
    578c:	b3 9f       	mul	r27, r19
    578e:	c0 01       	movw	r24, r0
    5790:	a3 9f       	mul	r26, r19
    5792:	70 0d       	add	r23, r0
    5794:	81 1d       	adc	r24, r1
    5796:	11 24       	eor	r1, r1
    5798:	91 1d       	adc	r25, r1
    579a:	b2 9f       	mul	r27, r18
    579c:	70 0d       	add	r23, r0
    579e:	81 1d       	adc	r24, r1
    57a0:	11 24       	eor	r1, r1
    57a2:	91 1d       	adc	r25, r1
    57a4:	08 95       	ret

000057a6 <__usmulhisi3>:
    57a6:	f0 df       	rcall	.-32     	; 0x5788 <__umulhisi3>

000057a8 <__usmulhisi3_tail>:
    57a8:	b7 ff       	sbrs	r27, 7
    57aa:	08 95       	ret
    57ac:	82 1b       	sub	r24, r18
    57ae:	93 0b       	sbc	r25, r19
    57b0:	08 95       	ret

000057b2 <__muluhisi3>:
    57b2:	ea df       	rcall	.-44     	; 0x5788 <__umulhisi3>
    57b4:	a5 9f       	mul	r26, r21
    57b6:	90 0d       	add	r25, r0
    57b8:	b4 9f       	mul	r27, r20
    57ba:	90 0d       	add	r25, r0
    57bc:	a4 9f       	mul	r26, r20
    57be:	80 0d       	add	r24, r0
    57c0:	91 1d       	adc	r25, r1
    57c2:	11 24       	eor	r1, r1
    57c4:	08 95       	ret

000057c6 <__mulshisi3>:
    57c6:	b7 ff       	sbrs	r27, 7
    57c8:	f4 cf       	rjmp	.-24     	; 0x57b2 <__muluhisi3>

000057ca <__mulohisi3>:
    57ca:	f3 df       	rcall	.-26     	; 0x57b2 <__muluhisi3>
    57cc:	82 1b       	sub	r24, r18
    57ce:	93 0b       	sbc	r25, r19
    57d0:	08 95       	ret

000057d2 <memcpy_P>:
    57d2:	fb 01       	movw	r30, r22
    57d4:	dc 01       	movw	r26, r24
    57d6:	02 c0       	rjmp	.+4      	; 0x57dc <memcpy_P+0xa>
    57d8:	05 90       	lpm	r0, Z+
    57da:	0d 92       	st	X+, r0
    57dc:	41 50       	subi	r20, 0x01	; 1
    57de:	50 40       	sbci	r21, 0x00	; 0
    57e0:	d8 f7       	brcc	.-10     	; 0x57d8 <memcpy_P+0x6>
    57e2:	08 95       	ret

000057e4 <strcpy_P>:
    57e4:	fb 01       	movw	r30, r22
    57e6:	dc 01       	movw	r26, r24
    57e8:	05 90       	lpm	r0, Z+
    57ea:	0d 92       	st	X+, r0
    57ec:	00 20       	and	r0, r0
    57ee:	e1 f7       	brne	.-8      	; 0x57e8 <strcpy_P+0x4>
    57f0:	08 95       	ret

000057f2 <memcmp>:
    57f2:	fb 01       	movw	r30, r22
    57f4:	dc 01       	movw	r26, r24
    57f6:	04 c0       	rjmp	.+8      	; 0x5800 <memcmp+0xe>
    57f8:	8d 91       	ld	r24, X+
    57fa:	01 90       	ld	r0, Z+
    57fc:	80 19       	sub	r24, r0
    57fe:	21 f4       	brne	.+8      	; 0x5808 <memcmp+0x16>
    5800:	41 50       	subi	r20, 0x01	; 1
    5802:	50 40       	sbci	r21, 0x00	; 0
    5804:	c8 f7       	brcc	.-14     	; 0x57f8 <memcmp+0x6>
    5806:	88 1b       	sub	r24, r24
    5808:	99 0b       	sbc	r25, r25
    580a:	08 95       	ret

0000580c <memcpy>:
    580c:	fb 01       	movw	r30, r22
    580e:	dc 01       	movw	r26, r24
    5810:	02 c0       	rjmp	.+4      	; 0x5816 <memcpy+0xa>
    5812:	01 90       	ld	r0, Z+
    5814:	0d 92       	st	X+, r0
    5816:	41 50       	subi	r20, 0x01	; 1
    5818:	50 40       	sbci	r21, 0x00	; 0
    581a:	d8 f7       	brcc	.-10     	; 0x5812 <memcpy+0x6>
    581c:	08 95       	ret

0000581e <memset>:
    581e:	dc 01       	movw	r26, r24
    5820:	01 c0       	rjmp	.+2      	; 0x5824 <memset+0x6>
    5822:	6d 93       	st	X+, r22
    5824:	41 50       	subi	r20, 0x01	; 1
    5826:	50 40       	sbci	r21, 0x00	; 0
    5828:	e0 f7       	brcc	.-8      	; 0x5822 <memset+0x4>
    582a:	08 95       	ret

0000582c <eeprom_read_block>:
    582c:	dc 01       	movw	r26, r24
    582e:	cb 01       	movw	r24, r22

00005830 <eeprom_read_blraw>:
    5830:	fc 01       	movw	r30, r24
    5832:	f9 99       	sbic	0x1f, 1	; 31
    5834:	fe cf       	rjmp	.-4      	; 0x5832 <eeprom_read_blraw+0x2>
    5836:	06 c0       	rjmp	.+12     	; 0x5844 <eeprom_read_blraw+0x14>
    5838:	f2 bd       	out	0x22, r31	; 34
    583a:	e1 bd       	out	0x21, r30	; 33
    583c:	f8 9a       	sbi	0x1f, 0	; 31
    583e:	31 96       	adiw	r30, 0x01	; 1
    5840:	00 b4       	in	r0, 0x20	; 32
    5842:	0d 92       	st	X+, r0
    5844:	41 50       	subi	r20, 0x01	; 1
    5846:	50 40       	sbci	r21, 0x00	; 0
    5848:	b8 f7       	brcc	.-18     	; 0x5838 <eeprom_read_blraw+0x8>
    584a:	08 95       	ret

0000584c <eeprom_update_block>:
    584c:	dc 01       	movw	r26, r24
    584e:	a4 0f       	add	r26, r20
    5850:	b5 1f       	adc	r27, r21
    5852:	41 50       	subi	r20, 0x01	; 1
    5854:	50 40       	sbci	r21, 0x00	; 0
    5856:	40 f0       	brcs	.+16     	; 0x5868 <eeprom_update_block+0x1c>
    5858:	cb 01       	movw	r24, r22
    585a:	84 0f       	add	r24, r20
    585c:	95 1f       	adc	r25, r21
    585e:	2e 91       	ld	r18, -X
    5860:	05 d0       	rcall	.+10     	; 0x586c <eeprom_update_r18>
    5862:	41 50       	subi	r20, 0x01	; 1
    5864:	50 40       	sbci	r21, 0x00	; 0
    5866:	d8 f7       	brcc	.-10     	; 0x585e <eeprom_update_block+0x12>
    5868:	08 95       	ret

0000586a <eeprom_update_byte>:
    586a:	26 2f       	mov	r18, r22

0000586c <eeprom_update_r18>:
    586c:	f9 99       	sbic	0x1f, 1	; 31
    586e:	fe cf       	rjmp	.-4      	; 0x586c <eeprom_update_r18>
    5870:	92 bd       	out	0x22, r25	; 34
    5872:	81 bd       	out	0x21, r24	; 33
    5874:	f8 9a       	sbi	0x1f, 0	; 31
    5876:	01 97       	sbiw	r24, 0x01	; 1
    5878:	00 b4       	in	r0, 0x20	; 32
    587a:	02 16       	cp	r0, r18
    587c:	39 f0       	breq	.+14     	; 0x588c <eeprom_update_r18+0x20>
    587e:	1f ba       	out	0x1f, r1	; 31
    5880:	20 bd       	out	0x20, r18	; 32
    5882:	0f b6       	in	r0, 0x3f	; 63
    5884:	f8 94       	cli
    5886:	fa 9a       	sbi	0x1f, 2	; 31
    5888:	f9 9a       	sbi	0x1f, 1	; 31
    588a:	0f be       	out	0x3f, r0	; 63
    588c:	08 95       	ret

0000588e <_exit>:
    588e:	f8 94       	cli

00005890 <__stop_program>:
    5890:	ff cf       	rjmp	.-2      	; 0x5890 <__stop_program>
