
ardwiino-pico-rp2040-multi.elf:     file format elf32-littlearm

Sections:
Idx Name          Size      VMA       LMA       File off  Algn
  0 .ARM.attributes 00000028  00000000  00000000  00020fe0  2**0
                  CONTENTS, READONLY
  1 .comment      0000001e  00000000  00000000  00021008  2**0
                  CONTENTS, READONLY
  2 .boot2        00000100  10000000  10000000  00010000  2**0
                  CONTENTS, ALLOC, LOAD, READONLY, CODE
  3 .text         0000ba00  10000100  10000100  00010100  2**3
                  CONTENTS, ALLOC, LOAD, READONLY, CODE
  4 .rodata       00002690  1000bb00  1000bb00  0001bb00  2**3
                  CONTENTS, ALLOC, LOAD, READONLY, DATA
  5 .binary_info  00000024  1000e190  1000e190  0001e190  2**2
                  CONTENTS, ALLOC, LOAD, DATA
  6 .ram_vector_table 000000c0  20000000  20000000  00021028  2**2
                  CONTENTS
  7 .data         00000f20  200000c0  1000e1b4  000200c0  2**4
                  CONTENTS, ALLOC, LOAD, READONLY, CODE
  8 .uninitialized_data 00000000  20000fe0  20000fe0  000210e8  2**0
                  CONTENTS
  9 .scratch_x    00000000  20040000  20040000  000210e8  2**0
                  CONTENTS
 10 .scratch_y    00000000  20041000  20041000  000210e8  2**0
                  CONTENTS
 11 .bss          0000164c  20000fe0  20000fe0  00020fe0  2**3
                  ALLOC
 12 .heap         00000800  2000262c  2000262c  000210e8  2**2
                  CONTENTS, READONLY
 13 .stack_dummy  00000800  20041000  20041000  00021900  2**5
                  CONTENTS, READONLY
 14 .debug_info   00033333  00000000  00000000  00022100  2**0
                  CONTENTS, READONLY, DEBUGGING, OCTETS
 15 .debug_abbrev 000096c1  00000000  00000000  00055433  2**0
                  CONTENTS, READONLY, DEBUGGING, OCTETS
 16 .debug_loc    0001c3bc  00000000  00000000  0005eaf4  2**0
                  CONTENTS, READONLY, DEBUGGING, OCTETS
 17 .debug_aranges 00001c38  00000000  00000000  0007aeb0  2**3
                  CONTENTS, READONLY, DEBUGGING, OCTETS
 18 .debug_ranges 00004878  00000000  00000000  0007cae8  2**3
                  CONTENTS, READONLY, DEBUGGING, OCTETS
 19 .debug_line   0001f9e7  00000000  00000000  00081360  2**0
                  CONTENTS, READONLY, DEBUGGING, OCTETS
 20 .debug_str    0000acc4  00000000  00000000  000a0d47  2**0
                  CONTENTS, READONLY, DEBUGGING, OCTETS
 21 .debug_frame  00003fd4  00000000  00000000  000aba0c  2**2
                  CONTENTS, READONLY, DEBUGGING, OCTETS

ardwiino-pico-rp2040-multi.elf:     file format elf32-littlearm


Disassembly of section .boot2:

10000000 <__boot2_start__>:
10000000:	4b32b500 	.word	0x4b32b500
10000004:	60582021 	.word	0x60582021
10000008:	21026898 	.word	0x21026898
1000000c:	60984388 	.word	0x60984388
10000010:	611860d8 	.word	0x611860d8
10000014:	4b2e6158 	.word	0x4b2e6158
10000018:	60992100 	.word	0x60992100
1000001c:	61592102 	.word	0x61592102
10000020:	22f02101 	.word	0x22f02101
10000024:	492b5099 	.word	0x492b5099
10000028:	21016019 	.word	0x21016019
1000002c:	20356099 	.word	0x20356099
10000030:	f844f000 	.word	0xf844f000
10000034:	42902202 	.word	0x42902202
10000038:	2106d014 	.word	0x2106d014
1000003c:	f0006619 	.word	0xf0006619
10000040:	6e19f834 	.word	0x6e19f834
10000044:	66192101 	.word	0x66192101
10000048:	66182000 	.word	0x66182000
1000004c:	f000661a 	.word	0xf000661a
10000050:	6e19f82c 	.word	0x6e19f82c
10000054:	6e196e19 	.word	0x6e196e19
10000058:	f0002005 	.word	0xf0002005
1000005c:	2101f82f 	.word	0x2101f82f
10000060:	d1f94208 	.word	0xd1f94208
10000064:	60992100 	.word	0x60992100
10000068:	6019491b 	.word	0x6019491b
1000006c:	60592100 	.word	0x60592100
10000070:	481b491a 	.word	0x481b491a
10000074:	21016001 	.word	0x21016001
10000078:	21eb6099 	.word	0x21eb6099
1000007c:	21a06619 	.word	0x21a06619
10000080:	f0006619 	.word	0xf0006619
10000084:	2100f812 	.word	0x2100f812
10000088:	49166099 	.word	0x49166099
1000008c:	60014814 	.word	0x60014814
10000090:	60992101 	.word	0x60992101
10000094:	2800bc01 	.word	0x2800bc01
10000098:	4700d000 	.word	0x4700d000
1000009c:	49134812 	.word	0x49134812
100000a0:	c8036008 	.word	0xc8036008
100000a4:	8808f380 	.word	0x8808f380
100000a8:	b5034708 	.word	0xb5034708
100000ac:	20046a99 	.word	0x20046a99
100000b0:	d0fb4201 	.word	0xd0fb4201
100000b4:	42012001 	.word	0x42012001
100000b8:	bd03d1f8 	.word	0xbd03d1f8
100000bc:	6618b502 	.word	0x6618b502
100000c0:	f7ff6618 	.word	0xf7ff6618
100000c4:	6e18fff2 	.word	0x6e18fff2
100000c8:	bd026e18 	.word	0xbd026e18
100000cc:	40020000 	.word	0x40020000
100000d0:	18000000 	.word	0x18000000
100000d4:	00070000 	.word	0x00070000
100000d8:	005f0300 	.word	0x005f0300
100000dc:	00002221 	.word	0x00002221
100000e0:	180000f4 	.word	0x180000f4
100000e4:	a0002022 	.word	0xa0002022
100000e8:	10000100 	.word	0x10000100
100000ec:	e000ed08 	.word	0xe000ed08
	...
100000fc:	7a4eb274 	.word	0x7a4eb274

Disassembly of section .text:

10000100 <__logical_binary_start>:
10000100:	20042000 	.word	0x20042000
10000104:	100001f7 	.word	0x100001f7
10000108:	100001c3 	.word	0x100001c3
1000010c:	100001c5 	.word	0x100001c5
10000110:	100001c1 	.word	0x100001c1
10000114:	100001c1 	.word	0x100001c1
10000118:	100001c1 	.word	0x100001c1
1000011c:	100001c1 	.word	0x100001c1
10000120:	100001c1 	.word	0x100001c1
10000124:	100001c1 	.word	0x100001c1
10000128:	100001c1 	.word	0x100001c1
1000012c:	100001c7 	.word	0x100001c7
10000130:	100001c1 	.word	0x100001c1
10000134:	100001c1 	.word	0x100001c1
10000138:	100001c9 	.word	0x100001c9
1000013c:	100001cb 	.word	0x100001cb
10000140:	100001cd 	.word	0x100001cd
10000144:	100001cd 	.word	0x100001cd
10000148:	100001cd 	.word	0x100001cd
1000014c:	100001cd 	.word	0x100001cd
10000150:	100001cd 	.word	0x100001cd
10000154:	100001cd 	.word	0x100001cd
10000158:	100001cd 	.word	0x100001cd
1000015c:	100001cd 	.word	0x100001cd
10000160:	100001cd 	.word	0x100001cd
10000164:	100001cd 	.word	0x100001cd
10000168:	100001cd 	.word	0x100001cd
1000016c:	100001cd 	.word	0x100001cd
10000170:	100001cd 	.word	0x100001cd
10000174:	100001cd 	.word	0x100001cd
10000178:	100001cd 	.word	0x100001cd
1000017c:	100001cd 	.word	0x100001cd
10000180:	100001cd 	.word	0x100001cd
10000184:	100001cd 	.word	0x100001cd
10000188:	100001cd 	.word	0x100001cd
1000018c:	100001cd 	.word	0x100001cd
10000190:	100001cd 	.word	0x100001cd
10000194:	100001cd 	.word	0x100001cd
10000198:	100001cd 	.word	0x100001cd
1000019c:	100001cd 	.word	0x100001cd
100001a0:	100001cd 	.word	0x100001cd
100001a4:	100001cd 	.word	0x100001cd
100001a8:	100001cd 	.word	0x100001cd
100001ac:	100001cd 	.word	0x100001cd
100001b0:	100001cd 	.word	0x100001cd
100001b4:	100001cd 	.word	0x100001cd
100001b8:	100001cd 	.word	0x100001cd
100001bc:	100001cd 	.word	0x100001cd

100001c0 <isr_invalid>:
100001c0:	be00      	bkpt	0x0000

100001c2 <isr_nmi>:
100001c2:	be00      	bkpt	0x0000

100001c4 <isr_hardfault>:
100001c4:	be00      	bkpt	0x0000

100001c6 <isr_svcall>:
100001c6:	be00      	bkpt	0x0000

100001c8 <isr_pendsv>:
100001c8:	be00      	bkpt	0x0000

100001ca <isr_systick>:
100001ca:	be00      	bkpt	0x0000

100001cc <__unhandled_user_irq>:
100001cc:	f000 f84b 	bl	10000266 <__get_current_exception>
100001d0:	3810      	subs	r0, #16

100001d2 <unhandled_user_irq_num_in_r0>:
100001d2:	be00      	bkpt	0x0000

100001d4 <binary_info_header>:
100001d4:	7188ebf2 	.word	0x7188ebf2
100001d8:	1000e190 	.word	0x1000e190
100001dc:	1000e1b4 	.word	0x1000e1b4
100001e0:	10000234 	.word	0x10000234
100001e4:	e71aa390 	.word	0xe71aa390

100001e8 <_entry_point>:
100001e8:	2000      	movs	r0, #0
100001ea:	4921      	ldr	r1, [pc, #132]	; (10000270 <__get_current_exception+0xa>)
100001ec:	6008      	str	r0, [r1, #0]
100001ee:	c806      	ldmia	r0!, {r1, r2}
100001f0:	f381 8808 	msr	MSP, r1
100001f4:	4710      	bx	r2

100001f6 <_reset_handler>:
100001f6:	481f      	ldr	r0, [pc, #124]	; (10000274 <__get_current_exception+0xe>)
100001f8:	6800      	ldr	r0, [r0, #0]
100001fa:	2800      	cmp	r0, #0
100001fc:	d12f      	bne.n	1000025e <hold_non_core0_in_bootrom>
100001fe:	a40d      	add	r4, pc, #52	; (adr r4, 10000234 <data_cpy_table>)
10000200:	cc0e      	ldmia	r4!, {r1, r2, r3}
10000202:	2900      	cmp	r1, #0
10000204:	d002      	beq.n	1000020c <_reset_handler+0x16>
10000206:	f000 f812 	bl	1000022e <data_cpy>
1000020a:	e7f9      	b.n	10000200 <_reset_handler+0xa>
1000020c:	491a      	ldr	r1, [pc, #104]	; (10000278 <__get_current_exception+0x12>)
1000020e:	4a1b      	ldr	r2, [pc, #108]	; (1000027c <__get_current_exception+0x16>)
10000210:	2000      	movs	r0, #0
10000212:	e000      	b.n	10000216 <bss_fill_test>

10000214 <bss_fill_loop>:
10000214:	c101      	stmia	r1!, {r0}

10000216 <bss_fill_test>:
10000216:	4291      	cmp	r1, r2
10000218:	d1fc      	bne.n	10000214 <bss_fill_loop>

1000021a <platform_entry>:
1000021a:	4919      	ldr	r1, [pc, #100]	; (10000280 <__get_current_exception+0x1a>)
1000021c:	4788      	blx	r1
1000021e:	4919      	ldr	r1, [pc, #100]	; (10000284 <__get_current_exception+0x1e>)
10000220:	4788      	blx	r1
10000222:	4919      	ldr	r1, [pc, #100]	; (10000288 <__get_current_exception+0x22>)
10000224:	4788      	blx	r1
10000226:	be00      	bkpt	0x0000
10000228:	e7fd      	b.n	10000226 <platform_entry+0xc>

1000022a <data_cpy_loop>:
1000022a:	c901      	ldmia	r1!, {r0}
1000022c:	c201      	stmia	r2!, {r0}

1000022e <data_cpy>:
1000022e:	429a      	cmp	r2, r3
10000230:	d3fb      	bcc.n	1000022a <data_cpy_loop>
10000232:	4770      	bx	lr

10000234 <data_cpy_table>:
10000234:	1000e1b4 	.word	0x1000e1b4
10000238:	200000c0 	.word	0x200000c0
1000023c:	20000fe0 	.word	0x20000fe0
10000240:	1000f0d4 	.word	0x1000f0d4
10000244:	20040000 	.word	0x20040000
10000248:	20040000 	.word	0x20040000
1000024c:	1000f0d4 	.word	0x1000f0d4
10000250:	20041000 	.word	0x20041000
10000254:	20041000 	.word	0x20041000
10000258:	00000000 	.word	0x00000000
1000025c:	4770      	bx	lr

1000025e <hold_non_core0_in_bootrom>:
1000025e:	480b      	ldr	r0, [pc, #44]	; (1000028c <__get_current_exception+0x26>)
10000260:	f007 fcbc 	bl	10007bdc <rom_func_lookup>
10000264:	4700      	bx	r0

10000266 <__get_current_exception>:
10000266:	f3ef 8005 	mrs	r0, IPSR
1000026a:	b2c0      	uxtb	r0, r0
1000026c:	4770      	bx	lr
1000026e:	0000      	.short	0x0000
10000270:	e000ed08 	.word	0xe000ed08
10000274:	d0000000 	.word	0xd0000000
10000278:	20000fe0 	.word	0x20000fe0
1000027c:	2000262c 	.word	0x2000262c
10000280:	1000614d 	.word	0x1000614d
10000284:	10000739 	.word	0x10000739
10000288:	1000621d 	.word	0x1000621d
1000028c:	00005657 	.word	0x00005657

10000290 <__bi_50>:
10000290:	50520006 5360b3ab 1000d8ac              ..RP..`S....

1000029c <__bi_38>:
1000029c:	50520006 02031c86 1000d8bc              ..RP........

100002a8 <__bi_30>:
100002a8:	50520006 9da22254 1000d8d8              ..RPT"......

100002b4 <__bi_22>:
100002b4:	50520005 68f465de 1000f0d4              ..RP.e.h....

100002c0 <_init>:
100002c0:	b5f8      	push	{r3, r4, r5, r6, r7, lr}
100002c2:	46c0      	nop			; (mov r8, r8)

100002c4 <frame_dummy>:
100002c4:	4b04      	ldr	r3, [pc, #16]	; (100002d8 <frame_dummy+0x14>)
100002c6:	b510      	push	{r4, lr}
100002c8:	2b00      	cmp	r3, #0
100002ca:	d003      	beq.n	100002d4 <frame_dummy+0x10>
100002cc:	4903      	ldr	r1, [pc, #12]	; (100002dc <frame_dummy+0x18>)
100002ce:	4804      	ldr	r0, [pc, #16]	; (100002e0 <frame_dummy+0x1c>)
100002d0:	e000      	b.n	100002d4 <frame_dummy+0x10>
100002d2:	bf00      	nop
100002d4:	bd10      	pop	{r4, pc}
100002d6:	46c0      	nop			; (mov r8, r8)
100002d8:	00000000 	.word	0x00000000
100002dc:	200021e8 	.word	0x200021e8
100002e0:	1000bb00 	.word	0x1000bb00

100002e4 <tud_vendor_control_request_cb>:
100002e4:	b570      	push	{r4, r5, r6, lr}
100002e6:	784b      	ldrb	r3, [r1, #1]
100002e8:	2b01      	cmp	r3, #1
100002ea:	d00e      	beq.n	1000030a <tud_vendor_control_request_cb+0x26>
100002ec:	2b20      	cmp	r3, #32
100002ee:	d01f      	beq.n	10000330 <tud_vendor_control_request_cb+0x4c>
100002f0:	2b20      	cmp	r3, #32
100002f2:	d034      	beq.n	1000035e <tud_vendor_control_request_cb+0x7a>
100002f4:	2b01      	cmp	r3, #1
100002f6:	d043      	beq.n	10000380 <tud_vendor_control_request_cb+0x9c>
100002f8:	2b01      	cmp	r3, #1
100002fa:	d053      	beq.n	100003a4 <tud_vendor_control_request_cb+0xc0>
100002fc:	2b09      	cmp	r3, #9
100002fe:	d067      	beq.n	100003d0 <tud_vendor_control_request_cb+0xec>
10000300:	2b01      	cmp	r3, #1
10000302:	d100      	bne.n	10000306 <tud_vendor_control_request_cb+0x22>
10000304:	e070      	b.n	100003e8 <tud_vendor_control_request_cb+0x104>
10000306:	2001      	movs	r0, #1
10000308:	bd70      	pop	{r4, r5, r6, pc}
1000030a:	780a      	ldrb	r2, [r1, #0]
1000030c:	2ac1      	cmp	r2, #193	; 0xc1
1000030e:	d1ed      	bne.n	100002ec <tud_vendor_control_request_cb+0x8>
10000310:	790c      	ldrb	r4, [r1, #4]
10000312:	794a      	ldrb	r2, [r1, #5]
10000314:	0212      	lsls	r2, r2, #8
10000316:	4322      	orrs	r2, r4
10000318:	2a01      	cmp	r2, #1
1000031a:	d1e7      	bne.n	100002ec <tud_vendor_control_request_cb+0x8>
1000031c:	788c      	ldrb	r4, [r1, #2]
1000031e:	78ca      	ldrb	r2, [r1, #3]
10000320:	0212      	lsls	r2, r2, #8
10000322:	4322      	orrs	r2, r4
10000324:	d1e2      	bne.n	100002ec <tud_vendor_control_request_cb+0x8>
10000326:	3307      	adds	r3, #7
10000328:	4a35      	ldr	r2, [pc, #212]	; (10000400 <tud_vendor_control_request_cb+0x11c>)
1000032a:	f00a fc15 	bl	1000ab58 <tud_control_xfer>
1000032e:	e7ea      	b.n	10000306 <tud_vendor_control_request_cb+0x22>
10000330:	780a      	ldrb	r2, [r1, #0]
10000332:	2ac1      	cmp	r2, #193	; 0xc1
10000334:	d1dc      	bne.n	100002f0 <tud_vendor_control_request_cb+0xc>
10000336:	790c      	ldrb	r4, [r1, #4]
10000338:	794a      	ldrb	r2, [r1, #5]
1000033a:	0212      	lsls	r2, r2, #8
1000033c:	4322      	orrs	r2, r4
1000033e:	2a05      	cmp	r2, #5
10000340:	d1d6      	bne.n	100002f0 <tud_vendor_control_request_cb+0xc>
10000342:	788d      	ldrb	r5, [r1, #2]
10000344:	78ca      	ldrb	r2, [r1, #3]
10000346:	0212      	lsls	r2, r2, #8
10000348:	432a      	orrs	r2, r5
1000034a:	2a02      	cmp	r2, #2
1000034c:	d1d0      	bne.n	100002f0 <tud_vendor_control_request_cb+0xc>
1000034e:	4a2d      	ldr	r2, [pc, #180]	; (10000404 <tud_vendor_control_request_cb+0x120>)
10000350:	7814      	ldrb	r4, [r2, #0]
10000352:	7853      	ldrb	r3, [r2, #1]
10000354:	021b      	lsls	r3, r3, #8
10000356:	4323      	orrs	r3, r4
10000358:	f00a fbfe 	bl	1000ab58 <tud_control_xfer>
1000035c:	e7d3      	b.n	10000306 <tud_vendor_control_request_cb+0x22>
1000035e:	780a      	ldrb	r2, [r1, #0]
10000360:	2ac0      	cmp	r2, #192	; 0xc0
10000362:	d1c7      	bne.n	100002f4 <tud_vendor_control_request_cb+0x10>
10000364:	790c      	ldrb	r4, [r1, #4]
10000366:	794a      	ldrb	r2, [r1, #5]
10000368:	0212      	lsls	r2, r2, #8
1000036a:	4322      	orrs	r2, r4
1000036c:	2a04      	cmp	r2, #4
1000036e:	d1c1      	bne.n	100002f4 <tud_vendor_control_request_cb+0x10>
10000370:	4a25      	ldr	r2, [pc, #148]	; (10000408 <tud_vendor_control_request_cb+0x124>)
10000372:	7815      	ldrb	r5, [r2, #0]
10000374:	7853      	ldrb	r3, [r2, #1]
10000376:	021b      	lsls	r3, r3, #8
10000378:	432b      	orrs	r3, r5
1000037a:	f00a fbed 	bl	1000ab58 <tud_control_xfer>
1000037e:	e7c2      	b.n	10000306 <tud_vendor_control_request_cb+0x22>
10000380:	780a      	ldrb	r2, [r1, #0]
10000382:	2ac0      	cmp	r2, #192	; 0xc0
10000384:	d1b8      	bne.n	100002f8 <tud_vendor_control_request_cb+0x14>
10000386:	790c      	ldrb	r4, [r1, #4]
10000388:	794a      	ldrb	r2, [r1, #5]
1000038a:	0212      	lsls	r2, r2, #8
1000038c:	4322      	orrs	r2, r4
1000038e:	d1b3      	bne.n	100002f8 <tud_vendor_control_request_cb+0x14>
10000390:	788c      	ldrb	r4, [r1, #2]
10000392:	78ca      	ldrb	r2, [r1, #3]
10000394:	0212      	lsls	r2, r2, #8
10000396:	4322      	orrs	r2, r4
10000398:	d1ae      	bne.n	100002f8 <tud_vendor_control_request_cb+0x14>
1000039a:	3303      	adds	r3, #3
1000039c:	4a1b      	ldr	r2, [pc, #108]	; (1000040c <tud_vendor_control_request_cb+0x128>)
1000039e:	f00a fbdb 	bl	1000ab58 <tud_control_xfer>
100003a2:	e7b0      	b.n	10000306 <tud_vendor_control_request_cb+0x22>
100003a4:	780a      	ldrb	r2, [r1, #0]
100003a6:	2ac1      	cmp	r2, #193	; 0xc1
100003a8:	d1a8      	bne.n	100002fc <tud_vendor_control_request_cb+0x18>
100003aa:	790c      	ldrb	r4, [r1, #4]
100003ac:	794a      	ldrb	r2, [r1, #5]
100003ae:	0212      	lsls	r2, r2, #8
100003b0:	4322      	orrs	r2, r4
100003b2:	2a01      	cmp	r2, #1
100003b4:	d1a2      	bne.n	100002fc <tud_vendor_control_request_cb+0x18>
100003b6:	788c      	ldrb	r4, [r1, #2]
100003b8:	78ca      	ldrb	r2, [r1, #3]
100003ba:	0212      	lsls	r2, r2, #8
100003bc:	4322      	orrs	r2, r4
100003be:	2480      	movs	r4, #128	; 0x80
100003c0:	0064      	lsls	r4, r4, #1
100003c2:	42a2      	cmp	r2, r4
100003c4:	d19a      	bne.n	100002fc <tud_vendor_control_request_cb+0x18>
100003c6:	3313      	adds	r3, #19
100003c8:	4a0d      	ldr	r2, [pc, #52]	; (10000400 <tud_vendor_control_request_cb+0x11c>)
100003ca:	f00a fbc5 	bl	1000ab58 <tud_control_xfer>
100003ce:	e79a      	b.n	10000306 <tud_vendor_control_request_cb+0x22>
100003d0:	780a      	ldrb	r2, [r1, #0]
100003d2:	2a21      	cmp	r2, #33	; 0x21
100003d4:	d000      	beq.n	100003d8 <tud_vendor_control_request_cb+0xf4>
100003d6:	e793      	b.n	10000300 <tud_vendor_control_request_cb+0x1c>
100003d8:	798a      	ldrb	r2, [r1, #6]
100003da:	79cb      	ldrb	r3, [r1, #7]
100003dc:	021b      	lsls	r3, r3, #8
100003de:	4313      	orrs	r3, r2
100003e0:	4a0b      	ldr	r2, [pc, #44]	; (10000410 <tud_vendor_control_request_cb+0x12c>)
100003e2:	f00a fbb9 	bl	1000ab58 <tud_control_xfer>
100003e6:	e78e      	b.n	10000306 <tud_vendor_control_request_cb+0x22>
100003e8:	780b      	ldrb	r3, [r1, #0]
100003ea:	2ba1      	cmp	r3, #161	; 0xa1
100003ec:	d000      	beq.n	100003f0 <tud_vendor_control_request_cb+0x10c>
100003ee:	e78a      	b.n	10000306 <tud_vendor_control_request_cb+0x22>
100003f0:	4b08      	ldr	r3, [pc, #32]	; (10000414 <tud_vendor_control_request_cb+0x130>)
100003f2:	7018      	strb	r0, [r3, #0]
100003f4:	4b08      	ldr	r3, [pc, #32]	; (10000418 <tud_vendor_control_request_cb+0x134>)
100003f6:	6019      	str	r1, [r3, #0]
100003f8:	7888      	ldrb	r0, [r1, #2]
100003fa:	f000 fa5d 	bl	100008b8 <processHIDReadFeatureReport>
100003fe:	e782      	b.n	10000306 <tud_vendor_control_request_cb+0x22>
10000400:	200007e0 	.word	0x200007e0
10000404:	2000074c 	.word	0x2000074c
10000408:	200006dc 	.word	0x200006dc
1000040c:	200007dc 	.word	0x200007dc
10000410:	20001624 	.word	0x20001624
10000414:	2000261d 	.word	0x2000261d
10000418:	20002370 	.word	0x20002370

1000041c <tud_vendor_control_complete_cb>:
1000041c:	b530      	push	{r4, r5, lr}
1000041e:	b091      	sub	sp, #68	; 0x44
10000420:	784b      	ldrb	r3, [r1, #1]
10000422:	2b09      	cmp	r3, #9
10000424:	d002      	beq.n	1000042c <tud_vendor_control_complete_cb+0x10>
10000426:	2001      	movs	r0, #1
10000428:	b011      	add	sp, #68	; 0x44
1000042a:	bd30      	pop	{r4, r5, pc}
1000042c:	780b      	ldrb	r3, [r1, #0]
1000042e:	2b21      	cmp	r3, #33	; 0x21
10000430:	d1f9      	bne.n	10000426 <tud_vendor_control_complete_cb+0xa>
10000432:	788c      	ldrb	r4, [r1, #2]
10000434:	7989      	ldrb	r1, [r1, #6]
10000436:	4a17      	ldr	r2, [pc, #92]	; (10000494 <tud_vendor_control_complete_cb+0x78>)
10000438:	0020      	movs	r0, r4
1000043a:	f000 fa09 	bl	10000850 <processHIDWriteFeatureReport>
1000043e:	4b16      	ldr	r3, [pc, #88]	; (10000498 <tud_vendor_control_complete_cb+0x7c>)
10000440:	781b      	ldrb	r3, [r3, #0]
10000442:	2b00      	cmp	r3, #0
10000444:	d0ef      	beq.n	10000426 <tud_vendor_control_complete_cb+0xa>
10000446:	ad08      	add	r5, sp, #32
10000448:	221e      	movs	r2, #30
1000044a:	4912      	ldr	r1, [pc, #72]	; (10000494 <tud_vendor_control_complete_cb+0x78>)
1000044c:	2022      	movs	r0, #34	; 0x22
1000044e:	4468      	add	r0, sp
10000450:	f008 fb40 	bl	10008ad4 <__wrap___aeabi_memcpy>
10000454:	702c      	strb	r4, [r5, #0]
10000456:	2300      	movs	r3, #0
10000458:	706b      	strb	r3, [r5, #1]
1000045a:	e00a      	b.n	10000472 <tud_vendor_control_complete_cb+0x56>
1000045c:	4b0f      	ldr	r3, [pc, #60]	; (1000049c <tud_vendor_control_complete_cb+0x80>)
1000045e:	2201      	movs	r2, #1
10000460:	701a      	strb	r2, [r3, #0]
10000462:	2100      	movs	r1, #0
10000464:	4668      	mov	r0, sp
10000466:	f000 fe4b 	bl	10001100 <tickRFInput>
1000046a:	2130      	movs	r1, #48	; 0x30
1000046c:	2007      	movs	r0, #7
1000046e:	f002 fb28 	bl	10002ac2 <nrf24_configRegister>
10000472:	f002 fafe 	bl	10002a72 <nrf24_txFifoFull>
10000476:	2800      	cmp	r0, #0
10000478:	d1f0      	bne.n	1000045c <tud_vendor_control_complete_cb+0x40>
1000047a:	2130      	movs	r1, #48	; 0x30
1000047c:	3007      	adds	r0, #7
1000047e:	f002 fb20 	bl	10002ac2 <nrf24_configRegister>
10000482:	2120      	movs	r1, #32
10000484:	a808      	add	r0, sp, #32
10000486:	f002 fce8 	bl	10002e5a <nrf24_writeAckPayload>
1000048a:	4b04      	ldr	r3, [pc, #16]	; (1000049c <tud_vendor_control_complete_cb+0x80>)
1000048c:	2201      	movs	r2, #1
1000048e:	701a      	strb	r2, [r3, #0]
10000490:	e7c9      	b.n	10000426 <tud_vendor_control_complete_cb+0xa>
10000492:	46c0      	nop			; (mov r8, r8)
10000494:	20001624 	.word	0x20001624
10000498:	20002611 	.word	0x20002611
1000049c:	2000261c 	.word	0x2000261c

100004a0 <tud_descriptor_device_cb>:
100004a0:	4b09      	ldr	r3, [pc, #36]	; (100004c8 <tud_descriptor_device_cb+0x28>)
100004a2:	781b      	ldrb	r3, [r3, #0]
100004a4:	3b1a      	subs	r3, #26
100004a6:	b2db      	uxtb	r3, r3
100004a8:	2b07      	cmp	r3, #7
100004aa:	d80b      	bhi.n	100004c4 <tud_descriptor_device_cb+0x24>
100004ac:	005b      	lsls	r3, r3, #1
100004ae:	4a07      	ldr	r2, [pc, #28]	; (100004cc <tud_descriptor_device_cb+0x2c>)
100004b0:	5a99      	ldrh	r1, [r3, r2]
100004b2:	4a07      	ldr	r2, [pc, #28]	; (100004d0 <tud_descriptor_device_cb+0x30>)
100004b4:	7211      	strb	r1, [r2, #8]
100004b6:	0a09      	lsrs	r1, r1, #8
100004b8:	7251      	strb	r1, [r2, #9]
100004ba:	4906      	ldr	r1, [pc, #24]	; (100004d4 <tud_descriptor_device_cb+0x34>)
100004bc:	5a5b      	ldrh	r3, [r3, r1]
100004be:	7293      	strb	r3, [r2, #10]
100004c0:	0a1b      	lsrs	r3, r3, #8
100004c2:	72d3      	strb	r3, [r2, #11]
100004c4:	4802      	ldr	r0, [pc, #8]	; (100004d0 <tud_descriptor_device_cb+0x30>)
100004c6:	4770      	bx	lr
100004c8:	200008ef 	.word	0x200008ef
100004cc:	20000a44 	.word	0x20000a44
100004d0:	200008dc 	.word	0x200008dc
100004d4:	20000994 	.word	0x20000994

100004d8 <tud_hid_descriptor_report_cb>:
100004d8:	4b03      	ldr	r3, [pc, #12]	; (100004e8 <tud_hid_descriptor_report_cb+0x10>)
100004da:	781b      	ldrb	r3, [r3, #0]
100004dc:	2b16      	cmp	r3, #22
100004de:	d801      	bhi.n	100004e4 <tud_hid_descriptor_report_cb+0xc>
100004e0:	4802      	ldr	r0, [pc, #8]	; (100004ec <tud_hid_descriptor_report_cb+0x14>)
100004e2:	4770      	bx	lr
100004e4:	4802      	ldr	r0, [pc, #8]	; (100004f0 <tud_hid_descriptor_report_cb+0x18>)
100004e6:	e7fc      	b.n	100004e2 <tud_hid_descriptor_report_cb+0xa>
100004e8:	200008ef 	.word	0x200008ef
100004ec:	200008f0 	.word	0x200008f0
100004f0:	200009b8 	.word	0x200009b8

100004f4 <tud_descriptor_configuration_cb>:
100004f4:	b510      	push	{r4, lr}
100004f6:	4b10      	ldr	r3, [pc, #64]	; (10000538 <tud_descriptor_configuration_cb+0x44>)
100004f8:	781c      	ldrb	r4, [r3, #0]
100004fa:	0020      	movs	r0, r4
100004fc:	f000 f960 	bl	100007c0 <isGuitar>
10000500:	2800      	cmp	r0, #0
10000502:	d000      	beq.n	10000506 <tud_descriptor_configuration_cb+0x12>
10000504:	2407      	movs	r4, #7
10000506:	0020      	movs	r0, r4
10000508:	f000 f950 	bl	100007ac <isDrum>
1000050c:	2800      	cmp	r0, #0
1000050e:	d00c      	beq.n	1000052a <tud_descriptor_configuration_cb+0x36>
10000510:	4a0a      	ldr	r2, [pc, #40]	; (1000053c <tud_descriptor_configuration_cb+0x48>)
10000512:	2336      	movs	r3, #54	; 0x36
10000514:	2108      	movs	r1, #8
10000516:	54d1      	strb	r1, [r2, r3]
10000518:	4b08      	ldr	r3, [pc, #32]	; (1000053c <tud_descriptor_configuration_cb+0x48>)
1000051a:	001a      	movs	r2, r3
1000051c:	2177      	movs	r1, #119	; 0x77
1000051e:	4249      	negs	r1, r1
10000520:	7659      	strb	r1, [r3, #25]
10000522:	2300      	movs	r3, #0
10000524:	7693      	strb	r3, [r2, #26]
10000526:	4805      	ldr	r0, [pc, #20]	; (1000053c <tud_descriptor_configuration_cb+0x48>)
10000528:	bd10      	pop	{r4, pc}
1000052a:	4a04      	ldr	r2, [pc, #16]	; (1000053c <tud_descriptor_configuration_cb+0x48>)
1000052c:	2336      	movs	r3, #54	; 0x36
1000052e:	54d4      	strb	r4, [r2, r3]
10000530:	2c16      	cmp	r4, #22
10000532:	d8f8      	bhi.n	10000526 <tud_descriptor_configuration_cb+0x32>
10000534:	e7f0      	b.n	10000518 <tud_descriptor_configuration_cb+0x24>
10000536:	46c0      	nop			; (mov r8, r8)
10000538:	200008ef 	.word	0x200008ef
1000053c:	200007e8 	.word	0x200007e8

10000540 <tud_descriptor_string_cb>:
10000540:	b510      	push	{r4, lr}
10000542:	b088      	sub	sp, #32
10000544:	4b1a      	ldr	r3, [pc, #104]	; (100005b0 <tud_descriptor_string_cb+0x70>)
10000546:	4a1b      	ldr	r2, [pc, #108]	; (100005b4 <tud_descriptor_string_cb+0x74>)
10000548:	801a      	strh	r2, [r3, #0]
1000054a:	2803      	cmp	r0, #3
1000054c:	d006      	beq.n	1000055c <tud_descriptor_string_cb+0x1c>
1000054e:	2802      	cmp	r0, #2
10000550:	d928      	bls.n	100005a4 <tud_descriptor_string_cb+0x64>
10000552:	28ee      	cmp	r0, #238	; 0xee
10000554:	d02a      	beq.n	100005ac <tud_descriptor_string_cb+0x6c>
10000556:	2000      	movs	r0, #0
10000558:	b008      	add	sp, #32
1000055a:	bd10      	pop	{r4, pc}
1000055c:	a801      	add	r0, sp, #4
1000055e:	f008 ff01 	bl	10009364 <pico_get_unique_board_id>
10000562:	aa03      	add	r2, sp, #12
10000564:	4b14      	ldr	r3, [pc, #80]	; (100005b8 <tud_descriptor_string_cb+0x78>)
10000566:	cb13      	ldmia	r3!, {r0, r1, r4}
10000568:	c213      	stmia	r2!, {r0, r1, r4}
1000056a:	0011      	movs	r1, r2
1000056c:	681a      	ldr	r2, [r3, #0]
1000056e:	600a      	str	r2, [r1, #0]
10000570:	791b      	ldrb	r3, [r3, #4]
10000572:	710b      	strb	r3, [r1, #4]
10000574:	2300      	movs	r3, #0
10000576:	e00a      	b.n	1000058e <tud_descriptor_string_cb+0x4e>
10000578:	2100      	movs	r1, #0
1000057a:	410a      	asrs	r2, r1
1000057c:	0011      	movs	r1, r2
1000057e:	220f      	movs	r2, #15
10000580:	400a      	ands	r2, r1
10000582:	3301      	adds	r3, #1
10000584:	a903      	add	r1, sp, #12
10000586:	5c88      	ldrb	r0, [r1, r2]
10000588:	0059      	lsls	r1, r3, #1
1000058a:	4a09      	ldr	r2, [pc, #36]	; (100005b0 <tud_descriptor_string_cb+0x70>)
1000058c:	5288      	strh	r0, [r1, r2]
1000058e:	2b07      	cmp	r3, #7
10000590:	dc06      	bgt.n	100005a0 <tud_descriptor_string_cb+0x60>
10000592:	105a      	asrs	r2, r3, #1
10000594:	a901      	add	r1, sp, #4
10000596:	5c8a      	ldrb	r2, [r1, r2]
10000598:	07d9      	lsls	r1, r3, #31
1000059a:	d4ed      	bmi.n	10000578 <tud_descriptor_string_cb+0x38>
1000059c:	2104      	movs	r1, #4
1000059e:	e7ec      	b.n	1000057a <tud_descriptor_string_cb+0x3a>
100005a0:	4803      	ldr	r0, [pc, #12]	; (100005b0 <tud_descriptor_string_cb+0x70>)
100005a2:	e7d9      	b.n	10000558 <tud_descriptor_string_cb+0x18>
100005a4:	0080      	lsls	r0, r0, #2
100005a6:	4b05      	ldr	r3, [pc, #20]	; (100005bc <tud_descriptor_string_cb+0x7c>)
100005a8:	58c0      	ldr	r0, [r0, r3]
100005aa:	e7d5      	b.n	10000558 <tud_descriptor_string_cb+0x18>
100005ac:	4804      	ldr	r0, [pc, #16]	; (100005c0 <tud_descriptor_string_cb+0x80>)
100005ae:	e7d3      	b.n	10000558 <tud_descriptor_string_cb+0x18>
100005b0:	200024ac 	.word	0x200024ac
100005b4:	00000312 	.word	0x00000312
100005b8:	1000bb00 	.word	0x1000bb00
100005bc:	200008d0 	.word	0x200008d0
100005c0:	200008bc 	.word	0x200008bc

100005c4 <hid_task>:
100005c4:	b570      	push	{r4, r5, r6, lr}
100005c6:	4b22      	ldr	r3, [pc, #136]	; (10000650 <hid_task+0x8c>)
100005c8:	781b      	ldrb	r3, [r3, #0]
100005ca:	2b00      	cmp	r3, #0
100005cc:	d01b      	beq.n	10000606 <hid_task+0x42>
100005ce:	210c      	movs	r1, #12
100005d0:	4820      	ldr	r0, [pc, #128]	; (10000654 <hid_task+0x90>)
100005d2:	f000 fd95 	bl	10001100 <tickRFInput>
100005d6:	4d20      	ldr	r5, [pc, #128]	; (10000658 <hid_task+0x94>)
100005d8:	4c20      	ldr	r4, [pc, #128]	; (1000065c <hid_task+0x98>)
100005da:	4b21      	ldr	r3, [pc, #132]	; (10000660 <hid_task+0x9c>)
100005dc:	681b      	ldr	r3, [r3, #0]
100005de:	4a1d      	ldr	r2, [pc, #116]	; (10000654 <hid_task+0x90>)
100005e0:	0029      	movs	r1, r5
100005e2:	0020      	movs	r0, r4
100005e4:	4798      	blx	r3
100005e6:	782a      	ldrb	r2, [r5, #0]
100005e8:	491e      	ldr	r1, [pc, #120]	; (10000664 <hid_task+0xa0>)
100005ea:	0020      	movs	r0, r4
100005ec:	f00b f974 	bl	1000b8d8 <memcmp>
100005f0:	2800      	cmp	r0, #0
100005f2:	d007      	beq.n	10000604 <hid_task+0x40>
100005f4:	4b19      	ldr	r3, [pc, #100]	; (1000065c <hid_task+0x98>)
100005f6:	781b      	ldrb	r3, [r3, #0]
100005f8:	2b00      	cmp	r3, #0
100005fa:	d015      	beq.n	10000628 <hid_task+0x64>
100005fc:	f009 fcae 	bl	10009f5c <tud_suspended>
10000600:	2800      	cmp	r0, #0
10000602:	d122      	bne.n	1000064a <hid_task+0x86>
10000604:	bd70      	pop	{r4, r5, r6, pc}
10000606:	4c13      	ldr	r4, [pc, #76]	; (10000654 <hid_task+0x90>)
10000608:	0020      	movs	r0, r4
1000060a:	f001 ff33 	bl	10002474 <tickInputs>
1000060e:	0020      	movs	r0, r4
10000610:	f000 fcc2 	bl	10000f98 <tickLEDs>
10000614:	f003 ff5b 	bl	100044ce <millis>
10000618:	4b13      	ldr	r3, [pc, #76]	; (10000668 <hid_task+0xa4>)
1000061a:	681b      	ldr	r3, [r3, #0]
1000061c:	1ac0      	subs	r0, r0, r3
1000061e:	4b13      	ldr	r3, [pc, #76]	; (1000066c <hid_task+0xa8>)
10000620:	781b      	ldrb	r3, [r3, #0]
10000622:	4298      	cmp	r0, r3
10000624:	d2d7      	bcs.n	100005d6 <hid_task+0x12>
10000626:	e7ed      	b.n	10000604 <hid_task+0x40>
10000628:	2000      	movs	r0, #0
1000062a:	f003 ffe3 	bl	100045f4 <tud_xinput_n_ready>
1000062e:	2800      	cmp	r0, #0
10000630:	d0e4      	beq.n	100005fc <hid_task+0x38>
10000632:	4b09      	ldr	r3, [pc, #36]	; (10000658 <hid_task+0x94>)
10000634:	781b      	ldrb	r3, [r3, #0]
10000636:	4a09      	ldr	r2, [pc, #36]	; (1000065c <hid_task+0x98>)
10000638:	2100      	movs	r1, #0
1000063a:	2000      	movs	r0, #0
1000063c:	f004 f804 	bl	10004648 <tud_xinput_n_report>
10000640:	f003 ff45 	bl	100044ce <millis>
10000644:	4b08      	ldr	r3, [pc, #32]	; (10000668 <hid_task+0xa4>)
10000646:	6018      	str	r0, [r3, #0]
10000648:	e7d8      	b.n	100005fc <hid_task+0x38>
1000064a:	f009 fc8f 	bl	10009f6c <tud_remote_wakeup>
1000064e:	e7d9      	b.n	10000604 <hid_task+0x40>
10000650:	20002611 	.word	0x20002611
10000654:	200016b0 	.word	0x200016b0
10000658:	2000261e 	.word	0x2000261e
1000065c:	200016bc 	.word	0x200016bc
10000660:	200017b4 	.word	0x200017b4
10000664:	200022f0 	.word	0x200022f0
10000668:	200025c4 	.word	0x200025c4
1000066c:	2000261b 	.word	0x2000261b

10000670 <initialise>:
10000670:	b510      	push	{r4, lr}
10000672:	b0c6      	sub	sp, #280	; 0x118
10000674:	f00b f907 	bl	1000b886 <board_init>
10000678:	f00a ff10 	bl	1000b49c <tusb_init>
1000067c:	a801      	add	r0, sp, #4
1000067e:	f001 ffe7 	bl	10002650 <loadConfig>
10000682:	4c26      	ldr	r4, [pc, #152]	; (1000071c <initialise+0xac>)
10000684:	7820      	ldrb	r0, [r4, #0]
10000686:	4b26      	ldr	r3, [pc, #152]	; (10000720 <initialise+0xb0>)
10000688:	7018      	strb	r0, [r3, #0]
1000068a:	466b      	mov	r3, sp
1000068c:	79da      	ldrb	r2, [r3, #7]
1000068e:	4b25      	ldr	r3, [pc, #148]	; (10000724 <initialise+0xb4>)
10000690:	701a      	strb	r2, [r3, #0]
10000692:	466b      	mov	r3, sp
10000694:	791a      	ldrb	r2, [r3, #4]
10000696:	4b24      	ldr	r3, [pc, #144]	; (10000728 <initialise+0xb8>)
10000698:	701a      	strb	r2, [r3, #0]
1000069a:	f000 f887 	bl	100007ac <isDrum>
1000069e:	4b23      	ldr	r3, [pc, #140]	; (1000072c <initialise+0xbc>)
100006a0:	7018      	strb	r0, [r3, #0]
100006a2:	7820      	ldrb	r0, [r4, #0]
100006a4:	f000 f88c 	bl	100007c0 <isGuitar>
100006a8:	4b21      	ldr	r3, [pc, #132]	; (10000730 <initialise+0xc0>)
100006aa:	7018      	strb	r0, [r3, #0]
100006ac:	2800      	cmp	r0, #0
100006ae:	d006      	beq.n	100006be <initialise+0x4e>
100006b0:	4b1b      	ldr	r3, [pc, #108]	; (10000720 <initialise+0xb0>)
100006b2:	781b      	ldrb	r3, [r3, #0]
100006b4:	2b13      	cmp	r3, #19
100006b6:	d802      	bhi.n	100006be <initialise+0x4e>
100006b8:	4b19      	ldr	r3, [pc, #100]	; (10000720 <initialise+0xb0>)
100006ba:	2207      	movs	r2, #7
100006bc:	701a      	strb	r2, [r3, #0]
100006be:	4b1b      	ldr	r3, [pc, #108]	; (1000072c <initialise+0xbc>)
100006c0:	781b      	ldrb	r3, [r3, #0]
100006c2:	2b00      	cmp	r3, #0
100006c4:	d006      	beq.n	100006d4 <initialise+0x64>
100006c6:	4b16      	ldr	r3, [pc, #88]	; (10000720 <initialise+0xb0>)
100006c8:	781b      	ldrb	r3, [r3, #0]
100006ca:	2b13      	cmp	r3, #19
100006cc:	d802      	bhi.n	100006d4 <initialise+0x64>
100006ce:	4b14      	ldr	r3, [pc, #80]	; (10000720 <initialise+0xb0>)
100006d0:	2208      	movs	r2, #8
100006d2:	701a      	strb	r2, [r3, #0]
100006d4:	f003 ff0b 	bl	100044ee <setupMicrosTimer>
100006d8:	aa01      	add	r2, sp, #4
100006da:	23e6      	movs	r3, #230	; 0xe6
100006dc:	5cd3      	ldrb	r3, [r2, r3]
100006de:	2b00      	cmp	r3, #0
100006e0:	d018      	beq.n	10000714 <initialise+0xa4>
100006e2:	0013      	movs	r3, r2
100006e4:	22e7      	movs	r2, #231	; 0xe7
100006e6:	5c9a      	ldrb	r2, [r3, r2]
100006e8:	21e8      	movs	r1, #232	; 0xe8
100006ea:	585c      	ldr	r4, [r3, r1]
100006ec:	0224      	lsls	r4, r4, #8
100006ee:	4314      	orrs	r4, r2
100006f0:	f000 fcb2 	bl	10001058 <generate_crc32>
100006f4:	0002      	movs	r2, r0
100006f6:	0021      	movs	r1, r4
100006f8:	2000      	movs	r0, #0
100006fa:	f000 fcd9 	bl	100010b0 <initRF>
100006fe:	4b0d      	ldr	r3, [pc, #52]	; (10000734 <initialise+0xc4>)
10000700:	2201      	movs	r2, #1
10000702:	701a      	strb	r2, [r3, #0]
10000704:	a801      	add	r0, sp, #4
10000706:	f000 fc01 	bl	10000f0c <initReports>
1000070a:	a801      	add	r0, sp, #4
1000070c:	f000 fc32 	bl	10000f74 <initLEDs>
10000710:	b046      	add	sp, #280	; 0x118
10000712:	bd10      	pop	{r4, pc}
10000714:	a801      	add	r0, sp, #4
10000716:	f001 fe47 	bl	100023a8 <initInputs>
1000071a:	e7f3      	b.n	10000704 <initialise+0x94>
1000071c:	200008ef 	.word	0x200008ef
10000720:	200008ee 	.word	0x200008ee
10000724:	2000261b 	.word	0x2000261b
10000728:	2000260f 	.word	0x2000260f
1000072c:	20002624 	.word	0x20002624
10000730:	20002625 	.word	0x20002625
10000734:	20002611 	.word	0x20002611

10000738 <main>:
10000738:	b510      	push	{r4, lr}
1000073a:	f7ff ff99 	bl	10000670 <initialise>
1000073e:	f00a f8c1 	bl	1000a8c4 <tud_task>
10000742:	f7ff ff3f 	bl	100005c4 <hid_task>
10000746:	e7fa      	b.n	1000073e <main+0x6>

10000748 <writeToUSB>:
10000748:	b510      	push	{r4, lr}
1000074a:	3901      	subs	r1, #1
1000074c:	b28b      	uxth	r3, r1
1000074e:	1c42      	adds	r2, r0, #1
10000750:	4903      	ldr	r1, [pc, #12]	; (10000760 <writeToUSB+0x18>)
10000752:	6809      	ldr	r1, [r1, #0]
10000754:	4803      	ldr	r0, [pc, #12]	; (10000764 <writeToUSB+0x1c>)
10000756:	7800      	ldrb	r0, [r0, #0]
10000758:	f00a f9fe 	bl	1000ab58 <tud_control_xfer>
1000075c:	bd10      	pop	{r4, pc}
1000075e:	46c0      	nop			; (mov r8, r8)
10000760:	20002370 	.word	0x20002370
10000764:	2000261d 	.word	0x2000261d

10000768 <stopReading>:
10000768:	4770      	bx	lr
	...

1000076c <usbd_app_driver_get_cb>:
1000076c:	2301      	movs	r3, #1
1000076e:	7003      	strb	r3, [r0, #0]
10000770:	4800      	ldr	r0, [pc, #0]	; (10000774 <usbd_app_driver_get_cb+0x8>)
10000772:	4770      	bx	lr
10000774:	200006c0 	.word	0x200006c0

10000778 <tud_hid_get_report_cb>:
10000778:	2903      	cmp	r1, #3
1000077a:	d001      	beq.n	10000780 <tud_hid_get_report_cb+0x8>
1000077c:	2000      	movs	r0, #0
1000077e:	4770      	bx	lr
10000780:	4b07      	ldr	r3, [pc, #28]	; (100007a0 <tud_hid_get_report_cb+0x28>)
10000782:	781b      	ldrb	r3, [r3, #0]
10000784:	2b1e      	cmp	r3, #30
10000786:	d804      	bhi.n	10000792 <tud_hid_get_report_cb+0x1a>
10000788:	4b06      	ldr	r3, [pc, #24]	; (100007a4 <tud_hid_get_report_cb+0x2c>)
1000078a:	2200      	movs	r2, #0
1000078c:	70da      	strb	r2, [r3, #3]
1000078e:	2008      	movs	r0, #8
10000790:	e7f5      	b.n	1000077e <tud_hid_get_report_cb+0x6>
10000792:	2b1c      	cmp	r3, #28
10000794:	d8fb      	bhi.n	1000078e <tud_hid_get_report_cb+0x16>
10000796:	4b03      	ldr	r3, [pc, #12]	; (100007a4 <tud_hid_get_report_cb+0x2c>)
10000798:	2206      	movs	r2, #6
1000079a:	70da      	strb	r2, [r3, #3]
1000079c:	e7f7      	b.n	1000078e <tud_hid_get_report_cb+0x16>
1000079e:	46c0      	nop			; (mov r8, r8)
100007a0:	200008ef 	.word	0x200008ef
100007a4:	20001e3c 	.word	0x20001e3c

100007a8 <tud_hid_set_report_cb>:
100007a8:	4770      	bx	lr
	...

100007ac <isDrum>:
100007ac:	4b03      	ldr	r3, [pc, #12]	; (100007bc <isDrum+0x10>)
100007ae:	5c18      	ldrb	r0, [r3, r0]
100007b0:	3801      	subs	r0, #1
100007b2:	4243      	negs	r3, r0
100007b4:	4158      	adcs	r0, r3
100007b6:	b2c0      	uxtb	r0, r0
100007b8:	4770      	bx	lr
100007ba:	46c0      	nop			; (mov r8, r8)
100007bc:	1000bb14 	.word	0x1000bb14

100007c0 <isGuitar>:
100007c0:	4b03      	ldr	r3, [pc, #12]	; (100007d0 <isGuitar+0x10>)
100007c2:	5c18      	ldrb	r0, [r3, r0]
100007c4:	3802      	subs	r0, #2
100007c6:	4243      	negs	r3, r0
100007c8:	4158      	adcs	r0, r3
100007ca:	b2c0      	uxtb	r0, r0
100007cc:	4770      	bx	lr
100007ce:	46c0      	nop			; (mov r8, r8)
100007d0:	1000bb14 	.word	0x1000bb14

100007d4 <reboot>:
100007d4:	b510      	push	{r4, lr}
100007d6:	2100      	movs	r1, #0
100007d8:	2001      	movs	r0, #1
100007da:	f005 fe9d 	bl	10006518 <watchdog_enable>
100007de:	e7fe      	b.n	100007de <reboot+0xa>

100007e0 <bootloader>:
100007e0:	b510      	push	{r4, lr}
100007e2:	4803      	ldr	r0, [pc, #12]	; (100007f0 <bootloader+0x10>)
100007e4:	f007 f9fa 	bl	10007bdc <rom_func_lookup>
100007e8:	0003      	movs	r3, r0
100007ea:	2100      	movs	r1, #0
100007ec:	2000      	movs	r0, #0
100007ee:	4798      	blx	r3
100007f0:	00004255 	.word	0x00004255

100007f4 <handleCommand>:
100007f4:	b510      	push	{r4, lr}
100007f6:	3830      	subs	r0, #48	; 0x30
100007f8:	b2c3      	uxtb	r3, r0
100007fa:	2b0d      	cmp	r3, #13
100007fc:	d821      	bhi.n	10000842 <handleCommand+0x4e>
100007fe:	0098      	lsls	r0, r3, #2
10000800:	4b11      	ldr	r3, [pc, #68]	; (10000848 <handleCommand+0x54>)
10000802:	581b      	ldr	r3, [r3, r0]
10000804:	469f      	mov	pc, r3
10000806:	2000      	movs	r0, #0
10000808:	e01c      	b.n	10000844 <handleCommand+0x50>
1000080a:	f7ff ffe3 	bl	100007d4 <reboot>
1000080e:	2000      	movs	r0, #0
10000810:	e018      	b.n	10000844 <handleCommand+0x50>
10000812:	f7ff ffe5 	bl	100007e0 <bootloader>
10000816:	2000      	movs	r0, #0
10000818:	e014      	b.n	10000844 <handleCommand+0x50>
1000081a:	4b0c      	ldr	r3, [pc, #48]	; (1000084c <handleCommand+0x58>)
1000081c:	7818      	ldrb	r0, [r3, #0]
1000081e:	2800      	cmp	r0, #0
10000820:	d110      	bne.n	10000844 <handleCommand+0x50>
10000822:	f001 f8bb 	bl	1000199c <findAnalogPin>
10000826:	2001      	movs	r0, #1
10000828:	e00c      	b.n	10000844 <handleCommand+0x50>
1000082a:	4b08      	ldr	r3, [pc, #32]	; (1000084c <handleCommand+0x58>)
1000082c:	7818      	ldrb	r0, [r3, #0]
1000082e:	2800      	cmp	r0, #0
10000830:	d108      	bne.n	10000844 <handleCommand+0x50>
10000832:	f001 f885 	bl	10001940 <findDigitalPin>
10000836:	2001      	movs	r0, #1
10000838:	e004      	b.n	10000844 <handleCommand+0x50>
1000083a:	f002 f859 	bl	100028f0 <resetConfig>
1000083e:	2000      	movs	r0, #0
10000840:	e000      	b.n	10000844 <handleCommand+0x50>
10000842:	2001      	movs	r0, #1
10000844:	bd10      	pop	{r4, pc}
10000846:	46c0      	nop			; (mov r8, r8)
10000848:	1000bb40 	.word	0x1000bb40
1000084c:	20002611 	.word	0x20002611

10000850 <processHIDWriteFeatureReport>:
10000850:	b510      	push	{r4, lr}
10000852:	0004      	movs	r4, r0
10000854:	000b      	movs	r3, r1
10000856:	283b      	cmp	r0, #59	; 0x3b
10000858:	d025      	beq.n	100008a6 <processHIDWriteFeatureReport+0x56>
1000085a:	283d      	cmp	r0, #61	; 0x3d
1000085c:	d005      	beq.n	1000086a <processHIDWriteFeatureReport+0x1a>
1000085e:	2839      	cmp	r0, #57	; 0x39
10000860:	d00d      	beq.n	1000087e <processHIDWriteFeatureReport+0x2e>
10000862:	0020      	movs	r0, r4
10000864:	f7ff ffc6 	bl	100007f4 <handleCommand>
10000868:	bd10      	pop	{r4, pc}
1000086a:	7810      	ldrb	r0, [r2, #0]
1000086c:	211c      	movs	r1, #28
1000086e:	4348      	muls	r0, r1
10000870:	b280      	uxth	r0, r0
10000872:	1c51      	adds	r1, r2, #1
10000874:	3b01      	subs	r3, #1
10000876:	b2da      	uxtb	r2, r3
10000878:	f001 fec8 	bl	1000260c <writeConfigBlock>
1000087c:	e7f4      	b.n	10000868 <processHIDWriteFeatureReport+0x18>
1000087e:	7810      	ldrb	r0, [r2, #0]
10000880:	211c      	movs	r1, #28
10000882:	4348      	muls	r0, r1
10000884:	b280      	uxth	r0, r0
10000886:	3201      	adds	r2, #1
10000888:	3b01      	subs	r3, #1
1000088a:	b2d9      	uxtb	r1, r3
1000088c:	4b09      	ldr	r3, [pc, #36]	; (100008b4 <processHIDWriteFeatureReport+0x64>)
1000088e:	18c0      	adds	r0, r0, r3
10000890:	e004      	b.n	1000089c <processHIDWriteFeatureReport+0x4c>
10000892:	7811      	ldrb	r1, [r2, #0]
10000894:	7001      	strb	r1, [r0, #0]
10000896:	3001      	adds	r0, #1
10000898:	3201      	adds	r2, #1
1000089a:	0019      	movs	r1, r3
1000089c:	1e4b      	subs	r3, r1, #1
1000089e:	b2db      	uxtb	r3, r3
100008a0:	2900      	cmp	r1, #0
100008a2:	d1f6      	bne.n	10000892 <processHIDWriteFeatureReport+0x42>
100008a4:	e7e0      	b.n	10000868 <processHIDWriteFeatureReport+0x18>
100008a6:	7850      	ldrb	r0, [r2, #1]
100008a8:	1e43      	subs	r3, r0, #1
100008aa:	4198      	sbcs	r0, r3
100008ac:	b2c0      	uxtb	r0, r0
100008ae:	f001 f8c5 	bl	10001a3c <setSP>
100008b2:	e7d6      	b.n	10000862 <processHIDWriteFeatureReport+0x12>
100008b4:	20001f44 	.word	0x20001f44

100008b8 <processHIDReadFeatureReport>:
100008b8:	b510      	push	{r4, lr}
100008ba:	b082      	sub	sp, #8
100008bc:	4b61      	ldr	r3, [pc, #388]	; (10000a44 <processHIDReadFeatureReport+0x18c>)
100008be:	781b      	ldrb	r3, [r3, #0]
100008c0:	2b00      	cmp	r3, #0
100008c2:	d003      	beq.n	100008cc <processHIDReadFeatureReport+0x14>
100008c4:	283d      	cmp	r0, #61	; 0x3d
100008c6:	d801      	bhi.n	100008cc <processHIDReadFeatureReport+0x14>
100008c8:	2832      	cmp	r0, #50	; 0x32
100008ca:	d11c      	bne.n	10000906 <processHIDReadFeatureReport+0x4e>
100008cc:	4b5e      	ldr	r3, [pc, #376]	; (10000a48 <processHIDReadFeatureReport+0x190>)
100008ce:	2208      	movs	r2, #8
100008d0:	701a      	strb	r2, [r3, #0]
100008d2:	283d      	cmp	r0, #61	; 0x3d
100008d4:	d954      	bls.n	10000980 <processHIDReadFeatureReport+0xc8>
100008d6:	383e      	subs	r0, #62	; 0x3e
100008d8:	2332      	movs	r3, #50	; 0x32
100008da:	4358      	muls	r0, r3
100008dc:	b280      	uxth	r0, r0
100008de:	2389      	movs	r3, #137	; 0x89
100008e0:	005b      	lsls	r3, r3, #1
100008e2:	1a1b      	subs	r3, r3, r0
100008e4:	b29c      	uxth	r4, r3
100008e6:	b21b      	sxth	r3, r3
100008e8:	2b31      	cmp	r3, #49	; 0x31
100008ea:	dc47      	bgt.n	1000097c <processHIDReadFeatureReport+0xc4>
100008ec:	b2e4      	uxtb	r4, r4
100008ee:	b2a2      	uxth	r2, r4
100008f0:	4955      	ldr	r1, [pc, #340]	; (10000a48 <processHIDReadFeatureReport+0x190>)
100008f2:	3101      	adds	r1, #1
100008f4:	f001 fff0 	bl	100028d8 <readConfigBlock>
100008f8:	3401      	adds	r4, #1
100008fa:	b2e1      	uxtb	r1, r4
100008fc:	4852      	ldr	r0, [pc, #328]	; (10000a48 <processHIDReadFeatureReport+0x190>)
100008fe:	f7ff ff23 	bl	10000748 <writeToUSB>
10000902:	b002      	add	sp, #8
10000904:	bd10      	pop	{r4, pc}
10000906:	ab01      	add	r3, sp, #4
10000908:	7018      	strb	r0, [r3, #0]
1000090a:	2201      	movs	r2, #1
1000090c:	705a      	strb	r2, [r3, #1]
1000090e:	f002 f86f 	bl	100029f0 <nrf24_flush_tx>
10000912:	f002 f878 	bl	10002a06 <nrf24_flush_rx>
10000916:	f003 fdda 	bl	100044ce <millis>
1000091a:	0004      	movs	r4, r0
1000091c:	e00f      	b.n	1000093e <processHIDReadFeatureReport+0x86>
1000091e:	2102      	movs	r1, #2
10000920:	a801      	add	r0, sp, #4
10000922:	f002 fa9a 	bl	10002e5a <nrf24_writeAckPayload>
10000926:	e00e      	b.n	10000946 <processHIDReadFeatureReport+0x8e>
10000928:	2130      	movs	r1, #48	; 0x30
1000092a:	2007      	movs	r0, #7
1000092c:	f002 f8c9 	bl	10002ac2 <nrf24_configRegister>
10000930:	f003 fdcd 	bl	100044ce <millis>
10000934:	1b00      	subs	r0, r0, r4
10000936:	23fa      	movs	r3, #250	; 0xfa
10000938:	005b      	lsls	r3, r3, #1
1000093a:	4298      	cmp	r0, r3
1000093c:	d80f      	bhi.n	1000095e <processHIDReadFeatureReport+0xa6>
1000093e:	f002 f898 	bl	10002a72 <nrf24_txFifoFull>
10000942:	2800      	cmp	r0, #0
10000944:	d0eb      	beq.n	1000091e <processHIDReadFeatureReport+0x66>
10000946:	4b41      	ldr	r3, [pc, #260]	; (10000a4c <processHIDReadFeatureReport+0x194>)
10000948:	2201      	movs	r2, #1
1000094a:	701a      	strb	r2, [r3, #0]
1000094c:	2100      	movs	r1, #0
1000094e:	483e      	ldr	r0, [pc, #248]	; (10000a48 <processHIDReadFeatureReport+0x190>)
10000950:	f000 fbd6 	bl	10001100 <tickRFInput>
10000954:	2800      	cmp	r0, #0
10000956:	d0e7      	beq.n	10000928 <processHIDReadFeatureReport+0x70>
10000958:	280c      	cmp	r0, #12
1000095a:	d0e5      	beq.n	10000928 <processHIDReadFeatureReport+0x70>
1000095c:	e009      	b.n	10000972 <processHIDReadFeatureReport+0xba>
1000095e:	483a      	ldr	r0, [pc, #232]	; (10000a48 <processHIDReadFeatureReport+0x190>)
10000960:	3bed      	subs	r3, #237	; 0xed
10000962:	3bff      	subs	r3, #255	; 0xff
10000964:	7003      	strb	r3, [r0, #0]
10000966:	3001      	adds	r0, #1
10000968:	2206      	movs	r2, #6
1000096a:	4939      	ldr	r1, [pc, #228]	; (10000a50 <processHIDReadFeatureReport+0x198>)
1000096c:	f008 f8b2 	bl	10008ad4 <__wrap___aeabi_memcpy>
10000970:	2007      	movs	r0, #7
10000972:	0001      	movs	r1, r0
10000974:	4834      	ldr	r0, [pc, #208]	; (10000a48 <processHIDReadFeatureReport+0x190>)
10000976:	f7ff fee7 	bl	10000748 <writeToUSB>
1000097a:	e7c2      	b.n	10000902 <processHIDReadFeatureReport+0x4a>
1000097c:	2432      	movs	r4, #50	; 0x32
1000097e:	e7b6      	b.n	100008ee <processHIDReadFeatureReport+0x36>
10000980:	2832      	cmp	r0, #50	; 0x32
10000982:	d016      	beq.n	100009b2 <processHIDReadFeatureReport+0xfa>
10000984:	2837      	cmp	r0, #55	; 0x37
10000986:	d014      	beq.n	100009b2 <processHIDReadFeatureReport+0xfa>
10000988:	283c      	cmp	r0, #60	; 0x3c
1000098a:	d02d      	beq.n	100009e8 <processHIDReadFeatureReport+0x130>
1000098c:	2835      	cmp	r0, #53	; 0x35
1000098e:	d033      	beq.n	100009f8 <processHIDReadFeatureReport+0x140>
10000990:	2836      	cmp	r0, #54	; 0x36
10000992:	d046      	beq.n	10000a22 <processHIDReadFeatureReport+0x16a>
10000994:	482c      	ldr	r0, [pc, #176]	; (10000a48 <processHIDReadFeatureReport+0x190>)
10000996:	2208      	movs	r2, #8
10000998:	492e      	ldr	r1, [pc, #184]	; (10000a54 <processHIDReadFeatureReport+0x19c>)
1000099a:	3001      	adds	r0, #1
1000099c:	f008 f89a 	bl	10008ad4 <__wrap___aeabi_memcpy>
100009a0:	4b2d      	ldr	r3, [pc, #180]	; (10000a58 <processHIDReadFeatureReport+0x1a0>)
100009a2:	781b      	ldrb	r3, [r3, #0]
100009a4:	2b1e      	cmp	r3, #30
100009a6:	d844      	bhi.n	10000a32 <processHIDReadFeatureReport+0x17a>
100009a8:	4b27      	ldr	r3, [pc, #156]	; (10000a48 <processHIDReadFeatureReport+0x190>)
100009aa:	2200      	movs	r2, #0
100009ac:	711a      	strb	r2, [r3, #4]
100009ae:	2109      	movs	r1, #9
100009b0:	e7a4      	b.n	100008fc <processHIDReadFeatureReport+0x44>
100009b2:	4c25      	ldr	r4, [pc, #148]	; (10000a48 <processHIDReadFeatureReport+0x190>)
100009b4:	1da0      	adds	r0, r4, #6
100009b6:	2205      	movs	r2, #5
100009b8:	4928      	ldr	r1, [pc, #160]	; (10000a5c <processHIDReadFeatureReport+0x1a4>)
100009ba:	f008 f88b 	bl	10008ad4 <__wrap___aeabi_memcpy>
100009be:	2240      	movs	r2, #64	; 0x40
100009c0:	7062      	strb	r2, [r4, #1]
100009c2:	322b      	adds	r2, #43	; 0x2b
100009c4:	70a2      	strb	r2, [r4, #2]
100009c6:	3a7e      	subs	r2, #126	; 0x7e
100009c8:	70e2      	strb	r2, [r4, #3]
100009ca:	321a      	adds	r2, #26
100009cc:	7122      	strb	r2, [r4, #4]
100009ce:	f000 fb43 	bl	10001058 <generate_crc32>
100009d2:	7560      	strb	r0, [r4, #21]
100009d4:	0a02      	lsrs	r2, r0, #8
100009d6:	75a2      	strb	r2, [r4, #22]
100009d8:	0c02      	lsrs	r2, r0, #16
100009da:	75e2      	strb	r2, [r4, #23]
100009dc:	0e00      	lsrs	r0, r0, #24
100009de:	7620      	strb	r0, [r4, #24]
100009e0:	2301      	movs	r3, #1
100009e2:	7163      	strb	r3, [r4, #5]
100009e4:	2119      	movs	r1, #25
100009e6:	e789      	b.n	100008fc <processHIDReadFeatureReport+0x44>
100009e8:	4817      	ldr	r0, [pc, #92]	; (10000a48 <processHIDReadFeatureReport+0x190>)
100009ea:	220c      	movs	r2, #12
100009ec:	491c      	ldr	r1, [pc, #112]	; (10000a60 <processHIDReadFeatureReport+0x1a8>)
100009ee:	3001      	adds	r0, #1
100009f0:	f008 f870 	bl	10008ad4 <__wrap___aeabi_memcpy>
100009f4:	210d      	movs	r1, #13
100009f6:	e781      	b.n	100008fc <processHIDReadFeatureReport+0x44>
100009f8:	4b1a      	ldr	r3, [pc, #104]	; (10000a64 <processHIDReadFeatureReport+0x1ac>)
100009fa:	7819      	ldrb	r1, [r3, #0]
100009fc:	2901      	cmp	r1, #1
100009fe:	d003      	beq.n	10000a08 <processHIDReadFeatureReport+0x150>
10000a00:	2903      	cmp	r1, #3
10000a02:	d009      	beq.n	10000a18 <processHIDReadFeatureReport+0x160>
10000a04:	2103      	movs	r1, #3
10000a06:	e779      	b.n	100008fc <processHIDReadFeatureReport+0x44>
10000a08:	4b0f      	ldr	r3, [pc, #60]	; (10000a48 <processHIDReadFeatureReport+0x190>)
10000a0a:	4a17      	ldr	r2, [pc, #92]	; (10000a68 <processHIDReadFeatureReport+0x1b0>)
10000a0c:	8812      	ldrh	r2, [r2, #0]
10000a0e:	705a      	strb	r2, [r3, #1]
10000a10:	2200      	movs	r2, #0
10000a12:	709a      	strb	r2, [r3, #2]
10000a14:	3102      	adds	r1, #2
10000a16:	e771      	b.n	100008fc <processHIDReadFeatureReport+0x44>
10000a18:	4b14      	ldr	r3, [pc, #80]	; (10000a6c <processHIDReadFeatureReport+0x1b4>)
10000a1a:	781a      	ldrb	r2, [r3, #0]
10000a1c:	4b0a      	ldr	r3, [pc, #40]	; (10000a48 <processHIDReadFeatureReport+0x190>)
10000a1e:	705a      	strb	r2, [r3, #1]
10000a20:	e76c      	b.n	100008fc <processHIDReadFeatureReport+0x44>
10000a22:	4b13      	ldr	r3, [pc, #76]	; (10000a70 <processHIDReadFeatureReport+0x1b8>)
10000a24:	781a      	ldrb	r2, [r3, #0]
10000a26:	4b08      	ldr	r3, [pc, #32]	; (10000a48 <processHIDReadFeatureReport+0x190>)
10000a28:	705a      	strb	r2, [r3, #1]
10000a2a:	f000 ffe1 	bl	100019f0 <stopSearching>
10000a2e:	2102      	movs	r1, #2
10000a30:	e764      	b.n	100008fc <processHIDReadFeatureReport+0x44>
10000a32:	2b1c      	cmp	r3, #28
10000a34:	d804      	bhi.n	10000a40 <processHIDReadFeatureReport+0x188>
10000a36:	4b04      	ldr	r3, [pc, #16]	; (10000a48 <processHIDReadFeatureReport+0x190>)
10000a38:	2206      	movs	r2, #6
10000a3a:	711a      	strb	r2, [r3, #4]
10000a3c:	2109      	movs	r1, #9
10000a3e:	e75d      	b.n	100008fc <processHIDReadFeatureReport+0x44>
10000a40:	2109      	movs	r1, #9
10000a42:	e75b      	b.n	100008fc <processHIDReadFeatureReport+0x44>
10000a44:	20002611 	.word	0x20002611
10000a48:	20001718 	.word	0x20001718
10000a4c:	2000261c 	.word	0x2000261c
10000a50:	1000bb80 	.word	0x1000bb80
10000a54:	1000bb88 	.word	0x1000bb88
10000a58:	200008ef 	.word	0x200008ef
10000a5c:	1000bb78 	.word	0x1000bb78
10000a60:	20001508 	.word	0x20001508
10000a64:	2000260f 	.word	0x2000260f
10000a68:	20000a78 	.word	0x20000a78
10000a6c:	20000a64 	.word	0x20000a64
10000a70:	20000a63 	.word	0x20000a63

10000a74 <fillMouseReport>:
10000a74:	b510      	push	{r4, lr}
10000a76:	2306      	movs	r3, #6
10000a78:	700b      	strb	r3, [r1, #0]
10000a7a:	3b01      	subs	r3, #1
10000a7c:	7003      	strb	r3, [r0, #0]
10000a7e:	2405      	movs	r4, #5
10000a80:	5714      	ldrsb	r4, [r2, r4]
10000a82:	17e1      	asrs	r1, r4, #31
10000a84:	3302      	adds	r3, #2
10000a86:	4019      	ands	r1, r3
10000a88:	1909      	adds	r1, r1, r4
10000a8a:	10c9      	asrs	r1, r1, #3
10000a8c:	7081      	strb	r1, [r0, #2]
10000a8e:	2407      	movs	r4, #7
10000a90:	5714      	ldrsb	r4, [r2, r4]
10000a92:	17e1      	asrs	r1, r4, #31
10000a94:	4019      	ands	r1, r3
10000a96:	1909      	adds	r1, r1, r4
10000a98:	10c9      	asrs	r1, r1, #3
10000a9a:	4249      	negs	r1, r1
10000a9c:	70c1      	strb	r1, [r0, #3]
10000a9e:	240b      	movs	r4, #11
10000aa0:	5714      	ldrsb	r4, [r2, r4]
10000aa2:	17e1      	asrs	r1, r4, #31
10000aa4:	4019      	ands	r1, r3
10000aa6:	1909      	adds	r1, r1, r4
10000aa8:	10c9      	asrs	r1, r1, #3
10000aaa:	7101      	strb	r1, [r0, #4]
10000aac:	2109      	movs	r1, #9
10000aae:	5651      	ldrsb	r1, [r2, r1]
10000ab0:	17cc      	asrs	r4, r1, #31
10000ab2:	4023      	ands	r3, r4
10000ab4:	185b      	adds	r3, r3, r1
10000ab6:	10db      	asrs	r3, r3, #3
10000ab8:	7143      	strb	r3, [r0, #5]
10000aba:	2301      	movs	r3, #1
10000abc:	56c3      	ldrsb	r3, [r0, r3]
10000abe:	2101      	movs	r1, #1
10000ac0:	438b      	bics	r3, r1
10000ac2:	8814      	ldrh	r4, [r2, #0]
10000ac4:	0b24      	lsrs	r4, r4, #12
10000ac6:	4021      	ands	r1, r4
10000ac8:	430b      	orrs	r3, r1
10000aca:	7043      	strb	r3, [r0, #1]
10000acc:	2102      	movs	r1, #2
10000ace:	438b      	bics	r3, r1
10000ad0:	8814      	ldrh	r4, [r2, #0]
10000ad2:	1324      	asrs	r4, r4, #12
10000ad4:	4021      	ands	r1, r4
10000ad6:	430b      	orrs	r3, r1
10000ad8:	7043      	strb	r3, [r0, #1]
10000ada:	2108      	movs	r1, #8
10000adc:	438b      	bics	r3, r1
10000ade:	8811      	ldrh	r1, [r2, #0]
10000ae0:	12c9      	asrs	r1, r1, #11
10000ae2:	2208      	movs	r2, #8
10000ae4:	400a      	ands	r2, r1
10000ae6:	4313      	orrs	r3, r2
10000ae8:	7043      	strb	r3, [r0, #1]
10000aea:	bd10      	pop	{r4, pc}

10000aec <fillPS3Report>:
10000aec:	b5f0      	push	{r4, r5, r6, r7, lr}
10000aee:	231e      	movs	r3, #30
10000af0:	700b      	strb	r3, [r1, #0]
10000af2:	3b1a      	subs	r3, #26
10000af4:	7003      	strb	r3, [r0, #0]
10000af6:	2300      	movs	r3, #0
10000af8:	e011      	b.n	10000b1e <fillPS3Report+0x32>
10000afa:	2b03      	cmp	r3, #3
10000afc:	d830      	bhi.n	10000b60 <fillPS3Report+0x74>
10000afe:	4955      	ldr	r1, [pc, #340]	; (10000c54 <fillPS3Report+0x168>)
10000b00:	5ccf      	ldrb	r7, [r1, r3]
10000b02:	8814      	ldrh	r4, [r2, #0]
10000b04:	2101      	movs	r1, #1
10000b06:	40b9      	lsls	r1, r7
10000b08:	4021      	ands	r1, r4
10000b0a:	430e      	orrs	r6, r1
10000b0c:	1e71      	subs	r1, r6, #1
10000b0e:	418e      	sbcs	r6, r1
10000b10:	b2f1      	uxtb	r1, r6
10000b12:	e025      	b.n	10000b60 <fillPS3Report+0x74>
10000b14:	2100      	movs	r1, #0
10000b16:	1945      	adds	r5, r0, r5
10000b18:	7269      	strb	r1, [r5, #9]
10000b1a:	3301      	adds	r3, #1
10000b1c:	b2db      	uxtb	r3, r3
10000b1e:	2b0d      	cmp	r3, #13
10000b20:	d822      	bhi.n	10000b68 <fillPS3Report+0x7c>
10000b22:	001d      	movs	r5, r3
10000b24:	494c      	ldr	r1, [pc, #304]	; (10000c58 <fillPS3Report+0x16c>)
10000b26:	5ccc      	ldrb	r4, [r1, r3]
10000b28:	2cff      	cmp	r4, #255	; 0xff
10000b2a:	d0f6      	beq.n	10000b1a <fillPS3Report+0x2e>
10000b2c:	8817      	ldrh	r7, [r2, #0]
10000b2e:	2601      	movs	r6, #1
10000b30:	0031      	movs	r1, r6
10000b32:	40a1      	lsls	r1, r4
10000b34:	4039      	ands	r1, r7
10000b36:	1e4c      	subs	r4, r1, #1
10000b38:	41a1      	sbcs	r1, r4
10000b3a:	b2c9      	uxtb	r1, r1
10000b3c:	2702      	movs	r7, #2
10000b3e:	5fc4      	ldrsh	r4, [r0, r7]
10000b40:	409e      	lsls	r6, r3
10000b42:	43b4      	bics	r4, r6
10000b44:	b224      	sxth	r4, r4
10000b46:	000e      	movs	r6, r1
10000b48:	000f      	movs	r7, r1
10000b4a:	409f      	lsls	r7, r3
10000b4c:	433c      	orrs	r4, r7
10000b4e:	8044      	strh	r4, [r0, #2]
10000b50:	4c42      	ldr	r4, [pc, #264]	; (10000c5c <fillPS3Report+0x170>)
10000b52:	7824      	ldrb	r4, [r4, #0]
10000b54:	429c      	cmp	r4, r3
10000b56:	d9e0      	bls.n	10000b1a <fillPS3Report+0x2e>
10000b58:	4c41      	ldr	r4, [pc, #260]	; (10000c60 <fillPS3Report+0x174>)
10000b5a:	7824      	ldrb	r4, [r4, #0]
10000b5c:	2c1b      	cmp	r4, #27
10000b5e:	d0cc      	beq.n	10000afa <fillPS3Report+0xe>
10000b60:	2900      	cmp	r1, #0
10000b62:	d0d7      	beq.n	10000b14 <fillPS3Report+0x28>
10000b64:	21ff      	movs	r1, #255	; 0xff
10000b66:	e7d6      	b.n	10000b16 <fillPS3Report+0x2a>
10000b68:	7811      	ldrb	r1, [r2, #0]
10000b6a:	230f      	movs	r3, #15
10000b6c:	400b      	ands	r3, r1
10000b6e:	2b0a      	cmp	r3, #10
10000b70:	d827      	bhi.n	10000bc2 <fillPS3Report+0xd6>
10000b72:	493c      	ldr	r1, [pc, #240]	; (10000c64 <fillPS3Report+0x178>)
10000b74:	5ccb      	ldrb	r3, [r1, r3]
10000b76:	7103      	strb	r3, [r0, #4]
10000b78:	230a      	movs	r3, #10
10000b7a:	5ed4      	ldrsh	r4, [r2, r3]
10000b7c:	4b38      	ldr	r3, [pc, #224]	; (10000c60 <fillPS3Report+0x174>)
10000b7e:	7819      	ldrb	r1, [r3, #0]
10000b80:	291b      	cmp	r1, #27
10000b82:	d020      	beq.n	10000bc6 <fillPS3Report+0xda>
10000b84:	291d      	cmp	r1, #29
10000b86:	d001      	beq.n	10000b8c <fillPS3Report+0xa0>
10000b88:	2920      	cmp	r1, #32
10000b8a:	d112      	bne.n	10000bb2 <fillPS3Report+0xc6>
10000b8c:	2309      	movs	r3, #9
10000b8e:	56d3      	ldrsb	r3, [r2, r3]
10000b90:	3b80      	subs	r3, #128	; 0x80
10000b92:	71c3      	strb	r3, [r0, #7]
10000b94:	2502      	movs	r5, #2
10000b96:	5f43      	ldrsh	r3, [r0, r5]
10000b98:	2520      	movs	r5, #32
10000b9a:	43ab      	bics	r3, r5
10000b9c:	4d32      	ldr	r5, [pc, #200]	; (10000c68 <fillPS3Report+0x17c>)
10000b9e:	42ac      	cmp	r4, r5
10000ba0:	d022      	beq.n	10000be8 <fillPS3Report+0xfc>
10000ba2:	2400      	movs	r4, #0
10000ba4:	4323      	orrs	r3, r4
10000ba6:	8043      	strh	r3, [r0, #2]
10000ba8:	7894      	ldrb	r4, [r2, #2]
10000baa:	2380      	movs	r3, #128	; 0x80
10000bac:	425b      	negs	r3, r3
10000bae:	1b1b      	subs	r3, r3, r4
10000bb0:	7203      	strb	r3, [r0, #8]
10000bb2:	291f      	cmp	r1, #31
10000bb4:	d01a      	beq.n	10000bec <fillPS3Report+0x100>
10000bb6:	291a      	cmp	r1, #26
10000bb8:	d018      	beq.n	10000bec <fillPS3Report+0x100>
10000bba:	2380      	movs	r3, #128	; 0x80
10000bbc:	7143      	strb	r3, [r0, #5]
10000bbe:	7183      	strb	r3, [r0, #6]
10000bc0:	e03a      	b.n	10000c38 <fillPS3Report+0x14c>
10000bc2:	2308      	movs	r3, #8
10000bc4:	e7d7      	b.n	10000b76 <fillPS3Report+0x8a>
10000bc6:	2508      	movs	r5, #8
10000bc8:	5f53      	ldrsh	r3, [r2, r5]
10000bca:	125b      	asrs	r3, r3, #9
10000bcc:	3b40      	subs	r3, #64	; 0x40
10000bce:	71c3      	strb	r3, [r0, #7]
10000bd0:	4b25      	ldr	r3, [pc, #148]	; (10000c68 <fillPS3Report+0x17c>)
10000bd2:	429c      	cmp	r4, r3
10000bd4:	d005      	beq.n	10000be2 <fillPS3Report+0xf6>
10000bd6:	23f8      	movs	r3, #248	; 0xf8
10000bd8:	33ff      	adds	r3, #255	; 0xff
10000bda:	82c3      	strh	r3, [r0, #22]
10000bdc:	237d      	movs	r3, #125	; 0x7d
10000bde:	7203      	strb	r3, [r0, #8]
10000be0:	e7e7      	b.n	10000bb2 <fillPS3Report+0xc6>
10000be2:	23c2      	movs	r3, #194	; 0xc2
10000be4:	005b      	lsls	r3, r3, #1
10000be6:	e7f8      	b.n	10000bda <fillPS3Report+0xee>
10000be8:	2420      	movs	r4, #32
10000bea:	e7db      	b.n	10000ba4 <fillPS3Report+0xb8>
10000bec:	2402      	movs	r4, #2
10000bee:	5f03      	ldrsh	r3, [r0, r4]
10000bf0:	2410      	movs	r4, #16
10000bf2:	43a3      	bics	r3, r4
10000bf4:	7894      	ldrb	r4, [r2, #2]
10000bf6:	2c32      	cmp	r4, #50	; 0x32
10000bf8:	d921      	bls.n	10000c3e <fillPS3Report+0x152>
10000bfa:	2410      	movs	r4, #16
10000bfc:	4323      	orrs	r3, r4
10000bfe:	8043      	strh	r3, [r0, #2]
10000c00:	2420      	movs	r4, #32
10000c02:	43a3      	bics	r3, r4
10000c04:	78d4      	ldrb	r4, [r2, #3]
10000c06:	2c32      	cmp	r4, #50	; 0x32
10000c08:	d91b      	bls.n	10000c42 <fillPS3Report+0x156>
10000c0a:	2420      	movs	r4, #32
10000c0c:	4323      	orrs	r3, r4
10000c0e:	8043      	strh	r3, [r0, #2]
10000c10:	7893      	ldrb	r3, [r2, #2]
10000c12:	7343      	strb	r3, [r0, #13]
10000c14:	78d3      	ldrb	r3, [r2, #3]
10000c16:	7383      	strb	r3, [r0, #14]
10000c18:	2305      	movs	r3, #5
10000c1a:	56d3      	ldrsb	r3, [r2, r3]
10000c1c:	3b80      	subs	r3, #128	; 0x80
10000c1e:	7143      	strb	r3, [r0, #5]
10000c20:	2307      	movs	r3, #7
10000c22:	56d3      	ldrsb	r3, [r2, r3]
10000c24:	3b80      	subs	r3, #128	; 0x80
10000c26:	7183      	strb	r3, [r0, #6]
10000c28:	2309      	movs	r3, #9
10000c2a:	56d3      	ldrsb	r3, [r2, r3]
10000c2c:	3b80      	subs	r3, #128	; 0x80
10000c2e:	71c3      	strb	r3, [r0, #7]
10000c30:	230b      	movs	r3, #11
10000c32:	56d3      	ldrsb	r3, [r2, r3]
10000c34:	3b80      	subs	r3, #128	; 0x80
10000c36:	7203      	strb	r3, [r0, #8]
10000c38:	291a      	cmp	r1, #26
10000c3a:	d004      	beq.n	10000c46 <fillPS3Report+0x15a>
10000c3c:	bdf0      	pop	{r4, r5, r6, r7, pc}
10000c3e:	2400      	movs	r4, #0
10000c40:	e7dc      	b.n	10000bfc <fillPS3Report+0x110>
10000c42:	2400      	movs	r4, #0
10000c44:	e7e2      	b.n	10000c0c <fillPS3Report+0x120>
10000c46:	7983      	ldrb	r3, [r0, #6]
10000c48:	43db      	mvns	r3, r3
10000c4a:	7183      	strb	r3, [r0, #6]
10000c4c:	7a03      	ldrb	r3, [r0, #8]
10000c4e:	43db      	mvns	r3, r3
10000c50:	7203      	strb	r3, [r0, #8]
10000c52:	e7f3      	b.n	10000c3c <fillPS3Report+0x150>
10000c54:	1000bbc8 	.word	0x1000bbc8
10000c58:	20000a54 	.word	0x20000a54
10000c5c:	2000260d 	.word	0x2000260d
10000c60:	200008ef 	.word	0x200008ef
10000c64:	1000bbcc 	.word	0x1000bbcc
10000c68:	00007fff 	.word	0x00007fff

10000c6c <fillMIDIReport>:
10000c6c:	b5f8      	push	{r3, r4, r5, r6, r7, lr}
10000c6e:	46de      	mov	lr, fp
10000c70:	4657      	mov	r7, sl
10000c72:	464e      	mov	r6, r9
10000c74:	4645      	mov	r5, r8
10000c76:	b5e0      	push	{r5, r6, r7, lr}
10000c78:	4682      	mov	sl, r0
10000c7a:	468b      	mov	fp, r1
10000c7c:	4691      	mov	r9, r2
10000c7e:	2307      	movs	r3, #7
10000c80:	7003      	strb	r3, [r0, #0]
10000c82:	2400      	movs	r4, #0
10000c84:	2500      	movs	r5, #0
10000c86:	e018      	b.n	10000cba <fillMIDIReport+0x4e>
10000c88:	2690      	movs	r6, #144	; 0x90
10000c8a:	b2e1      	uxtb	r1, r4
10000c8c:	4648      	mov	r0, r9
10000c8e:	f001 fc89 	bl	100025a4 <getVelocity>
10000c92:	0840      	lsrs	r0, r0, #1
10000c94:	b2c0      	uxtb	r0, r0
10000c96:	4b17      	ldr	r3, [pc, #92]	; (10000cf4 <fillMIDIReport+0x88>)
10000c98:	5d1b      	ldrb	r3, [r3, r4]
10000c9a:	4283      	cmp	r3, r0
10000c9c:	d00c      	beq.n	10000cb8 <fillMIDIReport+0x4c>
10000c9e:	4b15      	ldr	r3, [pc, #84]	; (10000cf4 <fillMIDIReport+0x88>)
10000ca0:	5518      	strb	r0, [r3, r4]
10000ca2:	00ab      	lsls	r3, r5, #2
10000ca4:	4453      	add	r3, sl
10000ca6:	0932      	lsrs	r2, r6, #4
10000ca8:	705a      	strb	r2, [r3, #1]
10000caa:	4642      	mov	r2, r8
10000cac:	4316      	orrs	r6, r2
10000cae:	709e      	strb	r6, [r3, #2]
10000cb0:	70df      	strb	r7, [r3, #3]
10000cb2:	7118      	strb	r0, [r3, #4]
10000cb4:	3501      	adds	r5, #1
10000cb6:	b2ed      	uxtb	r5, r5
10000cb8:	3401      	adds	r4, #1
10000cba:	2c15      	cmp	r4, #21
10000cbc:	dc0e      	bgt.n	10000cdc <fillMIDIReport+0x70>
10000cbe:	4b0e      	ldr	r3, [pc, #56]	; (10000cf8 <fillMIDIReport+0x8c>)
10000cc0:	5d1b      	ldrb	r3, [r3, r4]
10000cc2:	2b00      	cmp	r3, #0
10000cc4:	d0f8      	beq.n	10000cb8 <fillMIDIReport+0x4c>
10000cc6:	4a0c      	ldr	r2, [pc, #48]	; (10000cf8 <fillMIDIReport+0x8c>)
10000cc8:	1912      	adds	r2, r2, r4
10000cca:	0011      	movs	r1, r2
10000ccc:	312c      	adds	r1, #44	; 0x2c
10000cce:	7809      	ldrb	r1, [r1, #0]
10000cd0:	4688      	mov	r8, r1
10000cd2:	7d97      	ldrb	r7, [r2, #22]
10000cd4:	2b01      	cmp	r3, #1
10000cd6:	d0d7      	beq.n	10000c88 <fillMIDIReport+0x1c>
10000cd8:	26b0      	movs	r6, #176	; 0xb0
10000cda:	e7d6      	b.n	10000c8a <fillMIDIReport+0x1e>
10000cdc:	00ad      	lsls	r5, r5, #2
10000cde:	b2ed      	uxtb	r5, r5
10000ce0:	3501      	adds	r5, #1
10000ce2:	465b      	mov	r3, fp
10000ce4:	701d      	strb	r5, [r3, #0]
10000ce6:	bcf0      	pop	{r4, r5, r6, r7}
10000ce8:	46bb      	mov	fp, r7
10000cea:	46b2      	mov	sl, r6
10000cec:	46a9      	mov	r9, r5
10000cee:	46a0      	mov	r8, r4
10000cf0:	bdf8      	pop	{r3, r4, r5, r6, r7, pc}
10000cf2:	46c0      	nop			; (mov r8, r8)
10000cf4:	20001ed4 	.word	0x20001ed4
10000cf8:	20001fa0 	.word	0x20001fa0

10000cfc <fillXInputReport>:
10000cfc:	b510      	push	{r4, lr}
10000cfe:	000c      	movs	r4, r1
10000d00:	0011      	movs	r1, r2
10000d02:	2314      	movs	r3, #20
10000d04:	7023      	strb	r3, [r4, #0]
10000d06:	2200      	movs	r2, #0
10000d08:	7002      	strb	r2, [r0, #0]
10000d0a:	7043      	strb	r3, [r0, #1]
10000d0c:	3002      	adds	r0, #2
10000d0e:	320c      	adds	r2, #12
10000d10:	f007 fee0 	bl	10008ad4 <__wrap___aeabi_memcpy>
10000d14:	bd10      	pop	{r4, pc}

10000d16 <checkJoyKey>:
10000d16:	b530      	push	{r4, r5, lr}
10000d18:	9c03      	ldr	r4, [sp, #12]
10000d1a:	7824      	ldrb	r4, [r4, #0]
10000d1c:	2c05      	cmp	r4, #5
10000d1e:	d815      	bhi.n	10000d4c <checkJoyKey+0x36>
10000d20:	2800      	cmp	r0, #0
10000d22:	d009      	beq.n	10000d38 <checkJoyKey+0x22>
10000d24:	425d      	negs	r5, r3
10000d26:	4295      	cmp	r5, r2
10000d28:	dd06      	ble.n	10000d38 <checkJoyKey+0x22>
10000d2a:	9d03      	ldr	r5, [sp, #12]
10000d2c:	3501      	adds	r5, #1
10000d2e:	9503      	str	r5, [sp, #12]
10000d30:	9d04      	ldr	r5, [sp, #16]
10000d32:	46ac      	mov	ip, r5
10000d34:	4464      	add	r4, ip
10000d36:	70e0      	strb	r0, [r4, #3]
10000d38:	2900      	cmp	r1, #0
10000d3a:	d007      	beq.n	10000d4c <checkJoyKey+0x36>
10000d3c:	4293      	cmp	r3, r2
10000d3e:	da05      	bge.n	10000d4c <checkJoyKey+0x36>
10000d40:	9b03      	ldr	r3, [sp, #12]
10000d42:	781b      	ldrb	r3, [r3, #0]
10000d44:	9a04      	ldr	r2, [sp, #16]
10000d46:	4694      	mov	ip, r2
10000d48:	4463      	add	r3, ip
10000d4a:	70d9      	strb	r1, [r3, #3]
10000d4c:	bd30      	pop	{r4, r5, pc}
	...

10000d50 <fillKeyboardReport>:
10000d50:	b5f0      	push	{r4, r5, r6, r7, lr}
10000d52:	46c6      	mov	lr, r8
10000d54:	b500      	push	{lr}
10000d56:	b084      	sub	sp, #16
10000d58:	0006      	movs	r6, r0
10000d5a:	0015      	movs	r5, r2
10000d5c:	2309      	movs	r3, #9
10000d5e:	700b      	strb	r3, [r1, #0]
10000d60:	3b03      	subs	r3, #3
10000d62:	7003      	strb	r3, [r0, #0]
10000d64:	3309      	adds	r3, #9
10000d66:	446b      	add	r3, sp
10000d68:	2200      	movs	r2, #0
10000d6a:	701a      	strb	r2, [r3, #0]
10000d6c:	2300      	movs	r3, #0
10000d6e:	e000      	b.n	10000d72 <fillKeyboardReport+0x22>
10000d70:	3301      	adds	r3, #1
10000d72:	2b0f      	cmp	r3, #15
10000d74:	dc13      	bgt.n	10000d9e <fillKeyboardReport+0x4e>
10000d76:	210f      	movs	r1, #15
10000d78:	4469      	add	r1, sp
10000d7a:	7809      	ldrb	r1, [r1, #0]
10000d7c:	2905      	cmp	r1, #5
10000d7e:	d80e      	bhi.n	10000d9e <fillKeyboardReport+0x4e>
10000d80:	4c28      	ldr	r4, [pc, #160]	; (10000e24 <fillKeyboardReport+0xd4>)
10000d82:	5ce4      	ldrb	r4, [r4, r3]
10000d84:	2c00      	cmp	r4, #0
10000d86:	d0f3      	beq.n	10000d70 <fillKeyboardReport+0x20>
10000d88:	882a      	ldrh	r2, [r5, #0]
10000d8a:	411a      	asrs	r2, r3
10000d8c:	07d2      	lsls	r2, r2, #31
10000d8e:	d5ef      	bpl.n	10000d70 <fillKeyboardReport+0x20>
10000d90:	1c48      	adds	r0, r1, #1
10000d92:	220f      	movs	r2, #15
10000d94:	446a      	add	r2, sp
10000d96:	7010      	strb	r0, [r2, #0]
10000d98:	1871      	adds	r1, r6, r1
10000d9a:	70cc      	strb	r4, [r1, #3]
10000d9c:	e7e8      	b.n	10000d70 <fillKeyboardReport+0x20>
10000d9e:	4c21      	ldr	r4, [pc, #132]	; (10000e24 <fillKeyboardReport+0xd4>)
10000da0:	7ca0      	ldrb	r0, [r4, #18]
10000da2:	7ce1      	ldrb	r1, [r4, #19]
10000da4:	2304      	movs	r3, #4
10000da6:	5eea      	ldrsh	r2, [r5, r3]
10000da8:	4b1f      	ldr	r3, [pc, #124]	; (10000e28 <fillKeyboardReport+0xd8>)
10000daa:	4698      	mov	r8, r3
10000dac:	681b      	ldr	r3, [r3, #0]
10000dae:	9601      	str	r6, [sp, #4]
10000db0:	270f      	movs	r7, #15
10000db2:	446f      	add	r7, sp
10000db4:	9700      	str	r7, [sp, #0]
10000db6:	f7ff ffae 	bl	10000d16 <checkJoyKey>
10000dba:	7d20      	ldrb	r0, [r4, #20]
10000dbc:	7d61      	ldrb	r1, [r4, #21]
10000dbe:	2306      	movs	r3, #6
10000dc0:	5eea      	ldrsh	r2, [r5, r3]
10000dc2:	4643      	mov	r3, r8
10000dc4:	681b      	ldr	r3, [r3, #0]
10000dc6:	9601      	str	r6, [sp, #4]
10000dc8:	9700      	str	r7, [sp, #0]
10000dca:	f7ff ffa4 	bl	10000d16 <checkJoyKey>
10000dce:	7da0      	ldrb	r0, [r4, #22]
10000dd0:	7de1      	ldrb	r1, [r4, #23]
10000dd2:	2308      	movs	r3, #8
10000dd4:	5eea      	ldrsh	r2, [r5, r3]
10000dd6:	4643      	mov	r3, r8
10000dd8:	681b      	ldr	r3, [r3, #0]
10000dda:	9601      	str	r6, [sp, #4]
10000ddc:	9700      	str	r7, [sp, #0]
10000dde:	f7ff ff9a 	bl	10000d16 <checkJoyKey>
10000de2:	7e20      	ldrb	r0, [r4, #24]
10000de4:	7e61      	ldrb	r1, [r4, #25]
10000de6:	230a      	movs	r3, #10
10000de8:	5eea      	ldrsh	r2, [r5, r3]
10000dea:	4643      	mov	r3, r8
10000dec:	681b      	ldr	r3, [r3, #0]
10000dee:	9601      	str	r6, [sp, #4]
10000df0:	9700      	str	r7, [sp, #0]
10000df2:	f7ff ff90 	bl	10000d16 <checkJoyKey>
10000df6:	7c21      	ldrb	r1, [r4, #16]
10000df8:	78aa      	ldrb	r2, [r5, #2]
10000dfa:	4b0c      	ldr	r3, [pc, #48]	; (10000e2c <fillKeyboardReport+0xdc>)
10000dfc:	4698      	mov	r8, r3
10000dfe:	681b      	ldr	r3, [r3, #0]
10000e00:	9601      	str	r6, [sp, #4]
10000e02:	9700      	str	r7, [sp, #0]
10000e04:	2000      	movs	r0, #0
10000e06:	f7ff ff86 	bl	10000d16 <checkJoyKey>
10000e0a:	7c61      	ldrb	r1, [r4, #17]
10000e0c:	78ea      	ldrb	r2, [r5, #3]
10000e0e:	4643      	mov	r3, r8
10000e10:	681b      	ldr	r3, [r3, #0]
10000e12:	9601      	str	r6, [sp, #4]
10000e14:	9700      	str	r7, [sp, #0]
10000e16:	2000      	movs	r0, #0
10000e18:	f7ff ff7d 	bl	10000d16 <checkJoyKey>
10000e1c:	b004      	add	sp, #16
10000e1e:	bc80      	pop	{r7}
10000e20:	46b8      	mov	r8, r7
10000e22:	bdf0      	pop	{r4, r5, r6, r7, pc}
10000e24:	20001e8c 	.word	0x20001e8c
10000e28:	20001e88 	.word	0x20001e88
10000e2c:	200025e4 	.word	0x200025e4

10000e30 <initKeyboard>:
10000e30:	b510      	push	{r4, lr}
10000e32:	0004      	movs	r4, r0
10000e34:	0001      	movs	r1, r0
10000e36:	3132      	adds	r1, #50	; 0x32
10000e38:	221a      	movs	r2, #26
10000e3a:	4807      	ldr	r0, [pc, #28]	; (10000e58 <initKeyboard+0x28>)
10000e3c:	f007 fe4a 	bl	10008ad4 <__wrap___aeabi_memcpy>
10000e40:	232d      	movs	r3, #45	; 0x2d
10000e42:	5ce3      	ldrb	r3, [r4, r3]
10000e44:	021b      	lsls	r3, r3, #8
10000e46:	4a05      	ldr	r2, [pc, #20]	; (10000e5c <initKeyboard+0x2c>)
10000e48:	6013      	str	r3, [r2, #0]
10000e4a:	232c      	movs	r3, #44	; 0x2c
10000e4c:	5ce3      	ldrb	r3, [r4, r3]
10000e4e:	021b      	lsls	r3, r3, #8
10000e50:	4a03      	ldr	r2, [pc, #12]	; (10000e60 <initKeyboard+0x30>)
10000e52:	6013      	str	r3, [r2, #0]
10000e54:	bd10      	pop	{r4, pc}
10000e56:	46c0      	nop			; (mov r8, r8)
10000e58:	20001e8c 	.word	0x20001e8c
10000e5c:	20001e88 	.word	0x20001e88
10000e60:	200025e4 	.word	0x200025e4

10000e64 <initMIDI>:
10000e64:	b510      	push	{r4, lr}
10000e66:	0001      	movs	r1, r0
10000e68:	31a4      	adds	r1, #164	; 0xa4
10000e6a:	2242      	movs	r2, #66	; 0x42
10000e6c:	4801      	ldr	r0, [pc, #4]	; (10000e74 <initMIDI+0x10>)
10000e6e:	f007 fe31 	bl	10008ad4 <__wrap___aeabi_memcpy>
10000e72:	bd10      	pop	{r4, pc}
10000e74:	20001fa0 	.word	0x20001fa0

10000e78 <initPS3>:
10000e78:	b510      	push	{r4, lr}
10000e7a:	4b1c      	ldr	r3, [pc, #112]	; (10000eec <initPS3+0x74>)
10000e7c:	781b      	ldrb	r3, [r3, #0]
10000e7e:	2b1a      	cmp	r3, #26
10000e80:	d90a      	bls.n	10000e98 <initPS3+0x20>
10000e82:	2b1f      	cmp	r3, #31
10000e84:	d908      	bls.n	10000e98 <initPS3+0x20>
10000e86:	4a1a      	ldr	r2, [pc, #104]	; (10000ef0 <initPS3+0x78>)
10000e88:	491a      	ldr	r1, [pc, #104]	; (10000ef4 <initPS3+0x7c>)
10000e8a:	6808      	ldr	r0, [r1, #0]
10000e8c:	6010      	str	r0, [r2, #0]
10000e8e:	8889      	ldrh	r1, [r1, #4]
10000e90:	8091      	strh	r1, [r2, #4]
10000e92:	4a19      	ldr	r2, [pc, #100]	; (10000ef8 <initPS3+0x80>)
10000e94:	2106      	movs	r1, #6
10000e96:	7011      	strb	r1, [r2, #0]
10000e98:	2b1a      	cmp	r3, #26
10000e9a:	d011      	beq.n	10000ec0 <initPS3+0x48>
10000e9c:	2b1c      	cmp	r3, #28
10000e9e:	d015      	beq.n	10000ecc <initPS3+0x54>
10000ea0:	2b1e      	cmp	r3, #30
10000ea2:	d013      	beq.n	10000ecc <initPS3+0x54>
10000ea4:	2b1b      	cmp	r3, #27
10000ea6:	d019      	beq.n	10000edc <initPS3+0x64>
10000ea8:	2b1d      	cmp	r3, #29
10000eaa:	d001      	beq.n	10000eb0 <initPS3+0x38>
10000eac:	2b20      	cmp	r3, #32
10000eae:	d114      	bne.n	10000eda <initPS3+0x62>
10000eb0:	4b12      	ldr	r3, [pc, #72]	; (10000efc <initPS3+0x84>)
10000eb2:	4a13      	ldr	r2, [pc, #76]	; (10000f00 <initPS3+0x88>)
10000eb4:	ca13      	ldmia	r2!, {r0, r1, r4}
10000eb6:	c313      	stmia	r3!, {r0, r1, r4}
10000eb8:	0019      	movs	r1, r3
10000eba:	8813      	ldrh	r3, [r2, #0]
10000ebc:	800b      	strh	r3, [r1, #0]
10000ebe:	e00c      	b.n	10000eda <initPS3+0x62>
10000ec0:	4a0e      	ldr	r2, [pc, #56]	; (10000efc <initPS3+0x84>)
10000ec2:	210d      	movs	r1, #13
10000ec4:	7051      	strb	r1, [r2, #1]
10000ec6:	3901      	subs	r1, #1
10000ec8:	7091      	strb	r1, [r2, #2]
10000eca:	e7e7      	b.n	10000e9c <initPS3+0x24>
10000ecc:	4b0b      	ldr	r3, [pc, #44]	; (10000efc <initPS3+0x84>)
10000ece:	4a0d      	ldr	r2, [pc, #52]	; (10000f04 <initPS3+0x8c>)
10000ed0:	ca13      	ldmia	r2!, {r0, r1, r4}
10000ed2:	c313      	stmia	r3!, {r0, r1, r4}
10000ed4:	0019      	movs	r1, r3
10000ed6:	8813      	ldrh	r3, [r2, #0]
10000ed8:	800b      	strh	r3, [r1, #0]
10000eda:	bd10      	pop	{r4, pc}
10000edc:	4b07      	ldr	r3, [pc, #28]	; (10000efc <initPS3+0x84>)
10000ede:	4a0a      	ldr	r2, [pc, #40]	; (10000f08 <initPS3+0x90>)
10000ee0:	ca13      	ldmia	r2!, {r0, r1, r4}
10000ee2:	c313      	stmia	r3!, {r0, r1, r4}
10000ee4:	0019      	movs	r1, r3
10000ee6:	8813      	ldrh	r3, [r2, #0]
10000ee8:	800b      	strh	r3, [r1, #0]
10000eea:	e7f6      	b.n	10000eda <initPS3+0x62>
10000eec:	200008ef 	.word	0x200008ef
10000ef0:	2000234c 	.word	0x2000234c
10000ef4:	1000bbc0 	.word	0x1000bbc0
10000ef8:	2000260d 	.word	0x2000260d
10000efc:	20000a54 	.word	0x20000a54
10000f00:	1000bb90 	.word	0x1000bb90
10000f04:	1000bba0 	.word	0x1000bba0
10000f08:	1000bbb0 	.word	0x1000bbb0

10000f0c <initReports>:
10000f0c:	b510      	push	{r4, lr}
10000f0e:	4b12      	ldr	r3, [pc, #72]	; (10000f58 <initReports+0x4c>)
10000f10:	781b      	ldrb	r3, [r3, #0]
10000f12:	2b22      	cmp	r3, #34	; 0x22
10000f14:	d006      	beq.n	10000f24 <initReports+0x18>
10000f16:	d809      	bhi.n	10000f2c <initReports+0x20>
10000f18:	2b13      	cmp	r3, #19
10000f1a:	d80d      	bhi.n	10000f38 <initReports+0x2c>
10000f1c:	4b0f      	ldr	r3, [pc, #60]	; (10000f5c <initReports+0x50>)
10000f1e:	4a10      	ldr	r2, [pc, #64]	; (10000f60 <initReports+0x54>)
10000f20:	601a      	str	r2, [r3, #0]
10000f22:	e002      	b.n	10000f2a <initReports+0x1e>
10000f24:	4b0d      	ldr	r3, [pc, #52]	; (10000f5c <initReports+0x50>)
10000f26:	4a0f      	ldr	r2, [pc, #60]	; (10000f64 <initReports+0x58>)
10000f28:	601a      	str	r2, [r3, #0]
10000f2a:	bd10      	pop	{r4, pc}
10000f2c:	f7ff ff9a 	bl	10000e64 <initMIDI>
10000f30:	4b0a      	ldr	r3, [pc, #40]	; (10000f5c <initReports+0x50>)
10000f32:	4a0d      	ldr	r2, [pc, #52]	; (10000f68 <initReports+0x5c>)
10000f34:	601a      	str	r2, [r3, #0]
10000f36:	e7f8      	b.n	10000f2a <initReports+0x1e>
10000f38:	3b14      	subs	r3, #20
10000f3a:	b2db      	uxtb	r3, r3
10000f3c:	2b05      	cmp	r3, #5
10000f3e:	d805      	bhi.n	10000f4c <initReports+0x40>
10000f40:	f7ff ff76 	bl	10000e30 <initKeyboard>
10000f44:	4b05      	ldr	r3, [pc, #20]	; (10000f5c <initReports+0x50>)
10000f46:	4a09      	ldr	r2, [pc, #36]	; (10000f6c <initReports+0x60>)
10000f48:	601a      	str	r2, [r3, #0]
10000f4a:	e7ee      	b.n	10000f2a <initReports+0x1e>
10000f4c:	f7ff ff94 	bl	10000e78 <initPS3>
10000f50:	4b02      	ldr	r3, [pc, #8]	; (10000f5c <initReports+0x50>)
10000f52:	4a07      	ldr	r2, [pc, #28]	; (10000f70 <initReports+0x64>)
10000f54:	601a      	str	r2, [r3, #0]
10000f56:	e7e8      	b.n	10000f2a <initReports+0x1e>
10000f58:	200008ef 	.word	0x200008ef
10000f5c:	200017b4 	.word	0x200017b4
10000f60:	10000cfd 	.word	0x10000cfd
10000f64:	10000a75 	.word	0x10000a75
10000f68:	10000c6d 	.word	0x10000c6d
10000f6c:	10000d51 	.word	0x10000d51
10000f70:	10000aed 	.word	0x10000aed

10000f74 <initLEDs>:
10000f74:	b510      	push	{r4, lr}
10000f76:	7903      	ldrb	r3, [r0, #4]
10000f78:	3b02      	subs	r3, #2
10000f7a:	1e5a      	subs	r2, r3, #1
10000f7c:	4193      	sbcs	r3, r2
10000f7e:	4a04      	ldr	r2, [pc, #16]	; (10000f90 <initLEDs+0x1c>)
10000f80:	7013      	strb	r3, [r2, #0]
10000f82:	0001      	movs	r1, r0
10000f84:	314c      	adds	r1, #76	; 0x4c
10000f86:	2258      	movs	r2, #88	; 0x58
10000f88:	4802      	ldr	r0, [pc, #8]	; (10000f94 <initLEDs+0x20>)
10000f8a:	f007 fda3 	bl	10008ad4 <__wrap___aeabi_memcpy>
10000f8e:	bd10      	pop	{r4, pc}
10000f90:	20002613 	.word	0x20002613
10000f94:	20001eec 	.word	0x20001eec

10000f98 <tickLEDs>:
10000f98:	b570      	push	{r4, r5, r6, lr}
10000f9a:	b082      	sub	sp, #8
10000f9c:	0005      	movs	r5, r0
10000f9e:	4b28      	ldr	r3, [pc, #160]	; (10001040 <tickLEDs+0xa8>)
10000fa0:	781b      	ldrb	r3, [r3, #0]
10000fa2:	2b00      	cmp	r3, #0
10000fa4:	d149      	bne.n	1000103a <tickLEDs+0xa2>
10000fa6:	2400      	movs	r4, #0
10000fa8:	e004      	b.n	10000fb4 <tickLEDs+0x1c>
10000faa:	2000      	movs	r0, #0
10000fac:	f003 fac4 	bl	10004538 <spi_transfer>
10000fb0:	3401      	adds	r4, #1
10000fb2:	b2e4      	uxtb	r4, r4
10000fb4:	2c03      	cmp	r4, #3
10000fb6:	d9f8      	bls.n	10000faa <tickLEDs+0x12>
10000fb8:	2400      	movs	r4, #0
10000fba:	e00f      	b.n	10000fdc <tickLEDs+0x44>
10000fbc:	20ff      	movs	r0, #255	; 0xff
10000fbe:	f003 fabb 	bl	10004538 <spi_transfer>
10000fc2:	466b      	mov	r3, sp
10000fc4:	78d8      	ldrb	r0, [r3, #3]
10000fc6:	f003 fab7 	bl	10004538 <spi_transfer>
10000fca:	466b      	mov	r3, sp
10000fcc:	7898      	ldrb	r0, [r3, #2]
10000fce:	f003 fab3 	bl	10004538 <spi_transfer>
10000fd2:	466b      	mov	r3, sp
10000fd4:	7858      	ldrb	r0, [r3, #1]
10000fd6:	f003 faaf 	bl	10004538 <spi_transfer>
10000fda:	3401      	adds	r4, #1
10000fdc:	00a3      	lsls	r3, r4, #2
10000fde:	4a19      	ldr	r2, [pc, #100]	; (10001044 <tickLEDs+0xac>)
10000fe0:	589a      	ldr	r2, [r3, r2]
10000fe2:	9201      	str	r2, [sp, #4]
10000fe4:	4a18      	ldr	r2, [pc, #96]	; (10001048 <tickLEDs+0xb0>)
10000fe6:	589b      	ldr	r3, [r3, r2]
10000fe8:	9300      	str	r3, [sp, #0]
10000fea:	ab01      	add	r3, sp, #4
10000fec:	7819      	ldrb	r1, [r3, #0]
10000fee:	2900      	cmp	r1, #0
10000ff0:	d103      	bne.n	10000ffa <tickLEDs+0x62>
10000ff2:	466b      	mov	r3, sp
10000ff4:	781e      	ldrb	r6, [r3, #0]
10000ff6:	2e00      	cmp	r6, #0
10000ff8:	d017      	beq.n	1000102a <tickLEDs+0x92>
10000ffa:	466b      	mov	r3, sp
10000ffc:	78db      	ldrb	r3, [r3, #3]
10000ffe:	2b00      	cmp	r3, #0
10001000:	d1dc      	bne.n	10000fbc <tickLEDs+0x24>
10001002:	466b      	mov	r3, sp
10001004:	785b      	ldrb	r3, [r3, #1]
10001006:	2b00      	cmp	r3, #0
10001008:	d1d8      	bne.n	10000fbc <tickLEDs+0x24>
1000100a:	466b      	mov	r3, sp
1000100c:	789b      	ldrb	r3, [r3, #2]
1000100e:	2b00      	cmp	r3, #0
10001010:	d1d4      	bne.n	10000fbc <tickLEDs+0x24>
10001012:	2900      	cmp	r1, #0
10001014:	d0d2      	beq.n	10000fbc <tickLEDs+0x24>
10001016:	3901      	subs	r1, #1
10001018:	b2c9      	uxtb	r1, r1
1000101a:	0028      	movs	r0, r5
1000101c:	f001 fac2 	bl	100025a4 <getVelocity>
10001020:	2800      	cmp	r0, #0
10001022:	d0cb      	beq.n	10000fbc <tickLEDs+0x24>
10001024:	9b01      	ldr	r3, [sp, #4]
10001026:	9300      	str	r3, [sp, #0]
10001028:	e7c8      	b.n	10000fbc <tickLEDs+0x24>
1000102a:	42a6      	cmp	r6, r4
1000102c:	da05      	bge.n	1000103a <tickLEDs+0xa2>
1000102e:	20ff      	movs	r0, #255	; 0xff
10001030:	f003 fa82 	bl	10004538 <spi_transfer>
10001034:	3610      	adds	r6, #16
10001036:	b2f6      	uxtb	r6, r6
10001038:	e7f7      	b.n	1000102a <tickLEDs+0x92>
1000103a:	b002      	add	sp, #8
1000103c:	bd70      	pop	{r4, r5, r6, pc}
1000103e:	46c0      	nop			; (mov r8, r8)
10001040:	20002613 	.word	0x20002613
10001044:	20001eec 	.word	0x20001eec
10001048:	20001f44 	.word	0x20001f44

1000104c <triggerInterrupt>:
1000104c:	4b01      	ldr	r3, [pc, #4]	; (10001054 <triggerInterrupt+0x8>)
1000104e:	2201      	movs	r2, #1
10001050:	701a      	strb	r2, [r3, #0]
10001052:	4770      	bx	lr
10001054:	2000261c 	.word	0x2000261c

10001058 <generate_crc32>:
10001058:	b500      	push	{lr}
1000105a:	b083      	sub	sp, #12
1000105c:	4668      	mov	r0, sp
1000105e:	f008 f981 	bl	10009364 <pico_get_unique_board_id>
10001062:	2100      	movs	r1, #0
10001064:	480a      	ldr	r0, [pc, #40]	; (10001090 <generate_crc32+0x38>)
10001066:	e00a      	b.n	1000107e <generate_crc32+0x26>
10001068:	0840      	lsrs	r0, r0, #1
1000106a:	3301      	adds	r3, #1
1000106c:	2b07      	cmp	r3, #7
1000106e:	dc05      	bgt.n	1000107c <generate_crc32+0x24>
10001070:	07c2      	lsls	r2, r0, #31
10001072:	d5f9      	bpl.n	10001068 <generate_crc32+0x10>
10001074:	0840      	lsrs	r0, r0, #1
10001076:	4a07      	ldr	r2, [pc, #28]	; (10001094 <generate_crc32+0x3c>)
10001078:	4050      	eors	r0, r2
1000107a:	e7f6      	b.n	1000106a <generate_crc32+0x12>
1000107c:	3101      	adds	r1, #1
1000107e:	2907      	cmp	r1, #7
10001080:	dc04      	bgt.n	1000108c <generate_crc32+0x34>
10001082:	466b      	mov	r3, sp
10001084:	5c5b      	ldrb	r3, [r3, r1]
10001086:	4058      	eors	r0, r3
10001088:	2300      	movs	r3, #0
1000108a:	e7ef      	b.n	1000106c <generate_crc32+0x14>
1000108c:	b003      	add	sp, #12
1000108e:	bd00      	pop	{pc}
10001090:	01234567 	.word	0x01234567
10001094:	edb88320 	.word	0xedb88320

10001098 <nrf24_ce_digitalWrite>:
10001098:	b510      	push	{r4, lr}
1000109a:	0001      	movs	r1, r0
1000109c:	2008      	movs	r0, #8
1000109e:	f003 fbc9 	bl	10004834 <digitalWrite>
100010a2:	bd10      	pop	{r4, pc}

100010a4 <nrf24_csn_digitalWrite>:
100010a4:	b510      	push	{r4, lr}
100010a6:	0001      	movs	r1, r0
100010a8:	2005      	movs	r0, #5
100010aa:	f003 fbc3 	bl	10004834 <digitalWrite>
100010ae:	bd10      	pop	{r4, pc}

100010b0 <initRF>:
100010b0:	b510      	push	{r4, lr}
100010b2:	b082      	sub	sp, #8
100010b4:	0004      	movs	r4, r0
100010b6:	9101      	str	r1, [sp, #4]
100010b8:	9200      	str	r2, [sp, #0]
100010ba:	4b0f      	ldr	r3, [pc, #60]	; (100010f8 <initRF+0x48>)
100010bc:	7018      	strb	r0, [r3, #0]
100010be:	2100      	movs	r1, #0
100010c0:	2008      	movs	r0, #8
100010c2:	f003 fca1 	bl	10004a08 <pinMode>
100010c6:	2100      	movs	r1, #0
100010c8:	2005      	movs	r0, #5
100010ca:	f003 fc9d 	bl	10004a08 <pinMode>
100010ce:	f001 fc7d 	bl	100029cc <nrf24_init>
100010d2:	0021      	movs	r1, r4
100010d4:	204c      	movs	r0, #76	; 0x4c
100010d6:	f001 fe3d 	bl	10002d54 <nrf24_config>
100010da:	a801      	add	r0, sp, #4
100010dc:	f001 feb0 	bl	10002e40 <nrf24_tx_address>
100010e0:	4668      	mov	r0, sp
100010e2:	f001 fe9b 	bl	10002e1c <nrf24_rx_address>
100010e6:	4b05      	ldr	r3, [pc, #20]	; (100010fc <initRF+0x4c>)
100010e8:	2201      	movs	r2, #1
100010ea:	2104      	movs	r1, #4
100010ec:	2007      	movs	r0, #7
100010ee:	f003 fdc1 	bl	10004c74 <gpio_set_irq_enabled_with_callback>
100010f2:	b002      	add	sp, #8
100010f4:	bd10      	pop	{r4, pc}
100010f6:	46c0      	nop			; (mov r8, r8)
100010f8:	2000261c 	.word	0x2000261c
100010fc:	1000104d 	.word	0x1000104d

10001100 <tickRFInput>:
10001100:	b570      	push	{r4, r5, r6, lr}
10001102:	0004      	movs	r4, r0
10001104:	000d      	movs	r5, r1
10001106:	4b0c      	ldr	r3, [pc, #48]	; (10001138 <tickRFInput+0x38>)
10001108:	781b      	ldrb	r3, [r3, #0]
1000110a:	2b00      	cmp	r3, #0
1000110c:	d101      	bne.n	10001112 <tickRFInput+0x12>
1000110e:	2000      	movs	r0, #0
10001110:	bd70      	pop	{r4, r5, r6, pc}
10001112:	4b09      	ldr	r3, [pc, #36]	; (10001138 <tickRFInput+0x38>)
10001114:	2200      	movs	r2, #0
10001116:	701a      	strb	r2, [r3, #0]
10001118:	f001 fc9e 	bl	10002a58 <nrf24_getStatus>
1000111c:	1043      	asrs	r3, r0, #1
1000111e:	2007      	movs	r0, #7
10001120:	4018      	ands	r0, r3
10001122:	2807      	cmp	r0, #7
10001124:	d101      	bne.n	1000112a <tickRFInput+0x2a>
10001126:	2000      	movs	r0, #0
10001128:	e7f2      	b.n	10001110 <tickRFInput+0x10>
1000112a:	0029      	movs	r1, r5
1000112c:	0020      	movs	r0, r4
1000112e:	f001 fcdc 	bl	10002aea <nrf24_getData>
10001132:	b2c0      	uxtb	r0, r0
10001134:	e7ec      	b.n	10001110 <tickRFInput+0x10>
10001136:	46c0      	nop			; (mov r8, r8)
10001138:	2000261c 	.word	0x2000261c

1000113c <readPS2Button>:
1000113c:	b084      	sub	sp, #16
1000113e:	9000      	str	r0, [sp, #0]
10001140:	9101      	str	r1, [sp, #4]
10001142:	9202      	str	r2, [sp, #8]
10001144:	9303      	str	r3, [sp, #12]
10001146:	4b0d      	ldr	r3, [pc, #52]	; (1000117c <readPS2Button+0x40>)
10001148:	781b      	ldrb	r3, [r3, #0]
1000114a:	2b04      	cmp	r3, #4
1000114c:	d00f      	beq.n	1000116e <readPS2Button+0x32>
1000114e:	2b09      	cmp	r3, #9
10001150:	d00f      	beq.n	10001172 <readPS2Button+0x36>
10001152:	4a0b      	ldr	r2, [pc, #44]	; (10001180 <readPS2Button+0x44>)
10001154:	466b      	mov	r3, sp
10001156:	79db      	ldrb	r3, [r3, #7]
10001158:	5cd3      	ldrb	r3, [r2, r3]
1000115a:	2bff      	cmp	r3, #255	; 0xff
1000115c:	d00b      	beq.n	10001176 <readPS2Button+0x3a>
1000115e:	4a09      	ldr	r2, [pc, #36]	; (10001184 <readPS2Button+0x48>)
10001160:	8810      	ldrh	r0, [r2, #0]
10001162:	4118      	asrs	r0, r3
10001164:	0003      	movs	r3, r0
10001166:	2001      	movs	r0, #1
10001168:	4018      	ands	r0, r3
1000116a:	b004      	add	sp, #16
1000116c:	4770      	bx	lr
1000116e:	4a06      	ldr	r2, [pc, #24]	; (10001188 <readPS2Button+0x4c>)
10001170:	e7f0      	b.n	10001154 <readPS2Button+0x18>
10001172:	4a06      	ldr	r2, [pc, #24]	; (1000118c <readPS2Button+0x50>)
10001174:	e7ee      	b.n	10001154 <readPS2Button+0x18>
10001176:	2000      	movs	r0, #0
10001178:	e7f7      	b.n	1000116a <readPS2Button+0x2e>
1000117a:	46c0      	nop			; (mov r8, r8)
1000117c:	20000a64 	.word	0x20000a64
10001180:	1000bc3c 	.word	0x1000bc3c
10001184:	200025f8 	.word	0x200025f8
10001188:	1000bc4c 	.word	0x1000bc4c
1000118c:	1000bc5c 	.word	0x1000bc5c

10001190 <readDrumExt>:
10001190:	b5f0      	push	{r4, r5, r6, r7, lr}
10001192:	780b      	ldrb	r3, [r1, #0]
10001194:	3b20      	subs	r3, #32
10001196:	029b      	lsls	r3, r3, #10
10001198:	8083      	strh	r3, [r0, #4]
1000119a:	784b      	ldrb	r3, [r1, #1]
1000119c:	3b20      	subs	r3, #32
1000119e:	029b      	lsls	r3, r3, #10
100011a0:	80c3      	strh	r3, [r0, #6]
100011a2:	790b      	ldrb	r3, [r1, #4]
100011a4:	794a      	ldrb	r2, [r1, #5]
100011a6:	0212      	lsls	r2, r2, #8
100011a8:	4313      	orrs	r3, r2
100011aa:	b21b      	sxth	r3, r3
100011ac:	4a25      	ldr	r2, [pc, #148]	; (10001244 <readDrumExt+0xb4>)
100011ae:	439a      	bics	r2, r3
100011b0:	b292      	uxth	r2, r2
100011b2:	4b25      	ldr	r3, [pc, #148]	; (10001248 <readDrumExt+0xb8>)
100011b4:	801a      	strh	r2, [r3, #0]
100011b6:	4b25      	ldr	r3, [pc, #148]	; (1000124c <readDrumExt+0xbc>)
100011b8:	781b      	ldrb	r3, [r3, #0]
100011ba:	2b22      	cmp	r3, #34	; 0x22
100011bc:	d916      	bls.n	100011ec <readDrumExt+0x5c>
100011be:	78c8      	ldrb	r0, [r1, #3]
100011c0:	0783      	lsls	r3, r0, #30
100011c2:	d513      	bpl.n	100011ec <readDrumExt+0x5c>
100011c4:	0940      	lsrs	r0, r0, #5
100011c6:	2307      	movs	r3, #7
100011c8:	1a1b      	subs	r3, r3, r0
100011ca:	b2db      	uxtb	r3, r3
100011cc:	015b      	lsls	r3, r3, #5
100011ce:	b2d8      	uxtb	r0, r3
100011d0:	788c      	ldrb	r4, [r1, #2]
100011d2:	0864      	lsrs	r4, r4, #1
100011d4:	233e      	movs	r3, #62	; 0x3e
100011d6:	4023      	ands	r3, r4
100011d8:	3b0f      	subs	r3, #15
100011da:	b2dc      	uxtb	r4, r3
100011dc:	2c0f      	cmp	r4, #15
100011de:	d805      	bhi.n	100011ec <readDrumExt+0x5c>
100011e0:	00a3      	lsls	r3, r4, #2
100011e2:	4c1b      	ldr	r4, [pc, #108]	; (10001250 <readDrumExt+0xc0>)
100011e4:	58e3      	ldr	r3, [r4, r3]
100011e6:	469f      	mov	pc, r3
100011e8:	4b1a      	ldr	r3, [pc, #104]	; (10001254 <readDrumExt+0xc4>)
100011ea:	7058      	strb	r0, [r3, #1]
100011ec:	4b1a      	ldr	r3, [pc, #104]	; (10001258 <readDrumExt+0xc8>)
100011ee:	7b9d      	ldrb	r5, [r3, #14]
100011f0:	2401      	movs	r4, #1
100011f2:	0020      	movs	r0, r4
100011f4:	40a8      	lsls	r0, r5
100011f6:	4382      	bics	r2, r0
100011f8:	b212      	sxth	r2, r2
100011fa:	7949      	ldrb	r1, [r1, #5]
100011fc:	08c8      	lsrs	r0, r1, #3
100011fe:	2601      	movs	r6, #1
10001200:	4070      	eors	r0, r6
10001202:	4020      	ands	r0, r4
10001204:	40a8      	lsls	r0, r5
10001206:	4302      	orrs	r2, r0
10001208:	b210      	sxth	r0, r2
1000120a:	4d0f      	ldr	r5, [pc, #60]	; (10001248 <readDrumExt+0xb8>)
1000120c:	802a      	strh	r2, [r5, #0]
1000120e:	7bdf      	ldrb	r7, [r3, #15]
10001210:	0023      	movs	r3, r4
10001212:	40bb      	lsls	r3, r7
10001214:	4398      	bics	r0, r3
10001216:	b202      	sxth	r2, r0
10001218:	094b      	lsrs	r3, r1, #5
1000121a:	4073      	eors	r3, r6
1000121c:	4023      	ands	r3, r4
1000121e:	40bb      	lsls	r3, r7
10001220:	4313      	orrs	r3, r2
10001222:	802b      	strh	r3, [r5, #0]
10001224:	bdf0      	pop	{r4, r5, r6, r7, pc}
10001226:	4b0b      	ldr	r3, [pc, #44]	; (10001254 <readDrumExt+0xc4>)
10001228:	7158      	strb	r0, [r3, #5]
1000122a:	e7df      	b.n	100011ec <readDrumExt+0x5c>
1000122c:	4b09      	ldr	r3, [pc, #36]	; (10001254 <readDrumExt+0xc4>)
1000122e:	7198      	strb	r0, [r3, #6]
10001230:	e7dc      	b.n	100011ec <readDrumExt+0x5c>
10001232:	4b08      	ldr	r3, [pc, #32]	; (10001254 <readDrumExt+0xc4>)
10001234:	71d8      	strb	r0, [r3, #7]
10001236:	e7d9      	b.n	100011ec <readDrumExt+0x5c>
10001238:	4b06      	ldr	r3, [pc, #24]	; (10001254 <readDrumExt+0xc4>)
1000123a:	7018      	strb	r0, [r3, #0]
1000123c:	e7d6      	b.n	100011ec <readDrumExt+0x5c>
1000123e:	4b05      	ldr	r3, [pc, #20]	; (10001254 <readDrumExt+0xc4>)
10001240:	7118      	strb	r0, [r3, #4]
10001242:	e7d3      	b.n	100011ec <readDrumExt+0x5c>
10001244:	fffffeff 	.word	0xfffffeff
10001248:	200025fa 	.word	0x200025fa
1000124c:	200008ef 	.word	0x200008ef
10001250:	1000bbd8 	.word	0x1000bbd8
10001254:	200017ac 	.word	0x200017ac
10001258:	20000a68 	.word	0x20000a68

1000125c <readGuitarExt>:
1000125c:	780a      	ldrb	r2, [r1, #0]
1000125e:	233f      	movs	r3, #63	; 0x3f
10001260:	401a      	ands	r2, r3
10001262:	3a20      	subs	r2, #32
10001264:	0292      	lsls	r2, r2, #10
10001266:	8082      	strh	r2, [r0, #4]
10001268:	784a      	ldrb	r2, [r1, #1]
1000126a:	4013      	ands	r3, r2
1000126c:	3b20      	subs	r3, #32
1000126e:	029b      	lsls	r3, r3, #10
10001270:	80c3      	strh	r3, [r0, #6]
10001272:	78ca      	ldrb	r2, [r1, #3]
10001274:	231f      	movs	r3, #31
10001276:	4013      	ands	r3, r2
10001278:	3b0e      	subs	r3, #14
1000127a:	b21b      	sxth	r3, r3
1000127c:	8103      	strh	r3, [r0, #8]
1000127e:	2b00      	cmp	r3, #0
10001280:	db17      	blt.n	100012b2 <readGuitarExt+0x56>
10001282:	8903      	ldrh	r3, [r0, #8]
10001284:	005a      	lsls	r2, r3, #1
10001286:	b292      	uxth	r2, r2
10001288:	189b      	adds	r3, r3, r2
1000128a:	b21b      	sxth	r3, r3
1000128c:	8103      	strh	r3, [r0, #8]
1000128e:	2b1f      	cmp	r3, #31
10001290:	dd01      	ble.n	10001296 <readGuitarExt+0x3a>
10001292:	231f      	movs	r3, #31
10001294:	8103      	strh	r3, [r0, #8]
10001296:	8903      	ldrh	r3, [r0, #8]
10001298:	3b10      	subs	r3, #16
1000129a:	b21b      	sxth	r3, r3
1000129c:	8103      	strh	r3, [r0, #8]
1000129e:	02db      	lsls	r3, r3, #11
100012a0:	8103      	strh	r3, [r0, #8]
100012a2:	790b      	ldrb	r3, [r1, #4]
100012a4:	794a      	ldrb	r2, [r1, #5]
100012a6:	0212      	lsls	r2, r2, #8
100012a8:	4313      	orrs	r3, r2
100012aa:	43db      	mvns	r3, r3
100012ac:	4a02      	ldr	r2, [pc, #8]	; (100012b8 <readGuitarExt+0x5c>)
100012ae:	8013      	strh	r3, [r2, #0]
100012b0:	4770      	bx	lr
100012b2:	2300      	movs	r3, #0
100012b4:	8103      	strh	r3, [r0, #8]
100012b6:	e7e4      	b.n	10001282 <readGuitarExt+0x26>
100012b8:	200025fa 	.word	0x200025fa

100012bc <readClassicExtHighRes>:
100012bc:	780b      	ldrb	r3, [r1, #0]
100012be:	3b80      	subs	r3, #128	; 0x80
100012c0:	021b      	lsls	r3, r3, #8
100012c2:	8083      	strh	r3, [r0, #4]
100012c4:	788b      	ldrb	r3, [r1, #2]
100012c6:	3b80      	subs	r3, #128	; 0x80
100012c8:	021b      	lsls	r3, r3, #8
100012ca:	80c3      	strh	r3, [r0, #6]
100012cc:	784b      	ldrb	r3, [r1, #1]
100012ce:	3b80      	subs	r3, #128	; 0x80
100012d0:	021b      	lsls	r3, r3, #8
100012d2:	8103      	strh	r3, [r0, #8]
100012d4:	78cb      	ldrb	r3, [r1, #3]
100012d6:	3b80      	subs	r3, #128	; 0x80
100012d8:	021b      	lsls	r3, r3, #8
100012da:	8143      	strh	r3, [r0, #10]
100012dc:	790b      	ldrb	r3, [r1, #4]
100012de:	7083      	strb	r3, [r0, #2]
100012e0:	794b      	ldrb	r3, [r1, #5]
100012e2:	70c3      	strb	r3, [r0, #3]
100012e4:	798b      	ldrb	r3, [r1, #6]
100012e6:	79ca      	ldrb	r2, [r1, #7]
100012e8:	0212      	lsls	r2, r2, #8
100012ea:	4313      	orrs	r3, r2
100012ec:	43db      	mvns	r3, r3
100012ee:	4a01      	ldr	r2, [pc, #4]	; (100012f4 <readClassicExtHighRes+0x38>)
100012f0:	8013      	strh	r3, [r2, #0]
100012f2:	4770      	bx	lr
100012f4:	200025fa 	.word	0x200025fa

100012f8 <readClassicExt>:
100012f8:	b530      	push	{r4, r5, lr}
100012fa:	780a      	ldrb	r2, [r1, #0]
100012fc:	233f      	movs	r3, #63	; 0x3f
100012fe:	401a      	ands	r2, r3
10001300:	3a20      	subs	r2, #32
10001302:	8082      	strh	r2, [r0, #4]
10001304:	784a      	ldrb	r2, [r1, #1]
10001306:	4013      	ands	r3, r2
10001308:	3b20      	subs	r3, #32
1000130a:	80c3      	strh	r3, [r0, #6]
1000130c:	780a      	ldrb	r2, [r1, #0]
1000130e:	10d2      	asrs	r2, r2, #3
10001310:	2318      	movs	r3, #24
10001312:	4013      	ands	r3, r2
10001314:	784c      	ldrb	r4, [r1, #1]
10001316:	1164      	asrs	r4, r4, #5
10001318:	2206      	movs	r2, #6
1000131a:	4022      	ands	r2, r4
1000131c:	4313      	orrs	r3, r2
1000131e:	788a      	ldrb	r2, [r1, #2]
10001320:	09d2      	lsrs	r2, r2, #7
10001322:	4313      	orrs	r3, r2
10001324:	3b10      	subs	r3, #16
10001326:	8103      	strh	r3, [r0, #8]
10001328:	788b      	ldrb	r3, [r1, #2]
1000132a:	221f      	movs	r2, #31
1000132c:	4013      	ands	r3, r2
1000132e:	3b10      	subs	r3, #16
10001330:	8143      	strh	r3, [r0, #10]
10001332:	78cc      	ldrb	r4, [r1, #3]
10001334:	788d      	ldrb	r5, [r1, #2]
10001336:	10ad      	asrs	r5, r5, #2
10001338:	2318      	movs	r3, #24
1000133a:	402b      	ands	r3, r5
1000133c:	0964      	lsrs	r4, r4, #5
1000133e:	4323      	orrs	r3, r4
10001340:	7083      	strb	r3, [r0, #2]
10001342:	78cb      	ldrb	r3, [r1, #3]
10001344:	401a      	ands	r2, r3
10001346:	70c2      	strb	r2, [r0, #3]
10001348:	790b      	ldrb	r3, [r1, #4]
1000134a:	794a      	ldrb	r2, [r1, #5]
1000134c:	0212      	lsls	r2, r2, #8
1000134e:	4313      	orrs	r3, r2
10001350:	43db      	mvns	r3, r3
10001352:	4a01      	ldr	r2, [pc, #4]	; (10001358 <readClassicExt+0x60>)
10001354:	8013      	strh	r3, [r2, #0]
10001356:	bd30      	pop	{r4, r5, pc}
10001358:	200025fa 	.word	0x200025fa

1000135c <readDJExt>:
1000135c:	b530      	push	{r4, r5, lr}
1000135e:	788c      	ldrb	r4, [r1, #2]
10001360:	09e4      	lsrs	r4, r4, #7
10001362:	784a      	ldrb	r2, [r1, #1]
10001364:	1152      	asrs	r2, r2, #5
10001366:	2306      	movs	r3, #6
10001368:	4013      	ands	r3, r2
1000136a:	431c      	orrs	r4, r3
1000136c:	780a      	ldrb	r2, [r1, #0]
1000136e:	10d5      	asrs	r5, r2, #3
10001370:	2318      	movs	r3, #24
10001372:	402b      	ands	r3, r5
10001374:	431c      	orrs	r4, r3
10001376:	233f      	movs	r3, #63	; 0x3f
10001378:	401a      	ands	r2, r3
1000137a:	3a20      	subs	r2, #32
1000137c:	0292      	lsls	r2, r2, #10
1000137e:	8082      	strh	r2, [r0, #4]
10001380:	784a      	ldrb	r2, [r1, #1]
10001382:	4013      	ands	r3, r2
10001384:	3b20      	subs	r3, #32
10001386:	029b      	lsls	r3, r3, #10
10001388:	80c3      	strh	r3, [r0, #6]
1000138a:	790b      	ldrb	r3, [r1, #4]
1000138c:	07db      	lsls	r3, r3, #31
1000138e:	d523      	bpl.n	100013d8 <readDJExt+0x7c>
10001390:	78ca      	ldrb	r2, [r1, #3]
10001392:	231f      	movs	r3, #31
10001394:	4393      	bics	r3, r2
10001396:	3320      	adds	r3, #32
10001398:	8103      	strh	r3, [r0, #8]
1000139a:	788b      	ldrb	r3, [r1, #2]
1000139c:	07db      	lsls	r3, r3, #31
1000139e:	d522      	bpl.n	100013e6 <readDJExt+0x8a>
100013a0:	233f      	movs	r3, #63	; 0x3f
100013a2:	1b1c      	subs	r4, r3, r4
100013a4:	b224      	sxth	r4, r4
100013a6:	8144      	strh	r4, [r0, #10]
100013a8:	78cb      	ldrb	r3, [r1, #3]
100013aa:	095b      	lsrs	r3, r3, #5
100013ac:	788c      	ldrb	r4, [r1, #2]
100013ae:	10a4      	asrs	r4, r4, #2
100013b0:	2218      	movs	r2, #24
100013b2:	4022      	ands	r2, r4
100013b4:	4313      	orrs	r3, r2
100013b6:	7083      	strb	r3, [r0, #2]
100013b8:	788a      	ldrb	r2, [r1, #2]
100013ba:	1052      	asrs	r2, r2, #1
100013bc:	230f      	movs	r3, #15
100013be:	4013      	ands	r3, r2
100013c0:	70c3      	strb	r3, [r0, #3]
100013c2:	790a      	ldrb	r2, [r1, #4]
100013c4:	0212      	lsls	r2, r2, #8
100013c6:	794b      	ldrb	r3, [r1, #5]
100013c8:	4313      	orrs	r3, r2
100013ca:	b21b      	sxth	r3, r3
100013cc:	4a08      	ldr	r2, [pc, #32]	; (100013f0 <readDJExt+0x94>)
100013ce:	439a      	bics	r2, r3
100013d0:	0013      	movs	r3, r2
100013d2:	4a08      	ldr	r2, [pc, #32]	; (100013f4 <readDJExt+0x98>)
100013d4:	8013      	strh	r3, [r2, #0]
100013d6:	bd30      	pop	{r4, r5, pc}
100013d8:	78ca      	ldrb	r2, [r1, #3]
100013da:	231f      	movs	r3, #31
100013dc:	401a      	ands	r2, r3
100013de:	2320      	movs	r3, #32
100013e0:	1a9b      	subs	r3, r3, r2
100013e2:	b21b      	sxth	r3, r3
100013e4:	e7d8      	b.n	10001398 <readDJExt+0x3c>
100013e6:	2320      	movs	r3, #32
100013e8:	1b1c      	subs	r4, r3, r4
100013ea:	b224      	sxth	r4, r4
100013ec:	e7db      	b.n	100013a6 <readDJExt+0x4a>
100013ee:	46c0      	nop			; (mov r8, r8)
100013f0:	000063cd 	.word	0x000063cd
100013f4:	200025fa 	.word	0x200025fa

100013f8 <readUDrawExt>:
100013f8:	b570      	push	{r4, r5, r6, lr}
100013fa:	788a      	ldrb	r2, [r1, #2]
100013fc:	0212      	lsls	r2, r2, #8
100013fe:	24f0      	movs	r4, #240	; 0xf0
10001400:	0124      	lsls	r4, r4, #4
10001402:	4022      	ands	r2, r4
10001404:	780b      	ldrb	r3, [r1, #0]
10001406:	431a      	orrs	r2, r3
10001408:	8082      	strh	r2, [r0, #4]
1000140a:	788b      	ldrb	r3, [r1, #2]
1000140c:	011b      	lsls	r3, r3, #4
1000140e:	4023      	ands	r3, r4
10001410:	784a      	ldrb	r2, [r1, #1]
10001412:	4313      	orrs	r3, r2
10001414:	80c3      	strh	r3, [r0, #6]
10001416:	78cb      	ldrb	r3, [r1, #3]
10001418:	70c3      	strb	r3, [r0, #3]
1000141a:	4812      	ldr	r0, [pc, #72]	; (10001464 <readUDrawExt+0x6c>)
1000141c:	2300      	movs	r3, #0
1000141e:	8003      	strh	r3, [r0, #0]
10001420:	4d11      	ldr	r5, [pc, #68]	; (10001468 <readUDrawExt+0x70>)
10001422:	7b2a      	ldrb	r2, [r5, #12]
10001424:	794b      	ldrb	r3, [r1, #5]
10001426:	2401      	movs	r4, #1
10001428:	0021      	movs	r1, r4
1000142a:	4019      	ands	r1, r3
1000142c:	4091      	lsls	r1, r2
1000142e:	b20a      	sxth	r2, r1
10001430:	8001      	strh	r1, [r0, #0]
10001432:	7b6e      	ldrb	r6, [r5, #13]
10001434:	0021      	movs	r1, r4
10001436:	40b1      	lsls	r1, r6
10001438:	438a      	bics	r2, r1
1000143a:	b212      	sxth	r2, r2
1000143c:	0859      	lsrs	r1, r3, #1
1000143e:	4021      	ands	r1, r4
10001440:	40b1      	lsls	r1, r6
10001442:	430a      	orrs	r2, r1
10001444:	b211      	sxth	r1, r2
10001446:	8002      	strh	r2, [r0, #0]
10001448:	7bad      	ldrb	r5, [r5, #14]
1000144a:	0022      	movs	r2, r4
1000144c:	40aa      	lsls	r2, r5
1000144e:	4391      	bics	r1, r2
10001450:	b20a      	sxth	r2, r1
10001452:	089b      	lsrs	r3, r3, #2
10001454:	2101      	movs	r1, #1
10001456:	404b      	eors	r3, r1
10001458:	4023      	ands	r3, r4
1000145a:	40ab      	lsls	r3, r5
1000145c:	4313      	orrs	r3, r2
1000145e:	8003      	strh	r3, [r0, #0]
10001460:	bd70      	pop	{r4, r5, r6, pc}
10001462:	46c0      	nop			; (mov r8, r8)
10001464:	200025fa 	.word	0x200025fa
10001468:	20000a68 	.word	0x20000a68

1000146c <readDrawsomeExt>:
1000146c:	780b      	ldrb	r3, [r1, #0]
1000146e:	784a      	ldrb	r2, [r1, #1]
10001470:	0212      	lsls	r2, r2, #8
10001472:	4313      	orrs	r3, r2
10001474:	8083      	strh	r3, [r0, #4]
10001476:	788b      	ldrb	r3, [r1, #2]
10001478:	78ca      	ldrb	r2, [r1, #3]
1000147a:	0212      	lsls	r2, r2, #8
1000147c:	4313      	orrs	r3, r2
1000147e:	80c3      	strh	r3, [r0, #6]
10001480:	790b      	ldrb	r3, [r1, #4]
10001482:	70c3      	strb	r3, [r0, #3]
10001484:	4770      	bx	lr
	...

10001488 <readTataconExt>:
10001488:	790a      	ldrb	r2, [r1, #4]
1000148a:	0212      	lsls	r2, r2, #8
1000148c:	794b      	ldrb	r3, [r1, #5]
1000148e:	4313      	orrs	r3, r2
10001490:	43db      	mvns	r3, r3
10001492:	4a01      	ldr	r2, [pc, #4]	; (10001498 <readTataconExt+0x10>)
10001494:	8013      	strh	r3, [r2, #0]
10001496:	4770      	bx	lr
10001498:	200025fa 	.word	0x200025fa

1000149c <readWiiButton>:
1000149c:	b084      	sub	sp, #16
1000149e:	9000      	str	r0, [sp, #0]
100014a0:	9101      	str	r1, [sp, #4]
100014a2:	9202      	str	r2, [sp, #8]
100014a4:	9303      	str	r3, [sp, #12]
100014a6:	466b      	mov	r3, sp
100014a8:	79db      	ldrb	r3, [r3, #7]
100014aa:	4a07      	ldr	r2, [pc, #28]	; (100014c8 <readWiiButton+0x2c>)
100014ac:	5cd3      	ldrb	r3, [r2, r3]
100014ae:	2bff      	cmp	r3, #255	; 0xff
100014b0:	d007      	beq.n	100014c2 <readWiiButton+0x26>
100014b2:	4a06      	ldr	r2, [pc, #24]	; (100014cc <readWiiButton+0x30>)
100014b4:	8810      	ldrh	r0, [r2, #0]
100014b6:	4118      	asrs	r0, r3
100014b8:	0003      	movs	r3, r0
100014ba:	2001      	movs	r0, #1
100014bc:	4018      	ands	r0, r3
100014be:	b004      	add	sp, #16
100014c0:	4770      	bx	lr
100014c2:	2000      	movs	r0, #0
100014c4:	e7fb      	b.n	100014be <readWiiButton+0x22>
100014c6:	46c0      	nop			; (mov r8, r8)
100014c8:	20000a68 	.word	0x20000a68
100014cc:	200025fa 	.word	0x200025fa

100014d0 <tickMPUTilt>:
100014d0:	b530      	push	{r4, r5, lr}
100014d2:	b083      	sub	sp, #12
100014d4:	0004      	movs	r4, r0
100014d6:	4b28      	ldr	r3, [pc, #160]	; (10001578 <tickMPUTilt+0xa8>)
100014d8:	9301      	str	r3, [sp, #4]
100014da:	4d28      	ldr	r5, [pc, #160]	; (1000157c <tickMPUTilt+0xac>)
100014dc:	9500      	str	r5, [sp, #0]
100014de:	2300      	movs	r3, #0
100014e0:	4a27      	ldr	r2, [pc, #156]	; (10001580 <tickMPUTilt+0xb0>)
100014e2:	2100      	movs	r1, #0
100014e4:	2000      	movs	r0, #0
100014e6:	f001 fe29 	bl	1000313c <dmp_read_fifo>
100014ea:	2300      	movs	r3, #0
100014ec:	5eea      	ldrsh	r2, [r5, r3]
100014ee:	2380      	movs	r3, #128	; 0x80
100014f0:	005b      	lsls	r3, r3, #1
100014f2:	429a      	cmp	r2, r3
100014f4:	d01b      	beq.n	1000152e <tickMPUTilt+0x5e>
100014f6:	4b23      	ldr	r3, [pc, #140]	; (10001584 <tickMPUTilt+0xb4>)
100014f8:	2200      	movs	r2, #0
100014fa:	5e9b      	ldrsh	r3, [r3, r2]
100014fc:	4a22      	ldr	r2, [pc, #136]	; (10001588 <tickMPUTilt+0xb8>)
100014fe:	8153      	strh	r3, [r2, #10]
10001500:	4a22      	ldr	r2, [pc, #136]	; (1000158c <tickMPUTilt+0xbc>)
10001502:	2002      	movs	r0, #2
10001504:	5e11      	ldrsh	r1, [r2, r0]
10001506:	1a5b      	subs	r3, r3, r1
10001508:	2100      	movs	r1, #0
1000150a:	5e51      	ldrsh	r1, [r2, r1]
1000150c:	4359      	muls	r1, r3
1000150e:	17ca      	asrs	r2, r1, #31
10001510:	0592      	lsls	r2, r2, #22
10001512:	0d93      	lsrs	r3, r2, #22
10001514:	185b      	adds	r3, r3, r1
10001516:	129b      	asrs	r3, r3, #10
10001518:	4a1d      	ldr	r2, [pc, #116]	; (10001590 <tickMPUTilt+0xc0>)
1000151a:	4694      	mov	ip, r2
1000151c:	4463      	add	r3, ip
1000151e:	2280      	movs	r2, #128	; 0x80
10001520:	0212      	lsls	r2, r2, #8
10001522:	4293      	cmp	r3, r2
10001524:	da24      	bge.n	10001570 <tickMPUTilt+0xa0>
10001526:	4563      	cmp	r3, ip
10001528:	da23      	bge.n	10001572 <tickMPUTilt+0xa2>
1000152a:	4b19      	ldr	r3, [pc, #100]	; (10001590 <tickMPUTilt+0xc0>)
1000152c:	e021      	b.n	10001572 <tickMPUTilt+0xa2>
1000152e:	4814      	ldr	r0, [pc, #80]	; (10001580 <tickMPUTilt+0xb0>)
10001530:	6803      	ldr	r3, [r0, #0]
10001532:	15db      	asrs	r3, r3, #23
10001534:	8003      	strh	r3, [r0, #0]
10001536:	6843      	ldr	r3, [r0, #4]
10001538:	15db      	asrs	r3, r3, #23
1000153a:	8043      	strh	r3, [r0, #2]
1000153c:	6883      	ldr	r3, [r0, #8]
1000153e:	15db      	asrs	r3, r3, #23
10001540:	8083      	strh	r3, [r0, #4]
10001542:	68c3      	ldr	r3, [r0, #12]
10001544:	15db      	asrs	r3, r3, #23
10001546:	80c3      	strh	r3, [r0, #6]
10001548:	4b12      	ldr	r3, [pc, #72]	; (10001594 <tickMPUTilt+0xc4>)
1000154a:	781a      	ldrb	r2, [r3, #0]
1000154c:	490d      	ldr	r1, [pc, #52]	; (10001584 <tickMPUTilt+0xb4>)
1000154e:	f002 fd73 	bl	10004038 <quaternionToEuler>
10001552:	4b11      	ldr	r3, [pc, #68]	; (10001598 <tickMPUTilt+0xc8>)
10001554:	781b      	ldrb	r3, [r3, #0]
10001556:	2b00      	cmp	r3, #0
10001558:	d006      	beq.n	10001568 <tickMPUTilt+0x98>
1000155a:	4b0a      	ldr	r3, [pc, #40]	; (10001584 <tickMPUTilt+0xb4>)
1000155c:	881b      	ldrh	r3, [r3, #0]
1000155e:	425b      	negs	r3, r3
10001560:	b21b      	sxth	r3, r3
10001562:	4a08      	ldr	r2, [pc, #32]	; (10001584 <tickMPUTilt+0xb4>)
10001564:	8013      	strh	r3, [r2, #0]
10001566:	e7c6      	b.n	100014f6 <tickMPUTilt+0x26>
10001568:	4b06      	ldr	r3, [pc, #24]	; (10001584 <tickMPUTilt+0xb4>)
1000156a:	2200      	movs	r2, #0
1000156c:	5e9b      	ldrsh	r3, [r3, r2]
1000156e:	e7f8      	b.n	10001562 <tickMPUTilt+0x92>
10001570:	4b0a      	ldr	r3, [pc, #40]	; (1000159c <tickMPUTilt+0xcc>)
10001572:	8163      	strh	r3, [r4, #10]
10001574:	b003      	add	sp, #12
10001576:	bd30      	pop	{r4, r5, pc}
10001578:	2000260e 	.word	0x2000260e
1000157c:	200025fe 	.word	0x200025fe
10001580:	20002358 	.word	0x20002358
10001584:	200025fc 	.word	0x200025fc
10001588:	20001508 	.word	0x20001508
1000158c:	20002380 	.word	0x20002380
10001590:	ffff8000 	.word	0xffff8000
10001594:	20002619 	.word	0x20002619
10001598:	20002620 	.word	0x20002620
1000159c:	00007fff 	.word	0x00007fff

100015a0 <tickDigitalTilt>:
100015a0:	b510      	push	{r4, lr}
100015a2:	0004      	movs	r4, r0
100015a4:	4b05      	ldr	r3, [pc, #20]	; (100015bc <tickDigitalTilt+0x1c>)
100015a6:	7818      	ldrb	r0, [r3, #0]
100015a8:	f003 f950 	bl	1000484c <digitalRead>
100015ac:	2301      	movs	r3, #1
100015ae:	4043      	eors	r3, r0
100015b0:	b2db      	uxtb	r3, r3
100015b2:	03d8      	lsls	r0, r3, #15
100015b4:	1ac3      	subs	r3, r0, r3
100015b6:	8163      	strh	r3, [r4, #10]
100015b8:	bd10      	pop	{r4, pc}
100015ba:	46c0      	nop			; (mov r8, r8)
100015bc:	20002621 	.word	0x20002621

100015c0 <readNunchukExt>:
100015c0:	b5f8      	push	{r3, r4, r5, r6, r7, lr}
100015c2:	0005      	movs	r5, r0
100015c4:	000c      	movs	r4, r1
100015c6:	780b      	ldrb	r3, [r1, #0]
100015c8:	3b80      	subs	r3, #128	; 0x80
100015ca:	021b      	lsls	r3, r3, #8
100015cc:	8083      	strh	r3, [r0, #4]
100015ce:	784b      	ldrb	r3, [r1, #1]
100015d0:	3b80      	subs	r3, #128	; 0x80
100015d2:	021b      	lsls	r3, r3, #8
100015d4:	80c3      	strh	r3, [r0, #6]
100015d6:	4b1f      	ldr	r3, [pc, #124]	; (10001654 <readNunchukExt+0x94>)
100015d8:	781b      	ldrb	r3, [r3, #0]
100015da:	2b00      	cmp	r3, #0
100015dc:	d119      	bne.n	10001612 <readNunchukExt+0x52>
100015de:	481e      	ldr	r0, [pc, #120]	; (10001658 <readNunchukExt+0x98>)
100015e0:	2300      	movs	r3, #0
100015e2:	8003      	strh	r3, [r0, #0]
100015e4:	4d1d      	ldr	r5, [pc, #116]	; (1000165c <readNunchukExt+0x9c>)
100015e6:	7b2a      	ldrb	r2, [r5, #12]
100015e8:	7963      	ldrb	r3, [r4, #5]
100015ea:	2401      	movs	r4, #1
100015ec:	2601      	movs	r6, #1
100015ee:	0019      	movs	r1, r3
100015f0:	4071      	eors	r1, r6
100015f2:	4021      	ands	r1, r4
100015f4:	4091      	lsls	r1, r2
100015f6:	b20a      	sxth	r2, r1
100015f8:	8001      	strh	r1, [r0, #0]
100015fa:	7b69      	ldrb	r1, [r5, #13]
100015fc:	0025      	movs	r5, r4
100015fe:	408d      	lsls	r5, r1
10001600:	43aa      	bics	r2, r5
10001602:	b212      	sxth	r2, r2
10001604:	085b      	lsrs	r3, r3, #1
10001606:	4073      	eors	r3, r6
10001608:	4023      	ands	r3, r4
1000160a:	408b      	lsls	r3, r1
1000160c:	4313      	orrs	r3, r2
1000160e:	8003      	strh	r3, [r0, #0]
10001610:	bdf8      	pop	{r3, r4, r5, r6, r7, pc}
10001612:	7888      	ldrb	r0, [r1, #2]
10001614:	0080      	lsls	r0, r0, #2
10001616:	794a      	ldrb	r2, [r1, #5]
10001618:	0993      	lsrs	r3, r2, #6
1000161a:	4318      	orrs	r0, r3
1000161c:	78c9      	ldrb	r1, [r1, #3]
1000161e:	0089      	lsls	r1, r1, #2
10001620:	1116      	asrs	r6, r2, #4
10001622:	2303      	movs	r3, #3
10001624:	401e      	ands	r6, r3
10001626:	430e      	orrs	r6, r1
10001628:	490d      	ldr	r1, [pc, #52]	; (10001660 <readNunchukExt+0xa0>)
1000162a:	468c      	mov	ip, r1
1000162c:	4466      	add	r6, ip
1000162e:	b2b6      	uxth	r6, r6
10001630:	7921      	ldrb	r1, [r4, #4]
10001632:	0089      	lsls	r1, r1, #2
10001634:	1097      	asrs	r7, r2, #2
10001636:	401f      	ands	r7, r3
10001638:	430f      	orrs	r7, r1
1000163a:	4467      	add	r7, ip
1000163c:	4460      	add	r0, ip
1000163e:	0039      	movs	r1, r7
10001640:	f002 fd7a 	bl	10004138 <fxpt_atan2>
10001644:	8128      	strh	r0, [r5, #8]
10001646:	b230      	sxth	r0, r6
10001648:	0039      	movs	r1, r7
1000164a:	f002 fd75 	bl	10004138 <fxpt_atan2>
1000164e:	8168      	strh	r0, [r5, #10]
10001650:	e7c5      	b.n	100015de <readNunchukExt+0x1e>
10001652:	46c0      	nop			; (mov r8, r8)
10001654:	20002617 	.word	0x20002617
10001658:	200025fa 	.word	0x200025fa
1000165c:	20000a68 	.word	0x20000a68
10001660:	fffffe01 	.word	0xfffffe01

10001664 <initMPU6050>:
10001664:	b510      	push	{r4, lr}
10001666:	0004      	movs	r4, r0
10001668:	f002 ff20 	bl	100044ac <sei>
1000166c:	2000      	movs	r0, #0
1000166e:	f002 fb29 	bl	10003cc4 <mpu_init>
10001672:	2078      	movs	r0, #120	; 0x78
10001674:	f002 fab6 	bl	10003be4 <mpu_set_sensors>
10001678:	20fa      	movs	r0, #250	; 0xfa
1000167a:	00c0      	lsls	r0, r0, #3
1000167c:	f001 ff7a 	bl	10003574 <mpu_set_gyro_fsr>
10001680:	2002      	movs	r0, #2
10001682:	f001 ffc9 	bl	10003618 <mpu_set_accel_fsr>
10001686:	2078      	movs	r0, #120	; 0x78
10001688:	f002 f85e 	bl	10003748 <mpu_configure_fifo>
1000168c:	f001 fbf6 	bl	10002e7c <dmp_load_motion_driver_firmware>
10001690:	b2a0      	uxth	r0, r4
10001692:	f001 fc01 	bl	10002e98 <dmp_set_fifo_rate>
10001696:	2001      	movs	r0, #1
10001698:	f002 fc7a 	bl	10003f90 <mpu_set_dmp_state>
1000169c:	2010      	movs	r0, #16
1000169e:	f001 fc93 	bl	10002fc8 <dmp_enable_feature>
100016a2:	bd10      	pop	{r4, pc}

100016a4 <initGuitar>:
100016a4:	b510      	push	{r4, lr}
100016a6:	0004      	movs	r4, r0
100016a8:	4b15      	ldr	r3, [pc, #84]	; (10001700 <initGuitar+0x5c>)
100016aa:	781b      	ldrb	r3, [r3, #0]
100016ac:	2b00      	cmp	r3, #0
100016ae:	d00f      	beq.n	100016d0 <initGuitar+0x2c>
100016b0:	7883      	ldrb	r3, [r0, #2]
100016b2:	2b01      	cmp	r3, #1
100016b4:	d00d      	beq.n	100016d2 <initGuitar+0x2e>
100016b6:	2b02      	cmp	r3, #2
100016b8:	d016      	beq.n	100016e8 <initGuitar+0x44>
100016ba:	0021      	movs	r1, r4
100016bc:	310b      	adds	r1, #11
100016be:	31ff      	adds	r1, #255	; 0xff
100016c0:	2206      	movs	r2, #6
100016c2:	4810      	ldr	r0, [pc, #64]	; (10001704 <initGuitar+0x60>)
100016c4:	f007 fa06 	bl	10008ad4 <__wrap___aeabi_memcpy>
100016c8:	232b      	movs	r3, #43	; 0x2b
100016ca:	5ce2      	ldrb	r2, [r4, r3]
100016cc:	4b0e      	ldr	r3, [pc, #56]	; (10001708 <initGuitar+0x64>)
100016ce:	701a      	strb	r2, [r3, #0]
100016d0:	bd10      	pop	{r4, pc}
100016d2:	332e      	adds	r3, #46	; 0x2e
100016d4:	5cc2      	ldrb	r2, [r0, r3]
100016d6:	4b0d      	ldr	r3, [pc, #52]	; (1000170c <initGuitar+0x68>)
100016d8:	701a      	strb	r2, [r3, #0]
100016da:	201e      	movs	r0, #30
100016dc:	f7ff ffc2 	bl	10001664 <initMPU6050>
100016e0:	4b0b      	ldr	r3, [pc, #44]	; (10001710 <initGuitar+0x6c>)
100016e2:	4a0c      	ldr	r2, [pc, #48]	; (10001714 <initGuitar+0x70>)
100016e4:	601a      	str	r2, [r3, #0]
100016e6:	e7e8      	b.n	100016ba <initGuitar+0x16>
100016e8:	3328      	adds	r3, #40	; 0x28
100016ea:	5cc0      	ldrb	r0, [r0, r3]
100016ec:	4b0a      	ldr	r3, [pc, #40]	; (10001718 <initGuitar+0x74>)
100016ee:	7018      	strb	r0, [r3, #0]
100016f0:	2102      	movs	r1, #2
100016f2:	f003 f989 	bl	10004a08 <pinMode>
100016f6:	4b06      	ldr	r3, [pc, #24]	; (10001710 <initGuitar+0x6c>)
100016f8:	4a08      	ldr	r2, [pc, #32]	; (1000171c <initGuitar+0x78>)
100016fa:	601a      	str	r2, [r3, #0]
100016fc:	e7dd      	b.n	100016ba <initGuitar+0x16>
100016fe:	46c0      	nop			; (mov r8, r8)
10001700:	20002625 	.word	0x20002625
10001704:	20002380 	.word	0x20002380
10001708:	20002620 	.word	0x20002620
1000170c:	20002619 	.word	0x20002619
10001710:	200025d8 	.word	0x200025d8
10001714:	100014d1 	.word	0x100014d1
10001718:	20002621 	.word	0x20002621
1000171c:	100015a1 	.word	0x100015a1

10001720 <tickGuitar>:
10001720:	b510      	push	{r4, lr}
10001722:	4b05      	ldr	r3, [pc, #20]	; (10001738 <tickGuitar+0x18>)
10001724:	781b      	ldrb	r3, [r3, #0]
10001726:	2b00      	cmp	r3, #0
10001728:	d004      	beq.n	10001734 <tickGuitar+0x14>
1000172a:	4b04      	ldr	r3, [pc, #16]	; (1000173c <tickGuitar+0x1c>)
1000172c:	681b      	ldr	r3, [r3, #0]
1000172e:	2b00      	cmp	r3, #0
10001730:	d000      	beq.n	10001734 <tickGuitar+0x14>
10001732:	4798      	blx	r3
10001734:	bd10      	pop	{r4, pc}
10001736:	46c0      	nop			; (mov r8, r8)
10001738:	20002625 	.word	0x20002625
1000173c:	200025d8 	.word	0x200025d8

10001740 <initDirectInput>:
10001740:	b5f0      	push	{r4, r5, r6, r7, lr}
10001742:	46ce      	mov	lr, r9
10001744:	4647      	mov	r7, r8
10001746:	b580      	push	{r7, lr}
10001748:	b087      	sub	sp, #28
1000174a:	0005      	movs	r5, r0
1000174c:	7883      	ldrb	r3, [r0, #2]
1000174e:	2b01      	cmp	r3, #1
10001750:	d029      	beq.n	100017a6 <initDirectInput+0x66>
10001752:	7802      	ldrb	r2, [r0, #0]
10001754:	2a01      	cmp	r2, #1
10001756:	d024      	beq.n	100017a2 <initDirectInput+0x62>
10001758:	2100      	movs	r1, #0
1000175a:	4a5c      	ldr	r2, [pc, #368]	; (100018cc <initDirectInput+0x18c>)
1000175c:	7011      	strb	r1, [r2, #0]
1000175e:	792a      	ldrb	r2, [r5, #4]
10001760:	2a02      	cmp	r2, #2
10001762:	d024      	beq.n	100017ae <initDirectInput+0x6e>
10001764:	782a      	ldrb	r2, [r5, #0]
10001766:	2a03      	cmp	r2, #3
10001768:	d01f      	beq.n	100017aa <initDirectInput+0x6a>
1000176a:	2100      	movs	r1, #0
1000176c:	4a58      	ldr	r2, [pc, #352]	; (100018d0 <initDirectInput+0x190>)
1000176e:	7011      	strb	r1, [r2, #0]
10001770:	24eb      	movs	r4, #235	; 0xeb
10001772:	5d29      	ldrb	r1, [r5, r4]
10001774:	4a57      	ldr	r2, [pc, #348]	; (100018d4 <initDirectInput+0x194>)
10001776:	7011      	strb	r1, [r2, #0]
10001778:	4a57      	ldr	r2, [pc, #348]	; (100018d8 <initDirectInput+0x198>)
1000177a:	7013      	strb	r3, [r2, #0]
1000177c:	002f      	movs	r7, r5
1000177e:	3710      	adds	r7, #16
10001780:	0029      	movs	r1, r5
10001782:	31ec      	adds	r1, #236	; 0xec
10001784:	2224      	movs	r2, #36	; 0x24
10001786:	4855      	ldr	r0, [pc, #340]	; (100018dc <initDirectInput+0x19c>)
10001788:	f007 f9a4 	bl	10008ad4 <__wrap___aeabi_memcpy>
1000178c:	4b54      	ldr	r3, [pc, #336]	; (100018e0 <initDirectInput+0x1a0>)
1000178e:	2200      	movs	r2, #0
10001790:	601a      	str	r2, [r3, #0]
10001792:	0028      	movs	r0, r5
10001794:	f003 f9d2 	bl	10004b3c <setUpValidPins>
10001798:	5d28      	ldrb	r0, [r5, r4]
1000179a:	28ff      	cmp	r0, #255	; 0xff
1000179c:	d109      	bne.n	100017b2 <initDirectInput+0x72>
1000179e:	2400      	movs	r4, #0
100017a0:	e06d      	b.n	1000187e <initDirectInput+0x13e>
100017a2:	2101      	movs	r1, #1
100017a4:	e7d9      	b.n	1000175a <initDirectInput+0x1a>
100017a6:	2101      	movs	r1, #1
100017a8:	e7d7      	b.n	1000175a <initDirectInput+0x1a>
100017aa:	2101      	movs	r1, #1
100017ac:	e7de      	b.n	1000176c <initDirectInput+0x2c>
100017ae:	2101      	movs	r1, #1
100017b0:	e7dc      	b.n	1000176c <initDirectInput+0x2c>
100017b2:	2100      	movs	r1, #0
100017b4:	f003 f928 	bl	10004a08 <pinMode>
100017b8:	e7f1      	b.n	1000179e <initDirectInput+0x5e>
100017ba:	2301      	movs	r3, #1
100017bc:	e070      	b.n	100018a0 <initDirectInput+0x160>
100017be:	2301      	movs	r3, #1
100017c0:	e06e      	b.n	100018a0 <initDirectInput+0x160>
100017c2:	2301      	movs	r3, #1
100017c4:	e06c      	b.n	100018a0 <initDirectInput+0x160>
100017c6:	2000      	movs	r0, #0
100017c8:	2100      	movs	r1, #0
100017ca:	9101      	str	r1, [sp, #4]
100017cc:	9000      	str	r0, [sp, #0]
100017ce:	0029      	movs	r1, r5
100017d0:	a802      	add	r0, sp, #8
100017d2:	f003 f842 	bl	1000485a <setUpDigital>
100017d6:	4b43      	ldr	r3, [pc, #268]	; (100018e4 <initDirectInput+0x1a4>)
100017d8:	781b      	ldrb	r3, [r3, #0]
100017da:	2b00      	cmp	r3, #0
100017dc:	d006      	beq.n	100017ec <initDirectInput+0xac>
100017de:	4643      	mov	r3, r8
100017e0:	2b00      	cmp	r3, #0
100017e2:	d003      	beq.n	100017ec <initDirectInput+0xac>
100017e4:	464b      	mov	r3, r9
100017e6:	7819      	ldrb	r1, [r3, #0]
100017e8:	2919      	cmp	r1, #25
100017ea:	d81f      	bhi.n	1000182c <initDirectInput+0xec>
100017ec:	464b      	mov	r3, r9
100017ee:	7818      	ldrb	r0, [r3, #0]
100017f0:	ab02      	add	r3, sp, #8
100017f2:	799b      	ldrb	r3, [r3, #6]
100017f4:	2b00      	cmp	r3, #0
100017f6:	d000      	beq.n	100017fa <initDirectInput+0xba>
100017f8:	2601      	movs	r6, #1
100017fa:	0031      	movs	r1, r6
100017fc:	f003 f904 	bl	10004a08 <pinMode>
10001800:	4b39      	ldr	r3, [pc, #228]	; (100018e8 <initDirectInput+0x1a8>)
10001802:	781b      	ldrb	r3, [r3, #0]
10001804:	2b00      	cmp	r3, #0
10001806:	d001      	beq.n	1000180c <initDirectInput+0xcc>
10001808:	2c01      	cmp	r4, #1
1000180a:	d916      	bls.n	1000183a <initDirectInput+0xfa>
1000180c:	4a34      	ldr	r2, [pc, #208]	; (100018e0 <initDirectInput+0x1a0>)
1000180e:	6813      	ldr	r3, [r2, #0]
10001810:	1c59      	adds	r1, r3, #1
10001812:	6011      	str	r1, [r2, #0]
10001814:	00d8      	lsls	r0, r3, #3
10001816:	1ac0      	subs	r0, r0, r3
10001818:	0040      	lsls	r0, r0, #1
1000181a:	4b34      	ldr	r3, [pc, #208]	; (100018ec <initDirectInput+0x1ac>)
1000181c:	1818      	adds	r0, r3, r0
1000181e:	220e      	movs	r2, #14
10001820:	a902      	add	r1, sp, #8
10001822:	f007 f957 	bl	10008ad4 <__wrap___aeabi_memcpy>
10001826:	e029      	b.n	1000187c <initDirectInput+0x13c>
10001828:	2001      	movs	r0, #1
1000182a:	e7cd      	b.n	100017c8 <initDirectInput+0x88>
1000182c:	232e      	movs	r3, #46	; 0x2e
1000182e:	5cea      	ldrb	r2, [r5, r3]
10001830:	00d2      	lsls	r2, r2, #3
10001832:	a802      	add	r0, sp, #8
10001834:	f003 f954 	bl	10004ae0 <setUpAnalogDigitalPin>
10001838:	e7e8      	b.n	1000180c <initDirectInput+0xcc>
1000183a:	2312      	movs	r3, #18
1000183c:	33ff      	adds	r3, #255	; 0xff
1000183e:	5cea      	ldrb	r2, [r5, r3]
10001840:	ab02      	add	r3, sp, #8
10001842:	729a      	strb	r2, [r3, #10]
10001844:	e7e2      	b.n	1000180c <initDirectInput+0xcc>
10001846:	b2e3      	uxtb	r3, r4
10001848:	2200      	movs	r2, #0
1000184a:	9201      	str	r2, [sp, #4]
1000184c:	9200      	str	r2, [sp, #0]
1000184e:	0029      	movs	r1, r5
10001850:	a802      	add	r0, sp, #8
10001852:	f003 f802 	bl	1000485a <setUpDigital>
10001856:	4b24      	ldr	r3, [pc, #144]	; (100018e8 <initDirectInput+0x1a8>)
10001858:	781b      	ldrb	r3, [r3, #0]
1000185a:	2b00      	cmp	r3, #0
1000185c:	d001      	beq.n	10001862 <initDirectInput+0x122>
1000185e:	2c01      	cmp	r4, #1
10001860:	d928      	bls.n	100018b4 <initDirectInput+0x174>
10001862:	4a1f      	ldr	r2, [pc, #124]	; (100018e0 <initDirectInput+0x1a0>)
10001864:	6813      	ldr	r3, [r2, #0]
10001866:	1c59      	adds	r1, r3, #1
10001868:	6011      	str	r1, [r2, #0]
1000186a:	00d8      	lsls	r0, r3, #3
1000186c:	1ac0      	subs	r0, r0, r3
1000186e:	0040      	lsls	r0, r0, #1
10001870:	4b1e      	ldr	r3, [pc, #120]	; (100018ec <initDirectInput+0x1ac>)
10001872:	1818      	adds	r0, r3, r0
10001874:	220e      	movs	r2, #14
10001876:	a902      	add	r1, sp, #8
10001878:	f007 f92c 	bl	10008ad4 <__wrap___aeabi_memcpy>
1000187c:	3401      	adds	r4, #1
1000187e:	2c0f      	cmp	r4, #15
10001880:	d81e      	bhi.n	100018c0 <initDirectInput+0x180>
10001882:	782e      	ldrb	r6, [r5, #0]
10001884:	2e02      	cmp	r6, #2
10001886:	d1de      	bne.n	10001846 <initDirectInput+0x106>
10001888:	193b      	adds	r3, r7, r4
1000188a:	4699      	mov	r9, r3
1000188c:	5d3a      	ldrb	r2, [r7, r4]
1000188e:	2aff      	cmp	r2, #255	; 0xff
10001890:	d0f4      	beq.n	1000187c <initDirectInput+0x13c>
10001892:	2c0b      	cmp	r4, #11
10001894:	d893      	bhi.n	100017be <initDirectInput+0x7e>
10001896:	2c08      	cmp	r4, #8
10001898:	d093      	beq.n	100017c2 <initDirectInput+0x82>
1000189a:	2c09      	cmp	r4, #9
1000189c:	d08d      	beq.n	100017ba <initDirectInput+0x7a>
1000189e:	2300      	movs	r3, #0
100018a0:	4698      	mov	r8, r3
100018a2:	b2e3      	uxtb	r3, r4
100018a4:	4641      	mov	r1, r8
100018a6:	2900      	cmp	r1, #0
100018a8:	d08d      	beq.n	100017c6 <initDirectInput+0x86>
100018aa:	7929      	ldrb	r1, [r5, #4]
100018ac:	2901      	cmp	r1, #1
100018ae:	d0bb      	beq.n	10001828 <initDirectInput+0xe8>
100018b0:	2000      	movs	r0, #0
100018b2:	e789      	b.n	100017c8 <initDirectInput+0x88>
100018b4:	2312      	movs	r3, #18
100018b6:	33ff      	adds	r3, #255	; 0xff
100018b8:	5cea      	ldrb	r2, [r5, r3]
100018ba:	ab02      	add	r3, sp, #8
100018bc:	729a      	strb	r2, [r3, #10]
100018be:	e7d0      	b.n	10001862 <initDirectInput+0x122>
100018c0:	b007      	add	sp, #28
100018c2:	bcc0      	pop	{r6, r7}
100018c4:	46b9      	mov	r9, r7
100018c6:	46b0      	mov	r8, r6
100018c8:	bdf0      	pop	{r4, r5, r6, r7, pc}
100018ca:	46c0      	nop			; (mov r8, r8)
100018cc:	20002626 	.word	0x20002626
100018d0:	20002627 	.word	0x20002627
100018d4:	2000261f 	.word	0x2000261f
100018d8:	20002622 	.word	0x20002622
100018dc:	20002388 	.word	0x20002388
100018e0:	200025f4 	.word	0x200025f4
100018e4:	20002624 	.word	0x20002624
100018e8:	20002625 	.word	0x20002625
100018ec:	20002200 	.word	0x20002200

100018f0 <shouldSkipPin>:
100018f0:	0003      	movs	r3, r0
100018f2:	280d      	cmp	r0, #13
100018f4:	d01a      	beq.n	1000192c <shouldSkipPin+0x3c>
100018f6:	2800      	cmp	r0, #0
100018f8:	d01a      	beq.n	10001930 <shouldSkipPin+0x40>
100018fa:	2801      	cmp	r0, #1
100018fc:	d01a      	beq.n	10001934 <shouldSkipPin+0x44>
100018fe:	4a0e      	ldr	r2, [pc, #56]	; (10001938 <shouldSkipPin+0x48>)
10001900:	7810      	ldrb	r0, [r2, #0]
10001902:	2800      	cmp	r0, #0
10001904:	d004      	beq.n	10001910 <shouldSkipPin+0x20>
10001906:	001a      	movs	r2, r3
10001908:	3a1a      	subs	r2, #26
1000190a:	b2d2      	uxtb	r2, r2
1000190c:	2a01      	cmp	r2, #1
1000190e:	d910      	bls.n	10001932 <shouldSkipPin+0x42>
10001910:	4a0a      	ldr	r2, [pc, #40]	; (1000193c <shouldSkipPin+0x4c>)
10001912:	7810      	ldrb	r0, [r2, #0]
10001914:	2800      	cmp	r0, #0
10001916:	d00c      	beq.n	10001932 <shouldSkipPin+0x42>
10001918:	1eda      	subs	r2, r3, #3
1000191a:	b2d2      	uxtb	r2, r2
1000191c:	2a01      	cmp	r2, #1
1000191e:	d908      	bls.n	10001932 <shouldSkipPin+0x42>
10001920:	2b06      	cmp	r3, #6
10001922:	d006      	beq.n	10001932 <shouldSkipPin+0x42>
10001924:	2b05      	cmp	r3, #5
10001926:	d004      	beq.n	10001932 <shouldSkipPin+0x42>
10001928:	2000      	movs	r0, #0
1000192a:	e002      	b.n	10001932 <shouldSkipPin+0x42>
1000192c:	2001      	movs	r0, #1
1000192e:	e000      	b.n	10001932 <shouldSkipPin+0x42>
10001930:	2001      	movs	r0, #1
10001932:	4770      	bx	lr
10001934:	2001      	movs	r0, #1
10001936:	e7fc      	b.n	10001932 <shouldSkipPin+0x42>
10001938:	20002626 	.word	0x20002626
1000193c:	20002627 	.word	0x20002627

10001940 <findDigitalPin>:
10001940:	b570      	push	{r4, r5, r6, lr}
10001942:	4b13      	ldr	r3, [pc, #76]	; (10001990 <findDigitalPin+0x50>)
10001944:	781b      	ldrb	r3, [r3, #0]
10001946:	2b00      	cmp	r3, #0
10001948:	d000      	beq.n	1000194c <findDigitalPin+0xc>
1000194a:	bd70      	pop	{r4, r5, r6, pc}
1000194c:	4b11      	ldr	r3, [pc, #68]	; (10001994 <findDigitalPin+0x54>)
1000194e:	22ff      	movs	r2, #255	; 0xff
10001950:	701a      	strb	r2, [r3, #0]
10001952:	f7fe ff09 	bl	10000768 <stopReading>
10001956:	2400      	movs	r4, #0
10001958:	e000      	b.n	1000195c <findDigitalPin+0x1c>
1000195a:	3401      	adds	r4, #1
1000195c:	2c1c      	cmp	r4, #28
1000195e:	dc12      	bgt.n	10001986 <findDigitalPin+0x46>
10001960:	b2e5      	uxtb	r5, r4
10001962:	0028      	movs	r0, r5
10001964:	f7ff ffc4 	bl	100018f0 <shouldSkipPin>
10001968:	2800      	cmp	r0, #0
1000196a:	d1f6      	bne.n	1000195a <findDigitalPin+0x1a>
1000196c:	2102      	movs	r1, #2
1000196e:	0028      	movs	r0, r5
10001970:	f003 f84a 	bl	10004a08 <pinMode>
10001974:	2064      	movs	r0, #100	; 0x64
10001976:	f002 fda5 	bl	100044c4 <_delay_us>
1000197a:	0028      	movs	r0, r5
1000197c:	f002 ff66 	bl	1000484c <digitalRead>
10001980:	4b05      	ldr	r3, [pc, #20]	; (10001998 <findDigitalPin+0x58>)
10001982:	5518      	strb	r0, [r3, r4]
10001984:	e7e9      	b.n	1000195a <findDigitalPin+0x1a>
10001986:	4b02      	ldr	r3, [pc, #8]	; (10001990 <findDigitalPin+0x50>)
10001988:	2201      	movs	r2, #1
1000198a:	701a      	strb	r2, [r3, #0]
1000198c:	e7dd      	b.n	1000194a <findDigitalPin+0xa>
1000198e:	46c0      	nop			; (mov r8, r8)
10001990:	20002615 	.word	0x20002615
10001994:	20000a63 	.word	0x20000a63
10001998:	20001eb4 	.word	0x20001eb4

1000199c <findAnalogPin>:
1000199c:	b570      	push	{r4, r5, r6, lr}
1000199e:	4b11      	ldr	r3, [pc, #68]	; (100019e4 <findAnalogPin+0x48>)
100019a0:	781b      	ldrb	r3, [r3, #0]
100019a2:	2b00      	cmp	r3, #0
100019a4:	d000      	beq.n	100019a8 <findAnalogPin+0xc>
100019a6:	bd70      	pop	{r4, r5, r6, pc}
100019a8:	4b0f      	ldr	r3, [pc, #60]	; (100019e8 <findAnalogPin+0x4c>)
100019aa:	22ff      	movs	r2, #255	; 0xff
100019ac:	701a      	strb	r2, [r3, #0]
100019ae:	f7fe fedb 	bl	10000768 <stopReading>
100019b2:	2400      	movs	r4, #0
100019b4:	e010      	b.n	100019d8 <findAnalogPin+0x3c>
100019b6:	b2e5      	uxtb	r5, r4
100019b8:	0028      	movs	r0, r5
100019ba:	301a      	adds	r0, #26
100019bc:	b2c0      	uxtb	r0, r0
100019be:	2102      	movs	r1, #2
100019c0:	f003 f822 	bl	10004a08 <pinMode>
100019c4:	2064      	movs	r0, #100	; 0x64
100019c6:	f002 fd7d 	bl	100044c4 <_delay_us>
100019ca:	0028      	movs	r0, r5
100019cc:	f002 ffc6 	bl	1000495c <analogRead>
100019d0:	00a3      	lsls	r3, r4, #2
100019d2:	4a06      	ldr	r2, [pc, #24]	; (100019ec <findAnalogPin+0x50>)
100019d4:	50d0      	str	r0, [r2, r3]
100019d6:	3401      	adds	r4, #1
100019d8:	2c02      	cmp	r4, #2
100019da:	ddec      	ble.n	100019b6 <findAnalogPin+0x1a>
100019dc:	4b01      	ldr	r3, [pc, #4]	; (100019e4 <findAnalogPin+0x48>)
100019de:	2201      	movs	r2, #1
100019e0:	701a      	strb	r2, [r3, #0]
100019e2:	e7e0      	b.n	100019a6 <findAnalogPin+0xa>
100019e4:	20002614 	.word	0x20002614
100019e8:	20000a63 	.word	0x20000a63
100019ec:	20001ea8 	.word	0x20001ea8

100019f0 <stopSearching>:
100019f0:	b570      	push	{r4, r5, r6, lr}
100019f2:	4b0f      	ldr	r3, [pc, #60]	; (10001a30 <stopSearching+0x40>)
100019f4:	781b      	ldrb	r3, [r3, #0]
100019f6:	2b00      	cmp	r3, #0
100019f8:	d118      	bne.n	10001a2c <stopSearching+0x3c>
100019fa:	2300      	movs	r3, #0
100019fc:	4a0d      	ldr	r2, [pc, #52]	; (10001a34 <stopSearching+0x44>)
100019fe:	7013      	strb	r3, [r2, #0]
10001a00:	4a0b      	ldr	r2, [pc, #44]	; (10001a30 <stopSearching+0x40>)
10001a02:	7013      	strb	r3, [r2, #0]
10001a04:	bd70      	pop	{r4, r5, r6, pc}
10001a06:	0028      	movs	r0, r5
10001a08:	f002 ff20 	bl	1000484c <digitalRead>
10001a0c:	4b0a      	ldr	r3, [pc, #40]	; (10001a38 <stopSearching+0x48>)
10001a0e:	5518      	strb	r0, [r3, r4]
10001a10:	3401      	adds	r4, #1
10001a12:	2c1c      	cmp	r4, #28
10001a14:	dcf1      	bgt.n	100019fa <stopSearching+0xa>
10001a16:	b2e5      	uxtb	r5, r4
10001a18:	0028      	movs	r0, r5
10001a1a:	f7ff ff69 	bl	100018f0 <shouldSkipPin>
10001a1e:	2800      	cmp	r0, #0
10001a20:	d1f1      	bne.n	10001a06 <stopSearching+0x16>
10001a22:	2101      	movs	r1, #1
10001a24:	0028      	movs	r0, r5
10001a26:	f002 ffef 	bl	10004a08 <pinMode>
10001a2a:	e7ec      	b.n	10001a06 <stopSearching+0x16>
10001a2c:	2400      	movs	r4, #0
10001a2e:	e7f0      	b.n	10001a12 <stopSearching+0x22>
10001a30:	20002615 	.word	0x20002615
10001a34:	20002614 	.word	0x20002614
10001a38:	20001eb4 	.word	0x20001eb4

10001a3c <setSP>:
10001a3c:	b510      	push	{r4, lr}
10001a3e:	0001      	movs	r1, r0
10001a40:	4b03      	ldr	r3, [pc, #12]	; (10001a50 <setSP+0x14>)
10001a42:	7818      	ldrb	r0, [r3, #0]
10001a44:	28ff      	cmp	r0, #255	; 0xff
10001a46:	d100      	bne.n	10001a4a <setSP+0xe>
10001a48:	bd10      	pop	{r4, pc}
10001a4a:	f002 fef3 	bl	10004834 <digitalWrite>
10001a4e:	e7fb      	b.n	10001a48 <setSP+0xc>
10001a50:	2000261f 	.word	0x2000261f

10001a54 <tickDirectInput>:
10001a54:	b5f0      	push	{r4, r5, r6, r7, lr}
10001a56:	b087      	sub	sp, #28
10001a58:	0004      	movs	r4, r0
10001a5a:	4b58      	ldr	r3, [pc, #352]	; (10001bbc <tickDirectInput+0x168>)
10001a5c:	781b      	ldrb	r3, [r3, #0]
10001a5e:	2b00      	cmp	r3, #0
10001a60:	d10c      	bne.n	10001a7c <tickDirectInput+0x28>
10001a62:	4b57      	ldr	r3, [pc, #348]	; (10001bc0 <tickDirectInput+0x16c>)
10001a64:	781b      	ldrb	r3, [r3, #0]
10001a66:	2b00      	cmp	r3, #0
10001a68:	d033      	beq.n	10001ad2 <tickDirectInput+0x7e>
10001a6a:	2400      	movs	r4, #0
10001a6c:	e019      	b.n	10001aa2 <tickDirectInput+0x4e>
10001a6e:	351a      	adds	r5, #26
10001a70:	4b54      	ldr	r3, [pc, #336]	; (10001bc4 <tickDirectInput+0x170>)
10001a72:	701d      	strb	r5, [r3, #0]
10001a74:	4b51      	ldr	r3, [pc, #324]	; (10001bbc <tickDirectInput+0x168>)
10001a76:	2200      	movs	r2, #0
10001a78:	701a      	strb	r2, [r3, #0]
10001a7a:	e028      	b.n	10001ace <tickDirectInput+0x7a>
10001a7c:	2400      	movs	r4, #0
10001a7e:	2c02      	cmp	r4, #2
10001a80:	dc25      	bgt.n	10001ace <tickDirectInput+0x7a>
10001a82:	b2e5      	uxtb	r5, r4
10001a84:	0028      	movs	r0, r5
10001a86:	f002 ff69 	bl	1000495c <analogRead>
10001a8a:	00a3      	lsls	r3, r4, #2
10001a8c:	4a4e      	ldr	r2, [pc, #312]	; (10001bc8 <tickDirectInput+0x174>)
10001a8e:	589b      	ldr	r3, [r3, r2]
10001a90:	1ac0      	subs	r0, r0, r3
10001a92:	17c3      	asrs	r3, r0, #31
10001a94:	18c0      	adds	r0, r0, r3
10001a96:	4058      	eors	r0, r3
10001a98:	280a      	cmp	r0, #10
10001a9a:	dce8      	bgt.n	10001a6e <tickDirectInput+0x1a>
10001a9c:	3401      	adds	r4, #1
10001a9e:	e7ee      	b.n	10001a7e <tickDirectInput+0x2a>
10001aa0:	3401      	adds	r4, #1
10001aa2:	2c1c      	cmp	r4, #28
10001aa4:	dc13      	bgt.n	10001ace <tickDirectInput+0x7a>
10001aa6:	b2e5      	uxtb	r5, r4
10001aa8:	0028      	movs	r0, r5
10001aaa:	f7ff ff21 	bl	100018f0 <shouldSkipPin>
10001aae:	2800      	cmp	r0, #0
10001ab0:	d1f6      	bne.n	10001aa0 <tickDirectInput+0x4c>
10001ab2:	0028      	movs	r0, r5
10001ab4:	f002 feca 	bl	1000484c <digitalRead>
10001ab8:	4b44      	ldr	r3, [pc, #272]	; (10001bcc <tickDirectInput+0x178>)
10001aba:	5d1b      	ldrb	r3, [r3, r4]
10001abc:	4298      	cmp	r0, r3
10001abe:	d0ef      	beq.n	10001aa0 <tickDirectInput+0x4c>
10001ac0:	f7ff ff96 	bl	100019f0 <stopSearching>
10001ac4:	4b3f      	ldr	r3, [pc, #252]	; (10001bc4 <tickDirectInput+0x170>)
10001ac6:	701d      	strb	r5, [r3, #0]
10001ac8:	4b3d      	ldr	r3, [pc, #244]	; (10001bc0 <tickDirectInput+0x16c>)
10001aca:	2200      	movs	r2, #0
10001acc:	701a      	strb	r2, [r3, #0]
10001ace:	b007      	add	sp, #28
10001ad0:	bdf0      	pop	{r4, r5, r6, r7, pc}
10001ad2:	f002 ff5f 	bl	10004994 <tickAnalog>
10001ad6:	2500      	movs	r5, #0
10001ad8:	e052      	b.n	10001b80 <tickDirectInput+0x12c>
10001ada:	2d05      	cmp	r5, #5
10001adc:	d027      	beq.n	10001b2e <tickDirectInput+0xda>
10001ade:	af03      	add	r7, sp, #12
10001ae0:	783e      	ldrb	r6, [r7, #0]
10001ae2:	88ba      	ldrh	r2, [r7, #4]
10001ae4:	0071      	lsls	r1, r6, #1
10001ae6:	4b3a      	ldr	r3, [pc, #232]	; (10001bd0 <tickDirectInput+0x17c>)
10001ae8:	525a      	strh	r2, [r3, r1]
10001aea:	1989      	adds	r1, r1, r6
10001aec:	0049      	lsls	r1, r1, #1
10001aee:	4b39      	ldr	r3, [pc, #228]	; (10001bd4 <tickDirectInput+0x180>)
10001af0:	1859      	adds	r1, r3, r1
10001af2:	2206      	movs	r2, #6
10001af4:	a801      	add	r0, sp, #4
10001af6:	f006 ffed 	bl	10008ad4 <__wrap___aeabi_memcpy>
10001afa:	88bb      	ldrh	r3, [r7, #4]
10001afc:	b21b      	sxth	r3, r3
10001afe:	466a      	mov	r2, sp
10001b00:	2106      	movs	r1, #6
10001b02:	5e51      	ldrsh	r1, [r2, r1]
10001b04:	1a5b      	subs	r3, r3, r1
10001b06:	466a      	mov	r2, sp
10001b08:	2104      	movs	r1, #4
10001b0a:	5e51      	ldrsh	r1, [r2, r1]
10001b0c:	4359      	muls	r1, r3
10001b0e:	17ca      	asrs	r2, r1, #31
10001b10:	0592      	lsls	r2, r2, #22
10001b12:	0d93      	lsrs	r3, r2, #22
10001b14:	185b      	adds	r3, r3, r1
10001b16:	129b      	asrs	r3, r3, #10
10001b18:	4a2f      	ldr	r2, [pc, #188]	; (10001bd8 <tickDirectInput+0x184>)
10001b1a:	4694      	mov	ip, r2
10001b1c:	4463      	add	r3, ip
10001b1e:	2280      	movs	r2, #128	; 0x80
10001b20:	0212      	lsls	r2, r2, #8
10001b22:	4293      	cmp	r3, r2
10001b24:	da0c      	bge.n	10001b40 <tickDirectInput+0xec>
10001b26:	4563      	cmp	r3, ip
10001b28:	da0b      	bge.n	10001b42 <tickDirectInput+0xee>
10001b2a:	4b2b      	ldr	r3, [pc, #172]	; (10001bd8 <tickDirectInput+0x184>)
10001b2c:	e009      	b.n	10001b42 <tickDirectInput+0xee>
10001b2e:	4b2b      	ldr	r3, [pc, #172]	; (10001bdc <tickDirectInput+0x188>)
10001b30:	781b      	ldrb	r3, [r3, #0]
10001b32:	2b00      	cmp	r3, #0
10001b34:	d0d3      	beq.n	10001ade <tickDirectInput+0x8a>
10001b36:	4b2a      	ldr	r3, [pc, #168]	; (10001be0 <tickDirectInput+0x18c>)
10001b38:	781b      	ldrb	r3, [r3, #0]
10001b3a:	2b02      	cmp	r3, #2
10001b3c:	d1cf      	bne.n	10001ade <tickDirectInput+0x8a>
10001b3e:	e01d      	b.n	10001b7c <tickDirectInput+0x128>
10001b40:	4b28      	ldr	r3, [pc, #160]	; (10001be4 <tickDirectInput+0x190>)
10001b42:	2e01      	cmp	r6, #1
10001b44:	d90f      	bls.n	10001b66 <tickDirectInput+0x112>
10001b46:	4a25      	ldr	r2, [pc, #148]	; (10001bdc <tickDirectInput+0x188>)
10001b48:	7812      	ldrb	r2, [r2, #0]
10001b4a:	2a00      	cmp	r2, #0
10001b4c:	d001      	beq.n	10001b52 <tickDirectInput+0xfe>
10001b4e:	2e04      	cmp	r6, #4
10001b50:	d009      	beq.n	10001b66 <tickDirectInput+0x112>
10001b52:	aa01      	add	r2, sp, #4
10001b54:	2104      	movs	r1, #4
10001b56:	5e52      	ldrsh	r2, [r2, r1]
10001b58:	429a      	cmp	r2, r3
10001b5a:	dd09      	ble.n	10001b70 <tickDirectInput+0x11c>
10001b5c:	4252      	negs	r2, r2
10001b5e:	429a      	cmp	r2, r3
10001b60:	da06      	bge.n	10001b70 <tickDirectInput+0x11c>
10001b62:	2300      	movs	r3, #0
10001b64:	e004      	b.n	10001b70 <tickDirectInput+0x11c>
10001b66:	aa01      	add	r2, sp, #4
10001b68:	2104      	movs	r1, #4
10001b6a:	5e52      	ldrsh	r2, [r2, r1]
10001b6c:	429a      	cmp	r2, r3
10001b6e:	dc1e      	bgt.n	10001bae <tickDirectInput+0x15a>
10001b70:	2e01      	cmp	r6, #1
10001b72:	d91e      	bls.n	10001bb2 <tickDirectInput+0x15e>
10001b74:	3e02      	subs	r6, #2
10001b76:	0076      	lsls	r6, r6, #1
10001b78:	19a6      	adds	r6, r4, r6
10001b7a:	80b3      	strh	r3, [r6, #4]
10001b7c:	3501      	adds	r5, #1
10001b7e:	b26d      	sxtb	r5, r5
10001b80:	4b19      	ldr	r3, [pc, #100]	; (10001be8 <tickDirectInput+0x194>)
10001b82:	681b      	ldr	r3, [r3, #0]
10001b84:	429d      	cmp	r5, r3
10001b86:	daa2      	bge.n	10001ace <tickDirectInput+0x7a>
10001b88:	ae03      	add	r6, sp, #12
10001b8a:	00a9      	lsls	r1, r5, #2
10001b8c:	1949      	adds	r1, r1, r5
10001b8e:	0049      	lsls	r1, r1, #1
10001b90:	4b16      	ldr	r3, [pc, #88]	; (10001bec <tickDirectInput+0x198>)
10001b92:	1859      	adds	r1, r3, r1
10001b94:	220a      	movs	r2, #10
10001b96:	0030      	movs	r0, r6
10001b98:	f006 ff9c 	bl	10008ad4 <__wrap___aeabi_memcpy>
10001b9c:	7a33      	ldrb	r3, [r6, #8]
10001b9e:	2b00      	cmp	r3, #0
10001ba0:	d09b      	beq.n	10001ada <tickDirectInput+0x86>
10001ba2:	88b1      	ldrh	r1, [r6, #4]
10001ba4:	7833      	ldrb	r3, [r6, #0]
10001ba6:	3b08      	subs	r3, #8
10001ba8:	4a11      	ldr	r2, [pc, #68]	; (10001bf0 <tickDirectInput+0x19c>)
10001baa:	54d1      	strb	r1, [r2, r3]
10001bac:	e7e6      	b.n	10001b7c <tickDirectInput+0x128>
10001bae:	4b0a      	ldr	r3, [pc, #40]	; (10001bd8 <tickDirectInput+0x184>)
10001bb0:	e7de      	b.n	10001b70 <tickDirectInput+0x11c>
10001bb2:	b29b      	uxth	r3, r3
10001bb4:	19a6      	adds	r6, r4, r6
10001bb6:	0a1b      	lsrs	r3, r3, #8
10001bb8:	70b3      	strb	r3, [r6, #2]
10001bba:	e7df      	b.n	10001b7c <tickDirectInput+0x128>
10001bbc:	20002614 	.word	0x20002614
10001bc0:	20002615 	.word	0x20002615
10001bc4:	20000a63 	.word	0x20000a63
10001bc8:	20001ea8 	.word	0x20001ea8
10001bcc:	20001eb4 	.word	0x20001eb4
10001bd0:	20001508 	.word	0x20001508
10001bd4:	20002388 	.word	0x20002388
10001bd8:	ffff8000 	.word	0xffff8000
10001bdc:	20002625 	.word	0x20002625
10001be0:	20002622 	.word	0x20002622
10001be4:	00007fff 	.word	0x00007fff
10001be8:	200025f0 	.word	0x200025f0
10001bec:	20001e64 	.word	0x20001e64
10001bf0:	200017ac 	.word	0x200017ac

10001bf4 <noAttention>:
10001bf4:	b510      	push	{r4, lr}
10001bf6:	b082      	sub	sp, #8
10001bf8:	4b0e      	ldr	r3, [pc, #56]	; (10001c34 <noAttention+0x40>)
10001bfa:	2401      	movs	r4, #1
10001bfc:	9400      	str	r4, [sp, #0]
10001bfe:	6818      	ldr	r0, [r3, #0]
10001c00:	6859      	ldr	r1, [r3, #4]
10001c02:	689a      	ldr	r2, [r3, #8]
10001c04:	68db      	ldr	r3, [r3, #12]
10001c06:	f002 fe75 	bl	100048f4 <digitalWritePin>
10001c0a:	4b0b      	ldr	r3, [pc, #44]	; (10001c38 <noAttention+0x44>)
10001c0c:	9400      	str	r4, [sp, #0]
10001c0e:	6818      	ldr	r0, [r3, #0]
10001c10:	6859      	ldr	r1, [r3, #4]
10001c12:	689a      	ldr	r2, [r3, #8]
10001c14:	68db      	ldr	r3, [r3, #12]
10001c16:	f002 fe6d 	bl	100048f4 <digitalWritePin>
10001c1a:	4b08      	ldr	r3, [pc, #32]	; (10001c3c <noAttention+0x48>)
10001c1c:	9400      	str	r4, [sp, #0]
10001c1e:	6818      	ldr	r0, [r3, #0]
10001c20:	6859      	ldr	r1, [r3, #4]
10001c22:	689a      	ldr	r2, [r3, #8]
10001c24:	68db      	ldr	r3, [r3, #12]
10001c26:	f002 fe65 	bl	100048f4 <digitalWritePin>
10001c2a:	200f      	movs	r0, #15
10001c2c:	f002 fc4a 	bl	100044c4 <_delay_us>
10001c30:	b002      	add	sp, #8
10001c32:	bd10      	pop	{r4, pc}
10001c34:	20001678 	.word	0x20001678
10001c38:	20001668 	.word	0x20001668
10001c3c:	20001514 	.word	0x20001514

10001c40 <signalAttention>:
10001c40:	b510      	push	{r4, lr}
10001c42:	b082      	sub	sp, #8
10001c44:	4b0e      	ldr	r3, [pc, #56]	; (10001c80 <signalAttention+0x40>)
10001c46:	2400      	movs	r4, #0
10001c48:	9400      	str	r4, [sp, #0]
10001c4a:	6818      	ldr	r0, [r3, #0]
10001c4c:	6859      	ldr	r1, [r3, #4]
10001c4e:	689a      	ldr	r2, [r3, #8]
10001c50:	68db      	ldr	r3, [r3, #12]
10001c52:	f002 fe4f 	bl	100048f4 <digitalWritePin>
10001c56:	4b0b      	ldr	r3, [pc, #44]	; (10001c84 <signalAttention+0x44>)
10001c58:	9400      	str	r4, [sp, #0]
10001c5a:	6818      	ldr	r0, [r3, #0]
10001c5c:	6859      	ldr	r1, [r3, #4]
10001c5e:	689a      	ldr	r2, [r3, #8]
10001c60:	68db      	ldr	r3, [r3, #12]
10001c62:	f002 fe47 	bl	100048f4 <digitalWritePin>
10001c66:	4b08      	ldr	r3, [pc, #32]	; (10001c88 <signalAttention+0x48>)
10001c68:	9400      	str	r4, [sp, #0]
10001c6a:	6818      	ldr	r0, [r3, #0]
10001c6c:	6859      	ldr	r1, [r3, #4]
10001c6e:	689a      	ldr	r2, [r3, #8]
10001c70:	68db      	ldr	r3, [r3, #12]
10001c72:	f002 fe3f 	bl	100048f4 <digitalWritePin>
10001c76:	200f      	movs	r0, #15
10001c78:	f002 fc24 	bl	100044c4 <_delay_us>
10001c7c:	b002      	add	sp, #8
10001c7e:	bd10      	pop	{r4, pc}
10001c80:	20001514 	.word	0x20001514
10001c84:	20001668 	.word	0x20001668
10001c88:	20001678 	.word	0x20001678

10001c8c <revbits2>:
10001c8c:	0003      	movs	r3, r0
10001c8e:	0842      	lsrs	r2, r0, #1
10001c90:	2055      	movs	r0, #85	; 0x55
10001c92:	4010      	ands	r0, r2
10001c94:	005b      	lsls	r3, r3, #1
10001c96:	2255      	movs	r2, #85	; 0x55
10001c98:	4393      	bics	r3, r2
10001c9a:	b2db      	uxtb	r3, r3
10001c9c:	4318      	orrs	r0, r3
10001c9e:	0882      	lsrs	r2, r0, #2
10001ca0:	2333      	movs	r3, #51	; 0x33
10001ca2:	4013      	ands	r3, r2
10001ca4:	0080      	lsls	r0, r0, #2
10001ca6:	2233      	movs	r2, #51	; 0x33
10001ca8:	4390      	bics	r0, r2
10001caa:	b2c0      	uxtb	r0, r0
10001cac:	4318      	orrs	r0, r3
10001cae:	0103      	lsls	r3, r0, #4
10001cb0:	0900      	lsrs	r0, r0, #4
10001cb2:	4318      	orrs	r0, r3
10001cb4:	b2c0      	uxtb	r0, r0
10001cb6:	4770      	bx	lr

10001cb8 <shiftDataInOut>:
10001cb8:	b5f0      	push	{r4, r5, r6, r7, lr}
10001cba:	46c6      	mov	lr, r8
10001cbc:	b500      	push	{lr}
10001cbe:	0007      	movs	r7, r0
10001cc0:	000e      	movs	r6, r1
10001cc2:	4690      	mov	r8, r2
10001cc4:	2400      	movs	r4, #0
10001cc6:	e00c      	b.n	10001ce2 <shiftDataInOut+0x2a>
10001cc8:	205a      	movs	r0, #90	; 0x5a
10001cca:	f7ff ffdf 	bl	10001c8c <revbits2>
10001cce:	e00f      	b.n	10001cf0 <shiftDataInOut+0x38>
10001cd0:	1935      	adds	r5, r6, r4
10001cd2:	f7ff ffdb 	bl	10001c8c <revbits2>
10001cd6:	7028      	strb	r0, [r5, #0]
10001cd8:	200f      	movs	r0, #15
10001cda:	f002 fbf3 	bl	100044c4 <_delay_us>
10001cde:	3401      	adds	r4, #1
10001ce0:	b2e4      	uxtb	r4, r4
10001ce2:	4544      	cmp	r4, r8
10001ce4:	d209      	bcs.n	10001cfa <shiftDataInOut+0x42>
10001ce6:	2f00      	cmp	r7, #0
10001ce8:	d0ee      	beq.n	10001cc8 <shiftDataInOut+0x10>
10001cea:	5d38      	ldrb	r0, [r7, r4]
10001cec:	f7ff ffce 	bl	10001c8c <revbits2>
10001cf0:	f002 fc22 	bl	10004538 <spi_transfer>
10001cf4:	2e00      	cmp	r6, #0
10001cf6:	d1eb      	bne.n	10001cd0 <shiftDataInOut+0x18>
10001cf8:	e7ee      	b.n	10001cd8 <shiftDataInOut+0x20>
10001cfa:	bc80      	pop	{r7}
10001cfc:	46b8      	mov	r8, r7
10001cfe:	bdf0      	pop	{r4, r5, r6, r7, pc}

10001d00 <autoShiftData>:
10001d00:	b5f8      	push	{r3, r4, r5, r6, r7, lr}
10001d02:	0006      	movs	r6, r0
10001d04:	000d      	movs	r5, r1
10001d06:	f7ff ff9b 	bl	10001c40 <signalAttention>
10001d0a:	1eef      	subs	r7, r5, #3
10001d0c:	b2ff      	uxtb	r7, r7
10001d0e:	2f1d      	cmp	r7, #29
10001d10:	d832      	bhi.n	10001d78 <autoShiftData+0x78>
10001d12:	4c1f      	ldr	r4, [pc, #124]	; (10001d90 <autoShiftData+0x90>)
10001d14:	2203      	movs	r2, #3
10001d16:	0021      	movs	r1, r4
10001d18:	0030      	movs	r0, r6
10001d1a:	f7ff ffcd 	bl	10001cb8 <shiftDataInOut>
10001d1e:	7862      	ldrb	r2, [r4, #1]
10001d20:	2aff      	cmp	r2, #255	; 0xff
10001d22:	d007      	beq.n	10001d34 <autoShiftData+0x34>
10001d24:	4b1a      	ldr	r3, [pc, #104]	; (10001d90 <autoShiftData+0x90>)
10001d26:	789b      	ldrb	r3, [r3, #2]
10001d28:	2b5a      	cmp	r3, #90	; 0x5a
10001d2a:	d01a      	beq.n	10001d62 <autoShiftData+0x62>
10001d2c:	2b00      	cmp	r3, #0
10001d2e:	d01a      	beq.n	10001d66 <autoShiftData+0x66>
10001d30:	2300      	movs	r3, #0
10001d32:	e000      	b.n	10001d36 <autoShiftData+0x36>
10001d34:	2300      	movs	r3, #0
10001d36:	2b00      	cmp	r3, #0
10001d38:	d023      	beq.n	10001d82 <autoShiftData+0x82>
10001d3a:	240f      	movs	r4, #15
10001d3c:	4014      	ands	r4, r2
10001d3e:	0064      	lsls	r4, r4, #1
10001d40:	2d03      	cmp	r5, #3
10001d42:	d812      	bhi.n	10001d6a <autoShiftData+0x6a>
10001d44:	1b62      	subs	r2, r4, r5
10001d46:	b2d2      	uxtb	r2, r2
10001d48:	3203      	adds	r2, #3
10001d4a:	b2d2      	uxtb	r2, r2
10001d4c:	2a00      	cmp	r2, #0
10001d4e:	d01a      	beq.n	10001d86 <autoShiftData+0x86>
10001d50:	18ab      	adds	r3, r5, r2
10001d52:	2b20      	cmp	r3, #32
10001d54:	dc19      	bgt.n	10001d8a <autoShiftData+0x8a>
10001d56:	4c0e      	ldr	r4, [pc, #56]	; (10001d90 <autoShiftData+0x90>)
10001d58:	1961      	adds	r1, r4, r5
10001d5a:	2000      	movs	r0, #0
10001d5c:	f7ff ffac 	bl	10001cb8 <shiftDataInOut>
10001d60:	e00b      	b.n	10001d7a <autoShiftData+0x7a>
10001d62:	2301      	movs	r3, #1
10001d64:	e7e7      	b.n	10001d36 <autoShiftData+0x36>
10001d66:	2301      	movs	r3, #1
10001d68:	e7e5      	b.n	10001d36 <autoShiftData+0x36>
10001d6a:	4909      	ldr	r1, [pc, #36]	; (10001d90 <autoShiftData+0x90>)
10001d6c:	1cf0      	adds	r0, r6, #3
10001d6e:	003a      	movs	r2, r7
10001d70:	3103      	adds	r1, #3
10001d72:	f7ff ffa1 	bl	10001cb8 <shiftDataInOut>
10001d76:	e7e5      	b.n	10001d44 <autoShiftData+0x44>
10001d78:	2400      	movs	r4, #0
10001d7a:	f7ff ff3b 	bl	10001bf4 <noAttention>
10001d7e:	0020      	movs	r0, r4
10001d80:	bdf8      	pop	{r3, r4, r5, r6, r7, pc}
10001d82:	2400      	movs	r4, #0
10001d84:	e7f9      	b.n	10001d7a <autoShiftData+0x7a>
10001d86:	4c02      	ldr	r4, [pc, #8]	; (10001d90 <autoShiftData+0x90>)
10001d88:	e7f7      	b.n	10001d7a <autoShiftData+0x7a>
10001d8a:	2400      	movs	r4, #0
10001d8c:	e7f5      	b.n	10001d7a <autoShiftData+0x7a>
10001d8e:	46c0      	nop			; (mov r8, r8)
10001d90:	20001e44 	.word	0x20001e44

10001d94 <sendCommand>:
10001d94:	b5f0      	push	{r4, r5, r6, r7, lr}
10001d96:	46c6      	mov	lr, r8
10001d98:	b500      	push	{lr}
10001d9a:	0006      	movs	r6, r0
10001d9c:	000f      	movs	r7, r1
10001d9e:	f002 fb96 	bl	100044ce <millis>
10001da2:	4680      	mov	r8, r0
10001da4:	2500      	movs	r5, #0
10001da6:	2400      	movs	r4, #0
10001da8:	e010      	b.n	10001dcc <sendCommand+0x38>
10001daa:	7844      	ldrb	r4, [r0, #1]
10001dac:	230f      	movs	r3, #15
10001dae:	439c      	bics	r4, r3
10001db0:	3cf0      	subs	r4, #240	; 0xf0
10001db2:	4263      	negs	r3, r4
10001db4:	415c      	adcs	r4, r3
10001db6:	b2e4      	uxtb	r4, r4
10001db8:	2c00      	cmp	r4, #0
10001dba:	d022      	beq.n	10001e02 <sendCommand+0x6e>
10001dbc:	2c00      	cmp	r4, #0
10001dbe:	d124      	bne.n	10001e0a <sendCommand+0x76>
10001dc0:	f002 fb85 	bl	100044ce <millis>
10001dc4:	4643      	mov	r3, r8
10001dc6:	1ac0      	subs	r0, r0, r3
10001dc8:	28fa      	cmp	r0, #250	; 0xfa
10001dca:	d81e      	bhi.n	10001e0a <sendCommand+0x76>
10001dcc:	0039      	movs	r1, r7
10001dce:	0030      	movs	r0, r6
10001dd0:	f7ff ff96 	bl	10001d00 <autoShiftData>
10001dd4:	2800      	cmp	r0, #0
10001dd6:	d0ef      	beq.n	10001db8 <sendCommand+0x24>
10001dd8:	3501      	adds	r5, #1
10001dda:	b2ed      	uxtb	r5, r5
10001ddc:	4b0d      	ldr	r3, [pc, #52]	; (10001e14 <sendCommand+0x80>)
10001dde:	429e      	cmp	r6, r3
10001de0:	d0e3      	beq.n	10001daa <sendCommand+0x16>
10001de2:	4b0d      	ldr	r3, [pc, #52]	; (10001e18 <sendCommand+0x84>)
10001de4:	429e      	cmp	r6, r3
10001de6:	d004      	beq.n	10001df2 <sendCommand+0x5e>
10001de8:	2402      	movs	r4, #2
10001dea:	42ac      	cmp	r4, r5
10001dec:	41a4      	sbcs	r4, r4
10001dee:	4264      	negs	r4, r4
10001df0:	e7e2      	b.n	10001db8 <sendCommand+0x24>
10001df2:	7844      	ldrb	r4, [r0, #1]
10001df4:	230f      	movs	r3, #15
10001df6:	439c      	bics	r4, r3
10001df8:	3cf0      	subs	r4, #240	; 0xf0
10001dfa:	1e63      	subs	r3, r4, #1
10001dfc:	419c      	sbcs	r4, r3
10001dfe:	b2e4      	uxtb	r4, r4
10001e00:	e7da      	b.n	10001db8 <sendCommand+0x24>
10001e02:	200a      	movs	r0, #10
10001e04:	f002 fb5a 	bl	100044bc <_delay_ms>
10001e08:	e7d8      	b.n	10001dbc <sendCommand+0x28>
10001e0a:	0020      	movs	r0, r4
10001e0c:	bc80      	pop	{r7}
10001e0e:	46b8      	mov	r8, r7
10001e10:	bdf0      	pop	{r4, r5, r6, r7, pc}
10001e12:	46c0      	nop			; (mov r8, r8)
10001e14:	1000bc18 	.word	0x1000bc18
10001e18:	1000bc1c 	.word	0x1000bc1c

10001e1c <getControllerType>:
10001e1c:	b510      	push	{r4, lr}
10001e1e:	2103      	movs	r1, #3
10001e20:	480c      	ldr	r0, [pc, #48]	; (10001e54 <getControllerType+0x38>)
10001e22:	f7ff ff6d 	bl	10001d00 <autoShiftData>
10001e26:	2800      	cmp	r0, #0
10001e28:	d00d      	beq.n	10001e46 <getControllerType+0x2a>
10001e2a:	78c3      	ldrb	r3, [r0, #3]
10001e2c:	2b03      	cmp	r3, #3
10001e2e:	d00c      	beq.n	10001e4a <getControllerType+0x2e>
10001e30:	2b01      	cmp	r3, #1
10001e32:	d003      	beq.n	10001e3c <getControllerType+0x20>
10001e34:	2b0c      	cmp	r3, #12
10001e36:	d00a      	beq.n	10001e4e <getControllerType+0x32>
10001e38:	2000      	movs	r0, #0
10001e3a:	bd10      	pop	{r4, pc}
10001e3c:	7842      	ldrb	r2, [r0, #1]
10001e3e:	2a42      	cmp	r2, #66	; 0x42
10001e40:	d0f8      	beq.n	10001e34 <getControllerType+0x18>
10001e42:	2004      	movs	r0, #4
10001e44:	e7f9      	b.n	10001e3a <getControllerType+0x1e>
10001e46:	2000      	movs	r0, #0
10001e48:	e7f7      	b.n	10001e3a <getControllerType+0x1e>
10001e4a:	2002      	movs	r0, #2
10001e4c:	e7f5      	b.n	10001e3a <getControllerType+0x1e>
10001e4e:	2003      	movs	r0, #3
10001e50:	e7f3      	b.n	10001e3a <getControllerType+0x1e>
10001e52:	46c0      	nop			; (mov r8, r8)
10001e54:	1000bc24 	.word	0x1000bc24

10001e58 <read>:
10001e58:	b570      	push	{r4, r5, r6, lr}
10001e5a:	0004      	movs	r4, r0
10001e5c:	2103      	movs	r1, #3
10001e5e:	4859      	ldr	r0, [pc, #356]	; (10001fc4 <read+0x16c>)
10001e60:	f7ff ff4e 	bl	10001d00 <autoShiftData>
10001e64:	2800      	cmp	r0, #0
10001e66:	d100      	bne.n	10001e6a <read+0x12>
10001e68:	e0a9      	b.n	10001fbe <read+0x166>
10001e6a:	7841      	ldrb	r1, [r0, #1]
10001e6c:	230f      	movs	r3, #15
10001e6e:	000d      	movs	r5, r1
10001e70:	439d      	bics	r5, r3
10001e72:	2df0      	cmp	r5, #240	; 0xf0
10001e74:	d01a      	beq.n	10001eac <read+0x54>
10001e76:	7902      	ldrb	r2, [r0, #4]
10001e78:	0212      	lsls	r2, r2, #8
10001e7a:	78c3      	ldrb	r3, [r0, #3]
10001e7c:	4313      	orrs	r3, r2
10001e7e:	43db      	mvns	r3, r3
10001e80:	b29a      	uxth	r2, r3
10001e82:	2d50      	cmp	r5, #80	; 0x50
10001e84:	d018      	beq.n	10001eb8 <read+0x60>
10001e86:	2923      	cmp	r1, #35	; 0x23
10001e88:	d01a      	beq.n	10001ec0 <read+0x68>
10001e8a:	7843      	ldrb	r3, [r0, #1]
10001e8c:	210f      	movs	r1, #15
10001e8e:	438b      	bics	r3, r1
10001e90:	2be0      	cmp	r3, #224	; 0xe0
10001e92:	d03f      	beq.n	10001f14 <read+0xbc>
10001e94:	7843      	ldrb	r3, [r0, #1]
10001e96:	2b12      	cmp	r3, #18
10001e98:	d05a      	beq.n	10001f50 <read+0xf8>
10001e9a:	7843      	ldrb	r3, [r0, #1]
10001e9c:	210f      	movs	r1, #15
10001e9e:	438b      	bics	r3, r1
10001ea0:	2b70      	cmp	r3, #112	; 0x70
10001ea2:	d062      	beq.n	10001f6a <read+0x112>
10001ea4:	2b50      	cmp	r3, #80	; 0x50
10001ea6:	d060      	beq.n	10001f6a <read+0x112>
10001ea8:	2001      	movs	r0, #1
10001eaa:	e089      	b.n	10001fc0 <read+0x168>
10001eac:	2104      	movs	r1, #4
10001eae:	4846      	ldr	r0, [pc, #280]	; (10001fc8 <read+0x170>)
10001eb0:	f7ff ff70 	bl	10001d94 <sendCommand>
10001eb4:	2000      	movs	r0, #0
10001eb6:	e083      	b.n	10001fc0 <read+0x168>
10001eb8:	4b44      	ldr	r3, [pc, #272]	; (10001fcc <read+0x174>)
10001eba:	3d48      	subs	r5, #72	; 0x48
10001ebc:	701d      	strb	r5, [r3, #0]
10001ebe:	e7e2      	b.n	10001e86 <read+0x2e>
10001ec0:	4b42      	ldr	r3, [pc, #264]	; (10001fcc <read+0x174>)
10001ec2:	391e      	subs	r1, #30
10001ec4:	7019      	strb	r1, [r3, #0]
10001ec6:	7943      	ldrb	r3, [r0, #5]
10001ec8:	3b80      	subs	r3, #128	; 0x80
10001eca:	021b      	lsls	r3, r3, #8
10001ecc:	80a3      	strh	r3, [r4, #4]
10001ece:	2100      	movs	r1, #0
10001ed0:	5e63      	ldrsh	r3, [r4, r1]
10001ed2:	493f      	ldr	r1, [pc, #252]	; (10001fd0 <read+0x178>)
10001ed4:	400b      	ands	r3, r1
10001ed6:	7981      	ldrb	r1, [r0, #6]
10001ed8:	2980      	cmp	r1, #128	; 0x80
10001eda:	d915      	bls.n	10001f08 <read+0xb0>
10001edc:	2180      	movs	r1, #128	; 0x80
10001ede:	01c9      	lsls	r1, r1, #7
10001ee0:	430b      	orrs	r3, r1
10001ee2:	8023      	strh	r3, [r4, #0]
10001ee4:	045b      	lsls	r3, r3, #17
10001ee6:	0c5b      	lsrs	r3, r3, #17
10001ee8:	79c1      	ldrb	r1, [r0, #7]
10001eea:	2980      	cmp	r1, #128	; 0x80
10001eec:	d90e      	bls.n	10001f0c <read+0xb4>
10001eee:	4939      	ldr	r1, [pc, #228]	; (10001fd4 <read+0x17c>)
10001ef0:	430b      	orrs	r3, r1
10001ef2:	8023      	strh	r3, [r4, #0]
10001ef4:	4938      	ldr	r1, [pc, #224]	; (10001fd8 <read+0x180>)
10001ef6:	400b      	ands	r3, r1
10001ef8:	7a01      	ldrb	r1, [r0, #8]
10001efa:	29f0      	cmp	r1, #240	; 0xf0
10001efc:	d908      	bls.n	10001f10 <read+0xb8>
10001efe:	2180      	movs	r1, #128	; 0x80
10001f00:	0049      	lsls	r1, r1, #1
10001f02:	430b      	orrs	r3, r1
10001f04:	8023      	strh	r3, [r4, #0]
10001f06:	e7c0      	b.n	10001e8a <read+0x32>
10001f08:	2100      	movs	r1, #0
10001f0a:	e7e9      	b.n	10001ee0 <read+0x88>
10001f0c:	2100      	movs	r1, #0
10001f0e:	e7ef      	b.n	10001ef0 <read+0x98>
10001f10:	2100      	movs	r1, #0
10001f12:	e7f6      	b.n	10001f02 <read+0xaa>
10001f14:	4b2d      	ldr	r3, [pc, #180]	; (10001fcc <read+0x174>)
10001f16:	3909      	subs	r1, #9
10001f18:	7019      	strb	r1, [r3, #0]
10001f1a:	7943      	ldrb	r3, [r0, #5]
10001f1c:	80a3      	strh	r3, [r4, #4]
10001f1e:	2306      	movs	r3, #6
10001f20:	56c3      	ldrsb	r3, [r0, r3]
10001f22:	2b00      	cmp	r3, #0
10001f24:	db0c      	blt.n	10001f40 <read+0xe8>
10001f26:	7943      	ldrb	r3, [r0, #5]
10001f28:	2105      	movs	r1, #5
10001f2a:	5641      	ldrsb	r1, [r0, r1]
10001f2c:	2900      	cmp	r1, #0
10001f2e:	db05      	blt.n	10001f3c <read+0xe4>
10001f30:	b21b      	sxth	r3, r3
10001f32:	80a3      	strh	r3, [r4, #4]
10001f34:	88a3      	ldrh	r3, [r4, #4]
10001f36:	3380      	adds	r3, #128	; 0x80
10001f38:	80a3      	strh	r3, [r4, #4]
10001f3a:	e7ab      	b.n	10001e94 <read+0x3c>
10001f3c:	237f      	movs	r3, #127	; 0x7f
10001f3e:	e7f8      	b.n	10001f32 <read+0xda>
10001f40:	7941      	ldrb	r1, [r0, #5]
10001f42:	1c0b      	adds	r3, r1, #0
10001f44:	2980      	cmp	r1, #128	; 0x80
10001f46:	d800      	bhi.n	10001f4a <read+0xf2>
10001f48:	2381      	movs	r3, #129	; 0x81
10001f4a:	b2db      	uxtb	r3, r3
10001f4c:	80a3      	strh	r3, [r4, #4]
10001f4e:	e7f1      	b.n	10001f34 <read+0xdc>
10001f50:	4b1e      	ldr	r3, [pc, #120]	; (10001fcc <read+0x174>)
10001f52:	2109      	movs	r1, #9
10001f54:	7019      	strb	r1, [r3, #0]
10001f56:	7943      	ldrb	r3, [r0, #5]
10001f58:	3b80      	subs	r3, #128	; 0x80
10001f5a:	021b      	lsls	r3, r3, #8
10001f5c:	80a3      	strh	r3, [r4, #4]
10001f5e:	7981      	ldrb	r1, [r0, #6]
10001f60:	237f      	movs	r3, #127	; 0x7f
10001f62:	1a5b      	subs	r3, r3, r1
10001f64:	021b      	lsls	r3, r3, #8
10001f66:	80e3      	strh	r3, [r4, #6]
10001f68:	e797      	b.n	10001e9a <read+0x42>
10001f6a:	7943      	ldrb	r3, [r0, #5]
10001f6c:	3b80      	subs	r3, #128	; 0x80
10001f6e:	021b      	lsls	r3, r3, #8
10001f70:	8123      	strh	r3, [r4, #8]
10001f72:	7981      	ldrb	r1, [r0, #6]
10001f74:	237f      	movs	r3, #127	; 0x7f
10001f76:	1a59      	subs	r1, r3, r1
10001f78:	0209      	lsls	r1, r1, #8
10001f7a:	8161      	strh	r1, [r4, #10]
10001f7c:	79c1      	ldrb	r1, [r0, #7]
10001f7e:	3980      	subs	r1, #128	; 0x80
10001f80:	0209      	lsls	r1, r1, #8
10001f82:	80a1      	strh	r1, [r4, #4]
10001f84:	7a01      	ldrb	r1, [r0, #8]
10001f86:	1a5b      	subs	r3, r3, r1
10001f88:	021b      	lsls	r3, r3, #8
10001f8a:	80e3      	strh	r3, [r4, #6]
10001f8c:	7843      	ldrb	r3, [r0, #1]
10001f8e:	2b79      	cmp	r3, #121	; 0x79
10001f90:	d001      	beq.n	10001f96 <read+0x13e>
10001f92:	2001      	movs	r0, #1
10001f94:	e014      	b.n	10001fc0 <read+0x168>
10001f96:	7cc3      	ldrb	r3, [r0, #19]
10001f98:	70a3      	strb	r3, [r4, #2]
10001f9a:	7d03      	ldrb	r3, [r0, #20]
10001f9c:	70e3      	strb	r3, [r4, #3]
10001f9e:	4b0b      	ldr	r3, [pc, #44]	; (10001fcc <read+0x174>)
10001fa0:	781b      	ldrb	r3, [r3, #0]
10001fa2:	2b04      	cmp	r3, #4
10001fa4:	d001      	beq.n	10001faa <read+0x152>
10001fa6:	2001      	movs	r0, #1
10001fa8:	e00a      	b.n	10001fc0 <read+0x168>
10001faa:	7c43      	ldrb	r3, [r0, #17]
10001fac:	8123      	strh	r3, [r4, #8]
10001fae:	2380      	movs	r3, #128	; 0x80
10001fb0:	005b      	lsls	r3, r3, #1
10001fb2:	4013      	ands	r3, r2
10001fb4:	03da      	lsls	r2, r3, #15
10001fb6:	1ad3      	subs	r3, r2, r3
10001fb8:	8163      	strh	r3, [r4, #10]
10001fba:	2001      	movs	r0, #1
10001fbc:	e000      	b.n	10001fc0 <read+0x168>
10001fbe:	2000      	movs	r0, #0
10001fc0:	bd70      	pop	{r4, r5, r6, pc}
10001fc2:	46c0      	nop			; (mov r8, r8)
10001fc4:	1000bc20 	.word	0x1000bc20
10001fc8:	1000bc1c 	.word	0x1000bc1c
10001fcc:	20000a64 	.word	0x20000a64
10001fd0:	ffffbfff 	.word	0xffffbfff
10001fd4:	ffff8000 	.word	0xffff8000
10001fd8:	fffffeff 	.word	0xfffffeff

10001fdc <begin>:
10001fdc:	b570      	push	{r4, r5, r6, lr}
10001fde:	0005      	movs	r5, r0
10001fe0:	2400      	movs	r4, #0
10001fe2:	e007      	b.n	10001ff4 <begin+0x18>
10001fe4:	0028      	movs	r0, r5
10001fe6:	f7ff ff37 	bl	10001e58 <read>
10001fea:	2001      	movs	r0, #1
10001fec:	f002 fa66 	bl	100044bc <_delay_ms>
10001ff0:	3401      	adds	r4, #1
10001ff2:	b2e4      	uxtb	r4, r4
10001ff4:	2c04      	cmp	r4, #4
10001ff6:	d9f5      	bls.n	10001fe4 <begin+0x8>
10001ff8:	0028      	movs	r0, r5
10001ffa:	f7ff ff2d 	bl	10001e58 <read>
10001ffe:	bd70      	pop	{r4, r5, r6, pc}

10002000 <tickPS2CtrlInput>:
10002000:	b510      	push	{r4, lr}
10002002:	0004      	movs	r4, r0
10002004:	4b15      	ldr	r3, [pc, #84]	; (1000205c <tickPS2CtrlInput+0x5c>)
10002006:	781b      	ldrb	r3, [r3, #0]
10002008:	2b0a      	cmp	r3, #10
1000200a:	d008      	beq.n	1000201e <tickPS2CtrlInput+0x1e>
1000200c:	0020      	movs	r0, r4
1000200e:	f7ff ff23 	bl	10001e58 <read>
10002012:	2800      	cmp	r0, #0
10002014:	d102      	bne.n	1000201c <tickPS2CtrlInput+0x1c>
10002016:	4b11      	ldr	r3, [pc, #68]	; (1000205c <tickPS2CtrlInput+0x5c>)
10002018:	220a      	movs	r2, #10
1000201a:	701a      	strb	r2, [r3, #0]
1000201c:	bd10      	pop	{r4, pc}
1000201e:	f7ff ffdd 	bl	10001fdc <begin>
10002022:	2800      	cmp	r0, #0
10002024:	d0fa      	beq.n	1000201c <tickPS2CtrlInput+0x1c>
10002026:	2104      	movs	r1, #4
10002028:	480d      	ldr	r0, [pc, #52]	; (10002060 <tickPS2CtrlInput+0x60>)
1000202a:	f7ff feb3 	bl	10001d94 <sendCommand>
1000202e:	2800      	cmp	r0, #0
10002030:	d103      	bne.n	1000203a <tickPS2CtrlInput+0x3a>
10002032:	4b0a      	ldr	r3, [pc, #40]	; (1000205c <tickPS2CtrlInput+0x5c>)
10002034:	2201      	movs	r2, #1
10002036:	701a      	strb	r2, [r3, #0]
10002038:	e7e8      	b.n	1000200c <tickPS2CtrlInput+0xc>
1000203a:	f7ff feef 	bl	10001e1c <getControllerType>
1000203e:	4b07      	ldr	r3, [pc, #28]	; (1000205c <tickPS2CtrlInput+0x5c>)
10002040:	7018      	strb	r0, [r3, #0]
10002042:	2105      	movs	r1, #5
10002044:	4807      	ldr	r0, [pc, #28]	; (10002064 <tickPS2CtrlInput+0x64>)
10002046:	f7ff fea5 	bl	10001d94 <sendCommand>
1000204a:	2109      	movs	r1, #9
1000204c:	4806      	ldr	r0, [pc, #24]	; (10002068 <tickPS2CtrlInput+0x68>)
1000204e:	f7ff fea1 	bl	10001d94 <sendCommand>
10002052:	2104      	movs	r1, #4
10002054:	4805      	ldr	r0, [pc, #20]	; (1000206c <tickPS2CtrlInput+0x6c>)
10002056:	f7ff fe9d 	bl	10001d94 <sendCommand>
1000205a:	e7d7      	b.n	1000200c <tickPS2CtrlInput+0xc>
1000205c:	20000a64 	.word	0x20000a64
10002060:	1000bc18 	.word	0x1000bc18
10002064:	1000bc28 	.word	0x1000bc28
10002068:	1000bc30 	.word	0x1000bc30
1000206c:	1000bc1c 	.word	0x1000bc1c

10002070 <initPS2CtrlInput>:
10002070:	b5f0      	push	{r4, r5, r6, r7, lr}
10002072:	46c6      	mov	lr, r8
10002074:	b500      	push	{lr}
10002076:	b086      	sub	sp, #24
10002078:	0005      	movs	r5, r0
1000207a:	2201      	movs	r2, #1
1000207c:	2101      	movs	r1, #1
1000207e:	481e      	ldr	r0, [pc, #120]	; (100020f8 <initPS2CtrlInput+0x88>)
10002080:	f002 fa36 	bl	100044f0 <spi_begin>
10002084:	2601      	movs	r6, #1
10002086:	9601      	str	r6, [sp, #4]
10002088:	2400      	movs	r4, #0
1000208a:	9400      	str	r4, [sp, #0]
1000208c:	2300      	movs	r3, #0
1000208e:	220a      	movs	r2, #10
10002090:	0029      	movs	r1, r5
10002092:	a802      	add	r0, sp, #8
10002094:	f002 fbe1 	bl	1000485a <setUpDigital>
10002098:	220e      	movs	r2, #14
1000209a:	a902      	add	r1, sp, #8
1000209c:	4817      	ldr	r0, [pc, #92]	; (100020fc <initPS2CtrlInput+0x8c>)
1000209e:	f006 fd19 	bl	10008ad4 <__wrap___aeabi_memcpy>
100020a2:	4b17      	ldr	r3, [pc, #92]	; (10002100 <initPS2CtrlInput+0x90>)
100020a4:	4698      	mov	r8, r3
100020a6:	9601      	str	r6, [sp, #4]
100020a8:	9400      	str	r4, [sp, #0]
100020aa:	2300      	movs	r3, #0
100020ac:	2203      	movs	r2, #3
100020ae:	0029      	movs	r1, r5
100020b0:	a802      	add	r0, sp, #8
100020b2:	f002 fbd2 	bl	1000485a <setUpDigital>
100020b6:	220e      	movs	r2, #14
100020b8:	a902      	add	r1, sp, #8
100020ba:	4640      	mov	r0, r8
100020bc:	f006 fd0a 	bl	10008ad4 <__wrap___aeabi_memcpy>
100020c0:	4f10      	ldr	r7, [pc, #64]	; (10002104 <initPS2CtrlInput+0x94>)
100020c2:	9601      	str	r6, [sp, #4]
100020c4:	9400      	str	r4, [sp, #0]
100020c6:	2300      	movs	r3, #0
100020c8:	2206      	movs	r2, #6
100020ca:	0029      	movs	r1, r5
100020cc:	a802      	add	r0, sp, #8
100020ce:	f002 fbc4 	bl	1000485a <setUpDigital>
100020d2:	220e      	movs	r2, #14
100020d4:	a902      	add	r1, sp, #8
100020d6:	0038      	movs	r0, r7
100020d8:	f006 fcfc 	bl	10008ad4 <__wrap___aeabi_memcpy>
100020dc:	4643      	mov	r3, r8
100020de:	72dc      	strb	r4, [r3, #11]
100020e0:	72fc      	strb	r4, [r7, #11]
100020e2:	2100      	movs	r1, #0
100020e4:	200a      	movs	r0, #10
100020e6:	f002 fc8f 	bl	10004a08 <pinMode>
100020ea:	f7ff fd83 	bl	10001bf4 <noAttention>
100020ee:	b006      	add	sp, #24
100020f0:	bc80      	pop	{r7}
100020f2:	46b8      	mov	r8, r7
100020f4:	bdf0      	pop	{r4, r5, r6, r7, pc}
100020f6:	46c0      	nop			; (mov r8, r8)
100020f8:	000186a0 	.word	0x000186a0
100020fc:	20001514 	.word	0x20001514
10002100:	20001678 	.word	0x20001678
10002104:	20001668 	.word	0x20001668

10002108 <verifyData>:
10002108:	b530      	push	{r4, r5, lr}
1000210a:	2300      	movs	r3, #0
1000210c:	25ff      	movs	r5, #255	; 0xff
1000210e:	2400      	movs	r4, #0
10002110:	e003      	b.n	1000211a <verifyData+0x12>
10002112:	5cc2      	ldrb	r2, [r0, r3]
10002114:	4314      	orrs	r4, r2
10002116:	4015      	ands	r5, r2
10002118:	3301      	adds	r3, #1
1000211a:	4299      	cmp	r1, r3
1000211c:	dcf9      	bgt.n	10002112 <verifyData+0xa>
1000211e:	2c00      	cmp	r4, #0
10002120:	d003      	beq.n	1000212a <verifyData+0x22>
10002122:	2dff      	cmp	r5, #255	; 0xff
10002124:	d003      	beq.n	1000212e <verifyData+0x26>
10002126:	2001      	movs	r0, #1
10002128:	bd30      	pop	{r4, r5, pc}
1000212a:	2000      	movs	r0, #0
1000212c:	e7fc      	b.n	10002128 <verifyData+0x20>
1000212e:	2000      	movs	r0, #0
10002130:	e7fa      	b.n	10002128 <verifyData+0x20>
	...

10002134 <readExtID>:
10002134:	b500      	push	{lr}
10002136:	b083      	sub	sp, #12
10002138:	466b      	mov	r3, sp
1000213a:	2206      	movs	r2, #6
1000213c:	21fa      	movs	r1, #250	; 0xfa
1000213e:	2052      	movs	r0, #82	; 0x52
10002140:	f000 fbe0 	bl	10002904 <twi_readFromPointerSlow>
10002144:	2106      	movs	r1, #6
10002146:	4668      	mov	r0, sp
10002148:	f7ff ffde 	bl	10002108 <verifyData>
1000214c:	2800      	cmp	r0, #0
1000214e:	d007      	beq.n	10002160 <readExtID+0x2c>
10002150:	466b      	mov	r3, sp
10002152:	781b      	ldrb	r3, [r3, #0]
10002154:	021b      	lsls	r3, r3, #8
10002156:	466a      	mov	r2, sp
10002158:	7950      	ldrb	r0, [r2, #5]
1000215a:	4318      	orrs	r0, r3
1000215c:	b003      	add	sp, #12
1000215e:	bd00      	pop	{pc}
10002160:	4800      	ldr	r0, [pc, #0]	; (10002164 <readExtID+0x30>)
10002162:	e7fb      	b.n	1000215c <readExtID+0x28>
10002164:	0000ffff 	.word	0x0000ffff

10002168 <initWiiExt>:
10002168:	b500      	push	{lr}
1000216a:	b085      	sub	sp, #20
1000216c:	f7ff ffe2 	bl	10002134 <readExtID>
10002170:	4b60      	ldr	r3, [pc, #384]	; (100022f4 <initWiiExt+0x18c>)
10002172:	8018      	strh	r0, [r3, #0]
10002174:	4b60      	ldr	r3, [pc, #384]	; (100022f8 <initWiiExt+0x190>)
10002176:	4298      	cmp	r0, r3
10002178:	d024      	beq.n	100021c4 <initWiiExt+0x5c>
1000217a:	4b5e      	ldr	r3, [pc, #376]	; (100022f4 <initWiiExt+0x18c>)
1000217c:	881a      	ldrh	r2, [r3, #0]
1000217e:	4b5f      	ldr	r3, [pc, #380]	; (100022fc <initWiiExt+0x194>)
10002180:	429a      	cmp	r2, r3
10002182:	d037      	beq.n	100021f4 <initWiiExt+0x8c>
10002184:	4b5b      	ldr	r3, [pc, #364]	; (100022f4 <initWiiExt+0x18c>)
10002186:	881b      	ldrh	r3, [r3, #0]
10002188:	2b01      	cmp	r3, #1
1000218a:	d044      	beq.n	10002216 <initWiiExt+0xae>
1000218c:	2202      	movs	r2, #2
1000218e:	32ff      	adds	r2, #255	; 0xff
10002190:	4293      	cmp	r3, r2
10002192:	d040      	beq.n	10002216 <initWiiExt+0xae>
10002194:	4b57      	ldr	r3, [pc, #348]	; (100022f4 <initWiiExt+0x18c>)
10002196:	881b      	ldrh	r3, [r3, #0]
10002198:	2202      	movs	r2, #2
1000219a:	32ff      	adds	r2, #255	; 0xff
1000219c:	4293      	cmp	r3, r2
1000219e:	d100      	bne.n	100021a2 <initWiiExt+0x3a>
100021a0:	e087      	b.n	100022b2 <initWiiExt+0x14a>
100021a2:	3201      	adds	r2, #1
100021a4:	4293      	cmp	r3, r2
100021a6:	d373      	bcc.n	10002290 <initWiiExt+0x128>
100021a8:	4a55      	ldr	r2, [pc, #340]	; (10002300 <initWiiExt+0x198>)
100021aa:	4293      	cmp	r3, r2
100021ac:	d100      	bne.n	100021b0 <initWiiExt+0x48>
100021ae:	e095      	b.n	100022dc <initWiiExt+0x174>
100021b0:	d800      	bhi.n	100021b4 <initWiiExt+0x4c>
100021b2:	e080      	b.n	100022b6 <initWiiExt+0x14e>
100021b4:	4a51      	ldr	r2, [pc, #324]	; (100022fc <initWiiExt+0x194>)
100021b6:	4293      	cmp	r3, r2
100021b8:	d000      	beq.n	100021bc <initWiiExt+0x54>
100021ba:	e093      	b.n	100022e4 <initWiiExt+0x17c>
100021bc:	4b51      	ldr	r3, [pc, #324]	; (10002304 <initWiiExt+0x19c>)
100021be:	4a52      	ldr	r2, [pc, #328]	; (10002308 <initWiiExt+0x1a0>)
100021c0:	601a      	str	r2, [r3, #0]
100021c2:	e076      	b.n	100022b2 <initWiiExt+0x14a>
100021c4:	2255      	movs	r2, #85	; 0x55
100021c6:	21f0      	movs	r1, #240	; 0xf0
100021c8:	2052      	movs	r0, #82	; 0x52
100021ca:	f000 fbf5 	bl	100029b8 <twi_writeSingleToPointer>
100021ce:	200a      	movs	r0, #10
100021d0:	f002 f978 	bl	100044c4 <_delay_us>
100021d4:	2200      	movs	r2, #0
100021d6:	21fb      	movs	r1, #251	; 0xfb
100021d8:	2052      	movs	r0, #82	; 0x52
100021da:	f000 fbed 	bl	100029b8 <twi_writeSingleToPointer>
100021de:	200a      	movs	r0, #10
100021e0:	f002 f970 	bl	100044c4 <_delay_us>
100021e4:	f7ff ffa6 	bl	10002134 <readExtID>
100021e8:	4b42      	ldr	r3, [pc, #264]	; (100022f4 <initWiiExt+0x18c>)
100021ea:	8018      	strh	r0, [r3, #0]
100021ec:	200a      	movs	r0, #10
100021ee:	f002 f969 	bl	100044c4 <_delay_us>
100021f2:	e7c2      	b.n	1000217a <initWiiExt+0x12>
100021f4:	2201      	movs	r2, #1
100021f6:	21fb      	movs	r1, #251	; 0xfb
100021f8:	2052      	movs	r0, #82	; 0x52
100021fa:	f000 fbdd 	bl	100029b8 <twi_writeSingleToPointer>
100021fe:	200a      	movs	r0, #10
10002200:	f002 f960 	bl	100044c4 <_delay_us>
10002204:	2255      	movs	r2, #85	; 0x55
10002206:	21f0      	movs	r1, #240	; 0xf0
10002208:	2052      	movs	r0, #82	; 0x52
1000220a:	f000 fbd5 	bl	100029b8 <twi_writeSingleToPointer>
1000220e:	200a      	movs	r0, #10
10002210:	f002 f958 	bl	100044c4 <_delay_us>
10002214:	e7b6      	b.n	10002184 <initWiiExt+0x1c>
10002216:	2203      	movs	r2, #3
10002218:	21fe      	movs	r1, #254	; 0xfe
1000221a:	2052      	movs	r0, #82	; 0x52
1000221c:	f000 fbcc 	bl	100029b8 <twi_writeSingleToPointer>
10002220:	200a      	movs	r0, #10
10002222:	f002 f94f 	bl	100044c4 <_delay_us>
10002226:	e013      	b.n	10002250 <initWiiExt+0xe8>
10002228:	2001      	movs	r0, #1
1000222a:	07c3      	lsls	r3, r0, #31
1000222c:	d506      	bpl.n	1000223c <initWiiExt+0xd4>
1000222e:	4b35      	ldr	r3, [pc, #212]	; (10002304 <initWiiExt+0x19c>)
10002230:	4a36      	ldr	r2, [pc, #216]	; (1000230c <initWiiExt+0x1a4>)
10002232:	601a      	str	r2, [r3, #0]
10002234:	4b36      	ldr	r3, [pc, #216]	; (10002310 <initWiiExt+0x1a8>)
10002236:	2208      	movs	r2, #8
10002238:	701a      	strb	r2, [r3, #0]
1000223a:	e7ab      	b.n	10002194 <initWiiExt+0x2c>
1000223c:	4b31      	ldr	r3, [pc, #196]	; (10002304 <initWiiExt+0x19c>)
1000223e:	4a35      	ldr	r2, [pc, #212]	; (10002314 <initWiiExt+0x1ac>)
10002240:	601a      	str	r2, [r3, #0]
10002242:	4b33      	ldr	r3, [pc, #204]	; (10002310 <initWiiExt+0x1a8>)
10002244:	2206      	movs	r2, #6
10002246:	701a      	strb	r2, [r3, #0]
10002248:	e7a4      	b.n	10002194 <initWiiExt+0x2c>
1000224a:	20c8      	movs	r0, #200	; 0xc8
1000224c:	f002 f93a 	bl	100044c4 <_delay_us>
10002250:	466b      	mov	r3, sp
10002252:	2208      	movs	r2, #8
10002254:	2100      	movs	r1, #0
10002256:	2052      	movs	r0, #82	; 0x52
10002258:	f000 fb54 	bl	10002904 <twi_readFromPointerSlow>
1000225c:	20c8      	movs	r0, #200	; 0xc8
1000225e:	f002 f931 	bl	100044c4 <_delay_us>
10002262:	ab02      	add	r3, sp, #8
10002264:	2208      	movs	r2, #8
10002266:	2100      	movs	r1, #0
10002268:	2052      	movs	r0, #82	; 0x52
1000226a:	f000 fb4b 	bl	10002904 <twi_readFromPointerSlow>
1000226e:	2208      	movs	r2, #8
10002270:	a902      	add	r1, sp, #8
10002272:	4668      	mov	r0, sp
10002274:	f009 fb30 	bl	1000b8d8 <memcmp>
10002278:	2800      	cmp	r0, #0
1000227a:	d1e6      	bne.n	1000224a <initWiiExt+0xe2>
1000227c:	466b      	mov	r3, sp
1000227e:	799b      	ldrb	r3, [r3, #6]
10002280:	2b00      	cmp	r3, #0
10002282:	d1d1      	bne.n	10002228 <initWiiExt+0xc0>
10002284:	466b      	mov	r3, sp
10002286:	79db      	ldrb	r3, [r3, #7]
10002288:	2b00      	cmp	r3, #0
1000228a:	d0ce      	beq.n	1000222a <initWiiExt+0xc2>
1000228c:	3001      	adds	r0, #1
1000228e:	e7cc      	b.n	1000222a <initWiiExt+0xc2>
10002290:	2b03      	cmp	r3, #3
10002292:	d01b      	beq.n	100022cc <initWiiExt+0x164>
10002294:	d905      	bls.n	100022a2 <initWiiExt+0x13a>
10002296:	2b11      	cmp	r3, #17
10002298:	d124      	bne.n	100022e4 <initWiiExt+0x17c>
1000229a:	4b1a      	ldr	r3, [pc, #104]	; (10002304 <initWiiExt+0x19c>)
1000229c:	4a1e      	ldr	r2, [pc, #120]	; (10002318 <initWiiExt+0x1b0>)
1000229e:	601a      	str	r2, [r3, #0]
100022a0:	e007      	b.n	100022b2 <initWiiExt+0x14a>
100022a2:	2b00      	cmp	r3, #0
100022a4:	d103      	bne.n	100022ae <initWiiExt+0x146>
100022a6:	4b17      	ldr	r3, [pc, #92]	; (10002304 <initWiiExt+0x19c>)
100022a8:	4a1c      	ldr	r2, [pc, #112]	; (1000231c <initWiiExt+0x1b4>)
100022aa:	601a      	str	r2, [r3, #0]
100022ac:	e001      	b.n	100022b2 <initWiiExt+0x14a>
100022ae:	2b01      	cmp	r3, #1
100022b0:	d118      	bne.n	100022e4 <initWiiExt+0x17c>
100022b2:	b005      	add	sp, #20
100022b4:	bd00      	pop	{pc}
100022b6:	2204      	movs	r2, #4
100022b8:	32ff      	adds	r2, #255	; 0xff
100022ba:	4293      	cmp	r3, r2
100022bc:	d00a      	beq.n	100022d4 <initWiiExt+0x16c>
100022be:	4a18      	ldr	r2, [pc, #96]	; (10002320 <initWiiExt+0x1b8>)
100022c0:	4293      	cmp	r3, r2
100022c2:	d10f      	bne.n	100022e4 <initWiiExt+0x17c>
100022c4:	4b0f      	ldr	r3, [pc, #60]	; (10002304 <initWiiExt+0x19c>)
100022c6:	4a17      	ldr	r2, [pc, #92]	; (10002324 <initWiiExt+0x1bc>)
100022c8:	601a      	str	r2, [r3, #0]
100022ca:	e7f2      	b.n	100022b2 <initWiiExt+0x14a>
100022cc:	4b0d      	ldr	r3, [pc, #52]	; (10002304 <initWiiExt+0x19c>)
100022ce:	4a16      	ldr	r2, [pc, #88]	; (10002328 <initWiiExt+0x1c0>)
100022d0:	601a      	str	r2, [r3, #0]
100022d2:	e7ee      	b.n	100022b2 <initWiiExt+0x14a>
100022d4:	4b0b      	ldr	r3, [pc, #44]	; (10002304 <initWiiExt+0x19c>)
100022d6:	4a15      	ldr	r2, [pc, #84]	; (1000232c <initWiiExt+0x1c4>)
100022d8:	601a      	str	r2, [r3, #0]
100022da:	e7ea      	b.n	100022b2 <initWiiExt+0x14a>
100022dc:	4b09      	ldr	r3, [pc, #36]	; (10002304 <initWiiExt+0x19c>)
100022de:	4a14      	ldr	r2, [pc, #80]	; (10002330 <initWiiExt+0x1c8>)
100022e0:	601a      	str	r2, [r3, #0]
100022e2:	e7e6      	b.n	100022b2 <initWiiExt+0x14a>
100022e4:	4b03      	ldr	r3, [pc, #12]	; (100022f4 <initWiiExt+0x18c>)
100022e6:	4a13      	ldr	r2, [pc, #76]	; (10002334 <initWiiExt+0x1cc>)
100022e8:	801a      	strh	r2, [r3, #0]
100022ea:	4b06      	ldr	r3, [pc, #24]	; (10002304 <initWiiExt+0x19c>)
100022ec:	2200      	movs	r2, #0
100022ee:	601a      	str	r2, [r3, #0]
100022f0:	e7df      	b.n	100022b2 <initWiiExt+0x14a>
100022f2:	46c0      	nop			; (mov r8, r8)
100022f4:	20000a78 	.word	0x20000a78
100022f8:	0000ffff 	.word	0x0000ffff
100022fc:	0000ff13 	.word	0x0000ff13
10002300:	0000ff12 	.word	0x0000ff12
10002304:	20002368 	.word	0x20002368
10002308:	1000146d 	.word	0x1000146d
1000230c:	100012bd 	.word	0x100012bd
10002310:	20000a62 	.word	0x20000a62
10002314:	100012f9 	.word	0x100012f9
10002318:	10001489 	.word	0x10001489
1000231c:	100015c1 	.word	0x100015c1
10002320:	00000303 	.word	0x00000303
10002324:	1000135d 	.word	0x1000135d
10002328:	1000125d 	.word	0x1000125d
1000232c:	10001191 	.word	0x10001191
10002330:	100013f9 	.word	0x100013f9
10002334:	0000180b 	.word	0x0000180b

10002338 <tickWiiExtInput>:
10002338:	b510      	push	{r4, lr}
1000233a:	b082      	sub	sp, #8
1000233c:	0004      	movs	r4, r0
1000233e:	4b12      	ldr	r3, [pc, #72]	; (10002388 <tickWiiExtInput+0x50>)
10002340:	881b      	ldrh	r3, [r3, #0]
10002342:	4a12      	ldr	r2, [pc, #72]	; (1000238c <tickWiiExtInput+0x54>)
10002344:	4293      	cmp	r3, r2
10002346:	d01a      	beq.n	1000237e <tickWiiExtInput+0x46>
10002348:	4a11      	ldr	r2, [pc, #68]	; (10002390 <tickWiiExtInput+0x58>)
1000234a:	4293      	cmp	r3, r2
1000234c:	d017      	beq.n	1000237e <tickWiiExtInput+0x46>
1000234e:	4b11      	ldr	r3, [pc, #68]	; (10002394 <tickWiiExtInput+0x5c>)
10002350:	781a      	ldrb	r2, [r3, #0]
10002352:	466b      	mov	r3, sp
10002354:	2100      	movs	r1, #0
10002356:	2052      	movs	r0, #82	; 0x52
10002358:	f000 fad4 	bl	10002904 <twi_readFromPointerSlow>
1000235c:	2800      	cmp	r0, #0
1000235e:	d006      	beq.n	1000236e <tickWiiExtInput+0x36>
10002360:	4b0c      	ldr	r3, [pc, #48]	; (10002394 <tickWiiExtInput+0x5c>)
10002362:	7819      	ldrb	r1, [r3, #0]
10002364:	4668      	mov	r0, sp
10002366:	f7ff fecf 	bl	10002108 <verifyData>
1000236a:	2800      	cmp	r0, #0
1000236c:	d007      	beq.n	1000237e <tickWiiExtInput+0x46>
1000236e:	4b0a      	ldr	r3, [pc, #40]	; (10002398 <tickWiiExtInput+0x60>)
10002370:	681b      	ldr	r3, [r3, #0]
10002372:	2b00      	cmp	r3, #0
10002374:	d005      	beq.n	10002382 <tickWiiExtInput+0x4a>
10002376:	4669      	mov	r1, sp
10002378:	0020      	movs	r0, r4
1000237a:	4798      	blx	r3
1000237c:	e001      	b.n	10002382 <tickWiiExtInput+0x4a>
1000237e:	f7ff fef3 	bl	10002168 <initWiiExt>
10002382:	b002      	add	sp, #8
10002384:	bd10      	pop	{r4, pc}
10002386:	46c0      	nop			; (mov r8, r8)
10002388:	20000a78 	.word	0x20000a78
1000238c:	0000ffff 	.word	0x0000ffff
10002390:	0000180b 	.word	0x0000180b
10002394:	20000a62 	.word	0x20000a62
10002398:	20002368 	.word	0x20002368

1000239c <initWiiExtensions>:
1000239c:	79c2      	ldrb	r2, [r0, #7]
1000239e:	4b01      	ldr	r3, [pc, #4]	; (100023a4 <initWiiExtensions+0x8>)
100023a0:	701a      	strb	r2, [r3, #0]
100023a2:	4770      	bx	lr
100023a4:	20002617 	.word	0x20002617

100023a8 <initInputs>:
100023a8:	b510      	push	{r4, lr}
100023aa:	0004      	movs	r4, r0
100023ac:	7942      	ldrb	r2, [r0, #5]
100023ae:	4b25      	ldr	r3, [pc, #148]	; (10002444 <initInputs+0x9c>)
100023b0:	701a      	strb	r2, [r3, #0]
100023b2:	7982      	ldrb	r2, [r0, #6]
100023b4:	4b24      	ldr	r3, [pc, #144]	; (10002448 <initInputs+0xa0>)
100023b6:	701a      	strb	r2, [r3, #0]
100023b8:	f002 fbbc 	bl	10004b34 <setupADC>
100023bc:	7823      	ldrb	r3, [r4, #0]
100023be:	2b02      	cmp	r3, #2
100023c0:	d029      	beq.n	10002416 <initInputs+0x6e>
100023c2:	2b03      	cmp	r3, #3
100023c4:	d02b      	beq.n	1000241e <initInputs+0x76>
100023c6:	2b01      	cmp	r3, #1
100023c8:	d01b      	beq.n	10002402 <initInputs+0x5a>
100023ca:	7823      	ldrb	r3, [r4, #0]
100023cc:	2b03      	cmp	r3, #3
100023ce:	d002      	beq.n	100023d6 <initInputs+0x2e>
100023d0:	7923      	ldrb	r3, [r4, #4]
100023d2:	2b02      	cmp	r3, #2
100023d4:	d02d      	beq.n	10002432 <initInputs+0x8a>
100023d6:	7823      	ldrb	r3, [r4, #0]
100023d8:	2b01      	cmp	r3, #1
100023da:	d030      	beq.n	1000243e <initInputs+0x96>
100023dc:	78a3      	ldrb	r3, [r4, #2]
100023de:	2b01      	cmp	r3, #1
100023e0:	d02d      	beq.n	1000243e <initInputs+0x96>
100023e2:	0020      	movs	r0, r4
100023e4:	f7ff f9ac 	bl	10001740 <initDirectInput>
100023e8:	0020      	movs	r0, r4
100023ea:	f7ff f95b 	bl	100016a4 <initGuitar>
100023ee:	232d      	movs	r3, #45	; 0x2d
100023f0:	5ce3      	ldrb	r3, [r4, r3]
100023f2:	021b      	lsls	r3, r3, #8
100023f4:	4a15      	ldr	r2, [pc, #84]	; (1000244c <initInputs+0xa4>)
100023f6:	6013      	str	r3, [r2, #0]
100023f8:	232c      	movs	r3, #44	; 0x2c
100023fa:	5ce2      	ldrb	r2, [r4, r3]
100023fc:	4b14      	ldr	r3, [pc, #80]	; (10002450 <initInputs+0xa8>)
100023fe:	601a      	str	r2, [r3, #0]
10002400:	bd10      	pop	{r4, pc}
10002402:	0020      	movs	r0, r4
10002404:	f7ff ffca 	bl	1000239c <initWiiExtensions>
10002408:	4b12      	ldr	r3, [pc, #72]	; (10002454 <initInputs+0xac>)
1000240a:	4a13      	ldr	r2, [pc, #76]	; (10002458 <initInputs+0xb0>)
1000240c:	601a      	str	r2, [r3, #0]
1000240e:	4b13      	ldr	r3, [pc, #76]	; (1000245c <initInputs+0xb4>)
10002410:	4a13      	ldr	r2, [pc, #76]	; (10002460 <initInputs+0xb8>)
10002412:	601a      	str	r2, [r3, #0]
10002414:	e7d9      	b.n	100023ca <initInputs+0x22>
10002416:	4b11      	ldr	r3, [pc, #68]	; (1000245c <initInputs+0xb4>)
10002418:	4a12      	ldr	r2, [pc, #72]	; (10002464 <initInputs+0xbc>)
1000241a:	601a      	str	r2, [r3, #0]
1000241c:	e7d5      	b.n	100023ca <initInputs+0x22>
1000241e:	0020      	movs	r0, r4
10002420:	f7ff fe26 	bl	10002070 <initPS2CtrlInput>
10002424:	4b0d      	ldr	r3, [pc, #52]	; (1000245c <initInputs+0xb4>)
10002426:	4a10      	ldr	r2, [pc, #64]	; (10002468 <initInputs+0xc0>)
10002428:	601a      	str	r2, [r3, #0]
1000242a:	4b0a      	ldr	r3, [pc, #40]	; (10002454 <initInputs+0xac>)
1000242c:	4a0f      	ldr	r2, [pc, #60]	; (1000246c <initInputs+0xc4>)
1000242e:	601a      	str	r2, [r3, #0]
10002430:	e7cb      	b.n	100023ca <initInputs+0x22>
10002432:	2201      	movs	r2, #1
10002434:	2101      	movs	r1, #1
10002436:	480e      	ldr	r0, [pc, #56]	; (10002470 <initInputs+0xc8>)
10002438:	f002 f85a 	bl	100044f0 <spi_begin>
1000243c:	e7cb      	b.n	100023d6 <initInputs+0x2e>
1000243e:	f002 f88d 	bl	1000455c <twi_init>
10002442:	e7ce      	b.n	100023e2 <initInputs+0x3a>
10002444:	20002616 	.word	0x20002616
10002448:	20002618 	.word	0x20002618
1000244c:	20001e84 	.word	0x20001e84
10002450:	200025e0 	.word	0x200025e0
10002454:	200025dc 	.word	0x200025dc
10002458:	10002339 	.word	0x10002339
1000245c:	2000236c 	.word	0x2000236c
10002460:	1000149d 	.word	0x1000149d
10002464:	10004895 	.word	0x10004895
10002468:	1000113d 	.word	0x1000113d
1000246c:	10002001 	.word	0x10002001
10002470:	03f6b5a0 	.word	0x03f6b5a0

10002474 <tickInputs>:
10002474:	b5f0      	push	{r4, r5, r6, r7, lr}
10002476:	46c6      	mov	lr, r8
10002478:	b500      	push	{lr}
1000247a:	b084      	sub	sp, #16
1000247c:	0005      	movs	r5, r0
1000247e:	4b42      	ldr	r3, [pc, #264]	; (10002588 <tickInputs+0x114>)
10002480:	681b      	ldr	r3, [r3, #0]
10002482:	2b00      	cmp	r3, #0
10002484:	d000      	beq.n	10002488 <tickInputs+0x14>
10002486:	4798      	blx	r3
10002488:	0028      	movs	r0, r5
1000248a:	f7ff fae3 	bl	10001a54 <tickDirectInput>
1000248e:	2400      	movs	r4, #0
10002490:	e001      	b.n	10002496 <tickInputs+0x22>
10002492:	3401      	adds	r4, #1
10002494:	b2e4      	uxtb	r4, r4
10002496:	4b3d      	ldr	r3, [pc, #244]	; (1000258c <tickInputs+0x118>)
10002498:	681b      	ldr	r3, [r3, #0]
1000249a:	429c      	cmp	r4, r3
1000249c:	da2f      	bge.n	100024fe <tickInputs+0x8a>
1000249e:	00e1      	lsls	r1, r4, #3
100024a0:	1b09      	subs	r1, r1, r4
100024a2:	0049      	lsls	r1, r1, #1
100024a4:	4b3a      	ldr	r3, [pc, #232]	; (10002590 <tickInputs+0x11c>)
100024a6:	1859      	adds	r1, r3, r1
100024a8:	220e      	movs	r2, #14
100024aa:	4668      	mov	r0, sp
100024ac:	f006 fb12 	bl	10008ad4 <__wrap___aeabi_memcpy>
100024b0:	f002 f80d 	bl	100044ce <millis>
100024b4:	466b      	mov	r3, sp
100024b6:	7a5b      	ldrb	r3, [r3, #9]
100024b8:	1ac0      	subs	r0, r0, r3
100024ba:	466b      	mov	r3, sp
100024bc:	7a9b      	ldrb	r3, [r3, #10]
100024be:	4298      	cmp	r0, r3
100024c0:	d9e7      	bls.n	10002492 <tickInputs+0x1e>
100024c2:	4b34      	ldr	r3, [pc, #208]	; (10002594 <tickInputs+0x120>)
100024c4:	681e      	ldr	r6, [r3, #0]
100024c6:	9800      	ldr	r0, [sp, #0]
100024c8:	9901      	ldr	r1, [sp, #4]
100024ca:	9a02      	ldr	r2, [sp, #8]
100024cc:	9b03      	ldr	r3, [sp, #12]
100024ce:	47b0      	blx	r6
100024d0:	0006      	movs	r6, r0
100024d2:	882b      	ldrh	r3, [r5, #0]
100024d4:	466a      	mov	r2, sp
100024d6:	79d2      	ldrb	r2, [r2, #7]
100024d8:	4690      	mov	r8, r2
100024da:	2701      	movs	r7, #1
100024dc:	4097      	lsls	r7, r2
100024de:	403b      	ands	r3, r7
100024e0:	4298      	cmp	r0, r3
100024e2:	d0d6      	beq.n	10002492 <tickInputs+0x1e>
100024e4:	f001 fff3 	bl	100044ce <millis>
100024e8:	466b      	mov	r3, sp
100024ea:	7258      	strb	r0, [r3, #9]
100024ec:	2200      	movs	r2, #0
100024ee:	5eab      	ldrsh	r3, [r5, r2]
100024f0:	43bb      	bics	r3, r7
100024f2:	b21b      	sxth	r3, r3
100024f4:	4642      	mov	r2, r8
100024f6:	4096      	lsls	r6, r2
100024f8:	431e      	orrs	r6, r3
100024fa:	802e      	strh	r6, [r5, #0]
100024fc:	e7c9      	b.n	10002492 <tickInputs+0x1e>
100024fe:	4b26      	ldr	r3, [pc, #152]	; (10002598 <tickInputs+0x124>)
10002500:	781b      	ldrb	r3, [r3, #0]
10002502:	2b00      	cmp	r3, #0
10002504:	d025      	beq.n	10002552 <tickInputs+0xde>
10002506:	2304      	movs	r3, #4
10002508:	5eea      	ldrsh	r2, [r5, r3]
1000250a:	4b24      	ldr	r3, [pc, #144]	; (1000259c <tickInputs+0x128>)
1000250c:	681b      	ldr	r3, [r3, #0]
1000250e:	425b      	negs	r3, r3
10002510:	429a      	cmp	r2, r3
10002512:	da03      	bge.n	1000251c <tickInputs+0xa8>
10002514:	882b      	ldrh	r3, [r5, #0]
10002516:	2104      	movs	r1, #4
10002518:	430b      	orrs	r3, r1
1000251a:	802b      	strh	r3, [r5, #0]
1000251c:	4b1f      	ldr	r3, [pc, #124]	; (1000259c <tickInputs+0x128>)
1000251e:	681b      	ldr	r3, [r3, #0]
10002520:	429a      	cmp	r2, r3
10002522:	dd03      	ble.n	1000252c <tickInputs+0xb8>
10002524:	882b      	ldrh	r3, [r5, #0]
10002526:	2208      	movs	r2, #8
10002528:	4313      	orrs	r3, r2
1000252a:	802b      	strh	r3, [r5, #0]
1000252c:	2306      	movs	r3, #6
1000252e:	5eea      	ldrsh	r2, [r5, r3]
10002530:	4b1a      	ldr	r3, [pc, #104]	; (1000259c <tickInputs+0x128>)
10002532:	681b      	ldr	r3, [r3, #0]
10002534:	425b      	negs	r3, r3
10002536:	429a      	cmp	r2, r3
10002538:	da03      	bge.n	10002542 <tickInputs+0xce>
1000253a:	882b      	ldrh	r3, [r5, #0]
1000253c:	2102      	movs	r1, #2
1000253e:	430b      	orrs	r3, r1
10002540:	802b      	strh	r3, [r5, #0]
10002542:	4b16      	ldr	r3, [pc, #88]	; (1000259c <tickInputs+0x128>)
10002544:	681b      	ldr	r3, [r3, #0]
10002546:	429a      	cmp	r2, r3
10002548:	dd03      	ble.n	10002552 <tickInputs+0xde>
1000254a:	882b      	ldrh	r3, [r5, #0]
1000254c:	2201      	movs	r2, #1
1000254e:	4313      	orrs	r3, r2
10002550:	802b      	strh	r3, [r5, #0]
10002552:	4b13      	ldr	r3, [pc, #76]	; (100025a0 <tickInputs+0x12c>)
10002554:	781b      	ldrb	r3, [r3, #0]
10002556:	2b00      	cmp	r3, #0
10002558:	d004      	beq.n	10002564 <tickInputs+0xf0>
1000255a:	882b      	ldrh	r3, [r5, #0]
1000255c:	2230      	movs	r2, #48	; 0x30
1000255e:	401a      	ands	r2, r3
10002560:	2a30      	cmp	r2, #48	; 0x30
10002562:	d006      	beq.n	10002572 <tickInputs+0xfe>
10002564:	0028      	movs	r0, r5
10002566:	f7ff f8db 	bl	10001720 <tickGuitar>
1000256a:	b004      	add	sp, #16
1000256c:	bc80      	pop	{r7}
1000256e:	46b8      	mov	r8, r7
10002570:	bdf0      	pop	{r4, r5, r6, r7, pc}
10002572:	3a20      	subs	r2, #32
10002574:	4393      	bics	r3, r2
10002576:	802b      	strh	r3, [r5, #0]
10002578:	3210      	adds	r2, #16
1000257a:	4393      	bics	r3, r2
1000257c:	802b      	strh	r3, [r5, #0]
1000257e:	2280      	movs	r2, #128	; 0x80
10002580:	00d2      	lsls	r2, r2, #3
10002582:	4313      	orrs	r3, r2
10002584:	802b      	strh	r3, [r5, #0]
10002586:	e7ed      	b.n	10002564 <tickInputs+0xf0>
10002588:	200025dc 	.word	0x200025dc
1000258c:	200025f4 	.word	0x200025f4
10002590:	20002200 	.word	0x20002200
10002594:	2000236c 	.word	0x2000236c
10002598:	20002616 	.word	0x20002616
1000259c:	20001e84 	.word	0x20001e84
100025a0:	20002618 	.word	0x20002618

100025a4 <getVelocity>:
100025a4:	290f      	cmp	r1, #15
100025a6:	d80f      	bhi.n	100025c8 <getVelocity+0x24>
100025a8:	4b15      	ldr	r3, [pc, #84]	; (10002600 <getVelocity+0x5c>)
100025aa:	781b      	ldrb	r3, [r3, #0]
100025ac:	2b00      	cmp	r3, #0
100025ae:	d005      	beq.n	100025bc <getVelocity+0x18>
100025b0:	2908      	cmp	r1, #8
100025b2:	d903      	bls.n	100025bc <getVelocity+0x18>
100025b4:	3908      	subs	r1, #8
100025b6:	4b13      	ldr	r3, [pc, #76]	; (10002604 <getVelocity+0x60>)
100025b8:	5c58      	ldrb	r0, [r3, r1]
100025ba:	e004      	b.n	100025c6 <getVelocity+0x22>
100025bc:	8800      	ldrh	r0, [r0, #0]
100025be:	4108      	asrs	r0, r1
100025c0:	0183      	lsls	r3, r0, #6
100025c2:	2040      	movs	r0, #64	; 0x40
100025c4:	4018      	ands	r0, r3
100025c6:	4770      	bx	lr
100025c8:	2912      	cmp	r1, #18
100025ca:	d90e      	bls.n	100025ea <getVelocity+0x46>
100025cc:	3912      	subs	r1, #18
100025ce:	0049      	lsls	r1, r1, #1
100025d0:	1840      	adds	r0, r0, r1
100025d2:	2204      	movs	r2, #4
100025d4:	5e83      	ldrsh	r3, [r0, r2]
100025d6:	041b      	lsls	r3, r3, #16
100025d8:	0c1b      	lsrs	r3, r3, #16
100025da:	2001      	movs	r0, #1
100025dc:	4a0a      	ldr	r2, [pc, #40]	; (10002608 <getVelocity+0x64>)
100025de:	6812      	ldr	r2, [r2, #0]
100025e0:	4293      	cmp	r3, r2
100025e2:	dc00      	bgt.n	100025e6 <getVelocity+0x42>
100025e4:	2000      	movs	r0, #0
100025e6:	b2c0      	uxtb	r0, r0
100025e8:	e7ed      	b.n	100025c6 <getVelocity+0x22>
100025ea:	3910      	subs	r1, #16
100025ec:	1840      	adds	r0, r0, r1
100025ee:	7882      	ldrb	r2, [r0, #2]
100025f0:	2001      	movs	r0, #1
100025f2:	4b05      	ldr	r3, [pc, #20]	; (10002608 <getVelocity+0x64>)
100025f4:	681b      	ldr	r3, [r3, #0]
100025f6:	429a      	cmp	r2, r3
100025f8:	dc00      	bgt.n	100025fc <getVelocity+0x58>
100025fa:	2000      	movs	r0, #0
100025fc:	b2c0      	uxtb	r0, r0
100025fe:	e7e2      	b.n	100025c6 <getVelocity+0x22>
10002600:	20002624 	.word	0x20002624
10002604:	200017ac 	.word	0x200017ac
10002608:	200025e0 	.word	0x200025e0

1000260c <writeConfigBlock>:
1000260c:	b570      	push	{r4, r5, r6, lr}
1000260e:	0004      	movs	r4, r0
10002610:	0015      	movs	r5, r2
10002612:	480e      	ldr	r0, [pc, #56]	; (1000264c <writeConfigBlock+0x40>)
10002614:	1820      	adds	r0, r4, r0
10002616:	f006 fa5d 	bl	10008ad4 <__wrap___aeabi_memcpy>
1000261a:	1964      	adds	r4, r4, r5
1000261c:	2389      	movs	r3, #137	; 0x89
1000261e:	005b      	lsls	r3, r3, #1
10002620:	429c      	cmp	r4, r3
10002622:	d200      	bcs.n	10002626 <writeConfigBlock+0x1a>
10002624:	bd70      	pop	{r4, r5, r6, pc}
10002626:	f3ef 8510 	mrs	r5, PRIMASK
1000262a:	b672      	cpsid	i
1000262c:	2180      	movs	r1, #128	; 0x80
1000262e:	2480      	movs	r4, #128	; 0x80
10002630:	0324      	lsls	r4, r4, #12
10002632:	0149      	lsls	r1, r1, #5
10002634:	0020      	movs	r0, r4
10002636:	f009 fa3b 	bl	1000bab0 <__flash_range_erase_veneer>
1000263a:	2280      	movs	r2, #128	; 0x80
1000263c:	0092      	lsls	r2, r2, #2
1000263e:	4903      	ldr	r1, [pc, #12]	; (1000264c <writeConfigBlock+0x40>)
10002640:	0020      	movs	r0, r4
10002642:	f009 fa1d 	bl	1000ba80 <__flash_range_program_veneer>
10002646:	f385 8810 	msr	PRIMASK, r5
1000264a:	e7eb      	b.n	10002624 <writeConfigBlock+0x18>
1000264c:	20001fe4 	.word	0x20001fe4

10002650 <loadConfig>:
10002650:	b5f0      	push	{r4, r5, r6, r7, lr}
10002652:	46de      	mov	lr, fp
10002654:	4657      	mov	r7, sl
10002656:	464e      	mov	r6, r9
10002658:	4645      	mov	r5, r8
1000265a:	b5e0      	push	{r5, r6, r7, lr}
1000265c:	b0c7      	sub	sp, #284	; 0x11c
1000265e:	0005      	movs	r5, r0
10002660:	4b97      	ldr	r3, [pc, #604]	; (100028c0 <loadConfig+0x270>)
10002662:	6819      	ldr	r1, [r3, #0]
10002664:	2289      	movs	r2, #137	; 0x89
10002666:	0052      	lsls	r2, r2, #1
10002668:	a801      	add	r0, sp, #4
1000266a:	f006 fa33 	bl	10008ad4 <__wrap___aeabi_memcpy>
1000266e:	9a03      	ldr	r2, [sp, #12]
10002670:	4b94      	ldr	r3, [pc, #592]	; (100028c4 <loadConfig+0x274>)
10002672:	429a      	cmp	r2, r3
10002674:	d100      	bne.n	10002678 <loadConfig+0x28>
10002676:	e0c3      	b.n	10002800 <loadConfig+0x1b0>
10002678:	ac01      	add	r4, sp, #4
1000267a:	2289      	movs	r2, #137	; 0x89
1000267c:	0052      	lsls	r2, r2, #1
1000267e:	2100      	movs	r1, #0
10002680:	0020      	movs	r0, r4
10002682:	f006 fa21 	bl	10008ac8 <__wrap_memset>
10002686:	2302      	movs	r3, #2
10002688:	7023      	strb	r3, [r4, #0]
1000268a:	330d      	adds	r3, #13
1000268c:	469a      	mov	sl, r3
1000268e:	7063      	strb	r3, [r4, #1]
10002690:	2201      	movs	r2, #1
10002692:	7162      	strb	r2, [r4, #5]
10002694:	71a2      	strb	r2, [r4, #6]
10002696:	71e2      	strb	r2, [r4, #7]
10002698:	4b8a      	ldr	r3, [pc, #552]	; (100028c4 <loadConfig+0x274>)
1000269a:	60a3      	str	r3, [r4, #8]
1000269c:	270e      	movs	r7, #14
1000269e:	60e7      	str	r7, [r4, #12]
100026a0:	23ff      	movs	r3, #255	; 0xff
100026a2:	7423      	strb	r3, [r4, #16]
100026a4:	7463      	strb	r3, [r4, #17]
100026a6:	74a3      	strb	r3, [r4, #18]
100026a8:	74e3      	strb	r3, [r4, #19]
100026aa:	7523      	strb	r3, [r4, #20]
100026ac:	7563      	strb	r3, [r4, #21]
100026ae:	75a3      	strb	r3, [r4, #22]
100026b0:	75e3      	strb	r3, [r4, #23]
100026b2:	7623      	strb	r3, [r4, #24]
100026b4:	7663      	strb	r3, [r4, #25]
100026b6:	76a3      	strb	r3, [r4, #26]
100026b8:	76e3      	strb	r3, [r4, #27]
100026ba:	7723      	strb	r3, [r4, #28]
100026bc:	7763      	strb	r3, [r4, #29]
100026be:	77a3      	strb	r3, [r4, #30]
100026c0:	77e3      	strb	r3, [r4, #31]
100026c2:	2120      	movs	r1, #32
100026c4:	5463      	strb	r3, [r4, r1]
100026c6:	3102      	adds	r1, #2
100026c8:	5463      	strb	r3, [r4, r1]
100026ca:	3102      	adds	r1, #2
100026cc:	5463      	strb	r3, [r4, r1]
100026ce:	3102      	adds	r1, #2
100026d0:	5463      	strb	r3, [r4, r1]
100026d2:	3102      	adds	r1, #2
100026d4:	468b      	mov	fp, r1
100026d6:	5463      	strb	r3, [r4, r1]
100026d8:	3102      	adds	r1, #2
100026da:	5463      	strb	r3, [r4, r1]
100026dc:	3116      	adds	r1, #22
100026de:	202c      	movs	r0, #44	; 0x2c
100026e0:	5421      	strb	r1, [r4, r0]
100026e2:	3001      	adds	r0, #1
100026e4:	5421      	strb	r1, [r4, r0]
100026e6:	3001      	adds	r0, #1
100026e8:	5421      	strb	r1, [r4, r0]
100026ea:	4877      	ldr	r0, [pc, #476]	; (100028c8 <loadConfig+0x278>)
100026ec:	8620      	strh	r0, [r4, #48]	; 0x30
100026ee:	2032      	movs	r0, #50	; 0x32
100026f0:	4684      	mov	ip, r0
100026f2:	382e      	subs	r0, #46	; 0x2e
100026f4:	4680      	mov	r8, r0
100026f6:	4660      	mov	r0, ip
100026f8:	4646      	mov	r6, r8
100026fa:	5426      	strb	r6, [r4, r0]
100026fc:	3001      	adds	r0, #1
100026fe:	4684      	mov	ip, r0
10002700:	381d      	subs	r0, #29
10002702:	4680      	mov	r8, r0
10002704:	4660      	mov	r0, ip
10002706:	4646      	mov	r6, r8
10002708:	5426      	strb	r6, [r4, r0]
1000270a:	3826      	subs	r0, #38	; 0x26
1000270c:	4680      	mov	r8, r0
1000270e:	3027      	adds	r0, #39	; 0x27
10002710:	4646      	mov	r6, r8
10002712:	5426      	strb	r6, [r4, r0]
10002714:	3001      	adds	r0, #1
10002716:	5427      	strb	r7, [r4, r0]
10002718:	3001      	adds	r0, #1
1000271a:	4656      	mov	r6, sl
1000271c:	5426      	strb	r6, [r4, r0]
1000271e:	3001      	adds	r0, #1
10002720:	4666      	mov	r6, ip
10002722:	5426      	strb	r6, [r4, r0]
10002724:	3001      	adds	r0, #1
10002726:	465e      	mov	r6, fp
10002728:	5426      	strb	r6, [r4, r0]
1000272a:	3611      	adds	r6, #17
1000272c:	382d      	subs	r0, #45	; 0x2d
1000272e:	55a0      	strb	r0, [r4, r6]
10002730:	3045      	adds	r0, #69	; 0x45
10002732:	4684      	mov	ip, r0
10002734:	3601      	adds	r6, #1
10002736:	55a0      	strb	r0, [r4, r6]
10002738:	3601      	adds	r6, #1
1000273a:	3801      	subs	r0, #1
1000273c:	55a0      	strb	r0, [r4, r6]
1000273e:	3601      	adds	r6, #1
10002740:	3003      	adds	r0, #3
10002742:	55a0      	strb	r0, [r4, r6]
10002744:	3615      	adds	r6, #21
10002746:	3815      	subs	r0, #21
10002748:	5426      	strb	r6, [r4, r0]
1000274a:	3001      	adds	r0, #1
1000274c:	5426      	strb	r6, [r4, r0]
1000274e:	3001      	adds	r0, #1
10002750:	5423      	strb	r3, [r4, r0]
10002752:	5463      	strb	r3, [r4, r1]
10002754:	3101      	adds	r1, #1
10002756:	5463      	strb	r3, [r4, r1]
10002758:	3101      	adds	r1, #1
1000275a:	5463      	strb	r3, [r4, r1]
1000275c:	3101      	adds	r1, #1
1000275e:	5463      	strb	r3, [r4, r1]
10002760:	3101      	adds	r1, #1
10002762:	5463      	strb	r3, [r4, r1]
10002764:	3102      	adds	r1, #2
10002766:	5463      	strb	r3, [r4, r1]
10002768:	3102      	adds	r1, #2
1000276a:	5463      	strb	r3, [r4, r1]
1000276c:	3102      	adds	r1, #2
1000276e:	5463      	strb	r3, [r4, r1]
10002770:	3102      	adds	r1, #2
10002772:	4640      	mov	r0, r8
10002774:	5460      	strb	r0, [r4, r1]
10002776:	3102      	adds	r1, #2
10002778:	3073      	adds	r0, #115	; 0x73
1000277a:	5460      	strb	r0, [r4, r1]
1000277c:	4661      	mov	r1, ip
1000277e:	5467      	strb	r7, [r4, r1]
10002780:	55a3      	strb	r3, [r4, r6]
10002782:	3104      	adds	r1, #4
10002784:	3e41      	subs	r6, #65	; 0x41
10002786:	5466      	strb	r6, [r4, r1]
10002788:	3101      	adds	r1, #1
1000278a:	5463      	strb	r3, [r4, r1]
1000278c:	3101      	adds	r1, #1
1000278e:	5463      	strb	r3, [r4, r1]
10002790:	3102      	adds	r1, #2
10002792:	4650      	mov	r0, sl
10002794:	5460      	strb	r0, [r4, r1]
10002796:	3103      	adds	r1, #3
10002798:	5463      	strb	r3, [r4, r1]
1000279a:	3101      	adds	r1, #1
1000279c:	3806      	subs	r0, #6
1000279e:	5460      	strb	r0, [r4, r1]
100027a0:	3101      	adds	r1, #1
100027a2:	5463      	strb	r3, [r4, r1]
100027a4:	3101      	adds	r1, #1
100027a6:	303c      	adds	r0, #60	; 0x3c
100027a8:	5460      	strb	r0, [r4, r1]
100027aa:	318d      	adds	r1, #141	; 0x8d
100027ac:	5463      	strb	r3, [r4, r1]
100027ae:	3b13      	subs	r3, #19
100027b0:	52e2      	strh	r2, [r4, r3]
100027b2:	4b46      	ldr	r3, [pc, #280]	; (100028cc <loadConfig+0x27c>)
100027b4:	3103      	adds	r1, #3
100027b6:	5263      	strh	r3, [r4, r1]
100027b8:	3102      	adds	r1, #2
100027ba:	5263      	strh	r3, [r4, r1]
100027bc:	3102      	adds	r1, #2
100027be:	5262      	strh	r2, [r4, r1]
100027c0:	3102      	adds	r1, #2
100027c2:	5263      	strh	r3, [r4, r1]
100027c4:	3102      	adds	r1, #2
100027c6:	5263      	strh	r3, [r4, r1]
100027c8:	3102      	adds	r1, #2
100027ca:	5262      	strh	r2, [r4, r1]
100027cc:	3102      	adds	r1, #2
100027ce:	5263      	strh	r3, [r4, r1]
100027d0:	3104      	adds	r1, #4
100027d2:	5262      	strh	r2, [r4, r1]
100027d4:	3102      	adds	r1, #2
100027d6:	5263      	strh	r3, [r4, r1]
100027d8:	3104      	adds	r1, #4
100027da:	5262      	strh	r2, [r4, r1]
100027dc:	3102      	adds	r1, #2
100027de:	5263      	strh	r3, [r4, r1]
100027e0:	3104      	adds	r1, #4
100027e2:	5262      	strh	r2, [r4, r1]
100027e4:	320c      	adds	r2, #12
100027e6:	32ff      	adds	r2, #255	; 0xff
100027e8:	52a3      	strh	r3, [r4, r2]
100027ea:	2388      	movs	r3, #136	; 0x88
100027ec:	005b      	lsls	r3, r3, #1
100027ee:	3a08      	subs	r2, #8
100027f0:	3aff      	subs	r2, #255	; 0xff
100027f2:	54e2      	strb	r2, [r4, r3]
100027f4:	2312      	movs	r3, #18
100027f6:	33ff      	adds	r3, #255	; 0xff
100027f8:	320f      	adds	r2, #15
100027fa:	54e2      	strb	r2, [r4, r3]
100027fc:	2300      	movs	r3, #0
100027fe:	60e3      	str	r3, [r4, #12]
10002800:	9b04      	ldr	r3, [sp, #16]
10002802:	2b08      	cmp	r3, #8
10002804:	d923      	bls.n	1000284e <loadConfig+0x1fe>
10002806:	9904      	ldr	r1, [sp, #16]
10002808:	290b      	cmp	r1, #11
1000280a:	d808      	bhi.n	1000281e <loadConfig+0x1ce>
1000280c:	aa3c      	add	r2, sp, #240	; 0xf0
1000280e:	4b30      	ldr	r3, [pc, #192]	; (100028d0 <loadConfig+0x280>)
10002810:	33ec      	adds	r3, #236	; 0xec
10002812:	cb51      	ldmia	r3!, {r0, r4, r6}
10002814:	c251      	stmia	r2!, {r0, r4, r6}
10002816:	cb51      	ldmia	r3!, {r0, r4, r6}
10002818:	c251      	stmia	r2!, {r0, r4, r6}
1000281a:	cb51      	ldmia	r3!, {r0, r4, r6}
1000281c:	c251      	stmia	r2!, {r0, r4, r6}
1000281e:	290c      	cmp	r1, #12
10002820:	d805      	bhi.n	1000282e <loadConfig+0x1de>
10002822:	2388      	movs	r3, #136	; 0x88
10002824:	005b      	lsls	r3, r3, #1
10002826:	4a2a      	ldr	r2, [pc, #168]	; (100028d0 <loadConfig+0x280>)
10002828:	5ad0      	ldrh	r0, [r2, r3]
1000282a:	aa01      	add	r2, sp, #4
1000282c:	52d0      	strh	r0, [r2, r3]
1000282e:	290d      	cmp	r1, #13
10002830:	d822      	bhi.n	10002878 <loadConfig+0x228>
10002832:	aa01      	add	r2, sp, #4
10002834:	232f      	movs	r3, #47	; 0x2f
10002836:	5cd3      	ldrb	r3, [r2, r3]
10002838:	2b03      	cmp	r3, #3
1000283a:	d815      	bhi.n	10002868 <loadConfig+0x218>
1000283c:	2b02      	cmp	r3, #2
1000283e:	d231      	bcs.n	100028a4 <loadConfig+0x254>
10002840:	2b01      	cmp	r3, #1
10002842:	d819      	bhi.n	10002878 <loadConfig+0x228>
10002844:	aa01      	add	r2, sp, #4
10002846:	232f      	movs	r3, #47	; 0x2f
10002848:	2002      	movs	r0, #2
1000284a:	54d0      	strb	r0, [r2, r3]
1000284c:	e014      	b.n	10002878 <loadConfig+0x228>
1000284e:	ab01      	add	r3, sp, #4
10002850:	7858      	ldrb	r0, [r3, #1]
10002852:	f7fd ffb5 	bl	100007c0 <isGuitar>
10002856:	2800      	cmp	r0, #0
10002858:	d0d5      	beq.n	10002806 <loadConfig+0x1b6>
1000285a:	a901      	add	r1, sp, #4
1000285c:	2229      	movs	r2, #41	; 0x29
1000285e:	5c8b      	ldrb	r3, [r1, r2]
10002860:	2001      	movs	r0, #1
10002862:	4043      	eors	r3, r0
10002864:	548b      	strb	r3, [r1, r2]
10002866:	e7ce      	b.n	10002806 <loadConfig+0x1b6>
10002868:	3b04      	subs	r3, #4
1000286a:	b2db      	uxtb	r3, r3
1000286c:	2b01      	cmp	r3, #1
1000286e:	d803      	bhi.n	10002878 <loadConfig+0x228>
10002870:	aa01      	add	r2, sp, #4
10002872:	232f      	movs	r3, #47	; 0x2f
10002874:	2000      	movs	r0, #0
10002876:	54d0      	strb	r0, [r2, r3]
10002878:	290d      	cmp	r1, #13
1000287a:	d918      	bls.n	100028ae <loadConfig+0x25e>
1000287c:	2489      	movs	r4, #137	; 0x89
1000287e:	0064      	lsls	r4, r4, #1
10002880:	0022      	movs	r2, r4
10002882:	a901      	add	r1, sp, #4
10002884:	4813      	ldr	r0, [pc, #76]	; (100028d4 <loadConfig+0x284>)
10002886:	f006 f925 	bl	10008ad4 <__wrap___aeabi_memcpy>
1000288a:	0022      	movs	r2, r4
1000288c:	a901      	add	r1, sp, #4
1000288e:	0028      	movs	r0, r5
10002890:	f006 f920 	bl	10008ad4 <__wrap___aeabi_memcpy>
10002894:	0028      	movs	r0, r5
10002896:	b047      	add	sp, #284	; 0x11c
10002898:	bcf0      	pop	{r4, r5, r6, r7}
1000289a:	46bb      	mov	fp, r7
1000289c:	46b2      	mov	sl, r6
1000289e:	46a9      	mov	r9, r5
100028a0:	46a0      	mov	r8, r4
100028a2:	bdf0      	pop	{r4, r5, r6, r7, pc}
100028a4:	aa01      	add	r2, sp, #4
100028a6:	232f      	movs	r3, #47	; 0x2f
100028a8:	2001      	movs	r0, #1
100028aa:	54d0      	strb	r0, [r2, r3]
100028ac:	e7e4      	b.n	10002878 <loadConfig+0x228>
100028ae:	230e      	movs	r3, #14
100028b0:	9304      	str	r3, [sp, #16]
100028b2:	2289      	movs	r2, #137	; 0x89
100028b4:	0052      	lsls	r2, r2, #1
100028b6:	a901      	add	r1, sp, #4
100028b8:	2000      	movs	r0, #0
100028ba:	f7ff fea7 	bl	1000260c <writeConfigBlock>
100028be:	e7dd      	b.n	1000287c <loadConfig+0x22c>
100028c0:	20000a7c 	.word	0x20000a7c
100028c4:	00a2d415 	.word	0x00a2d415
100028c8:	00000bb8 	.word	0x00000bb8
100028cc:	ffff8000 	.word	0xffff8000
100028d0:	1000bc6c 	.word	0x1000bc6c
100028d4:	20001fe4 	.word	0x20001fe4

100028d8 <readConfigBlock>:
100028d8:	b510      	push	{r4, lr}
100028da:	000b      	movs	r3, r1
100028dc:	4903      	ldr	r1, [pc, #12]	; (100028ec <readConfigBlock+0x14>)
100028de:	6809      	ldr	r1, [r1, #0]
100028e0:	1809      	adds	r1, r1, r0
100028e2:	0018      	movs	r0, r3
100028e4:	f006 f8f6 	bl	10008ad4 <__wrap___aeabi_memcpy>
100028e8:	bd10      	pop	{r4, pc}
100028ea:	46c0      	nop			; (mov r8, r8)
100028ec:	20000a7c 	.word	0x20000a7c

100028f0 <resetConfig>:
100028f0:	b510      	push	{r4, lr}
100028f2:	2289      	movs	r2, #137	; 0x89
100028f4:	0052      	lsls	r2, r2, #1
100028f6:	4902      	ldr	r1, [pc, #8]	; (10002900 <resetConfig+0x10>)
100028f8:	2000      	movs	r0, #0
100028fa:	f7ff fe87 	bl	1000260c <writeConfigBlock>
100028fe:	bd10      	pop	{r4, pc}
10002900:	1000bc6c 	.word	0x1000bc6c

10002904 <twi_readFromPointerSlow>:
10002904:	b570      	push	{r4, r5, r6, lr}
10002906:	b084      	sub	sp, #16
10002908:	0006      	movs	r6, r0
1000290a:	0008      	movs	r0, r1
1000290c:	0015      	movs	r5, r2
1000290e:	001c      	movs	r4, r3
10002910:	210f      	movs	r1, #15
10002912:	4469      	add	r1, sp
10002914:	7008      	strb	r0, [r1, #0]
10002916:	2301      	movs	r3, #1
10002918:	9300      	str	r3, [sp, #0]
1000291a:	2201      	movs	r2, #1
1000291c:	0030      	movs	r0, r6
1000291e:	f001 fe51 	bl	100045c4 <twi_writeTo>
10002922:	2800      	cmp	r0, #0
10002924:	d101      	bne.n	1000292a <twi_readFromPointerSlow+0x26>
10002926:	b004      	add	sp, #16
10002928:	bd70      	pop	{r4, r5, r6, pc}
1000292a:	20b4      	movs	r0, #180	; 0xb4
1000292c:	f001 fdca 	bl	100044c4 <_delay_us>
10002930:	2301      	movs	r3, #1
10002932:	002a      	movs	r2, r5
10002934:	0021      	movs	r1, r4
10002936:	0030      	movs	r0, r6
10002938:	f001 fe32 	bl	100045a0 <twi_readFrom>
1000293c:	e7f3      	b.n	10002926 <twi_readFromPointerSlow+0x22>

1000293e <twi_readFromPointer>:
1000293e:	b570      	push	{r4, r5, r6, lr}
10002940:	b084      	sub	sp, #16
10002942:	0004      	movs	r4, r0
10002944:	0008      	movs	r0, r1
10002946:	0016      	movs	r6, r2
10002948:	001d      	movs	r5, r3
1000294a:	210f      	movs	r1, #15
1000294c:	4469      	add	r1, sp
1000294e:	7008      	strb	r0, [r1, #0]
10002950:	2301      	movs	r3, #1
10002952:	9300      	str	r3, [sp, #0]
10002954:	2201      	movs	r2, #1
10002956:	0020      	movs	r0, r4
10002958:	f001 fe34 	bl	100045c4 <twi_writeTo>
1000295c:	2800      	cmp	r0, #0
1000295e:	d102      	bne.n	10002966 <twi_readFromPointer+0x28>
10002960:	2000      	movs	r0, #0
10002962:	b004      	add	sp, #16
10002964:	bd70      	pop	{r4, r5, r6, pc}
10002966:	2301      	movs	r3, #1
10002968:	0032      	movs	r2, r6
1000296a:	0029      	movs	r1, r5
1000296c:	0020      	movs	r0, r4
1000296e:	f001 fe17 	bl	100045a0 <twi_readFrom>
10002972:	2800      	cmp	r0, #0
10002974:	d001      	beq.n	1000297a <twi_readFromPointer+0x3c>
10002976:	2001      	movs	r0, #1
10002978:	e7f3      	b.n	10002962 <twi_readFromPointer+0x24>
1000297a:	2000      	movs	r0, #0
1000297c:	e7f1      	b.n	10002962 <twi_readFromPointer+0x24>

1000297e <twi_writeToPointer>:
1000297e:	b5f0      	push	{r4, r5, r6, r7, lr}
10002980:	b083      	sub	sp, #12
10002982:	af02      	add	r7, sp, #8
10002984:	0005      	movs	r5, r0
10002986:	1c56      	adds	r6, r2, #1
10002988:	0014      	movs	r4, r2
1000298a:	3408      	adds	r4, #8
1000298c:	08e4      	lsrs	r4, r4, #3
1000298e:	00e4      	lsls	r4, r4, #3
10002990:	4668      	mov	r0, sp
10002992:	1b00      	subs	r0, r0, r4
10002994:	4685      	mov	sp, r0
10002996:	ac02      	add	r4, sp, #8
10002998:	7021      	strb	r1, [r4, #0]
1000299a:	2009      	movs	r0, #9
1000299c:	4468      	add	r0, sp
1000299e:	0019      	movs	r1, r3
100029a0:	f006 f898 	bl	10008ad4 <__wrap___aeabi_memcpy>
100029a4:	b2f2      	uxtb	r2, r6
100029a6:	2301      	movs	r3, #1
100029a8:	9300      	str	r3, [sp, #0]
100029aa:	0021      	movs	r1, r4
100029ac:	0028      	movs	r0, r5
100029ae:	f001 fe09 	bl	100045c4 <twi_writeTo>
100029b2:	46bd      	mov	sp, r7
100029b4:	b001      	add	sp, #4
100029b6:	bdf0      	pop	{r4, r5, r6, r7, pc}

100029b8 <twi_writeSingleToPointer>:
100029b8:	b500      	push	{lr}
100029ba:	b083      	sub	sp, #12
100029bc:	466b      	mov	r3, sp
100029be:	3307      	adds	r3, #7
100029c0:	701a      	strb	r2, [r3, #0]
100029c2:	2201      	movs	r2, #1
100029c4:	f7ff ffdb 	bl	1000297e <twi_writeToPointer>
100029c8:	b003      	add	sp, #12
100029ca:	bd00      	pop	{pc}

100029cc <nrf24_init>:
100029cc:	b510      	push	{r4, lr}
100029ce:	2200      	movs	r2, #0
100029d0:	2100      	movs	r1, #0
100029d2:	4806      	ldr	r0, [pc, #24]	; (100029ec <nrf24_init+0x20>)
100029d4:	f001 fd8c 	bl	100044f0 <spi_begin>
100029d8:	2000      	movs	r0, #0
100029da:	f7fe fb5d 	bl	10001098 <nrf24_ce_digitalWrite>
100029de:	2001      	movs	r0, #1
100029e0:	f7fe fb60 	bl	100010a4 <nrf24_csn_digitalWrite>
100029e4:	2005      	movs	r0, #5
100029e6:	f001 fd69 	bl	100044bc <_delay_ms>
100029ea:	bd10      	pop	{r4, pc}
100029ec:	07ed6b40 	.word	0x07ed6b40

100029f0 <nrf24_flush_tx>:
100029f0:	b510      	push	{r4, lr}
100029f2:	2000      	movs	r0, #0
100029f4:	f7fe fb56 	bl	100010a4 <nrf24_csn_digitalWrite>
100029f8:	20e1      	movs	r0, #225	; 0xe1
100029fa:	f001 fd9d 	bl	10004538 <spi_transfer>
100029fe:	2001      	movs	r0, #1
10002a00:	f7fe fb50 	bl	100010a4 <nrf24_csn_digitalWrite>
10002a04:	bd10      	pop	{r4, pc}

10002a06 <nrf24_flush_rx>:
10002a06:	b510      	push	{r4, lr}
10002a08:	2000      	movs	r0, #0
10002a0a:	f7fe fb4b 	bl	100010a4 <nrf24_csn_digitalWrite>
10002a0e:	20e2      	movs	r0, #226	; 0xe2
10002a10:	f001 fd92 	bl	10004538 <spi_transfer>
10002a14:	2001      	movs	r0, #1
10002a16:	f7fe fb45 	bl	100010a4 <nrf24_csn_digitalWrite>
10002a1a:	bd10      	pop	{r4, pc}

10002a1c <nrf24_toggle_features>:
10002a1c:	b510      	push	{r4, lr}
10002a1e:	2000      	movs	r0, #0
10002a20:	f7fe fb40 	bl	100010a4 <nrf24_csn_digitalWrite>
10002a24:	2050      	movs	r0, #80	; 0x50
10002a26:	f001 fd87 	bl	10004538 <spi_transfer>
10002a2a:	2073      	movs	r0, #115	; 0x73
10002a2c:	f001 fd84 	bl	10004538 <spi_transfer>
10002a30:	2001      	movs	r0, #1
10002a32:	f7fe fb37 	bl	100010a4 <nrf24_csn_digitalWrite>
10002a36:	bd10      	pop	{r4, pc}

10002a38 <nrf24_payloadLength>:
10002a38:	b510      	push	{r4, lr}
10002a3a:	2000      	movs	r0, #0
10002a3c:	f7fe fb32 	bl	100010a4 <nrf24_csn_digitalWrite>
10002a40:	2060      	movs	r0, #96	; 0x60
10002a42:	f001 fd79 	bl	10004538 <spi_transfer>
10002a46:	2000      	movs	r0, #0
10002a48:	f001 fd76 	bl	10004538 <spi_transfer>
10002a4c:	0004      	movs	r4, r0
10002a4e:	2001      	movs	r0, #1
10002a50:	f7fe fb28 	bl	100010a4 <nrf24_csn_digitalWrite>
10002a54:	0020      	movs	r0, r4
10002a56:	bd10      	pop	{r4, pc}

10002a58 <nrf24_getStatus>:
10002a58:	b510      	push	{r4, lr}
10002a5a:	2000      	movs	r0, #0
10002a5c:	f7fe fb22 	bl	100010a4 <nrf24_csn_digitalWrite>
10002a60:	20ff      	movs	r0, #255	; 0xff
10002a62:	f001 fd69 	bl	10004538 <spi_transfer>
10002a66:	0004      	movs	r4, r0
10002a68:	2001      	movs	r0, #1
10002a6a:	f7fe fb1b 	bl	100010a4 <nrf24_csn_digitalWrite>
10002a6e:	0020      	movs	r0, r4
10002a70:	bd10      	pop	{r4, pc}

10002a72 <nrf24_txFifoFull>:
10002a72:	b510      	push	{r4, lr}
10002a74:	f7ff fff0 	bl	10002a58 <nrf24_getStatus>
10002a78:	2301      	movs	r3, #1
10002a7a:	4018      	ands	r0, r3
10002a7c:	bd10      	pop	{r4, pc}

10002a7e <nrf24_transferSync>:
10002a7e:	b5f0      	push	{r4, r5, r6, r7, lr}
10002a80:	46c6      	mov	lr, r8
10002a82:	b500      	push	{lr}
10002a84:	4680      	mov	r8, r0
10002a86:	000f      	movs	r7, r1
10002a88:	0016      	movs	r6, r2
10002a8a:	2400      	movs	r4, #0
10002a8c:	e007      	b.n	10002a9e <nrf24_transferSync+0x20>
10002a8e:	193d      	adds	r5, r7, r4
10002a90:	4643      	mov	r3, r8
10002a92:	5d18      	ldrb	r0, [r3, r4]
10002a94:	f001 fd50 	bl	10004538 <spi_transfer>
10002a98:	7028      	strb	r0, [r5, #0]
10002a9a:	3401      	adds	r4, #1
10002a9c:	b2e4      	uxtb	r4, r4
10002a9e:	42b4      	cmp	r4, r6
10002aa0:	d3f5      	bcc.n	10002a8e <nrf24_transferSync+0x10>
10002aa2:	bc80      	pop	{r7}
10002aa4:	46b8      	mov	r8, r7
10002aa6:	bdf0      	pop	{r4, r5, r6, r7, pc}

10002aa8 <nrf24_transmitSync>:
10002aa8:	b570      	push	{r4, r5, r6, lr}
10002aaa:	0006      	movs	r6, r0
10002aac:	000d      	movs	r5, r1
10002aae:	2400      	movs	r4, #0
10002ab0:	e004      	b.n	10002abc <nrf24_transmitSync+0x14>
10002ab2:	5d30      	ldrb	r0, [r6, r4]
10002ab4:	f001 fd40 	bl	10004538 <spi_transfer>
10002ab8:	3401      	adds	r4, #1
10002aba:	b2e4      	uxtb	r4, r4
10002abc:	42ac      	cmp	r4, r5
10002abe:	d3f8      	bcc.n	10002ab2 <nrf24_transmitSync+0xa>
10002ac0:	bd70      	pop	{r4, r5, r6, pc}

10002ac2 <nrf24_configRegister>:
10002ac2:	b570      	push	{r4, r5, r6, lr}
10002ac4:	0005      	movs	r5, r0
10002ac6:	000c      	movs	r4, r1
10002ac8:	2000      	movs	r0, #0
10002aca:	f7fe faeb 	bl	100010a4 <nrf24_csn_digitalWrite>
10002ace:	201f      	movs	r0, #31
10002ad0:	4028      	ands	r0, r5
10002ad2:	2320      	movs	r3, #32
10002ad4:	4318      	orrs	r0, r3
10002ad6:	b2c0      	uxtb	r0, r0
10002ad8:	f001 fd2e 	bl	10004538 <spi_transfer>
10002adc:	0020      	movs	r0, r4
10002ade:	f001 fd2b 	bl	10004538 <spi_transfer>
10002ae2:	2001      	movs	r0, #1
10002ae4:	f7fe fade 	bl	100010a4 <nrf24_csn_digitalWrite>
10002ae8:	bd70      	pop	{r4, r5, r6, pc}

10002aea <nrf24_getData>:
10002aea:	b570      	push	{r4, r5, r6, lr}
10002aec:	0005      	movs	r5, r0
10002aee:	000c      	movs	r4, r1
10002af0:	2140      	movs	r1, #64	; 0x40
10002af2:	2007      	movs	r0, #7
10002af4:	f7ff ffe5 	bl	10002ac2 <nrf24_configRegister>
10002af8:	2c00      	cmp	r4, #0
10002afa:	d00f      	beq.n	10002b1c <nrf24_getData+0x32>
10002afc:	2000      	movs	r0, #0
10002afe:	f7fe fad1 	bl	100010a4 <nrf24_csn_digitalWrite>
10002b02:	2061      	movs	r0, #97	; 0x61
10002b04:	f001 fd18 	bl	10004538 <spi_transfer>
10002b08:	0022      	movs	r2, r4
10002b0a:	0029      	movs	r1, r5
10002b0c:	0028      	movs	r0, r5
10002b0e:	f7ff ffb6 	bl	10002a7e <nrf24_transferSync>
10002b12:	2001      	movs	r0, #1
10002b14:	f7fe fac6 	bl	100010a4 <nrf24_csn_digitalWrite>
10002b18:	0020      	movs	r0, r4
10002b1a:	bd70      	pop	{r4, r5, r6, pc}
10002b1c:	f7ff ff8c 	bl	10002a38 <nrf24_payloadLength>
10002b20:	0004      	movs	r4, r0
10002b22:	e7eb      	b.n	10002afc <nrf24_getData+0x12>

10002b24 <nrf24_readRegister>:
10002b24:	b570      	push	{r4, r5, r6, lr}
10002b26:	0006      	movs	r6, r0
10002b28:	000c      	movs	r4, r1
10002b2a:	0015      	movs	r5, r2
10002b2c:	2000      	movs	r0, #0
10002b2e:	f7fe fab9 	bl	100010a4 <nrf24_csn_digitalWrite>
10002b32:	201f      	movs	r0, #31
10002b34:	4030      	ands	r0, r6
10002b36:	f001 fcff 	bl	10004538 <spi_transfer>
10002b3a:	002a      	movs	r2, r5
10002b3c:	0021      	movs	r1, r4
10002b3e:	0020      	movs	r0, r4
10002b40:	f7ff ff9d 	bl	10002a7e <nrf24_transferSync>
10002b44:	2001      	movs	r0, #1
10002b46:	f7fe faad 	bl	100010a4 <nrf24_csn_digitalWrite>
10002b4a:	bd70      	pop	{r4, r5, r6, pc}

10002b4c <nrf24_set_pa>:
10002b4c:	b510      	push	{r4, lr}
10002b4e:	b082      	sub	sp, #8
10002b50:	0004      	movs	r4, r0
10002b52:	2201      	movs	r2, #1
10002b54:	466b      	mov	r3, sp
10002b56:	1dd9      	adds	r1, r3, #7
10002b58:	2006      	movs	r0, #6
10002b5a:	f7ff ffe3 	bl	10002b24 <nrf24_readRegister>
10002b5e:	466b      	mov	r3, sp
10002b60:	79db      	ldrb	r3, [r3, #7]
10002b62:	2206      	movs	r2, #6
10002b64:	4393      	bics	r3, r2
10002b66:	466a      	mov	r2, sp
10002b68:	71d3      	strb	r3, [r2, #7]
10002b6a:	2c00      	cmp	r4, #0
10002b6c:	d10a      	bne.n	10002b84 <nrf24_set_pa+0x38>
10002b6e:	2206      	movs	r2, #6
10002b70:	4313      	orrs	r3, r2
10002b72:	466a      	mov	r2, sp
10002b74:	71d3      	strb	r3, [r2, #7]
10002b76:	466b      	mov	r3, sp
10002b78:	79d9      	ldrb	r1, [r3, #7]
10002b7a:	2006      	movs	r0, #6
10002b7c:	f7ff ffa1 	bl	10002ac2 <nrf24_configRegister>
10002b80:	b002      	add	sp, #8
10002b82:	bd10      	pop	{r4, pc}
10002b84:	2c01      	cmp	r4, #1
10002b86:	d006      	beq.n	10002b96 <nrf24_set_pa+0x4a>
10002b88:	2c02      	cmp	r4, #2
10002b8a:	d1f4      	bne.n	10002b76 <nrf24_set_pa+0x2a>
10002b8c:	2202      	movs	r2, #2
10002b8e:	4313      	orrs	r3, r2
10002b90:	466a      	mov	r2, sp
10002b92:	71d3      	strb	r3, [r2, #7]
10002b94:	e7ef      	b.n	10002b76 <nrf24_set_pa+0x2a>
10002b96:	2204      	movs	r2, #4
10002b98:	4313      	orrs	r3, r2
10002b9a:	466a      	mov	r2, sp
10002b9c:	71d3      	strb	r3, [r2, #7]
10002b9e:	e7ea      	b.n	10002b76 <nrf24_set_pa+0x2a>

10002ba0 <nrf24_setDataRate>:
10002ba0:	b530      	push	{r4, r5, lr}
10002ba2:	b083      	sub	sp, #12
10002ba4:	0004      	movs	r4, r0
10002ba6:	2201      	movs	r2, #1
10002ba8:	466b      	mov	r3, sp
10002baa:	1dd9      	adds	r1, r3, #7
10002bac:	2006      	movs	r0, #6
10002bae:	f7ff ffb9 	bl	10002b24 <nrf24_readRegister>
10002bb2:	466b      	mov	r3, sp
10002bb4:	79db      	ldrb	r3, [r3, #7]
10002bb6:	2228      	movs	r2, #40	; 0x28
10002bb8:	4393      	bics	r3, r2
10002bba:	466a      	mov	r2, sp
10002bbc:	71d3      	strb	r3, [r2, #7]
10002bbe:	2c02      	cmp	r4, #2
10002bc0:	d01b      	beq.n	10002bfa <nrf24_setDataRate+0x5a>
10002bc2:	2c01      	cmp	r4, #1
10002bc4:	d021      	beq.n	10002c0a <nrf24_setDataRate+0x6a>
10002bc6:	4b16      	ldr	r3, [pc, #88]	; (10002c20 <nrf24_setDataRate+0x80>)
10002bc8:	2200      	movs	r2, #0
10002bca:	701a      	strb	r2, [r3, #0]
10002bcc:	466b      	mov	r3, sp
10002bce:	1ddc      	adds	r4, r3, #7
10002bd0:	79d9      	ldrb	r1, [r3, #7]
10002bd2:	2006      	movs	r0, #6
10002bd4:	f7ff ff75 	bl	10002ac2 <nrf24_configRegister>
10002bd8:	466b      	mov	r3, sp
10002bda:	1d9d      	adds	r5, r3, #6
10002bdc:	2201      	movs	r2, #1
10002bde:	0029      	movs	r1, r5
10002be0:	2006      	movs	r0, #6
10002be2:	f7ff ff9f 	bl	10002b24 <nrf24_readRegister>
10002be6:	782a      	ldrb	r2, [r5, #0]
10002be8:	7823      	ldrb	r3, [r4, #0]
10002bea:	429a      	cmp	r2, r3
10002bec:	d015      	beq.n	10002c1a <nrf24_setDataRate+0x7a>
10002bee:	4b0c      	ldr	r3, [pc, #48]	; (10002c20 <nrf24_setDataRate+0x80>)
10002bf0:	2200      	movs	r2, #0
10002bf2:	701a      	strb	r2, [r3, #0]
10002bf4:	2000      	movs	r0, #0
10002bf6:	b003      	add	sp, #12
10002bf8:	bd30      	pop	{r4, r5, pc}
10002bfa:	2205      	movs	r2, #5
10002bfc:	4313      	orrs	r3, r2
10002bfe:	466a      	mov	r2, sp
10002c00:	71d3      	strb	r3, [r2, #7]
10002c02:	4b07      	ldr	r3, [pc, #28]	; (10002c20 <nrf24_setDataRate+0x80>)
10002c04:	2200      	movs	r2, #0
10002c06:	701a      	strb	r2, [r3, #0]
10002c08:	e7e0      	b.n	10002bcc <nrf24_setDataRate+0x2c>
10002c0a:	2203      	movs	r2, #3
10002c0c:	4313      	orrs	r3, r2
10002c0e:	466a      	mov	r2, sp
10002c10:	71d3      	strb	r3, [r2, #7]
10002c12:	4b03      	ldr	r3, [pc, #12]	; (10002c20 <nrf24_setDataRate+0x80>)
10002c14:	2201      	movs	r2, #1
10002c16:	701a      	strb	r2, [r3, #0]
10002c18:	e7d8      	b.n	10002bcc <nrf24_setDataRate+0x2c>
10002c1a:	2001      	movs	r0, #1
10002c1c:	e7eb      	b.n	10002bf6 <nrf24_setDataRate+0x56>
10002c1e:	46c0      	nop			; (mov r8, r8)
10002c20:	20002628 	.word	0x20002628

10002c24 <nrf24_setCRCLen>:
10002c24:	b510      	push	{r4, lr}
10002c26:	b082      	sub	sp, #8
10002c28:	0004      	movs	r4, r0
10002c2a:	2201      	movs	r2, #1
10002c2c:	466b      	mov	r3, sp
10002c2e:	1dd9      	adds	r1, r3, #7
10002c30:	2000      	movs	r0, #0
10002c32:	f7ff ff77 	bl	10002b24 <nrf24_readRegister>
10002c36:	466b      	mov	r3, sp
10002c38:	79db      	ldrb	r3, [r3, #7]
10002c3a:	220c      	movs	r2, #12
10002c3c:	4393      	bics	r3, r2
10002c3e:	466a      	mov	r2, sp
10002c40:	71d3      	strb	r3, [r2, #7]
10002c42:	2c00      	cmp	r4, #0
10002c44:	d009      	beq.n	10002c5a <nrf24_setCRCLen+0x36>
10002c46:	2c01      	cmp	r4, #1
10002c48:	d00e      	beq.n	10002c68 <nrf24_setCRCLen+0x44>
10002c4a:	2208      	movs	r2, #8
10002c4c:	4313      	orrs	r3, r2
10002c4e:	b2db      	uxtb	r3, r3
10002c50:	466a      	mov	r2, sp
10002c52:	71d3      	strb	r3, [r2, #7]
10002c54:	2104      	movs	r1, #4
10002c56:	430b      	orrs	r3, r1
10002c58:	71d3      	strb	r3, [r2, #7]
10002c5a:	466b      	mov	r3, sp
10002c5c:	79d9      	ldrb	r1, [r3, #7]
10002c5e:	2000      	movs	r0, #0
10002c60:	f7ff ff2f 	bl	10002ac2 <nrf24_configRegister>
10002c64:	b002      	add	sp, #8
10002c66:	bd10      	pop	{r4, pc}
10002c68:	2208      	movs	r2, #8
10002c6a:	4313      	orrs	r3, r2
10002c6c:	466a      	mov	r2, sp
10002c6e:	71d3      	strb	r3, [r2, #7]
10002c70:	e7f3      	b.n	10002c5a <nrf24_setCRCLen+0x36>

10002c72 <nrf24_powerUpRx>:
10002c72:	b510      	push	{r4, lr}
10002c74:	b082      	sub	sp, #8
10002c76:	2170      	movs	r1, #112	; 0x70
10002c78:	2007      	movs	r0, #7
10002c7a:	f7ff ff22 	bl	10002ac2 <nrf24_configRegister>
10002c7e:	466b      	mov	r3, sp
10002c80:	1ddc      	adds	r4, r3, #7
10002c82:	2300      	movs	r3, #0
10002c84:	7023      	strb	r3, [r4, #0]
10002c86:	2201      	movs	r2, #1
10002c88:	0021      	movs	r1, r4
10002c8a:	2000      	movs	r0, #0
10002c8c:	f7ff ff4a 	bl	10002b24 <nrf24_readRegister>
10002c90:	7823      	ldrb	r3, [r4, #0]
10002c92:	2273      	movs	r2, #115	; 0x73
10002c94:	4393      	bics	r3, r2
10002c96:	7023      	strb	r3, [r4, #0]
10002c98:	2000      	movs	r0, #0
10002c9a:	f7fe f9fd 	bl	10001098 <nrf24_ce_digitalWrite>
10002c9e:	7821      	ldrb	r1, [r4, #0]
10002ca0:	2303      	movs	r3, #3
10002ca2:	4319      	orrs	r1, r3
10002ca4:	b2c9      	uxtb	r1, r1
10002ca6:	2000      	movs	r0, #0
10002ca8:	f7ff ff0b 	bl	10002ac2 <nrf24_configRegister>
10002cac:	2001      	movs	r0, #1
10002cae:	f7fe f9f3 	bl	10001098 <nrf24_ce_digitalWrite>
10002cb2:	b002      	add	sp, #8
10002cb4:	bd10      	pop	{r4, pc}

10002cb6 <nrf24_powerUpTx>:
10002cb6:	b510      	push	{r4, lr}
10002cb8:	b082      	sub	sp, #8
10002cba:	466b      	mov	r3, sp
10002cbc:	1ddc      	adds	r4, r3, #7
10002cbe:	2300      	movs	r3, #0
10002cc0:	7023      	strb	r3, [r4, #0]
10002cc2:	2201      	movs	r2, #1
10002cc4:	0021      	movs	r1, r4
10002cc6:	2000      	movs	r0, #0
10002cc8:	f7ff ff2c 	bl	10002b24 <nrf24_readRegister>
10002ccc:	7823      	ldrb	r3, [r4, #0]
10002cce:	2273      	movs	r2, #115	; 0x73
10002cd0:	4393      	bics	r3, r2
10002cd2:	7023      	strb	r3, [r4, #0]
10002cd4:	2000      	movs	r0, #0
10002cd6:	f7fe f9df 	bl	10001098 <nrf24_ce_digitalWrite>
10002cda:	7821      	ldrb	r1, [r4, #0]
10002cdc:	2302      	movs	r3, #2
10002cde:	4319      	orrs	r1, r3
10002ce0:	b2c9      	uxtb	r1, r1
10002ce2:	2000      	movs	r0, #0
10002ce4:	f7ff feed 	bl	10002ac2 <nrf24_configRegister>
10002ce8:	2001      	movs	r0, #1
10002cea:	f7fe f9d5 	bl	10001098 <nrf24_ce_digitalWrite>
10002cee:	b002      	add	sp, #8
10002cf0:	bd10      	pop	{r4, pc}

10002cf2 <nrf24_readRegister1>:
10002cf2:	b510      	push	{r4, lr}
10002cf4:	b082      	sub	sp, #8
10002cf6:	466b      	mov	r3, sp
10002cf8:	1ddc      	adds	r4, r3, #7
10002cfa:	2201      	movs	r2, #1
10002cfc:	0021      	movs	r1, r4
10002cfe:	f7ff ff11 	bl	10002b24 <nrf24_readRegister>
10002d02:	7820      	ldrb	r0, [r4, #0]
10002d04:	b002      	add	sp, #8
10002d06:	bd10      	pop	{r4, pc}

10002d08 <nrf24_enable_ack_payload>:
10002d08:	b510      	push	{r4, lr}
10002d0a:	201d      	movs	r0, #29
10002d0c:	f7ff fff1 	bl	10002cf2 <nrf24_readRegister1>
10002d10:	2104      	movs	r1, #4
10002d12:	4301      	orrs	r1, r0
10002d14:	b2c9      	uxtb	r1, r1
10002d16:	201d      	movs	r0, #29
10002d18:	f7ff fed3 	bl	10002ac2 <nrf24_configRegister>
10002d1c:	201c      	movs	r0, #28
10002d1e:	f7ff ffe8 	bl	10002cf2 <nrf24_readRegister1>
10002d22:	213f      	movs	r1, #63	; 0x3f
10002d24:	4301      	orrs	r1, r0
10002d26:	b2c9      	uxtb	r1, r1
10002d28:	201c      	movs	r0, #28
10002d2a:	f7ff feca 	bl	10002ac2 <nrf24_configRegister>
10002d2e:	201d      	movs	r0, #29
10002d30:	f7ff ffdf 	bl	10002cf2 <nrf24_readRegister1>
10002d34:	2106      	movs	r1, #6
10002d36:	4301      	orrs	r1, r0
10002d38:	b2c9      	uxtb	r1, r1
10002d3a:	201d      	movs	r0, #29
10002d3c:	f7ff fec1 	bl	10002ac2 <nrf24_configRegister>
10002d40:	201c      	movs	r0, #28
10002d42:	f7ff ffd6 	bl	10002cf2 <nrf24_readRegister1>
10002d46:	2103      	movs	r1, #3
10002d48:	4301      	orrs	r1, r0
10002d4a:	b2c9      	uxtb	r1, r1
10002d4c:	201c      	movs	r0, #28
10002d4e:	f7ff feb8 	bl	10002ac2 <nrf24_configRegister>
10002d52:	bd10      	pop	{r4, pc}

10002d54 <nrf24_config>:
10002d54:	b570      	push	{r4, r5, r6, lr}
10002d56:	0006      	movs	r6, r0
10002d58:	000d      	movs	r5, r1
10002d5a:	4b23      	ldr	r3, [pc, #140]	; (10002de8 <nrf24_config+0x94>)
10002d5c:	7019      	strb	r1, [r3, #0]
10002d5e:	21f1      	movs	r1, #241	; 0xf1
10002d60:	2004      	movs	r0, #4
10002d62:	f7ff feae 	bl	10002ac2 <nrf24_configRegister>
10002d66:	2102      	movs	r1, #2
10002d68:	2003      	movs	r0, #3
10002d6a:	f7ff feaa 	bl	10002ac2 <nrf24_configRegister>
10002d6e:	2003      	movs	r0, #3
10002d70:	f7ff feec 	bl	10002b4c <nrf24_set_pa>
10002d74:	201d      	movs	r0, #29
10002d76:	f7ff ffbc 	bl	10002cf2 <nrf24_readRegister1>
10002d7a:	0004      	movs	r4, r0
10002d7c:	f7ff fe4e 	bl	10002a1c <nrf24_toggle_features>
10002d80:	201d      	movs	r0, #29
10002d82:	f7ff ffb6 	bl	10002cf2 <nrf24_readRegister1>
10002d86:	1a24      	subs	r4, r4, r0
10002d88:	4263      	negs	r3, r4
10002d8a:	415c      	adcs	r4, r3
10002d8c:	b2e4      	uxtb	r4, r4
10002d8e:	4a17      	ldr	r2, [pc, #92]	; (10002dec <nrf24_config+0x98>)
10002d90:	7014      	strb	r4, [r2, #0]
10002d92:	2800      	cmp	r0, #0
10002d94:	d005      	beq.n	10002da2 <nrf24_config+0x4e>
10002d96:	2c00      	cmp	r4, #0
10002d98:	d120      	bne.n	10002ddc <nrf24_config+0x88>
10002d9a:	2100      	movs	r1, #0
10002d9c:	201d      	movs	r0, #29
10002d9e:	f7ff fe90 	bl	10002ac2 <nrf24_configRegister>
10002da2:	2001      	movs	r0, #1
10002da4:	f7ff fefc 	bl	10002ba0 <nrf24_setDataRate>
10002da8:	2002      	movs	r0, #2
10002daa:	f7ff ff3b 	bl	10002c24 <nrf24_setCRCLen>
10002dae:	0031      	movs	r1, r6
10002db0:	2005      	movs	r0, #5
10002db2:	f7ff fe86 	bl	10002ac2 <nrf24_configRegister>
10002db6:	f7ff ffa7 	bl	10002d08 <nrf24_enable_ack_payload>
10002dba:	213f      	movs	r1, #63	; 0x3f
10002dbc:	2001      	movs	r0, #1
10002dbe:	f7ff fe80 	bl	10002ac2 <nrf24_configRegister>
10002dc2:	2170      	movs	r1, #112	; 0x70
10002dc4:	2007      	movs	r0, #7
10002dc6:	f7ff fe7c 	bl	10002ac2 <nrf24_configRegister>
10002dca:	f7ff fe1c 	bl	10002a06 <nrf24_flush_rx>
10002dce:	f7ff fe0f 	bl	100029f0 <nrf24_flush_tx>
10002dd2:	2d00      	cmp	r5, #0
10002dd4:	d005      	beq.n	10002de2 <nrf24_config+0x8e>
10002dd6:	f7ff ff6e 	bl	10002cb6 <nrf24_powerUpTx>
10002dda:	bd70      	pop	{r4, r5, r6, pc}
10002ddc:	f7ff fe1e 	bl	10002a1c <nrf24_toggle_features>
10002de0:	e7db      	b.n	10002d9a <nrf24_config+0x46>
10002de2:	f7ff ff46 	bl	10002c72 <nrf24_powerUpRx>
10002de6:	e7f8      	b.n	10002dda <nrf24_config+0x86>
10002de8:	20002612 	.word	0x20002612
10002dec:	2000261a 	.word	0x2000261a

10002df0 <nrf24_writeRegister>:
10002df0:	b570      	push	{r4, r5, r6, lr}
10002df2:	0006      	movs	r6, r0
10002df4:	000c      	movs	r4, r1
10002df6:	0015      	movs	r5, r2
10002df8:	2000      	movs	r0, #0
10002dfa:	f7fe f953 	bl	100010a4 <nrf24_csn_digitalWrite>
10002dfe:	201f      	movs	r0, #31
10002e00:	4030      	ands	r0, r6
10002e02:	2320      	movs	r3, #32
10002e04:	4318      	orrs	r0, r3
10002e06:	b2c0      	uxtb	r0, r0
10002e08:	f001 fb96 	bl	10004538 <spi_transfer>
10002e0c:	0029      	movs	r1, r5
10002e0e:	0020      	movs	r0, r4
10002e10:	f7ff fe4a 	bl	10002aa8 <nrf24_transmitSync>
10002e14:	2001      	movs	r0, #1
10002e16:	f7fe f945 	bl	100010a4 <nrf24_csn_digitalWrite>
10002e1a:	bd70      	pop	{r4, r5, r6, pc}

10002e1c <nrf24_rx_address>:
10002e1c:	b510      	push	{r4, lr}
10002e1e:	0004      	movs	r4, r0
10002e20:	2000      	movs	r0, #0
10002e22:	f7fe f939 	bl	10001098 <nrf24_ce_digitalWrite>
10002e26:	2204      	movs	r2, #4
10002e28:	0021      	movs	r1, r4
10002e2a:	200b      	movs	r0, #11
10002e2c:	f7ff ffe0 	bl	10002df0 <nrf24_writeRegister>
10002e30:	2103      	movs	r1, #3
10002e32:	2002      	movs	r0, #2
10002e34:	f7ff fe45 	bl	10002ac2 <nrf24_configRegister>
10002e38:	2001      	movs	r0, #1
10002e3a:	f7fe f92d 	bl	10001098 <nrf24_ce_digitalWrite>
10002e3e:	bd10      	pop	{r4, pc}

10002e40 <nrf24_tx_address>:
10002e40:	b510      	push	{r4, lr}
10002e42:	0004      	movs	r4, r0
10002e44:	2204      	movs	r2, #4
10002e46:	0001      	movs	r1, r0
10002e48:	200a      	movs	r0, #10
10002e4a:	f7ff ffd1 	bl	10002df0 <nrf24_writeRegister>
10002e4e:	2204      	movs	r2, #4
10002e50:	0021      	movs	r1, r4
10002e52:	2010      	movs	r0, #16
10002e54:	f7ff ffcc 	bl	10002df0 <nrf24_writeRegister>
10002e58:	bd10      	pop	{r4, pc}

10002e5a <nrf24_writeAckPayload>:
10002e5a:	b570      	push	{r4, r5, r6, lr}
10002e5c:	0004      	movs	r4, r0
10002e5e:	000d      	movs	r5, r1
10002e60:	2000      	movs	r0, #0
10002e62:	f7fe f91f 	bl	100010a4 <nrf24_csn_digitalWrite>
10002e66:	20a9      	movs	r0, #169	; 0xa9
10002e68:	f001 fb66 	bl	10004538 <spi_transfer>
10002e6c:	0029      	movs	r1, r5
10002e6e:	0020      	movs	r0, r4
10002e70:	f7ff fe1a 	bl	10002aa8 <nrf24_transmitSync>
10002e74:	2001      	movs	r0, #1
10002e76:	f7fe f915 	bl	100010a4 <nrf24_csn_digitalWrite>
10002e7a:	bd70      	pop	{r4, r5, r6, pc}

10002e7c <dmp_load_motion_driver_firmware>:
10002e7c:	b510      	push	{r4, lr}
10002e7e:	2280      	movs	r2, #128	; 0x80
10002e80:	23c8      	movs	r3, #200	; 0xc8
10002e82:	00d2      	lsls	r2, r2, #3
10002e84:	4902      	ldr	r1, [pc, #8]	; (10002e90 <dmp_load_motion_driver_firmware+0x14>)
10002e86:	4803      	ldr	r0, [pc, #12]	; (10002e94 <dmp_load_motion_driver_firmware+0x18>)
10002e88:	f001 f818 	bl	10003ebc <mpu_load_firmware>
10002e8c:	bd10      	pop	{r4, pc}
10002e8e:	46c0      	nop			; (mov r8, r8)
10002e90:	1000bda8 	.word	0x1000bda8
10002e94:	00000bf6 	.word	0x00000bf6

10002e98 <dmp_set_fifo_rate>:
10002e98:	b530      	push	{r4, r5, lr}
10002e9a:	b087      	sub	sp, #28
10002e9c:	0004      	movs	r4, r0
10002e9e:	aa03      	add	r2, sp, #12
10002ea0:	4b15      	ldr	r3, [pc, #84]	; (10002ef8 <dmp_set_fifo_rate+0x60>)
10002ea2:	cb23      	ldmia	r3!, {r0, r1, r5}
10002ea4:	c223      	stmia	r2!, {r0, r1, r5}
10002ea6:	2cc8      	cmp	r4, #200	; 0xc8
10002ea8:	d81c      	bhi.n	10002ee4 <dmp_set_fifo_rate+0x4c>
10002eaa:	0021      	movs	r1, r4
10002eac:	20c8      	movs	r0, #200	; 0xc8
10002eae:	f004 fec1 	bl	10007c34 <__wrap___aeabi_idiv>
10002eb2:	b283      	uxth	r3, r0
10002eb4:	3b01      	subs	r3, #1
10002eb6:	b29b      	uxth	r3, r3
10002eb8:	0a1a      	lsrs	r2, r3, #8
10002eba:	4669      	mov	r1, sp
10002ebc:	710a      	strb	r2, [r1, #4]
10002ebe:	714b      	strb	r3, [r1, #5]
10002ec0:	aa01      	add	r2, sp, #4
10002ec2:	2102      	movs	r1, #2
10002ec4:	480d      	ldr	r0, [pc, #52]	; (10002efc <dmp_set_fifo_rate+0x64>)
10002ec6:	f000 ff7d 	bl	10003dc4 <mpu_write_mem>
10002eca:	2800      	cmp	r0, #0
10002ecc:	d10d      	bne.n	10002eea <dmp_set_fifo_rate+0x52>
10002ece:	aa03      	add	r2, sp, #12
10002ed0:	210c      	movs	r1, #12
10002ed2:	480b      	ldr	r0, [pc, #44]	; (10002f00 <dmp_set_fifo_rate+0x68>)
10002ed4:	f000 ff76 	bl	10003dc4 <mpu_write_mem>
10002ed8:	2800      	cmp	r0, #0
10002eda:	d109      	bne.n	10002ef0 <dmp_set_fifo_rate+0x58>
10002edc:	4b09      	ldr	r3, [pc, #36]	; (10002f04 <dmp_set_fifo_rate+0x6c>)
10002ede:	819c      	strh	r4, [r3, #12]
10002ee0:	b007      	add	sp, #28
10002ee2:	bd30      	pop	{r4, r5, pc}
10002ee4:	2001      	movs	r0, #1
10002ee6:	4240      	negs	r0, r0
10002ee8:	e7fa      	b.n	10002ee0 <dmp_set_fifo_rate+0x48>
10002eea:	2001      	movs	r0, #1
10002eec:	4240      	negs	r0, r0
10002eee:	e7f7      	b.n	10002ee0 <dmp_set_fifo_rate+0x48>
10002ef0:	2001      	movs	r0, #1
10002ef2:	4240      	negs	r0, r0
10002ef4:	e7f4      	b.n	10002ee0 <dmp_set_fifo_rate+0x48>
10002ef6:	46c0      	nop			; (mov r8, r8)
10002ef8:	1000bd80 	.word	0x1000bd80
10002efc:	00000216 	.word	0x00000216
10002f00:	00000ac1 	.word	0x00000ac1
10002f04:	20001798 	.word	0x20001798

10002f08 <dmp_enable_gyro_cal>:
10002f08:	b510      	push	{r4, lr}
10002f0a:	b084      	sub	sp, #16
10002f0c:	2800      	cmp	r0, #0
10002f0e:	d00d      	beq.n	10002f2c <dmp_enable_gyro_cal+0x24>
10002f10:	aa01      	add	r2, sp, #4
10002f12:	4b0d      	ldr	r3, [pc, #52]	; (10002f48 <dmp_enable_gyro_cal+0x40>)
10002f14:	0011      	movs	r1, r2
10002f16:	cb11      	ldmia	r3!, {r0, r4}
10002f18:	c111      	stmia	r1!, {r0, r4}
10002f1a:	781b      	ldrb	r3, [r3, #0]
10002f1c:	700b      	strb	r3, [r1, #0]
10002f1e:	2097      	movs	r0, #151	; 0x97
10002f20:	2109      	movs	r1, #9
10002f22:	00c0      	lsls	r0, r0, #3
10002f24:	f000 ff4e 	bl	10003dc4 <mpu_write_mem>
10002f28:	b004      	add	sp, #16
10002f2a:	bd10      	pop	{r4, pc}
10002f2c:	aa01      	add	r2, sp, #4
10002f2e:	4b07      	ldr	r3, [pc, #28]	; (10002f4c <dmp_enable_gyro_cal+0x44>)
10002f30:	0011      	movs	r1, r2
10002f32:	cb11      	ldmia	r3!, {r0, r4}
10002f34:	c111      	stmia	r1!, {r0, r4}
10002f36:	781b      	ldrb	r3, [r3, #0]
10002f38:	700b      	strb	r3, [r1, #0]
10002f3a:	2097      	movs	r0, #151	; 0x97
10002f3c:	2109      	movs	r1, #9
10002f3e:	00c0      	lsls	r0, r0, #3
10002f40:	f000 ff40 	bl	10003dc4 <mpu_write_mem>
10002f44:	e7f0      	b.n	10002f28 <dmp_enable_gyro_cal+0x20>
10002f46:	46c0      	nop			; (mov r8, r8)
10002f48:	1000bd90 	.word	0x1000bd90
10002f4c:	1000bd9c 	.word	0x1000bd9c

10002f50 <dmp_enable_lp_quat>:
10002f50:	b500      	push	{lr}
10002f52:	b083      	sub	sp, #12
10002f54:	2800      	cmp	r0, #0
10002f56:	d011      	beq.n	10002f7c <dmp_enable_lp_quat+0x2c>
10002f58:	ab01      	add	r3, sp, #4
10002f5a:	22c0      	movs	r2, #192	; 0xc0
10002f5c:	701a      	strb	r2, [r3, #0]
10002f5e:	3202      	adds	r2, #2
10002f60:	705a      	strb	r2, [r3, #1]
10002f62:	3202      	adds	r2, #2
10002f64:	709a      	strb	r2, [r3, #2]
10002f66:	3202      	adds	r2, #2
10002f68:	70da      	strb	r2, [r3, #3]
10002f6a:	aa01      	add	r2, sp, #4
10002f6c:	2104      	movs	r1, #4
10002f6e:	4805      	ldr	r0, [pc, #20]	; (10002f84 <dmp_enable_lp_quat+0x34>)
10002f70:	f000 ff28 	bl	10003dc4 <mpu_write_mem>
10002f74:	f000 fa00 	bl	10003378 <mpu_reset_fifo>
10002f78:	b003      	add	sp, #12
10002f7a:	bd00      	pop	{pc}
10002f7c:	4b02      	ldr	r3, [pc, #8]	; (10002f88 <dmp_enable_lp_quat+0x38>)
10002f7e:	9301      	str	r3, [sp, #4]
10002f80:	e7f3      	b.n	10002f6a <dmp_enable_lp_quat+0x1a>
10002f82:	46c0      	nop			; (mov r8, r8)
10002f84:	00000a98 	.word	0x00000a98
10002f88:	8b8b8b8b 	.word	0x8b8b8b8b

10002f8c <dmp_enable_6x_lp_quat>:
10002f8c:	b500      	push	{lr}
10002f8e:	b083      	sub	sp, #12
10002f90:	2800      	cmp	r0, #0
10002f92:	d011      	beq.n	10002fb8 <dmp_enable_6x_lp_quat+0x2c>
10002f94:	ab01      	add	r3, sp, #4
10002f96:	2220      	movs	r2, #32
10002f98:	701a      	strb	r2, [r3, #0]
10002f9a:	3208      	adds	r2, #8
10002f9c:	705a      	strb	r2, [r3, #1]
10002f9e:	3208      	adds	r2, #8
10002fa0:	709a      	strb	r2, [r3, #2]
10002fa2:	3208      	adds	r2, #8
10002fa4:	70da      	strb	r2, [r3, #3]
10002fa6:	aa01      	add	r2, sp, #4
10002fa8:	2104      	movs	r1, #4
10002faa:	4805      	ldr	r0, [pc, #20]	; (10002fc0 <dmp_enable_6x_lp_quat+0x34>)
10002fac:	f000 ff0a 	bl	10003dc4 <mpu_write_mem>
10002fb0:	f000 f9e2 	bl	10003378 <mpu_reset_fifo>
10002fb4:	b003      	add	sp, #12
10002fb6:	bd00      	pop	{pc}
10002fb8:	4b02      	ldr	r3, [pc, #8]	; (10002fc4 <dmp_enable_6x_lp_quat+0x38>)
10002fba:	9301      	str	r3, [sp, #4]
10002fbc:	e7f3      	b.n	10002fa6 <dmp_enable_6x_lp_quat+0x1a>
10002fbe:	46c0      	nop			; (mov r8, r8)
10002fc0:	00000a9e 	.word	0x00000a9e
10002fc4:	a3a3a3a3 	.word	0xa3a3a3a3

10002fc8 <dmp_enable_feature>:
10002fc8:	b5f0      	push	{r4, r5, r6, r7, lr}
10002fca:	46c6      	mov	lr, r8
10002fcc:	b500      	push	{lr}
10002fce:	b084      	sub	sp, #16
10002fd0:	0004      	movs	r4, r0
10002fd2:	ad01      	add	r5, sp, #4
10002fd4:	2302      	movs	r3, #2
10002fd6:	702b      	strb	r3, [r5, #0]
10002fd8:	33c8      	adds	r3, #200	; 0xc8
10002fda:	706b      	strb	r3, [r5, #1]
10002fdc:	3319      	adds	r3, #25
10002fde:	70ab      	strb	r3, [r5, #2]
10002fe0:	3bda      	subs	r3, #218	; 0xda
10002fe2:	70eb      	strb	r3, [r5, #3]
10002fe4:	002a      	movs	r2, r5
10002fe6:	2104      	movs	r1, #4
10002fe8:	2068      	movs	r0, #104	; 0x68
10002fea:	f000 feeb 	bl	10003dc4 <mpu_write_mem>
10002fee:	23a3      	movs	r3, #163	; 0xa3
10002ff0:	702b      	strb	r3, [r5, #0]
10002ff2:	3b63      	subs	r3, #99	; 0x63
10002ff4:	001f      	movs	r7, r3
10002ff6:	4027      	ands	r7, r4
10002ff8:	4223      	tst	r3, r4
10002ffa:	d100      	bne.n	10002ffe <dmp_enable_feature+0x36>
10002ffc:	e070      	b.n	100030e0 <dmp_enable_feature+0x118>
10002ffe:	22c0      	movs	r2, #192	; 0xc0
10003000:	706a      	strb	r2, [r5, #1]
10003002:	3208      	adds	r2, #8
10003004:	70aa      	strb	r2, [r5, #2]
10003006:	3a06      	subs	r2, #6
10003008:	70ea      	strb	r2, [r5, #3]
1000300a:	23c0      	movs	r3, #192	; 0xc0
1000300c:	005b      	lsls	r3, r3, #1
1000300e:	0025      	movs	r5, r4
10003010:	401d      	ands	r5, r3
10003012:	421c      	tst	r4, r3
10003014:	d06a      	beq.n	100030ec <dmp_enable_feature+0x124>
10003016:	ab01      	add	r3, sp, #4
10003018:	22c4      	movs	r2, #196	; 0xc4
1000301a:	711a      	strb	r2, [r3, #4]
1000301c:	3208      	adds	r2, #8
1000301e:	715a      	strb	r2, [r3, #5]
10003020:	3a06      	subs	r2, #6
10003022:	719a      	strb	r2, [r3, #6]
10003024:	aa01      	add	r2, sp, #4
10003026:	23a3      	movs	r3, #163	; 0xa3
10003028:	71d3      	strb	r3, [r2, #7]
1000302a:	7213      	strb	r3, [r2, #8]
1000302c:	7253      	strb	r3, [r2, #9]
1000302e:	210a      	movs	r1, #10
10003030:	483e      	ldr	r0, [pc, #248]	; (1000312c <dmp_enable_feature+0x164>)
10003032:	f000 fec7 	bl	10003dc4 <mpu_write_mem>
10003036:	2303      	movs	r3, #3
10003038:	001a      	movs	r2, r3
1000303a:	4022      	ands	r2, r4
1000303c:	4690      	mov	r8, r2
1000303e:	4223      	tst	r3, r4
10003040:	d05a      	beq.n	100030f8 <dmp_enable_feature+0x130>
10003042:	ab01      	add	r3, sp, #4
10003044:	2220      	movs	r2, #32
10003046:	701a      	strb	r2, [r3, #0]
10003048:	aa01      	add	r2, sp, #4
1000304a:	2101      	movs	r1, #1
1000304c:	4838      	ldr	r0, [pc, #224]	; (10003130 <dmp_enable_feature+0x168>)
1000304e:	f000 feb9 	bl	10003dc4 <mpu_write_mem>
10003052:	06a3      	lsls	r3, r4, #26
10003054:	d554      	bpl.n	10003100 <dmp_enable_feature+0x138>
10003056:	2001      	movs	r0, #1
10003058:	f7ff ff56 	bl	10002f08 <dmp_enable_gyro_cal>
1000305c:	2d00      	cmp	r5, #0
1000305e:	d00f      	beq.n	10003080 <dmp_enable_feature+0xb8>
10003060:	05e3      	lsls	r3, r4, #23
10003062:	d551      	bpl.n	10003108 <dmp_enable_feature+0x140>
10003064:	ab01      	add	r3, sp, #4
10003066:	22b2      	movs	r2, #178	; 0xb2
10003068:	701a      	strb	r2, [r3, #0]
1000306a:	3a27      	subs	r2, #39	; 0x27
1000306c:	705a      	strb	r2, [r3, #1]
1000306e:	322b      	adds	r2, #43	; 0x2b
10003070:	709a      	strb	r2, [r3, #2]
10003072:	3a1b      	subs	r2, #27
10003074:	70da      	strb	r2, [r3, #3]
10003076:	aa01      	add	r2, sp, #4
10003078:	2104      	movs	r1, #4
1000307a:	482e      	ldr	r0, [pc, #184]	; (10003134 <dmp_enable_feature+0x16c>)
1000307c:	f000 fea2 	bl	10003dc4 <mpu_write_mem>
10003080:	0763      	lsls	r3, r4, #29
10003082:	d54b      	bpl.n	1000311c <dmp_enable_feature+0x154>
10003084:	2001      	movs	r0, #1
10003086:	f7ff ff63 	bl	10002f50 <dmp_enable_lp_quat>
1000308a:	06e3      	lsls	r3, r4, #27
1000308c:	d54a      	bpl.n	10003124 <dmp_enable_feature+0x15c>
1000308e:	2001      	movs	r0, #1
10003090:	f7ff ff7c 	bl	10002f8c <dmp_enable_6x_lp_quat>
10003094:	4e28      	ldr	r6, [pc, #160]	; (10003138 <dmp_enable_feature+0x170>)
10003096:	2308      	movs	r3, #8
10003098:	4323      	orrs	r3, r4
1000309a:	8173      	strh	r3, [r6, #10]
1000309c:	f000 f96c 	bl	10003378 <mpu_reset_fifo>
100030a0:	2300      	movs	r3, #0
100030a2:	73b3      	strb	r3, [r6, #14]
100030a4:	2f00      	cmp	r7, #0
100030a6:	d002      	beq.n	100030ae <dmp_enable_feature+0xe6>
100030a8:	4b23      	ldr	r3, [pc, #140]	; (10003138 <dmp_enable_feature+0x170>)
100030aa:	2206      	movs	r2, #6
100030ac:	739a      	strb	r2, [r3, #14]
100030ae:	2d00      	cmp	r5, #0
100030b0:	d003      	beq.n	100030ba <dmp_enable_feature+0xf2>
100030b2:	4a21      	ldr	r2, [pc, #132]	; (10003138 <dmp_enable_feature+0x170>)
100030b4:	7b93      	ldrb	r3, [r2, #14]
100030b6:	3306      	adds	r3, #6
100030b8:	7393      	strb	r3, [r2, #14]
100030ba:	2314      	movs	r3, #20
100030bc:	4223      	tst	r3, r4
100030be:	d003      	beq.n	100030c8 <dmp_enable_feature+0x100>
100030c0:	4a1d      	ldr	r2, [pc, #116]	; (10003138 <dmp_enable_feature+0x170>)
100030c2:	7b93      	ldrb	r3, [r2, #14]
100030c4:	3310      	adds	r3, #16
100030c6:	7393      	strb	r3, [r2, #14]
100030c8:	4643      	mov	r3, r8
100030ca:	2b00      	cmp	r3, #0
100030cc:	d003      	beq.n	100030d6 <dmp_enable_feature+0x10e>
100030ce:	4a1a      	ldr	r2, [pc, #104]	; (10003138 <dmp_enable_feature+0x170>)
100030d0:	7b93      	ldrb	r3, [r2, #14]
100030d2:	3304      	adds	r3, #4
100030d4:	7393      	strb	r3, [r2, #14]
100030d6:	2000      	movs	r0, #0
100030d8:	b004      	add	sp, #16
100030da:	bc80      	pop	{r7}
100030dc:	46b8      	mov	r8, r7
100030de:	bdf0      	pop	{r4, r5, r6, r7, pc}
100030e0:	ab01      	add	r3, sp, #4
100030e2:	22a3      	movs	r2, #163	; 0xa3
100030e4:	705a      	strb	r2, [r3, #1]
100030e6:	709a      	strb	r2, [r3, #2]
100030e8:	70da      	strb	r2, [r3, #3]
100030ea:	e78e      	b.n	1000300a <dmp_enable_feature+0x42>
100030ec:	ab01      	add	r3, sp, #4
100030ee:	22a3      	movs	r2, #163	; 0xa3
100030f0:	711a      	strb	r2, [r3, #4]
100030f2:	715a      	strb	r2, [r3, #5]
100030f4:	719a      	strb	r2, [r3, #6]
100030f6:	e795      	b.n	10003024 <dmp_enable_feature+0x5c>
100030f8:	ab01      	add	r3, sp, #4
100030fa:	22d8      	movs	r2, #216	; 0xd8
100030fc:	701a      	strb	r2, [r3, #0]
100030fe:	e7a3      	b.n	10003048 <dmp_enable_feature+0x80>
10003100:	2000      	movs	r0, #0
10003102:	f7ff ff01 	bl	10002f08 <dmp_enable_gyro_cal>
10003106:	e7a9      	b.n	1000305c <dmp_enable_feature+0x94>
10003108:	ab01      	add	r3, sp, #4
1000310a:	22b0      	movs	r2, #176	; 0xb0
1000310c:	701a      	strb	r2, [r3, #0]
1000310e:	3a30      	subs	r2, #48	; 0x30
10003110:	705a      	strb	r2, [r3, #1]
10003112:	3234      	adds	r2, #52	; 0x34
10003114:	709a      	strb	r2, [r3, #2]
10003116:	3a24      	subs	r2, #36	; 0x24
10003118:	70da      	strb	r2, [r3, #3]
1000311a:	e7ac      	b.n	10003076 <dmp_enable_feature+0xae>
1000311c:	2000      	movs	r0, #0
1000311e:	f7ff ff17 	bl	10002f50 <dmp_enable_lp_quat>
10003122:	e7b2      	b.n	1000308a <dmp_enable_feature+0xc2>
10003124:	2000      	movs	r0, #0
10003126:	f7ff ff31 	bl	10002f8c <dmp_enable_6x_lp_quat>
1000312a:	e7b3      	b.n	10003094 <dmp_enable_feature+0xcc>
1000312c:	00000aa7 	.word	0x00000aa7
10003130:	00000ab6 	.word	0x00000ab6
10003134:	00000aa2 	.word	0x00000aa2
10003138:	20001798 	.word	0x20001798

1000313c <dmp_read_fifo>:
1000313c:	b5f0      	push	{r4, r5, r6, r7, lr}
1000313e:	46de      	mov	lr, fp
10003140:	4657      	mov	r7, sl
10003142:	464e      	mov	r6, r9
10003144:	4645      	mov	r5, r8
10003146:	b5e0      	push	{r5, r6, r7, lr}
10003148:	b08f      	sub	sp, #60	; 0x3c
1000314a:	4683      	mov	fp, r0
1000314c:	000e      	movs	r6, r1
1000314e:	0017      	movs	r7, r2
10003150:	9c18      	ldr	r4, [sp, #96]	; 0x60
10003152:	2300      	movs	r3, #0
10003154:	8023      	strh	r3, [r4, #0]
10003156:	4b5c      	ldr	r3, [pc, #368]	; (100032c8 <dmp_read_fifo+0x18c>)
10003158:	7b98      	ldrb	r0, [r3, #14]
1000315a:	9a19      	ldr	r2, [sp, #100]	; 0x64
1000315c:	a906      	add	r1, sp, #24
1000315e:	f000 fb29 	bl	100037b4 <mpu_read_fifo_stream>
10003162:	1e03      	subs	r3, r0, #0
10003164:	d161      	bne.n	1000322a <dmp_read_fifo+0xee>
10003166:	4b58      	ldr	r3, [pc, #352]	; (100032c8 <dmp_read_fifo+0x18c>)
10003168:	8959      	ldrh	r1, [r3, #10]
1000316a:	2314      	movs	r3, #20
1000316c:	420b      	tst	r3, r1
1000316e:	d06e      	beq.n	1000324e <dmp_read_fifo+0x112>
10003170:	aa06      	add	r2, sp, #24
10003172:	7813      	ldrb	r3, [r2, #0]
10003174:	061b      	lsls	r3, r3, #24
10003176:	7855      	ldrb	r5, [r2, #1]
10003178:	042d      	lsls	r5, r5, #16
1000317a:	432b      	orrs	r3, r5
1000317c:	7895      	ldrb	r5, [r2, #2]
1000317e:	022d      	lsls	r5, r5, #8
10003180:	432b      	orrs	r3, r5
10003182:	78d5      	ldrb	r5, [r2, #3]
10003184:	432b      	orrs	r3, r5
10003186:	9301      	str	r3, [sp, #4]
10003188:	603b      	str	r3, [r7, #0]
1000318a:	7915      	ldrb	r5, [r2, #4]
1000318c:	062d      	lsls	r5, r5, #24
1000318e:	46a9      	mov	r9, r5
10003190:	7955      	ldrb	r5, [r2, #5]
10003192:	042d      	lsls	r5, r5, #16
10003194:	46ac      	mov	ip, r5
10003196:	464d      	mov	r5, r9
10003198:	4663      	mov	r3, ip
1000319a:	431d      	orrs	r5, r3
1000319c:	7993      	ldrb	r3, [r2, #6]
1000319e:	021b      	lsls	r3, r3, #8
100031a0:	431d      	orrs	r5, r3
100031a2:	79d3      	ldrb	r3, [r2, #7]
100031a4:	431d      	orrs	r5, r3
100031a6:	46a9      	mov	r9, r5
100031a8:	607d      	str	r5, [r7, #4]
100031aa:	7a13      	ldrb	r3, [r2, #8]
100031ac:	061b      	lsls	r3, r3, #24
100031ae:	4698      	mov	r8, r3
100031b0:	7a53      	ldrb	r3, [r2, #9]
100031b2:	041b      	lsls	r3, r3, #16
100031b4:	4645      	mov	r5, r8
100031b6:	431d      	orrs	r5, r3
100031b8:	7a93      	ldrb	r3, [r2, #10]
100031ba:	021b      	lsls	r3, r3, #8
100031bc:	431d      	orrs	r5, r3
100031be:	7ad3      	ldrb	r3, [r2, #11]
100031c0:	431d      	orrs	r5, r3
100031c2:	46a8      	mov	r8, r5
100031c4:	60bd      	str	r5, [r7, #8]
100031c6:	7b13      	ldrb	r3, [r2, #12]
100031c8:	061b      	lsls	r3, r3, #24
100031ca:	469c      	mov	ip, r3
100031cc:	7b53      	ldrb	r3, [r2, #13]
100031ce:	041b      	lsls	r3, r3, #16
100031d0:	4665      	mov	r5, ip
100031d2:	431d      	orrs	r5, r3
100031d4:	7b93      	ldrb	r3, [r2, #14]
100031d6:	021b      	lsls	r3, r3, #8
100031d8:	431d      	orrs	r5, r3
100031da:	7bd2      	ldrb	r2, [r2, #15]
100031dc:	432a      	orrs	r2, r5
100031de:	60fa      	str	r2, [r7, #12]
100031e0:	9b01      	ldr	r3, [sp, #4]
100031e2:	141b      	asrs	r3, r3, #16
100031e4:	9302      	str	r3, [sp, #8]
100031e6:	464d      	mov	r5, r9
100031e8:	142d      	asrs	r5, r5, #16
100031ea:	46a9      	mov	r9, r5
100031ec:	9503      	str	r5, [sp, #12]
100031ee:	4645      	mov	r5, r8
100031f0:	142d      	asrs	r5, r5, #16
100031f2:	9504      	str	r5, [sp, #16]
100031f4:	1417      	asrs	r7, r2, #16
100031f6:	9705      	str	r7, [sp, #20]
100031f8:	435b      	muls	r3, r3
100031fa:	464a      	mov	r2, r9
100031fc:	4352      	muls	r2, r2
100031fe:	189a      	adds	r2, r3, r2
10003200:	002b      	movs	r3, r5
10003202:	436b      	muls	r3, r5
10003204:	4698      	mov	r8, r3
10003206:	4442      	add	r2, r8
10003208:	437f      	muls	r7, r7
1000320a:	19d2      	adds	r2, r2, r7
1000320c:	23f1      	movs	r3, #241	; 0xf1
1000320e:	061b      	lsls	r3, r3, #24
10003210:	469c      	mov	ip, r3
10003212:	4462      	add	r2, ip
10003214:	2380      	movs	r3, #128	; 0x80
10003216:	049b      	lsls	r3, r3, #18
10003218:	429a      	cmp	r2, r3
1000321a:	d811      	bhi.n	10003240 <dmp_read_fifo+0x104>
1000321c:	8822      	ldrh	r2, [r4, #0]
1000321e:	2380      	movs	r3, #128	; 0x80
10003220:	005b      	lsls	r3, r3, #1
10003222:	4313      	orrs	r3, r2
10003224:	8023      	strh	r3, [r4, #0]
10003226:	2310      	movs	r3, #16
10003228:	e012      	b.n	10003250 <dmp_read_fifo+0x114>
1000322a:	0080      	lsls	r0, r0, #2
1000322c:	1818      	adds	r0, r3, r0
1000322e:	0040      	lsls	r0, r0, #1
10003230:	b240      	sxtb	r0, r0
10003232:	b00f      	add	sp, #60	; 0x3c
10003234:	bcf0      	pop	{r4, r5, r6, r7}
10003236:	46bb      	mov	fp, r7
10003238:	46b2      	mov	sl, r6
1000323a:	46a9      	mov	r9, r5
1000323c:	46a0      	mov	r8, r4
1000323e:	bdf0      	pop	{r4, r5, r6, r7, pc}
10003240:	f000 f89a 	bl	10003378 <mpu_reset_fifo>
10003244:	2300      	movs	r3, #0
10003246:	8023      	strh	r3, [r4, #0]
10003248:	2002      	movs	r0, #2
1000324a:	4240      	negs	r0, r0
1000324c:	e7f1      	b.n	10003232 <dmp_read_fifo+0xf6>
1000324e:	2300      	movs	r3, #0
10003250:	064a      	lsls	r2, r1, #25
10003252:	d51a      	bpl.n	1000328a <dmp_read_fifo+0x14e>
10003254:	aa06      	add	r2, sp, #24
10003256:	5cd7      	ldrb	r7, [r2, r3]
10003258:	023d      	lsls	r5, r7, #8
1000325a:	1c5f      	adds	r7, r3, #1
1000325c:	5dd7      	ldrb	r7, [r2, r7]
1000325e:	432f      	orrs	r7, r5
10003260:	8037      	strh	r7, [r6, #0]
10003262:	1c9f      	adds	r7, r3, #2
10003264:	5dd7      	ldrb	r7, [r2, r7]
10003266:	023d      	lsls	r5, r7, #8
10003268:	1cdf      	adds	r7, r3, #3
1000326a:	5dd7      	ldrb	r7, [r2, r7]
1000326c:	432f      	orrs	r7, r5
1000326e:	8077      	strh	r7, [r6, #2]
10003270:	1d1f      	adds	r7, r3, #4
10003272:	5dd7      	ldrb	r7, [r2, r7]
10003274:	023f      	lsls	r7, r7, #8
10003276:	1d5d      	adds	r5, r3, #5
10003278:	5d52      	ldrb	r2, [r2, r5]
1000327a:	433a      	orrs	r2, r7
1000327c:	80b2      	strh	r2, [r6, #4]
1000327e:	3306      	adds	r3, #6
10003280:	b2db      	uxtb	r3, r3
10003282:	8822      	ldrh	r2, [r4, #0]
10003284:	2608      	movs	r6, #8
10003286:	4332      	orrs	r2, r6
10003288:	8022      	strh	r2, [r4, #0]
1000328a:	22c0      	movs	r2, #192	; 0xc0
1000328c:	0052      	lsls	r2, r2, #1
1000328e:	4211      	tst	r1, r2
10003290:	d0cf      	beq.n	10003232 <dmp_read_fifo+0xf6>
10003292:	aa06      	add	r2, sp, #24
10003294:	5cd6      	ldrb	r6, [r2, r3]
10003296:	0236      	lsls	r6, r6, #8
10003298:	1c59      	adds	r1, r3, #1
1000329a:	5c51      	ldrb	r1, [r2, r1]
1000329c:	4331      	orrs	r1, r6
1000329e:	465d      	mov	r5, fp
100032a0:	8029      	strh	r1, [r5, #0]
100032a2:	1c99      	adds	r1, r3, #2
100032a4:	5c56      	ldrb	r6, [r2, r1]
100032a6:	0236      	lsls	r6, r6, #8
100032a8:	1cd9      	adds	r1, r3, #3
100032aa:	5c51      	ldrb	r1, [r2, r1]
100032ac:	4331      	orrs	r1, r6
100032ae:	8069      	strh	r1, [r5, #2]
100032b0:	1d19      	adds	r1, r3, #4
100032b2:	5c51      	ldrb	r1, [r2, r1]
100032b4:	0209      	lsls	r1, r1, #8
100032b6:	3305      	adds	r3, #5
100032b8:	5cd3      	ldrb	r3, [r2, r3]
100032ba:	430b      	orrs	r3, r1
100032bc:	80ab      	strh	r3, [r5, #4]
100032be:	8823      	ldrh	r3, [r4, #0]
100032c0:	2270      	movs	r2, #112	; 0x70
100032c2:	4313      	orrs	r3, r2
100032c4:	8023      	strh	r3, [r4, #0]
100032c6:	e7b4      	b.n	10003232 <dmp_read_fifo+0xf6>
100032c8:	20001798 	.word	0x20001798

100032cc <set_int_enable>:
100032cc:	b500      	push	{lr}
100032ce:	b083      	sub	sp, #12
100032d0:	4a28      	ldr	r2, [pc, #160]	; (10003374 <set_int_enable+0xa8>)
100032d2:	2324      	movs	r3, #36	; 0x24
100032d4:	5cd3      	ldrb	r3, [r2, r3]
100032d6:	2b00      	cmp	r3, #0
100032d8:	d01b      	beq.n	10003312 <set_int_enable+0x46>
100032da:	2800      	cmp	r0, #0
100032dc:	d015      	beq.n	1000330a <set_int_enable+0x3e>
100032de:	466b      	mov	r3, sp
100032e0:	2202      	movs	r2, #2
100032e2:	71da      	strb	r2, [r3, #7]
100032e4:	4b23      	ldr	r3, [pc, #140]	; (10003374 <set_int_enable+0xa8>)
100032e6:	685a      	ldr	r2, [r3, #4]
100032e8:	681b      	ldr	r3, [r3, #0]
100032ea:	7c59      	ldrb	r1, [r3, #17]
100032ec:	7810      	ldrb	r0, [r2, #0]
100032ee:	466b      	mov	r3, sp
100032f0:	3307      	adds	r3, #7
100032f2:	2201      	movs	r2, #1
100032f4:	f7ff fb43 	bl	1000297e <twi_writeToPointer>
100032f8:	2800      	cmp	r0, #0
100032fa:	d02f      	beq.n	1000335c <set_int_enable+0x90>
100032fc:	466b      	mov	r3, sp
100032fe:	79da      	ldrb	r2, [r3, #7]
10003300:	4b1c      	ldr	r3, [pc, #112]	; (10003374 <set_int_enable+0xa8>)
10003302:	745a      	strb	r2, [r3, #17]
10003304:	2000      	movs	r0, #0
10003306:	b003      	add	sp, #12
10003308:	bd00      	pop	{pc}
1000330a:	466b      	mov	r3, sp
1000330c:	2200      	movs	r2, #0
1000330e:	71da      	strb	r2, [r3, #7]
10003310:	e7e8      	b.n	100032e4 <set_int_enable+0x18>
10003312:	4b18      	ldr	r3, [pc, #96]	; (10003374 <set_int_enable+0xa8>)
10003314:	7a9b      	ldrb	r3, [r3, #10]
10003316:	2b00      	cmp	r3, #0
10003318:	d023      	beq.n	10003362 <set_int_enable+0x96>
1000331a:	2800      	cmp	r0, #0
1000331c:	d003      	beq.n	10003326 <set_int_enable+0x5a>
1000331e:	4b15      	ldr	r3, [pc, #84]	; (10003374 <set_int_enable+0xa8>)
10003320:	7c5b      	ldrb	r3, [r3, #17]
10003322:	2b00      	cmp	r3, #0
10003324:	d120      	bne.n	10003368 <set_int_enable+0x9c>
10003326:	2800      	cmp	r0, #0
10003328:	d014      	beq.n	10003354 <set_int_enable+0x88>
1000332a:	466b      	mov	r3, sp
1000332c:	2201      	movs	r2, #1
1000332e:	71da      	strb	r2, [r3, #7]
10003330:	4b10      	ldr	r3, [pc, #64]	; (10003374 <set_int_enable+0xa8>)
10003332:	685a      	ldr	r2, [r3, #4]
10003334:	681b      	ldr	r3, [r3, #0]
10003336:	7c59      	ldrb	r1, [r3, #17]
10003338:	7810      	ldrb	r0, [r2, #0]
1000333a:	466b      	mov	r3, sp
1000333c:	3307      	adds	r3, #7
1000333e:	2201      	movs	r2, #1
10003340:	f7ff fb1d 	bl	1000297e <twi_writeToPointer>
10003344:	2800      	cmp	r0, #0
10003346:	d011      	beq.n	1000336c <set_int_enable+0xa0>
10003348:	466b      	mov	r3, sp
1000334a:	79da      	ldrb	r2, [r3, #7]
1000334c:	4b09      	ldr	r3, [pc, #36]	; (10003374 <set_int_enable+0xa8>)
1000334e:	745a      	strb	r2, [r3, #17]
10003350:	2000      	movs	r0, #0
10003352:	e7d8      	b.n	10003306 <set_int_enable+0x3a>
10003354:	466b      	mov	r3, sp
10003356:	2200      	movs	r2, #0
10003358:	71da      	strb	r2, [r3, #7]
1000335a:	e7e9      	b.n	10003330 <set_int_enable+0x64>
1000335c:	2001      	movs	r0, #1
1000335e:	4240      	negs	r0, r0
10003360:	e7d1      	b.n	10003306 <set_int_enable+0x3a>
10003362:	2001      	movs	r0, #1
10003364:	4240      	negs	r0, r0
10003366:	e7ce      	b.n	10003306 <set_int_enable+0x3a>
10003368:	2000      	movs	r0, #0
1000336a:	e7cc      	b.n	10003306 <set_int_enable+0x3a>
1000336c:	2001      	movs	r0, #1
1000336e:	4240      	negs	r0, r0
10003370:	e7c9      	b.n	10003306 <set_int_enable+0x3a>
10003372:	46c0      	nop			; (mov r8, r8)
10003374:	20000a80 	.word	0x20000a80

10003378 <mpu_reset_fifo>:
10003378:	b500      	push	{lr}
1000337a:	b083      	sub	sp, #12
1000337c:	4b7c      	ldr	r3, [pc, #496]	; (10003570 <mpu_reset_fifo+0x1f8>)
1000337e:	7a9b      	ldrb	r3, [r3, #10]
10003380:	2b00      	cmp	r3, #0
10003382:	d100      	bne.n	10003386 <mpu_reset_fifo+0xe>
10003384:	e0d0      	b.n	10003528 <mpu_reset_fifo+0x1b0>
10003386:	466b      	mov	r3, sp
10003388:	3307      	adds	r3, #7
1000338a:	2200      	movs	r2, #0
1000338c:	701a      	strb	r2, [r3, #0]
1000338e:	4a78      	ldr	r2, [pc, #480]	; (10003570 <mpu_reset_fifo+0x1f8>)
10003390:	6850      	ldr	r0, [r2, #4]
10003392:	6812      	ldr	r2, [r2, #0]
10003394:	7c51      	ldrb	r1, [r2, #17]
10003396:	7800      	ldrb	r0, [r0, #0]
10003398:	2201      	movs	r2, #1
1000339a:	f7ff faf0 	bl	1000297e <twi_writeToPointer>
1000339e:	2800      	cmp	r0, #0
100033a0:	d100      	bne.n	100033a4 <mpu_reset_fifo+0x2c>
100033a2:	e0c4      	b.n	1000352e <mpu_reset_fifo+0x1b6>
100033a4:	4b72      	ldr	r3, [pc, #456]	; (10003570 <mpu_reset_fifo+0x1f8>)
100033a6:	685a      	ldr	r2, [r3, #4]
100033a8:	681b      	ldr	r3, [r3, #0]
100033aa:	7959      	ldrb	r1, [r3, #5]
100033ac:	7810      	ldrb	r0, [r2, #0]
100033ae:	466b      	mov	r3, sp
100033b0:	3307      	adds	r3, #7
100033b2:	2201      	movs	r2, #1
100033b4:	f7ff fae3 	bl	1000297e <twi_writeToPointer>
100033b8:	2800      	cmp	r0, #0
100033ba:	d100      	bne.n	100033be <mpu_reset_fifo+0x46>
100033bc:	e0ba      	b.n	10003534 <mpu_reset_fifo+0x1bc>
100033be:	4b6c      	ldr	r3, [pc, #432]	; (10003570 <mpu_reset_fifo+0x1f8>)
100033c0:	685a      	ldr	r2, [r3, #4]
100033c2:	681b      	ldr	r3, [r3, #0]
100033c4:	7919      	ldrb	r1, [r3, #4]
100033c6:	7810      	ldrb	r0, [r2, #0]
100033c8:	466b      	mov	r3, sp
100033ca:	3307      	adds	r3, #7
100033cc:	2201      	movs	r2, #1
100033ce:	f7ff fad6 	bl	1000297e <twi_writeToPointer>
100033d2:	2800      	cmp	r0, #0
100033d4:	d100      	bne.n	100033d8 <mpu_reset_fifo+0x60>
100033d6:	e0b0      	b.n	1000353a <mpu_reset_fifo+0x1c2>
100033d8:	4a65      	ldr	r2, [pc, #404]	; (10003570 <mpu_reset_fifo+0x1f8>)
100033da:	2324      	movs	r3, #36	; 0x24
100033dc:	5cd3      	ldrb	r3, [r2, r3]
100033de:	2b00      	cmp	r3, #0
100033e0:	d052      	beq.n	10003488 <mpu_reset_fifo+0x110>
100033e2:	466b      	mov	r3, sp
100033e4:	3307      	adds	r3, #7
100033e6:	220c      	movs	r2, #12
100033e8:	701a      	strb	r2, [r3, #0]
100033ea:	4a61      	ldr	r2, [pc, #388]	; (10003570 <mpu_reset_fifo+0x1f8>)
100033ec:	6850      	ldr	r0, [r2, #4]
100033ee:	6812      	ldr	r2, [r2, #0]
100033f0:	7911      	ldrb	r1, [r2, #4]
100033f2:	7800      	ldrb	r0, [r0, #0]
100033f4:	2201      	movs	r2, #1
100033f6:	f7ff fac2 	bl	1000297e <twi_writeToPointer>
100033fa:	2800      	cmp	r0, #0
100033fc:	d100      	bne.n	10003400 <mpu_reset_fifo+0x88>
100033fe:	e09f      	b.n	10003540 <mpu_reset_fifo+0x1c8>
10003400:	2032      	movs	r0, #50	; 0x32
10003402:	f001 f85b 	bl	100044bc <_delay_ms>
10003406:	466b      	mov	r3, sp
10003408:	22c0      	movs	r2, #192	; 0xc0
1000340a:	71da      	strb	r2, [r3, #7]
1000340c:	4b58      	ldr	r3, [pc, #352]	; (10003570 <mpu_reset_fifo+0x1f8>)
1000340e:	7a9b      	ldrb	r3, [r3, #10]
10003410:	07db      	lsls	r3, r3, #31
10003412:	d502      	bpl.n	1000341a <mpu_reset_fifo+0xa2>
10003414:	466b      	mov	r3, sp
10003416:	3220      	adds	r2, #32
10003418:	71da      	strb	r2, [r3, #7]
1000341a:	4b55      	ldr	r3, [pc, #340]	; (10003570 <mpu_reset_fifo+0x1f8>)
1000341c:	685a      	ldr	r2, [r3, #4]
1000341e:	681b      	ldr	r3, [r3, #0]
10003420:	7919      	ldrb	r1, [r3, #4]
10003422:	7810      	ldrb	r0, [r2, #0]
10003424:	466b      	mov	r3, sp
10003426:	3307      	adds	r3, #7
10003428:	2201      	movs	r2, #1
1000342a:	f7ff faa8 	bl	1000297e <twi_writeToPointer>
1000342e:	2800      	cmp	r0, #0
10003430:	d100      	bne.n	10003434 <mpu_reset_fifo+0xbc>
10003432:	e088      	b.n	10003546 <mpu_reset_fifo+0x1ce>
10003434:	4b4e      	ldr	r3, [pc, #312]	; (10003570 <mpu_reset_fifo+0x1f8>)
10003436:	7c5b      	ldrb	r3, [r3, #17]
10003438:	2b00      	cmp	r3, #0
1000343a:	d021      	beq.n	10003480 <mpu_reset_fifo+0x108>
1000343c:	466b      	mov	r3, sp
1000343e:	2202      	movs	r2, #2
10003440:	71da      	strb	r2, [r3, #7]
10003442:	4b4b      	ldr	r3, [pc, #300]	; (10003570 <mpu_reset_fifo+0x1f8>)
10003444:	685a      	ldr	r2, [r3, #4]
10003446:	681b      	ldr	r3, [r3, #0]
10003448:	7c59      	ldrb	r1, [r3, #17]
1000344a:	7810      	ldrb	r0, [r2, #0]
1000344c:	466b      	mov	r3, sp
1000344e:	3307      	adds	r3, #7
10003450:	2201      	movs	r2, #1
10003452:	f7ff fa94 	bl	1000297e <twi_writeToPointer>
10003456:	2800      	cmp	r0, #0
10003458:	d100      	bne.n	1000345c <mpu_reset_fifo+0xe4>
1000345a:	e077      	b.n	1000354c <mpu_reset_fifo+0x1d4>
1000345c:	466b      	mov	r3, sp
1000345e:	3307      	adds	r3, #7
10003460:	2200      	movs	r2, #0
10003462:	701a      	strb	r2, [r3, #0]
10003464:	4a42      	ldr	r2, [pc, #264]	; (10003570 <mpu_reset_fifo+0x1f8>)
10003466:	6850      	ldr	r0, [r2, #4]
10003468:	6812      	ldr	r2, [r2, #0]
1000346a:	7951      	ldrb	r1, [r2, #5]
1000346c:	7800      	ldrb	r0, [r0, #0]
1000346e:	2201      	movs	r2, #1
10003470:	f7ff fa85 	bl	1000297e <twi_writeToPointer>
10003474:	2800      	cmp	r0, #0
10003476:	d100      	bne.n	1000347a <mpu_reset_fifo+0x102>
10003478:	e06b      	b.n	10003552 <mpu_reset_fifo+0x1da>
1000347a:	2000      	movs	r0, #0
1000347c:	b003      	add	sp, #12
1000347e:	bd00      	pop	{pc}
10003480:	466b      	mov	r3, sp
10003482:	2200      	movs	r2, #0
10003484:	71da      	strb	r2, [r3, #7]
10003486:	e7dc      	b.n	10003442 <mpu_reset_fifo+0xca>
10003488:	466b      	mov	r3, sp
1000348a:	3307      	adds	r3, #7
1000348c:	2204      	movs	r2, #4
1000348e:	701a      	strb	r2, [r3, #0]
10003490:	4a37      	ldr	r2, [pc, #220]	; (10003570 <mpu_reset_fifo+0x1f8>)
10003492:	6850      	ldr	r0, [r2, #4]
10003494:	6812      	ldr	r2, [r2, #0]
10003496:	7911      	ldrb	r1, [r2, #4]
10003498:	7800      	ldrb	r0, [r0, #0]
1000349a:	2201      	movs	r2, #1
1000349c:	f7ff fa6f 	bl	1000297e <twi_writeToPointer>
100034a0:	2800      	cmp	r0, #0
100034a2:	d059      	beq.n	10003558 <mpu_reset_fifo+0x1e0>
100034a4:	4b32      	ldr	r3, [pc, #200]	; (10003570 <mpu_reset_fifo+0x1f8>)
100034a6:	7c9b      	ldrb	r3, [r3, #18]
100034a8:	2b00      	cmp	r3, #0
100034aa:	d103      	bne.n	100034b4 <mpu_reset_fifo+0x13c>
100034ac:	4b30      	ldr	r3, [pc, #192]	; (10003570 <mpu_reset_fifo+0x1f8>)
100034ae:	7a9b      	ldrb	r3, [r3, #10]
100034b0:	07db      	lsls	r3, r3, #31
100034b2:	d431      	bmi.n	10003518 <mpu_reset_fifo+0x1a0>
100034b4:	466b      	mov	r3, sp
100034b6:	2240      	movs	r2, #64	; 0x40
100034b8:	71da      	strb	r2, [r3, #7]
100034ba:	4b2d      	ldr	r3, [pc, #180]	; (10003570 <mpu_reset_fifo+0x1f8>)
100034bc:	685a      	ldr	r2, [r3, #4]
100034be:	681b      	ldr	r3, [r3, #0]
100034c0:	7919      	ldrb	r1, [r3, #4]
100034c2:	7810      	ldrb	r0, [r2, #0]
100034c4:	466b      	mov	r3, sp
100034c6:	3307      	adds	r3, #7
100034c8:	2201      	movs	r2, #1
100034ca:	f7ff fa58 	bl	1000297e <twi_writeToPointer>
100034ce:	2800      	cmp	r0, #0
100034d0:	d045      	beq.n	1000355e <mpu_reset_fifo+0x1e6>
100034d2:	2032      	movs	r0, #50	; 0x32
100034d4:	f000 fff2 	bl	100044bc <_delay_ms>
100034d8:	4b25      	ldr	r3, [pc, #148]	; (10003570 <mpu_reset_fifo+0x1f8>)
100034da:	7c5b      	ldrb	r3, [r3, #17]
100034dc:	2b00      	cmp	r3, #0
100034de:	d01f      	beq.n	10003520 <mpu_reset_fifo+0x1a8>
100034e0:	466b      	mov	r3, sp
100034e2:	2201      	movs	r2, #1
100034e4:	71da      	strb	r2, [r3, #7]
100034e6:	4b22      	ldr	r3, [pc, #136]	; (10003570 <mpu_reset_fifo+0x1f8>)
100034e8:	685a      	ldr	r2, [r3, #4]
100034ea:	681b      	ldr	r3, [r3, #0]
100034ec:	7c59      	ldrb	r1, [r3, #17]
100034ee:	7810      	ldrb	r0, [r2, #0]
100034f0:	466b      	mov	r3, sp
100034f2:	3307      	adds	r3, #7
100034f4:	2201      	movs	r2, #1
100034f6:	f7ff fa42 	bl	1000297e <twi_writeToPointer>
100034fa:	2800      	cmp	r0, #0
100034fc:	d032      	beq.n	10003564 <mpu_reset_fifo+0x1ec>
100034fe:	4b1c      	ldr	r3, [pc, #112]	; (10003570 <mpu_reset_fifo+0x1f8>)
10003500:	685a      	ldr	r2, [r3, #4]
10003502:	6819      	ldr	r1, [r3, #0]
10003504:	3310      	adds	r3, #16
10003506:	7949      	ldrb	r1, [r1, #5]
10003508:	7810      	ldrb	r0, [r2, #0]
1000350a:	2201      	movs	r2, #1
1000350c:	f7ff fa37 	bl	1000297e <twi_writeToPointer>
10003510:	2800      	cmp	r0, #0
10003512:	d02a      	beq.n	1000356a <mpu_reset_fifo+0x1f2>
10003514:	2000      	movs	r0, #0
10003516:	e7b1      	b.n	1000347c <mpu_reset_fifo+0x104>
10003518:	466b      	mov	r3, sp
1000351a:	2260      	movs	r2, #96	; 0x60
1000351c:	71da      	strb	r2, [r3, #7]
1000351e:	e7cc      	b.n	100034ba <mpu_reset_fifo+0x142>
10003520:	466b      	mov	r3, sp
10003522:	2200      	movs	r2, #0
10003524:	71da      	strb	r2, [r3, #7]
10003526:	e7de      	b.n	100034e6 <mpu_reset_fifo+0x16e>
10003528:	2001      	movs	r0, #1
1000352a:	4240      	negs	r0, r0
1000352c:	e7a6      	b.n	1000347c <mpu_reset_fifo+0x104>
1000352e:	2001      	movs	r0, #1
10003530:	4240      	negs	r0, r0
10003532:	e7a3      	b.n	1000347c <mpu_reset_fifo+0x104>
10003534:	2001      	movs	r0, #1
10003536:	4240      	negs	r0, r0
10003538:	e7a0      	b.n	1000347c <mpu_reset_fifo+0x104>
1000353a:	2001      	movs	r0, #1
1000353c:	4240      	negs	r0, r0
1000353e:	e79d      	b.n	1000347c <mpu_reset_fifo+0x104>
10003540:	2001      	movs	r0, #1
10003542:	4240      	negs	r0, r0
10003544:	e79a      	b.n	1000347c <mpu_reset_fifo+0x104>
10003546:	2001      	movs	r0, #1
10003548:	4240      	negs	r0, r0
1000354a:	e797      	b.n	1000347c <mpu_reset_fifo+0x104>
1000354c:	2001      	movs	r0, #1
1000354e:	4240      	negs	r0, r0
10003550:	e794      	b.n	1000347c <mpu_reset_fifo+0x104>
10003552:	2001      	movs	r0, #1
10003554:	4240      	negs	r0, r0
10003556:	e791      	b.n	1000347c <mpu_reset_fifo+0x104>
10003558:	2001      	movs	r0, #1
1000355a:	4240      	negs	r0, r0
1000355c:	e78e      	b.n	1000347c <mpu_reset_fifo+0x104>
1000355e:	2001      	movs	r0, #1
10003560:	4240      	negs	r0, r0
10003562:	e78b      	b.n	1000347c <mpu_reset_fifo+0x104>
10003564:	2001      	movs	r0, #1
10003566:	4240      	negs	r0, r0
10003568:	e788      	b.n	1000347c <mpu_reset_fifo+0x104>
1000356a:	2001      	movs	r0, #1
1000356c:	4240      	negs	r0, r0
1000356e:	e785      	b.n	1000347c <mpu_reset_fifo+0x104>
10003570:	20000a80 	.word	0x20000a80

10003574 <mpu_set_gyro_fsr>:
10003574:	b500      	push	{lr}
10003576:	b083      	sub	sp, #12
10003578:	4b26      	ldr	r3, [pc, #152]	; (10003614 <mpu_set_gyro_fsr+0xa0>)
1000357a:	7a9b      	ldrb	r3, [r3, #10]
1000357c:	2b00      	cmp	r3, #0
1000357e:	d040      	beq.n	10003602 <mpu_set_gyro_fsr+0x8e>
10003580:	23fa      	movs	r3, #250	; 0xfa
10003582:	009b      	lsls	r3, r3, #2
10003584:	4298      	cmp	r0, r3
10003586:	d038      	beq.n	100035fa <mpu_set_gyro_fsr+0x86>
10003588:	d80c      	bhi.n	100035a4 <mpu_set_gyro_fsr+0x30>
1000358a:	28fa      	cmp	r0, #250	; 0xfa
1000358c:	d015      	beq.n	100035ba <mpu_set_gyro_fsr+0x46>
1000358e:	3bf5      	subs	r3, #245	; 0xf5
10003590:	3bff      	subs	r3, #255	; 0xff
10003592:	4298      	cmp	r0, r3
10003594:	d103      	bne.n	1000359e <mpu_set_gyro_fsr+0x2a>
10003596:	466b      	mov	r3, sp
10003598:	2208      	movs	r2, #8
1000359a:	71da      	strb	r2, [r3, #7]
1000359c:	e010      	b.n	100035c0 <mpu_set_gyro_fsr+0x4c>
1000359e:	2001      	movs	r0, #1
100035a0:	4240      	negs	r0, r0
100035a2:	e028      	b.n	100035f6 <mpu_set_gyro_fsr+0x82>
100035a4:	23fa      	movs	r3, #250	; 0xfa
100035a6:	00db      	lsls	r3, r3, #3
100035a8:	4298      	cmp	r0, r3
100035aa:	d103      	bne.n	100035b4 <mpu_set_gyro_fsr+0x40>
100035ac:	466b      	mov	r3, sp
100035ae:	2218      	movs	r2, #24
100035b0:	71da      	strb	r2, [r3, #7]
100035b2:	e005      	b.n	100035c0 <mpu_set_gyro_fsr+0x4c>
100035b4:	2001      	movs	r0, #1
100035b6:	4240      	negs	r0, r0
100035b8:	e01d      	b.n	100035f6 <mpu_set_gyro_fsr+0x82>
100035ba:	466b      	mov	r3, sp
100035bc:	2200      	movs	r2, #0
100035be:	71da      	strb	r2, [r3, #7]
100035c0:	4b14      	ldr	r3, [pc, #80]	; (10003614 <mpu_set_gyro_fsr+0xa0>)
100035c2:	7a1a      	ldrb	r2, [r3, #8]
100035c4:	466b      	mov	r3, sp
100035c6:	3307      	adds	r3, #7
100035c8:	781b      	ldrb	r3, [r3, #0]
100035ca:	08db      	lsrs	r3, r3, #3
100035cc:	429a      	cmp	r2, r3
100035ce:	d01b      	beq.n	10003608 <mpu_set_gyro_fsr+0x94>
100035d0:	4b10      	ldr	r3, [pc, #64]	; (10003614 <mpu_set_gyro_fsr+0xa0>)
100035d2:	685a      	ldr	r2, [r3, #4]
100035d4:	681b      	ldr	r3, [r3, #0]
100035d6:	7999      	ldrb	r1, [r3, #6]
100035d8:	7810      	ldrb	r0, [r2, #0]
100035da:	466b      	mov	r3, sp
100035dc:	3307      	adds	r3, #7
100035de:	2201      	movs	r2, #1
100035e0:	f7ff f9cd 	bl	1000297e <twi_writeToPointer>
100035e4:	2800      	cmp	r0, #0
100035e6:	d011      	beq.n	1000360c <mpu_set_gyro_fsr+0x98>
100035e8:	466b      	mov	r3, sp
100035ea:	3307      	adds	r3, #7
100035ec:	781b      	ldrb	r3, [r3, #0]
100035ee:	08db      	lsrs	r3, r3, #3
100035f0:	4a08      	ldr	r2, [pc, #32]	; (10003614 <mpu_set_gyro_fsr+0xa0>)
100035f2:	7213      	strb	r3, [r2, #8]
100035f4:	2000      	movs	r0, #0
100035f6:	b003      	add	sp, #12
100035f8:	bd00      	pop	{pc}
100035fa:	466b      	mov	r3, sp
100035fc:	2210      	movs	r2, #16
100035fe:	71da      	strb	r2, [r3, #7]
10003600:	e7de      	b.n	100035c0 <mpu_set_gyro_fsr+0x4c>
10003602:	2001      	movs	r0, #1
10003604:	4240      	negs	r0, r0
10003606:	e7f6      	b.n	100035f6 <mpu_set_gyro_fsr+0x82>
10003608:	2000      	movs	r0, #0
1000360a:	e7f4      	b.n	100035f6 <mpu_set_gyro_fsr+0x82>
1000360c:	2001      	movs	r0, #1
1000360e:	4240      	negs	r0, r0
10003610:	e7f1      	b.n	100035f6 <mpu_set_gyro_fsr+0x82>
10003612:	46c0      	nop			; (mov r8, r8)
10003614:	20000a80 	.word	0x20000a80

10003618 <mpu_set_accel_fsr>:
10003618:	b500      	push	{lr}
1000361a:	b083      	sub	sp, #12
1000361c:	4b23      	ldr	r3, [pc, #140]	; (100036ac <mpu_set_accel_fsr+0x94>)
1000361e:	7a9b      	ldrb	r3, [r3, #10]
10003620:	2b00      	cmp	r3, #0
10003622:	d03a      	beq.n	1000369a <mpu_set_accel_fsr+0x82>
10003624:	2808      	cmp	r0, #8
10003626:	d034      	beq.n	10003692 <mpu_set_accel_fsr+0x7a>
10003628:	d80a      	bhi.n	10003640 <mpu_set_accel_fsr+0x28>
1000362a:	2802      	cmp	r0, #2
1000362c:	d011      	beq.n	10003652 <mpu_set_accel_fsr+0x3a>
1000362e:	2804      	cmp	r0, #4
10003630:	d103      	bne.n	1000363a <mpu_set_accel_fsr+0x22>
10003632:	466b      	mov	r3, sp
10003634:	2208      	movs	r2, #8
10003636:	71da      	strb	r2, [r3, #7]
10003638:	e00e      	b.n	10003658 <mpu_set_accel_fsr+0x40>
1000363a:	2001      	movs	r0, #1
1000363c:	4240      	negs	r0, r0
1000363e:	e026      	b.n	1000368e <mpu_set_accel_fsr+0x76>
10003640:	2810      	cmp	r0, #16
10003642:	d103      	bne.n	1000364c <mpu_set_accel_fsr+0x34>
10003644:	466b      	mov	r3, sp
10003646:	2218      	movs	r2, #24
10003648:	71da      	strb	r2, [r3, #7]
1000364a:	e005      	b.n	10003658 <mpu_set_accel_fsr+0x40>
1000364c:	2001      	movs	r0, #1
1000364e:	4240      	negs	r0, r0
10003650:	e01d      	b.n	1000368e <mpu_set_accel_fsr+0x76>
10003652:	466b      	mov	r3, sp
10003654:	2200      	movs	r2, #0
10003656:	71da      	strb	r2, [r3, #7]
10003658:	4b14      	ldr	r3, [pc, #80]	; (100036ac <mpu_set_accel_fsr+0x94>)
1000365a:	7a5a      	ldrb	r2, [r3, #9]
1000365c:	466b      	mov	r3, sp
1000365e:	3307      	adds	r3, #7
10003660:	781b      	ldrb	r3, [r3, #0]
10003662:	08db      	lsrs	r3, r3, #3
10003664:	429a      	cmp	r2, r3
10003666:	d01b      	beq.n	100036a0 <mpu_set_accel_fsr+0x88>
10003668:	4b10      	ldr	r3, [pc, #64]	; (100036ac <mpu_set_accel_fsr+0x94>)
1000366a:	685a      	ldr	r2, [r3, #4]
1000366c:	681b      	ldr	r3, [r3, #0]
1000366e:	79d9      	ldrb	r1, [r3, #7]
10003670:	7810      	ldrb	r0, [r2, #0]
10003672:	466b      	mov	r3, sp
10003674:	3307      	adds	r3, #7
10003676:	2201      	movs	r2, #1
10003678:	f7ff f981 	bl	1000297e <twi_writeToPointer>
1000367c:	2800      	cmp	r0, #0
1000367e:	d011      	beq.n	100036a4 <mpu_set_accel_fsr+0x8c>
10003680:	466b      	mov	r3, sp
10003682:	3307      	adds	r3, #7
10003684:	781b      	ldrb	r3, [r3, #0]
10003686:	08db      	lsrs	r3, r3, #3
10003688:	4a08      	ldr	r2, [pc, #32]	; (100036ac <mpu_set_accel_fsr+0x94>)
1000368a:	7253      	strb	r3, [r2, #9]
1000368c:	2000      	movs	r0, #0
1000368e:	b003      	add	sp, #12
10003690:	bd00      	pop	{pc}
10003692:	466b      	mov	r3, sp
10003694:	2210      	movs	r2, #16
10003696:	71da      	strb	r2, [r3, #7]
10003698:	e7de      	b.n	10003658 <mpu_set_accel_fsr+0x40>
1000369a:	2001      	movs	r0, #1
1000369c:	4240      	negs	r0, r0
1000369e:	e7f6      	b.n	1000368e <mpu_set_accel_fsr+0x76>
100036a0:	2000      	movs	r0, #0
100036a2:	e7f4      	b.n	1000368e <mpu_set_accel_fsr+0x76>
100036a4:	2001      	movs	r0, #1
100036a6:	4240      	negs	r0, r0
100036a8:	e7f1      	b.n	1000368e <mpu_set_accel_fsr+0x76>
100036aa:	46c0      	nop			; (mov r8, r8)
100036ac:	20000a80 	.word	0x20000a80

100036b0 <mpu_set_lpf>:
100036b0:	b500      	push	{lr}
100036b2:	b083      	sub	sp, #12
100036b4:	4b23      	ldr	r3, [pc, #140]	; (10003744 <mpu_set_lpf+0x94>)
100036b6:	7a9b      	ldrb	r3, [r3, #10]
100036b8:	2b00      	cmp	r3, #0
100036ba:	d03a      	beq.n	10003732 <mpu_set_lpf+0x82>
100036bc:	28bb      	cmp	r0, #187	; 0xbb
100036be:	d91c      	bls.n	100036fa <mpu_set_lpf+0x4a>
100036c0:	466b      	mov	r3, sp
100036c2:	2201      	movs	r2, #1
100036c4:	71da      	strb	r2, [r3, #7]
100036c6:	4b1f      	ldr	r3, [pc, #124]	; (10003744 <mpu_set_lpf+0x94>)
100036c8:	7ada      	ldrb	r2, [r3, #11]
100036ca:	466b      	mov	r3, sp
100036cc:	3307      	adds	r3, #7
100036ce:	781b      	ldrb	r3, [r3, #0]
100036d0:	429a      	cmp	r2, r3
100036d2:	d031      	beq.n	10003738 <mpu_set_lpf+0x88>
100036d4:	4b1b      	ldr	r3, [pc, #108]	; (10003744 <mpu_set_lpf+0x94>)
100036d6:	685a      	ldr	r2, [r3, #4]
100036d8:	681b      	ldr	r3, [r3, #0]
100036da:	7899      	ldrb	r1, [r3, #2]
100036dc:	7810      	ldrb	r0, [r2, #0]
100036de:	466b      	mov	r3, sp
100036e0:	3307      	adds	r3, #7
100036e2:	2201      	movs	r2, #1
100036e4:	f7ff f94b 	bl	1000297e <twi_writeToPointer>
100036e8:	2800      	cmp	r0, #0
100036ea:	d027      	beq.n	1000373c <mpu_set_lpf+0x8c>
100036ec:	466b      	mov	r3, sp
100036ee:	79da      	ldrb	r2, [r3, #7]
100036f0:	4b14      	ldr	r3, [pc, #80]	; (10003744 <mpu_set_lpf+0x94>)
100036f2:	72da      	strb	r2, [r3, #11]
100036f4:	2000      	movs	r0, #0
100036f6:	b003      	add	sp, #12
100036f8:	bd00      	pop	{pc}
100036fa:	2861      	cmp	r0, #97	; 0x61
100036fc:	d903      	bls.n	10003706 <mpu_set_lpf+0x56>
100036fe:	466b      	mov	r3, sp
10003700:	2202      	movs	r2, #2
10003702:	71da      	strb	r2, [r3, #7]
10003704:	e7df      	b.n	100036c6 <mpu_set_lpf+0x16>
10003706:	2829      	cmp	r0, #41	; 0x29
10003708:	d903      	bls.n	10003712 <mpu_set_lpf+0x62>
1000370a:	466b      	mov	r3, sp
1000370c:	2203      	movs	r2, #3
1000370e:	71da      	strb	r2, [r3, #7]
10003710:	e7d9      	b.n	100036c6 <mpu_set_lpf+0x16>
10003712:	2813      	cmp	r0, #19
10003714:	d903      	bls.n	1000371e <mpu_set_lpf+0x6e>
10003716:	466b      	mov	r3, sp
10003718:	2204      	movs	r2, #4
1000371a:	71da      	strb	r2, [r3, #7]
1000371c:	e7d3      	b.n	100036c6 <mpu_set_lpf+0x16>
1000371e:	2809      	cmp	r0, #9
10003720:	d903      	bls.n	1000372a <mpu_set_lpf+0x7a>
10003722:	466b      	mov	r3, sp
10003724:	2205      	movs	r2, #5
10003726:	71da      	strb	r2, [r3, #7]
10003728:	e7cd      	b.n	100036c6 <mpu_set_lpf+0x16>
1000372a:	466b      	mov	r3, sp
1000372c:	2206      	movs	r2, #6
1000372e:	71da      	strb	r2, [r3, #7]
10003730:	e7c9      	b.n	100036c6 <mpu_set_lpf+0x16>
10003732:	2001      	movs	r0, #1
10003734:	4240      	negs	r0, r0
10003736:	e7de      	b.n	100036f6 <mpu_set_lpf+0x46>
10003738:	2000      	movs	r0, #0
1000373a:	e7dc      	b.n	100036f6 <mpu_set_lpf+0x46>
1000373c:	2001      	movs	r0, #1
1000373e:	4240      	negs	r0, r0
10003740:	e7d9      	b.n	100036f6 <mpu_set_lpf+0x46>
10003742:	46c0      	nop			; (mov r8, r8)
10003744:	20000a80 	.word	0x20000a80

10003748 <mpu_configure_fifo>:
10003748:	b570      	push	{r4, r5, r6, lr}
1000374a:	2301      	movs	r3, #1
1000374c:	4398      	bics	r0, r3
1000374e:	0004      	movs	r4, r0
10003750:	4a17      	ldr	r2, [pc, #92]	; (100037b0 <mpu_configure_fifo+0x68>)
10003752:	3323      	adds	r3, #35	; 0x23
10003754:	5cd3      	ldrb	r3, [r2, r3]
10003756:	2b00      	cmp	r3, #0
10003758:	d125      	bne.n	100037a6 <mpu_configure_fifo+0x5e>
1000375a:	7a93      	ldrb	r3, [r2, #10]
1000375c:	2b00      	cmp	r3, #0
1000375e:	d024      	beq.n	100037aa <mpu_configure_fifo+0x62>
10003760:	7c16      	ldrb	r6, [r2, #16]
10003762:	4003      	ands	r3, r0
10003764:	7413      	strb	r3, [r2, #16]
10003766:	4283      	cmp	r3, r0
10003768:	d00e      	beq.n	10003788 <mpu_configure_fifo+0x40>
1000376a:	2501      	movs	r5, #1
1000376c:	426d      	negs	r5, r5
1000376e:	2c00      	cmp	r4, #0
10003770:	d103      	bne.n	1000377a <mpu_configure_fifo+0x32>
10003772:	4b0f      	ldr	r3, [pc, #60]	; (100037b0 <mpu_configure_fifo+0x68>)
10003774:	7d1b      	ldrb	r3, [r3, #20]
10003776:	2b00      	cmp	r3, #0
10003778:	d008      	beq.n	1000378c <mpu_configure_fifo+0x44>
1000377a:	2001      	movs	r0, #1
1000377c:	f7ff fda6 	bl	100032cc <set_int_enable>
10003780:	2c00      	cmp	r4, #0
10003782:	d107      	bne.n	10003794 <mpu_configure_fifo+0x4c>
10003784:	0028      	movs	r0, r5
10003786:	bd70      	pop	{r4, r5, r6, pc}
10003788:	2500      	movs	r5, #0
1000378a:	e7f0      	b.n	1000376e <mpu_configure_fifo+0x26>
1000378c:	2000      	movs	r0, #0
1000378e:	f7ff fd9d 	bl	100032cc <set_int_enable>
10003792:	e7f5      	b.n	10003780 <mpu_configure_fifo+0x38>
10003794:	f7ff fdf0 	bl	10003378 <mpu_reset_fifo>
10003798:	2800      	cmp	r0, #0
1000379a:	d0f3      	beq.n	10003784 <mpu_configure_fifo+0x3c>
1000379c:	4b04      	ldr	r3, [pc, #16]	; (100037b0 <mpu_configure_fifo+0x68>)
1000379e:	741e      	strb	r6, [r3, #16]
100037a0:	2501      	movs	r5, #1
100037a2:	426d      	negs	r5, r5
100037a4:	e7ee      	b.n	10003784 <mpu_configure_fifo+0x3c>
100037a6:	2500      	movs	r5, #0
100037a8:	e7ec      	b.n	10003784 <mpu_configure_fifo+0x3c>
100037aa:	2501      	movs	r5, #1
100037ac:	426d      	negs	r5, r5
100037ae:	e7e9      	b.n	10003784 <mpu_configure_fifo+0x3c>
100037b0:	20000a80 	.word	0x20000a80

100037b4 <mpu_read_fifo_stream>:
100037b4:	b5f0      	push	{r4, r5, r6, r7, lr}
100037b6:	b083      	sub	sp, #12
100037b8:	0004      	movs	r4, r0
100037ba:	000f      	movs	r7, r1
100037bc:	0016      	movs	r6, r2
100037be:	4a2d      	ldr	r2, [pc, #180]	; (10003874 <mpu_read_fifo_stream+0xc0>)
100037c0:	2324      	movs	r3, #36	; 0x24
100037c2:	5cd3      	ldrb	r3, [r2, r3]
100037c4:	2b00      	cmp	r3, #0
100037c6:	d046      	beq.n	10003856 <mpu_read_fifo_stream+0xa2>
100037c8:	7a93      	ldrb	r3, [r2, #10]
100037ca:	2b00      	cmp	r3, #0
100037cc:	d046      	beq.n	1000385c <mpu_read_fifo_stream+0xa8>
100037ce:	0013      	movs	r3, r2
100037d0:	6852      	ldr	r2, [r2, #4]
100037d2:	681b      	ldr	r3, [r3, #0]
100037d4:	7b19      	ldrb	r1, [r3, #12]
100037d6:	7810      	ldrb	r0, [r2, #0]
100037d8:	ab01      	add	r3, sp, #4
100037da:	2202      	movs	r2, #2
100037dc:	f7ff f8af 	bl	1000293e <twi_readFromPointer>
100037e0:	2800      	cmp	r0, #0
100037e2:	d03e      	beq.n	10003862 <mpu_read_fifo_stream+0xae>
100037e4:	ab01      	add	r3, sp, #4
100037e6:	781d      	ldrb	r5, [r3, #0]
100037e8:	022d      	lsls	r5, r5, #8
100037ea:	785b      	ldrb	r3, [r3, #1]
100037ec:	431d      	orrs	r5, r3
100037ee:	42a5      	cmp	r5, r4
100037f0:	d327      	bcc.n	10003842 <mpu_read_fifo_stream+0x8e>
100037f2:	4b20      	ldr	r3, [pc, #128]	; (10003874 <mpu_read_fifo_stream+0xc0>)
100037f4:	685a      	ldr	r2, [r3, #4]
100037f6:	8853      	ldrh	r3, [r2, #2]
100037f8:	085b      	lsrs	r3, r3, #1
100037fa:	42ab      	cmp	r3, r5
100037fc:	d20d      	bcs.n	1000381a <mpu_read_fifo_stream+0x66>
100037fe:	4b1d      	ldr	r3, [pc, #116]	; (10003874 <mpu_read_fifo_stream+0xc0>)
10003800:	681b      	ldr	r3, [r3, #0]
10003802:	7cd9      	ldrb	r1, [r3, #19]
10003804:	7810      	ldrb	r0, [r2, #0]
10003806:	ab01      	add	r3, sp, #4
10003808:	2201      	movs	r2, #1
1000380a:	f7ff f898 	bl	1000293e <twi_readFromPointer>
1000380e:	2800      	cmp	r0, #0
10003810:	d02a      	beq.n	10003868 <mpu_read_fifo_stream+0xb4>
10003812:	ab01      	add	r3, sp, #4
10003814:	781b      	ldrb	r3, [r3, #0]
10003816:	06db      	lsls	r3, r3, #27
10003818:	d418      	bmi.n	1000384c <mpu_read_fifo_stream+0x98>
1000381a:	4b16      	ldr	r3, [pc, #88]	; (10003874 <mpu_read_fifo_stream+0xc0>)
1000381c:	6858      	ldr	r0, [r3, #4]
1000381e:	681b      	ldr	r3, [r3, #0]
10003820:	b2e2      	uxtb	r2, r4
10003822:	7b59      	ldrb	r1, [r3, #13]
10003824:	7800      	ldrb	r0, [r0, #0]
10003826:	003b      	movs	r3, r7
10003828:	f7ff f889 	bl	1000293e <twi_readFromPointer>
1000382c:	2800      	cmp	r0, #0
1000382e:	d01e      	beq.n	1000386e <mpu_read_fifo_stream+0xba>
10003830:	0021      	movs	r1, r4
10003832:	0028      	movs	r0, r5
10003834:	f004 fa2a 	bl	10007c8c <__wrap___aeabi_uidiv>
10003838:	3801      	subs	r0, #1
1000383a:	7030      	strb	r0, [r6, #0]
1000383c:	2000      	movs	r0, #0
1000383e:	b003      	add	sp, #12
10003840:	bdf0      	pop	{r4, r5, r6, r7, pc}
10003842:	2300      	movs	r3, #0
10003844:	7033      	strb	r3, [r6, #0]
10003846:	2004      	movs	r0, #4
10003848:	4240      	negs	r0, r0
1000384a:	e7f8      	b.n	1000383e <mpu_read_fifo_stream+0x8a>
1000384c:	f7ff fd94 	bl	10003378 <mpu_reset_fifo>
10003850:	2006      	movs	r0, #6
10003852:	4240      	negs	r0, r0
10003854:	e7f3      	b.n	1000383e <mpu_read_fifo_stream+0x8a>
10003856:	2001      	movs	r0, #1
10003858:	4240      	negs	r0, r0
1000385a:	e7f0      	b.n	1000383e <mpu_read_fifo_stream+0x8a>
1000385c:	2002      	movs	r0, #2
1000385e:	4240      	negs	r0, r0
10003860:	e7ed      	b.n	1000383e <mpu_read_fifo_stream+0x8a>
10003862:	2003      	movs	r0, #3
10003864:	4240      	negs	r0, r0
10003866:	e7ea      	b.n	1000383e <mpu_read_fifo_stream+0x8a>
10003868:	2005      	movs	r0, #5
1000386a:	4240      	negs	r0, r0
1000386c:	e7e7      	b.n	1000383e <mpu_read_fifo_stream+0x8a>
1000386e:	2007      	movs	r0, #7
10003870:	4240      	negs	r0, r0
10003872:	e7e4      	b.n	1000383e <mpu_read_fifo_stream+0x8a>
10003874:	20000a80 	.word	0x20000a80

10003878 <mpu_set_bypass>:
10003878:	b510      	push	{r4, lr}
1000387a:	b082      	sub	sp, #8
1000387c:	0004      	movs	r4, r0
1000387e:	4b59      	ldr	r3, [pc, #356]	; (100039e4 <mpu_set_bypass+0x16c>)
10003880:	7c9b      	ldrb	r3, [r3, #18]
10003882:	4283      	cmp	r3, r0
10003884:	d100      	bne.n	10003888 <mpu_set_bypass+0x10>
10003886:	e09c      	b.n	100039c2 <mpu_set_bypass+0x14a>
10003888:	2800      	cmp	r0, #0
1000388a:	d046      	beq.n	1000391a <mpu_set_bypass+0xa2>
1000388c:	4b55      	ldr	r3, [pc, #340]	; (100039e4 <mpu_set_bypass+0x16c>)
1000388e:	685a      	ldr	r2, [r3, #4]
10003890:	681b      	ldr	r3, [r3, #0]
10003892:	7919      	ldrb	r1, [r3, #4]
10003894:	7810      	ldrb	r0, [r2, #0]
10003896:	466b      	mov	r3, sp
10003898:	3307      	adds	r3, #7
1000389a:	2201      	movs	r2, #1
1000389c:	f7ff f84f 	bl	1000293e <twi_readFromPointer>
100038a0:	2800      	cmp	r0, #0
100038a2:	d100      	bne.n	100038a6 <mpu_set_bypass+0x2e>
100038a4:	e08f      	b.n	100039c6 <mpu_set_bypass+0x14e>
100038a6:	466b      	mov	r3, sp
100038a8:	79db      	ldrb	r3, [r3, #7]
100038aa:	2220      	movs	r2, #32
100038ac:	4393      	bics	r3, r2
100038ae:	466a      	mov	r2, sp
100038b0:	71d3      	strb	r3, [r2, #7]
100038b2:	4b4c      	ldr	r3, [pc, #304]	; (100039e4 <mpu_set_bypass+0x16c>)
100038b4:	685a      	ldr	r2, [r3, #4]
100038b6:	681b      	ldr	r3, [r3, #0]
100038b8:	7919      	ldrb	r1, [r3, #4]
100038ba:	7810      	ldrb	r0, [r2, #0]
100038bc:	466b      	mov	r3, sp
100038be:	3307      	adds	r3, #7
100038c0:	2201      	movs	r2, #1
100038c2:	f7ff f85c 	bl	1000297e <twi_writeToPointer>
100038c6:	2800      	cmp	r0, #0
100038c8:	d100      	bne.n	100038cc <mpu_set_bypass+0x54>
100038ca:	e07f      	b.n	100039cc <mpu_set_bypass+0x154>
100038cc:	2003      	movs	r0, #3
100038ce:	f000 fdf5 	bl	100044bc <_delay_ms>
100038d2:	466b      	mov	r3, sp
100038d4:	2202      	movs	r2, #2
100038d6:	71da      	strb	r2, [r3, #7]
100038d8:	4a42      	ldr	r2, [pc, #264]	; (100039e4 <mpu_set_bypass+0x16c>)
100038da:	2322      	movs	r3, #34	; 0x22
100038dc:	5cd3      	ldrb	r3, [r2, r3]
100038de:	2b00      	cmp	r3, #0
100038e0:	d002      	beq.n	100038e8 <mpu_set_bypass+0x70>
100038e2:	466b      	mov	r3, sp
100038e4:	2282      	movs	r2, #130	; 0x82
100038e6:	71da      	strb	r2, [r3, #7]
100038e8:	4a3e      	ldr	r2, [pc, #248]	; (100039e4 <mpu_set_bypass+0x16c>)
100038ea:	2323      	movs	r3, #35	; 0x23
100038ec:	5cd3      	ldrb	r3, [r2, r3]
100038ee:	2b00      	cmp	r3, #0
100038f0:	d005      	beq.n	100038fe <mpu_set_bypass+0x86>
100038f2:	466b      	mov	r3, sp
100038f4:	1dda      	adds	r2, r3, #7
100038f6:	79db      	ldrb	r3, [r3, #7]
100038f8:	2130      	movs	r1, #48	; 0x30
100038fa:	430b      	orrs	r3, r1
100038fc:	7013      	strb	r3, [r2, #0]
100038fe:	4b39      	ldr	r3, [pc, #228]	; (100039e4 <mpu_set_bypass+0x16c>)
10003900:	685a      	ldr	r2, [r3, #4]
10003902:	681b      	ldr	r3, [r3, #0]
10003904:	7dd9      	ldrb	r1, [r3, #23]
10003906:	7810      	ldrb	r0, [r2, #0]
10003908:	466b      	mov	r3, sp
1000390a:	3307      	adds	r3, #7
1000390c:	2201      	movs	r2, #1
1000390e:	f7ff f836 	bl	1000297e <twi_writeToPointer>
10003912:	2800      	cmp	r0, #0
10003914:	d145      	bne.n	100039a2 <mpu_set_bypass+0x12a>
10003916:	3801      	subs	r0, #1
10003918:	e046      	b.n	100039a8 <mpu_set_bypass+0x130>
1000391a:	4b32      	ldr	r3, [pc, #200]	; (100039e4 <mpu_set_bypass+0x16c>)
1000391c:	685a      	ldr	r2, [r3, #4]
1000391e:	681b      	ldr	r3, [r3, #0]
10003920:	7919      	ldrb	r1, [r3, #4]
10003922:	7810      	ldrb	r0, [r2, #0]
10003924:	466b      	mov	r3, sp
10003926:	3307      	adds	r3, #7
10003928:	2201      	movs	r2, #1
1000392a:	f7ff f808 	bl	1000293e <twi_readFromPointer>
1000392e:	2800      	cmp	r0, #0
10003930:	d04f      	beq.n	100039d2 <mpu_set_bypass+0x15a>
10003932:	4b2c      	ldr	r3, [pc, #176]	; (100039e4 <mpu_set_bypass+0x16c>)
10003934:	7a9b      	ldrb	r3, [r3, #10]
10003936:	07db      	lsls	r3, r3, #31
10003938:	d538      	bpl.n	100039ac <mpu_set_bypass+0x134>
1000393a:	466b      	mov	r3, sp
1000393c:	1dda      	adds	r2, r3, #7
1000393e:	79db      	ldrb	r3, [r3, #7]
10003940:	2120      	movs	r1, #32
10003942:	430b      	orrs	r3, r1
10003944:	7013      	strb	r3, [r2, #0]
10003946:	4b27      	ldr	r3, [pc, #156]	; (100039e4 <mpu_set_bypass+0x16c>)
10003948:	685a      	ldr	r2, [r3, #4]
1000394a:	681b      	ldr	r3, [r3, #0]
1000394c:	7919      	ldrb	r1, [r3, #4]
1000394e:	7810      	ldrb	r0, [r2, #0]
10003950:	466b      	mov	r3, sp
10003952:	3307      	adds	r3, #7
10003954:	2201      	movs	r2, #1
10003956:	f7ff f812 	bl	1000297e <twi_writeToPointer>
1000395a:	2800      	cmp	r0, #0
1000395c:	d03c      	beq.n	100039d8 <mpu_set_bypass+0x160>
1000395e:	2003      	movs	r0, #3
10003960:	f000 fdac 	bl	100044bc <_delay_ms>
10003964:	4a1f      	ldr	r2, [pc, #124]	; (100039e4 <mpu_set_bypass+0x16c>)
10003966:	2322      	movs	r3, #34	; 0x22
10003968:	5cd3      	ldrb	r3, [r2, r3]
1000396a:	2b00      	cmp	r3, #0
1000396c:	d025      	beq.n	100039ba <mpu_set_bypass+0x142>
1000396e:	466b      	mov	r3, sp
10003970:	2280      	movs	r2, #128	; 0x80
10003972:	71da      	strb	r2, [r3, #7]
10003974:	4a1b      	ldr	r2, [pc, #108]	; (100039e4 <mpu_set_bypass+0x16c>)
10003976:	2323      	movs	r3, #35	; 0x23
10003978:	5cd3      	ldrb	r3, [r2, r3]
1000397a:	2b00      	cmp	r3, #0
1000397c:	d005      	beq.n	1000398a <mpu_set_bypass+0x112>
1000397e:	466b      	mov	r3, sp
10003980:	1dda      	adds	r2, r3, #7
10003982:	79db      	ldrb	r3, [r3, #7]
10003984:	2130      	movs	r1, #48	; 0x30
10003986:	430b      	orrs	r3, r1
10003988:	7013      	strb	r3, [r2, #0]
1000398a:	4b16      	ldr	r3, [pc, #88]	; (100039e4 <mpu_set_bypass+0x16c>)
1000398c:	685a      	ldr	r2, [r3, #4]
1000398e:	681b      	ldr	r3, [r3, #0]
10003990:	7dd9      	ldrb	r1, [r3, #23]
10003992:	7810      	ldrb	r0, [r2, #0]
10003994:	466b      	mov	r3, sp
10003996:	3307      	adds	r3, #7
10003998:	2201      	movs	r2, #1
1000399a:	f7fe fff0 	bl	1000297e <twi_writeToPointer>
1000399e:	2800      	cmp	r0, #0
100039a0:	d01d      	beq.n	100039de <mpu_set_bypass+0x166>
100039a2:	4b10      	ldr	r3, [pc, #64]	; (100039e4 <mpu_set_bypass+0x16c>)
100039a4:	749c      	strb	r4, [r3, #18]
100039a6:	2000      	movs	r0, #0
100039a8:	b002      	add	sp, #8
100039aa:	bd10      	pop	{r4, pc}
100039ac:	466b      	mov	r3, sp
100039ae:	1dda      	adds	r2, r3, #7
100039b0:	79db      	ldrb	r3, [r3, #7]
100039b2:	2120      	movs	r1, #32
100039b4:	438b      	bics	r3, r1
100039b6:	7013      	strb	r3, [r2, #0]
100039b8:	e7c5      	b.n	10003946 <mpu_set_bypass+0xce>
100039ba:	466b      	mov	r3, sp
100039bc:	2200      	movs	r2, #0
100039be:	71da      	strb	r2, [r3, #7]
100039c0:	e7d8      	b.n	10003974 <mpu_set_bypass+0xfc>
100039c2:	2000      	movs	r0, #0
100039c4:	e7f0      	b.n	100039a8 <mpu_set_bypass+0x130>
100039c6:	2001      	movs	r0, #1
100039c8:	4240      	negs	r0, r0
100039ca:	e7ed      	b.n	100039a8 <mpu_set_bypass+0x130>
100039cc:	2001      	movs	r0, #1
100039ce:	4240      	negs	r0, r0
100039d0:	e7ea      	b.n	100039a8 <mpu_set_bypass+0x130>
100039d2:	2001      	movs	r0, #1
100039d4:	4240      	negs	r0, r0
100039d6:	e7e7      	b.n	100039a8 <mpu_set_bypass+0x130>
100039d8:	2001      	movs	r0, #1
100039da:	4240      	negs	r0, r0
100039dc:	e7e4      	b.n	100039a8 <mpu_set_bypass+0x130>
100039de:	2001      	movs	r0, #1
100039e0:	4240      	negs	r0, r0
100039e2:	e7e1      	b.n	100039a8 <mpu_set_bypass+0x130>
100039e4:	20000a80 	.word	0x20000a80

100039e8 <mpu_set_int_latched>:
100039e8:	b510      	push	{r4, lr}
100039ea:	b082      	sub	sp, #8
100039ec:	0004      	movs	r4, r0
100039ee:	4a1d      	ldr	r2, [pc, #116]	; (10003a64 <mpu_set_int_latched+0x7c>)
100039f0:	2323      	movs	r3, #35	; 0x23
100039f2:	5cd3      	ldrb	r3, [r2, r3]
100039f4:	4283      	cmp	r3, r0
100039f6:	d030      	beq.n	10003a5a <mpu_set_int_latched+0x72>
100039f8:	2800      	cmp	r0, #0
100039fa:	d02a      	beq.n	10003a52 <mpu_set_int_latched+0x6a>
100039fc:	466b      	mov	r3, sp
100039fe:	2230      	movs	r2, #48	; 0x30
10003a00:	71da      	strb	r2, [r3, #7]
10003a02:	4b18      	ldr	r3, [pc, #96]	; (10003a64 <mpu_set_int_latched+0x7c>)
10003a04:	7c9b      	ldrb	r3, [r3, #18]
10003a06:	2b00      	cmp	r3, #0
10003a08:	d005      	beq.n	10003a16 <mpu_set_int_latched+0x2e>
10003a0a:	466b      	mov	r3, sp
10003a0c:	1dda      	adds	r2, r3, #7
10003a0e:	79db      	ldrb	r3, [r3, #7]
10003a10:	2102      	movs	r1, #2
10003a12:	430b      	orrs	r3, r1
10003a14:	7013      	strb	r3, [r2, #0]
10003a16:	4a13      	ldr	r2, [pc, #76]	; (10003a64 <mpu_set_int_latched+0x7c>)
10003a18:	2322      	movs	r3, #34	; 0x22
10003a1a:	5cd3      	ldrb	r3, [r2, r3]
10003a1c:	2b00      	cmp	r3, #0
10003a1e:	d006      	beq.n	10003a2e <mpu_set_int_latched+0x46>
10003a20:	466b      	mov	r3, sp
10003a22:	1dda      	adds	r2, r3, #7
10003a24:	79d9      	ldrb	r1, [r3, #7]
10003a26:	2380      	movs	r3, #128	; 0x80
10003a28:	425b      	negs	r3, r3
10003a2a:	430b      	orrs	r3, r1
10003a2c:	7013      	strb	r3, [r2, #0]
10003a2e:	4b0d      	ldr	r3, [pc, #52]	; (10003a64 <mpu_set_int_latched+0x7c>)
10003a30:	685a      	ldr	r2, [r3, #4]
10003a32:	681b      	ldr	r3, [r3, #0]
10003a34:	7dd9      	ldrb	r1, [r3, #23]
10003a36:	7810      	ldrb	r0, [r2, #0]
10003a38:	466b      	mov	r3, sp
10003a3a:	3307      	adds	r3, #7
10003a3c:	2201      	movs	r2, #1
10003a3e:	f7fe ff9e 	bl	1000297e <twi_writeToPointer>
10003a42:	2800      	cmp	r0, #0
10003a44:	d00b      	beq.n	10003a5e <mpu_set_int_latched+0x76>
10003a46:	4a07      	ldr	r2, [pc, #28]	; (10003a64 <mpu_set_int_latched+0x7c>)
10003a48:	2323      	movs	r3, #35	; 0x23
10003a4a:	54d4      	strb	r4, [r2, r3]
10003a4c:	2000      	movs	r0, #0
10003a4e:	b002      	add	sp, #8
10003a50:	bd10      	pop	{r4, pc}
10003a52:	466b      	mov	r3, sp
10003a54:	2200      	movs	r2, #0
10003a56:	71da      	strb	r2, [r3, #7]
10003a58:	e7d3      	b.n	10003a02 <mpu_set_int_latched+0x1a>
10003a5a:	2000      	movs	r0, #0
10003a5c:	e7f7      	b.n	10003a4e <mpu_set_int_latched+0x66>
10003a5e:	2001      	movs	r0, #1
10003a60:	4240      	negs	r0, r0
10003a62:	e7f4      	b.n	10003a4e <mpu_set_int_latched+0x66>
10003a64:	20000a80 	.word	0x20000a80

10003a68 <mpu_lp_accel_mode>:
10003a68:	b510      	push	{r4, lr}
10003a6a:	b082      	sub	sp, #8
10003a6c:	1e04      	subs	r4, r0, #0
10003a6e:	d118      	bne.n	10003aa2 <mpu_lp_accel_mode+0x3a>
10003a70:	2000      	movs	r0, #0
10003a72:	f7ff ffb9 	bl	100039e8 <mpu_set_int_latched>
10003a76:	2300      	movs	r3, #0
10003a78:	466a      	mov	r2, sp
10003a7a:	7113      	strb	r3, [r2, #4]
10003a7c:	3307      	adds	r3, #7
10003a7e:	7153      	strb	r3, [r2, #5]
10003a80:	4b2d      	ldr	r3, [pc, #180]	; (10003b38 <mpu_lp_accel_mode+0xd0>)
10003a82:	685a      	ldr	r2, [r3, #4]
10003a84:	681b      	ldr	r3, [r3, #0]
10003a86:	7d59      	ldrb	r1, [r3, #21]
10003a88:	7810      	ldrb	r0, [r2, #0]
10003a8a:	ab01      	add	r3, sp, #4
10003a8c:	2202      	movs	r2, #2
10003a8e:	f7fe ff76 	bl	1000297e <twi_writeToPointer>
10003a92:	2800      	cmp	r0, #0
10003a94:	d049      	beq.n	10003b2a <mpu_lp_accel_mode+0xc2>
10003a96:	4b28      	ldr	r3, [pc, #160]	; (10003b38 <mpu_lp_accel_mode+0xd0>)
10003a98:	2200      	movs	r2, #0
10003a9a:	751a      	strb	r2, [r3, #20]
10003a9c:	2000      	movs	r0, #0
10003a9e:	b002      	add	sp, #8
10003aa0:	bd10      	pop	{r4, pc}
10003aa2:	2001      	movs	r0, #1
10003aa4:	f7ff ffa0 	bl	100039e8 <mpu_set_int_latched>
10003aa8:	ab01      	add	r3, sp, #4
10003aaa:	2220      	movs	r2, #32
10003aac:	701a      	strb	r2, [r3, #0]
10003aae:	2c01      	cmp	r4, #1
10003ab0:	d027      	beq.n	10003b02 <mpu_lp_accel_mode+0x9a>
10003ab2:	2c05      	cmp	r4, #5
10003ab4:	d92b      	bls.n	10003b0e <mpu_lp_accel_mode+0xa6>
10003ab6:	2c14      	cmp	r4, #20
10003ab8:	d830      	bhi.n	10003b1c <mpu_lp_accel_mode+0xb4>
10003aba:	ab01      	add	r3, sp, #4
10003abc:	2202      	movs	r2, #2
10003abe:	705a      	strb	r2, [r3, #1]
10003ac0:	200a      	movs	r0, #10
10003ac2:	f7ff fdf5 	bl	100036b0 <mpu_set_lpf>
10003ac6:	466b      	mov	r3, sp
10003ac8:	795b      	ldrb	r3, [r3, #5]
10003aca:	019b      	lsls	r3, r3, #6
10003acc:	2207      	movs	r2, #7
10003ace:	4313      	orrs	r3, r2
10003ad0:	466a      	mov	r2, sp
10003ad2:	7153      	strb	r3, [r2, #5]
10003ad4:	4b18      	ldr	r3, [pc, #96]	; (10003b38 <mpu_lp_accel_mode+0xd0>)
10003ad6:	685a      	ldr	r2, [r3, #4]
10003ad8:	681b      	ldr	r3, [r3, #0]
10003ada:	7d59      	ldrb	r1, [r3, #21]
10003adc:	7810      	ldrb	r0, [r2, #0]
10003ade:	ab01      	add	r3, sp, #4
10003ae0:	2202      	movs	r2, #2
10003ae2:	f7fe ff4c 	bl	1000297e <twi_writeToPointer>
10003ae6:	2800      	cmp	r0, #0
10003ae8:	d022      	beq.n	10003b30 <mpu_lp_accel_mode+0xc8>
10003aea:	4b13      	ldr	r3, [pc, #76]	; (10003b38 <mpu_lp_accel_mode+0xd0>)
10003aec:	2208      	movs	r2, #8
10003aee:	729a      	strb	r2, [r3, #10]
10003af0:	2200      	movs	r2, #0
10003af2:	731a      	strb	r2, [r3, #12]
10003af4:	3201      	adds	r2, #1
10003af6:	751a      	strb	r2, [r3, #20]
10003af8:	2000      	movs	r0, #0
10003afa:	f7ff fe25 	bl	10003748 <mpu_configure_fifo>
10003afe:	2000      	movs	r0, #0
10003b00:	e7cd      	b.n	10003a9e <mpu_lp_accel_mode+0x36>
10003b02:	2200      	movs	r2, #0
10003b04:	705a      	strb	r2, [r3, #1]
10003b06:	2005      	movs	r0, #5
10003b08:	f7ff fdd2 	bl	100036b0 <mpu_set_lpf>
10003b0c:	e7db      	b.n	10003ac6 <mpu_lp_accel_mode+0x5e>
10003b0e:	ab01      	add	r3, sp, #4
10003b10:	2201      	movs	r2, #1
10003b12:	705a      	strb	r2, [r3, #1]
10003b14:	2005      	movs	r0, #5
10003b16:	f7ff fdcb 	bl	100036b0 <mpu_set_lpf>
10003b1a:	e7d4      	b.n	10003ac6 <mpu_lp_accel_mode+0x5e>
10003b1c:	ab01      	add	r3, sp, #4
10003b1e:	2203      	movs	r2, #3
10003b20:	705a      	strb	r2, [r3, #1]
10003b22:	2014      	movs	r0, #20
10003b24:	f7ff fdc4 	bl	100036b0 <mpu_set_lpf>
10003b28:	e7cd      	b.n	10003ac6 <mpu_lp_accel_mode+0x5e>
10003b2a:	2001      	movs	r0, #1
10003b2c:	4240      	negs	r0, r0
10003b2e:	e7b6      	b.n	10003a9e <mpu_lp_accel_mode+0x36>
10003b30:	2001      	movs	r0, #1
10003b32:	4240      	negs	r0, r0
10003b34:	e7b3      	b.n	10003a9e <mpu_lp_accel_mode+0x36>
10003b36:	46c0      	nop			; (mov r8, r8)
10003b38:	20000a80 	.word	0x20000a80

10003b3c <mpu_set_sample_rate>:
10003b3c:	b510      	push	{r4, lr}
10003b3e:	b082      	sub	sp, #8
10003b40:	0004      	movs	r4, r0
10003b42:	4b27      	ldr	r3, [pc, #156]	; (10003be0 <mpu_set_sample_rate+0xa4>)
10003b44:	7a9b      	ldrb	r3, [r3, #10]
10003b46:	2b00      	cmp	r3, #0
10003b48:	d040      	beq.n	10003bcc <mpu_set_sample_rate+0x90>
10003b4a:	4a25      	ldr	r2, [pc, #148]	; (10003be0 <mpu_set_sample_rate+0xa4>)
10003b4c:	2324      	movs	r3, #36	; 0x24
10003b4e:	5cd3      	ldrb	r3, [r2, r3]
10003b50:	2b00      	cmp	r3, #0
10003b52:	d13e      	bne.n	10003bd2 <mpu_set_sample_rate+0x96>
10003b54:	7d13      	ldrb	r3, [r2, #20]
10003b56:	2b00      	cmp	r3, #0
10003b58:	d006      	beq.n	10003b68 <mpu_set_sample_rate+0x2c>
10003b5a:	1e43      	subs	r3, r0, #1
10003b5c:	b29b      	uxth	r3, r3
10003b5e:	2b27      	cmp	r3, #39	; 0x27
10003b60:	d90b      	bls.n	10003b7a <mpu_set_sample_rate+0x3e>
10003b62:	2000      	movs	r0, #0
10003b64:	f7ff ff80 	bl	10003a68 <mpu_lp_accel_mode>
10003b68:	2c03      	cmp	r4, #3
10003b6a:	d90b      	bls.n	10003b84 <mpu_set_sample_rate+0x48>
10003b6c:	23fa      	movs	r3, #250	; 0xfa
10003b6e:	009b      	lsls	r3, r3, #2
10003b70:	429c      	cmp	r4, r3
10003b72:	d908      	bls.n	10003b86 <mpu_set_sample_rate+0x4a>
10003b74:	24fa      	movs	r4, #250	; 0xfa
10003b76:	00a4      	lsls	r4, r4, #2
10003b78:	e005      	b.n	10003b86 <mpu_set_sample_rate+0x4a>
10003b7a:	b2c0      	uxtb	r0, r0
10003b7c:	f7ff ff74 	bl	10003a68 <mpu_lp_accel_mode>
10003b80:	2000      	movs	r0, #0
10003b82:	e021      	b.n	10003bc8 <mpu_set_sample_rate+0x8c>
10003b84:	2404      	movs	r4, #4
10003b86:	0021      	movs	r1, r4
10003b88:	20fa      	movs	r0, #250	; 0xfa
10003b8a:	0080      	lsls	r0, r0, #2
10003b8c:	f004 f852 	bl	10007c34 <__wrap___aeabi_idiv>
10003b90:	3801      	subs	r0, #1
10003b92:	466b      	mov	r3, sp
10003b94:	3307      	adds	r3, #7
10003b96:	7018      	strb	r0, [r3, #0]
10003b98:	4a11      	ldr	r2, [pc, #68]	; (10003be0 <mpu_set_sample_rate+0xa4>)
10003b9a:	6850      	ldr	r0, [r2, #4]
10003b9c:	6812      	ldr	r2, [r2, #0]
10003b9e:	7851      	ldrb	r1, [r2, #1]
10003ba0:	7800      	ldrb	r0, [r0, #0]
10003ba2:	2201      	movs	r2, #1
10003ba4:	f7fe feeb 	bl	1000297e <twi_writeToPointer>
10003ba8:	2800      	cmp	r0, #0
10003baa:	d015      	beq.n	10003bd8 <mpu_set_sample_rate+0x9c>
10003bac:	466b      	mov	r3, sp
10003bae:	79d9      	ldrb	r1, [r3, #7]
10003bb0:	3101      	adds	r1, #1
10003bb2:	20fa      	movs	r0, #250	; 0xfa
10003bb4:	0080      	lsls	r0, r0, #2
10003bb6:	f004 f83d 	bl	10007c34 <__wrap___aeabi_idiv>
10003bba:	b280      	uxth	r0, r0
10003bbc:	4b08      	ldr	r3, [pc, #32]	; (10003be0 <mpu_set_sample_rate+0xa4>)
10003bbe:	81d8      	strh	r0, [r3, #14]
10003bc0:	0840      	lsrs	r0, r0, #1
10003bc2:	f7ff fd75 	bl	100036b0 <mpu_set_lpf>
10003bc6:	2000      	movs	r0, #0
10003bc8:	b002      	add	sp, #8
10003bca:	bd10      	pop	{r4, pc}
10003bcc:	2001      	movs	r0, #1
10003bce:	4240      	negs	r0, r0
10003bd0:	e7fa      	b.n	10003bc8 <mpu_set_sample_rate+0x8c>
10003bd2:	2001      	movs	r0, #1
10003bd4:	4240      	negs	r0, r0
10003bd6:	e7f7      	b.n	10003bc8 <mpu_set_sample_rate+0x8c>
10003bd8:	2001      	movs	r0, #1
10003bda:	4240      	negs	r0, r0
10003bdc:	e7f4      	b.n	10003bc8 <mpu_set_sample_rate+0x8c>
10003bde:	46c0      	nop			; (mov r8, r8)
10003be0:	20000a80 	.word	0x20000a80

10003be4 <mpu_set_sensors>:
10003be4:	b510      	push	{r4, lr}
10003be6:	b082      	sub	sp, #8
10003be8:	0004      	movs	r4, r0
10003bea:	2370      	movs	r3, #112	; 0x70
10003bec:	4203      	tst	r3, r0
10003bee:	d04e      	beq.n	10003c8e <mpu_set_sensors+0xaa>
10003bf0:	466b      	mov	r3, sp
10003bf2:	2201      	movs	r2, #1
10003bf4:	71da      	strb	r2, [r3, #7]
10003bf6:	4b32      	ldr	r3, [pc, #200]	; (10003cc0 <mpu_set_sensors+0xdc>)
10003bf8:	685a      	ldr	r2, [r3, #4]
10003bfa:	681b      	ldr	r3, [r3, #0]
10003bfc:	7d59      	ldrb	r1, [r3, #21]
10003bfe:	7810      	ldrb	r0, [r2, #0]
10003c00:	466b      	mov	r3, sp
10003c02:	3307      	adds	r3, #7
10003c04:	2201      	movs	r2, #1
10003c06:	f7fe feba 	bl	1000297e <twi_writeToPointer>
10003c0a:	2800      	cmp	r0, #0
10003c0c:	d049      	beq.n	10003ca2 <mpu_set_sensors+0xbe>
10003c0e:	466b      	mov	r3, sp
10003c10:	1dda      	adds	r2, r3, #7
10003c12:	79db      	ldrb	r3, [r3, #7]
10003c14:	2140      	movs	r1, #64	; 0x40
10003c16:	438b      	bics	r3, r1
10003c18:	4929      	ldr	r1, [pc, #164]	; (10003cc0 <mpu_set_sensors+0xdc>)
10003c1a:	730b      	strb	r3, [r1, #12]
10003c1c:	2300      	movs	r3, #0
10003c1e:	7013      	strb	r3, [r2, #0]
10003c20:	0663      	lsls	r3, r4, #25
10003c22:	d402      	bmi.n	10003c2a <mpu_set_sensors+0x46>
10003c24:	0013      	movs	r3, r2
10003c26:	2204      	movs	r2, #4
10003c28:	701a      	strb	r2, [r3, #0]
10003c2a:	06a3      	lsls	r3, r4, #26
10003c2c:	d405      	bmi.n	10003c3a <mpu_set_sensors+0x56>
10003c2e:	466b      	mov	r3, sp
10003c30:	1dda      	adds	r2, r3, #7
10003c32:	79db      	ldrb	r3, [r3, #7]
10003c34:	2102      	movs	r1, #2
10003c36:	430b      	orrs	r3, r1
10003c38:	7013      	strb	r3, [r2, #0]
10003c3a:	06e3      	lsls	r3, r4, #27
10003c3c:	d405      	bmi.n	10003c4a <mpu_set_sensors+0x66>
10003c3e:	466b      	mov	r3, sp
10003c40:	1dda      	adds	r2, r3, #7
10003c42:	79db      	ldrb	r3, [r3, #7]
10003c44:	2101      	movs	r1, #1
10003c46:	430b      	orrs	r3, r1
10003c48:	7013      	strb	r3, [r2, #0]
10003c4a:	0723      	lsls	r3, r4, #28
10003c4c:	d405      	bmi.n	10003c5a <mpu_set_sensors+0x76>
10003c4e:	466b      	mov	r3, sp
10003c50:	1dda      	adds	r2, r3, #7
10003c52:	79db      	ldrb	r3, [r3, #7]
10003c54:	2138      	movs	r1, #56	; 0x38
10003c56:	430b      	orrs	r3, r1
10003c58:	7013      	strb	r3, [r2, #0]
10003c5a:	4b19      	ldr	r3, [pc, #100]	; (10003cc0 <mpu_set_sensors+0xdc>)
10003c5c:	685a      	ldr	r2, [r3, #4]
10003c5e:	681b      	ldr	r3, [r3, #0]
10003c60:	7d99      	ldrb	r1, [r3, #22]
10003c62:	7810      	ldrb	r0, [r2, #0]
10003c64:	466b      	mov	r3, sp
10003c66:	3307      	adds	r3, #7
10003c68:	2201      	movs	r2, #1
10003c6a:	f7fe fe88 	bl	1000297e <twi_writeToPointer>
10003c6e:	2800      	cmp	r0, #0
10003c70:	d01c      	beq.n	10003cac <mpu_set_sensors+0xc8>
10003c72:	2c00      	cmp	r4, #0
10003c74:	d001      	beq.n	10003c7a <mpu_set_sensors+0x96>
10003c76:	2c08      	cmp	r4, #8
10003c78:	d11d      	bne.n	10003cb6 <mpu_set_sensors+0xd2>
10003c7a:	4b11      	ldr	r3, [pc, #68]	; (10003cc0 <mpu_set_sensors+0xdc>)
10003c7c:	729c      	strb	r4, [r3, #10]
10003c7e:	2200      	movs	r2, #0
10003c80:	751a      	strb	r2, [r3, #20]
10003c82:	2032      	movs	r0, #50	; 0x32
10003c84:	f000 fc1a 	bl	100044bc <_delay_ms>
10003c88:	2000      	movs	r0, #0
10003c8a:	b002      	add	sp, #8
10003c8c:	bd10      	pop	{r4, pc}
10003c8e:	2800      	cmp	r0, #0
10003c90:	d003      	beq.n	10003c9a <mpu_set_sensors+0xb6>
10003c92:	466b      	mov	r3, sp
10003c94:	2200      	movs	r2, #0
10003c96:	71da      	strb	r2, [r3, #7]
10003c98:	e7ad      	b.n	10003bf6 <mpu_set_sensors+0x12>
10003c9a:	466b      	mov	r3, sp
10003c9c:	2240      	movs	r2, #64	; 0x40
10003c9e:	71da      	strb	r2, [r3, #7]
10003ca0:	e7a9      	b.n	10003bf6 <mpu_set_sensors+0x12>
10003ca2:	4b07      	ldr	r3, [pc, #28]	; (10003cc0 <mpu_set_sensors+0xdc>)
10003ca4:	2200      	movs	r2, #0
10003ca6:	729a      	strb	r2, [r3, #10]
10003ca8:	3801      	subs	r0, #1
10003caa:	e7ee      	b.n	10003c8a <mpu_set_sensors+0xa6>
10003cac:	4b04      	ldr	r3, [pc, #16]	; (10003cc0 <mpu_set_sensors+0xdc>)
10003cae:	2200      	movs	r2, #0
10003cb0:	729a      	strb	r2, [r3, #10]
10003cb2:	3801      	subs	r0, #1
10003cb4:	e7e9      	b.n	10003c8a <mpu_set_sensors+0xa6>
10003cb6:	2000      	movs	r0, #0
10003cb8:	f7ff fe96 	bl	100039e8 <mpu_set_int_latched>
10003cbc:	e7dd      	b.n	10003c7a <mpu_set_sensors+0x96>
10003cbe:	46c0      	nop			; (mov r8, r8)
10003cc0:	20000a80 	.word	0x20000a80

10003cc4 <mpu_init>:
10003cc4:	b530      	push	{r4, r5, lr}
10003cc6:	b083      	sub	sp, #12
10003cc8:	2380      	movs	r3, #128	; 0x80
10003cca:	466a      	mov	r2, sp
10003ccc:	7013      	strb	r3, [r2, #0]
10003cce:	4b3c      	ldr	r3, [pc, #240]	; (10003dc0 <mpu_init+0xfc>)
10003cd0:	685a      	ldr	r2, [r3, #4]
10003cd2:	681b      	ldr	r3, [r3, #0]
10003cd4:	7d59      	ldrb	r1, [r3, #21]
10003cd6:	7810      	ldrb	r0, [r2, #0]
10003cd8:	466b      	mov	r3, sp
10003cda:	2201      	movs	r2, #1
10003cdc:	f7fe fe4f 	bl	1000297e <twi_writeToPointer>
10003ce0:	2800      	cmp	r0, #0
10003ce2:	d054      	beq.n	10003d8e <mpu_init+0xca>
10003ce4:	20fa      	movs	r0, #250	; 0xfa
10003ce6:	0040      	lsls	r0, r0, #1
10003ce8:	f000 fbe8 	bl	100044bc <_delay_ms>
10003cec:	2300      	movs	r3, #0
10003cee:	466a      	mov	r2, sp
10003cf0:	7013      	strb	r3, [r2, #0]
10003cf2:	4b33      	ldr	r3, [pc, #204]	; (10003dc0 <mpu_init+0xfc>)
10003cf4:	685a      	ldr	r2, [r3, #4]
10003cf6:	681b      	ldr	r3, [r3, #0]
10003cf8:	7d59      	ldrb	r1, [r3, #21]
10003cfa:	7810      	ldrb	r0, [r2, #0]
10003cfc:	466b      	mov	r3, sp
10003cfe:	2201      	movs	r2, #1
10003d00:	f7fe fe3d 	bl	1000297e <twi_writeToPointer>
10003d04:	2800      	cmp	r0, #0
10003d06:	d045      	beq.n	10003d94 <mpu_init+0xd0>
10003d08:	4c2d      	ldr	r4, [pc, #180]	; (10003dc0 <mpu_init+0xfc>)
10003d0a:	2500      	movs	r5, #0
10003d0c:	74e5      	strb	r5, [r4, #19]
10003d0e:	23ff      	movs	r3, #255	; 0xff
10003d10:	72a3      	strb	r3, [r4, #10]
10003d12:	7223      	strb	r3, [r4, #8]
10003d14:	7263      	strb	r3, [r4, #9]
10003d16:	72e3      	strb	r3, [r4, #11]
10003d18:	2201      	movs	r2, #1
10003d1a:	4252      	negs	r2, r2
10003d1c:	81e2      	strh	r2, [r4, #14]
10003d1e:	7423      	strb	r3, [r4, #16]
10003d20:	74a3      	strb	r3, [r4, #18]
10003d22:	3bfe      	subs	r3, #254	; 0xfe
10003d24:	7323      	strb	r3, [r4, #12]
10003d26:	3223      	adds	r2, #35	; 0x23
10003d28:	54a3      	strb	r3, [r4, r2]
10003d2a:	3322      	adds	r3, #34	; 0x22
10003d2c:	54e5      	strb	r5, [r4, r3]
10003d2e:	7565      	strb	r5, [r4, #21]
10003d30:	7525      	strb	r5, [r4, #20]
10003d32:	0020      	movs	r0, r4
10003d34:	3016      	adds	r0, #22
10003d36:	3a16      	subs	r2, #22
10003d38:	2100      	movs	r1, #0
10003d3a:	f004 fec5 	bl	10008ac8 <__wrap_memset>
10003d3e:	2324      	movs	r3, #36	; 0x24
10003d40:	54e5      	strb	r5, [r4, r3]
10003d42:	3301      	adds	r3, #1
10003d44:	54e5      	strb	r5, [r4, r3]
10003d46:	84e5      	strh	r5, [r4, #38]	; 0x26
10003d48:	20fa      	movs	r0, #250	; 0xfa
10003d4a:	00c0      	lsls	r0, r0, #3
10003d4c:	f7ff fc12 	bl	10003574 <mpu_set_gyro_fsr>
10003d50:	2800      	cmp	r0, #0
10003d52:	d122      	bne.n	10003d9a <mpu_init+0xd6>
10003d54:	3002      	adds	r0, #2
10003d56:	f7ff fc5f 	bl	10003618 <mpu_set_accel_fsr>
10003d5a:	2800      	cmp	r0, #0
10003d5c:	d120      	bne.n	10003da0 <mpu_init+0xdc>
10003d5e:	302a      	adds	r0, #42	; 0x2a
10003d60:	f7ff fca6 	bl	100036b0 <mpu_set_lpf>
10003d64:	2800      	cmp	r0, #0
10003d66:	d11e      	bne.n	10003da6 <mpu_init+0xe2>
10003d68:	3032      	adds	r0, #50	; 0x32
10003d6a:	f7ff fee7 	bl	10003b3c <mpu_set_sample_rate>
10003d6e:	2800      	cmp	r0, #0
10003d70:	d11c      	bne.n	10003dac <mpu_init+0xe8>
10003d72:	f7ff fce9 	bl	10003748 <mpu_configure_fifo>
10003d76:	2800      	cmp	r0, #0
10003d78:	d11b      	bne.n	10003db2 <mpu_init+0xee>
10003d7a:	f7ff fd7d 	bl	10003878 <mpu_set_bypass>
10003d7e:	1e04      	subs	r4, r0, #0
10003d80:	d11a      	bne.n	10003db8 <mpu_init+0xf4>
10003d82:	2000      	movs	r0, #0
10003d84:	f7ff ff2e 	bl	10003be4 <mpu_set_sensors>
10003d88:	0020      	movs	r0, r4
10003d8a:	b003      	add	sp, #12
10003d8c:	bd30      	pop	{r4, r5, pc}
10003d8e:	2401      	movs	r4, #1
10003d90:	4264      	negs	r4, r4
10003d92:	e7f9      	b.n	10003d88 <mpu_init+0xc4>
10003d94:	2402      	movs	r4, #2
10003d96:	4264      	negs	r4, r4
10003d98:	e7f6      	b.n	10003d88 <mpu_init+0xc4>
10003d9a:	241e      	movs	r4, #30
10003d9c:	4264      	negs	r4, r4
10003d9e:	e7f3      	b.n	10003d88 <mpu_init+0xc4>
10003da0:	241f      	movs	r4, #31
10003da2:	4264      	negs	r4, r4
10003da4:	e7f0      	b.n	10003d88 <mpu_init+0xc4>
10003da6:	2420      	movs	r4, #32
10003da8:	4264      	negs	r4, r4
10003daa:	e7ed      	b.n	10003d88 <mpu_init+0xc4>
10003dac:	2421      	movs	r4, #33	; 0x21
10003dae:	4264      	negs	r4, r4
10003db0:	e7ea      	b.n	10003d88 <mpu_init+0xc4>
10003db2:	2422      	movs	r4, #34	; 0x22
10003db4:	4264      	negs	r4, r4
10003db6:	e7e7      	b.n	10003d88 <mpu_init+0xc4>
10003db8:	2404      	movs	r4, #4
10003dba:	4264      	negs	r4, r4
10003dbc:	e7e4      	b.n	10003d88 <mpu_init+0xc4>
10003dbe:	46c0      	nop			; (mov r8, r8)
10003dc0:	20000a80 	.word	0x20000a80

10003dc4 <mpu_write_mem>:
10003dc4:	b530      	push	{r4, r5, lr}
10003dc6:	b083      	sub	sp, #12
10003dc8:	000c      	movs	r4, r1
10003dca:	1e15      	subs	r5, r2, #0
10003dcc:	d026      	beq.n	10003e1c <mpu_write_mem+0x58>
10003dce:	4b1b      	ldr	r3, [pc, #108]	; (10003e3c <mpu_write_mem+0x78>)
10003dd0:	7a9b      	ldrb	r3, [r3, #10]
10003dd2:	2b00      	cmp	r3, #0
10003dd4:	d025      	beq.n	10003e22 <mpu_write_mem+0x5e>
10003dd6:	0a02      	lsrs	r2, r0, #8
10003dd8:	ab01      	add	r3, sp, #4
10003dda:	701a      	strb	r2, [r3, #0]
10003ddc:	b2c0      	uxtb	r0, r0
10003dde:	7058      	strb	r0, [r3, #1]
10003de0:	1808      	adds	r0, r1, r0
10003de2:	4b16      	ldr	r3, [pc, #88]	; (10003e3c <mpu_write_mem+0x78>)
10003de4:	685b      	ldr	r3, [r3, #4]
10003de6:	895a      	ldrh	r2, [r3, #10]
10003de8:	4290      	cmp	r0, r2
10003dea:	dc1d      	bgt.n	10003e28 <mpu_write_mem+0x64>
10003dec:	4a13      	ldr	r2, [pc, #76]	; (10003e3c <mpu_write_mem+0x78>)
10003dee:	6812      	ldr	r2, [r2, #0]
10003df0:	7ed1      	ldrb	r1, [r2, #27]
10003df2:	7818      	ldrb	r0, [r3, #0]
10003df4:	ab01      	add	r3, sp, #4
10003df6:	2202      	movs	r2, #2
10003df8:	f7fe fdc1 	bl	1000297e <twi_writeToPointer>
10003dfc:	2800      	cmp	r0, #0
10003dfe:	d016      	beq.n	10003e2e <mpu_write_mem+0x6a>
10003e00:	4b0e      	ldr	r3, [pc, #56]	; (10003e3c <mpu_write_mem+0x78>)
10003e02:	6858      	ldr	r0, [r3, #4]
10003e04:	681b      	ldr	r3, [r3, #0]
10003e06:	b2e2      	uxtb	r2, r4
10003e08:	7e19      	ldrb	r1, [r3, #24]
10003e0a:	7800      	ldrb	r0, [r0, #0]
10003e0c:	002b      	movs	r3, r5
10003e0e:	f7fe fdb6 	bl	1000297e <twi_writeToPointer>
10003e12:	2800      	cmp	r0, #0
10003e14:	d00e      	beq.n	10003e34 <mpu_write_mem+0x70>
10003e16:	2000      	movs	r0, #0
10003e18:	b003      	add	sp, #12
10003e1a:	bd30      	pop	{r4, r5, pc}
10003e1c:	2001      	movs	r0, #1
10003e1e:	4240      	negs	r0, r0
10003e20:	e7fa      	b.n	10003e18 <mpu_write_mem+0x54>
10003e22:	2001      	movs	r0, #1
10003e24:	4240      	negs	r0, r0
10003e26:	e7f7      	b.n	10003e18 <mpu_write_mem+0x54>
10003e28:	2001      	movs	r0, #1
10003e2a:	4240      	negs	r0, r0
10003e2c:	e7f4      	b.n	10003e18 <mpu_write_mem+0x54>
10003e2e:	2001      	movs	r0, #1
10003e30:	4240      	negs	r0, r0
10003e32:	e7f1      	b.n	10003e18 <mpu_write_mem+0x54>
10003e34:	2001      	movs	r0, #1
10003e36:	4240      	negs	r0, r0
10003e38:	e7ee      	b.n	10003e18 <mpu_write_mem+0x54>
10003e3a:	46c0      	nop			; (mov r8, r8)
10003e3c:	20000a80 	.word	0x20000a80

10003e40 <mpu_read_mem>:
10003e40:	b530      	push	{r4, r5, lr}
10003e42:	b083      	sub	sp, #12
10003e44:	000c      	movs	r4, r1
10003e46:	1e15      	subs	r5, r2, #0
10003e48:	d026      	beq.n	10003e98 <mpu_read_mem+0x58>
10003e4a:	4b1b      	ldr	r3, [pc, #108]	; (10003eb8 <mpu_read_mem+0x78>)
10003e4c:	7a9b      	ldrb	r3, [r3, #10]
10003e4e:	2b00      	cmp	r3, #0
10003e50:	d025      	beq.n	10003e9e <mpu_read_mem+0x5e>
10003e52:	0a02      	lsrs	r2, r0, #8
10003e54:	ab01      	add	r3, sp, #4
10003e56:	701a      	strb	r2, [r3, #0]
10003e58:	b2c0      	uxtb	r0, r0
10003e5a:	7058      	strb	r0, [r3, #1]
10003e5c:	1808      	adds	r0, r1, r0
10003e5e:	4b16      	ldr	r3, [pc, #88]	; (10003eb8 <mpu_read_mem+0x78>)
10003e60:	685b      	ldr	r3, [r3, #4]
10003e62:	895a      	ldrh	r2, [r3, #10]
10003e64:	4290      	cmp	r0, r2
10003e66:	dc1d      	bgt.n	10003ea4 <mpu_read_mem+0x64>
10003e68:	4a13      	ldr	r2, [pc, #76]	; (10003eb8 <mpu_read_mem+0x78>)
10003e6a:	6812      	ldr	r2, [r2, #0]
10003e6c:	7ed1      	ldrb	r1, [r2, #27]
10003e6e:	7818      	ldrb	r0, [r3, #0]
10003e70:	ab01      	add	r3, sp, #4
10003e72:	2202      	movs	r2, #2
10003e74:	f7fe fd83 	bl	1000297e <twi_writeToPointer>
10003e78:	2800      	cmp	r0, #0
10003e7a:	d016      	beq.n	10003eaa <mpu_read_mem+0x6a>
10003e7c:	4b0e      	ldr	r3, [pc, #56]	; (10003eb8 <mpu_read_mem+0x78>)
10003e7e:	6858      	ldr	r0, [r3, #4]
10003e80:	681b      	ldr	r3, [r3, #0]
10003e82:	b2e2      	uxtb	r2, r4
10003e84:	7e19      	ldrb	r1, [r3, #24]
10003e86:	7800      	ldrb	r0, [r0, #0]
10003e88:	002b      	movs	r3, r5
10003e8a:	f7fe fd58 	bl	1000293e <twi_readFromPointer>
10003e8e:	2800      	cmp	r0, #0
10003e90:	d00e      	beq.n	10003eb0 <mpu_read_mem+0x70>
10003e92:	2000      	movs	r0, #0
10003e94:	b003      	add	sp, #12
10003e96:	bd30      	pop	{r4, r5, pc}
10003e98:	2001      	movs	r0, #1
10003e9a:	4240      	negs	r0, r0
10003e9c:	e7fa      	b.n	10003e94 <mpu_read_mem+0x54>
10003e9e:	2001      	movs	r0, #1
10003ea0:	4240      	negs	r0, r0
10003ea2:	e7f7      	b.n	10003e94 <mpu_read_mem+0x54>
10003ea4:	2001      	movs	r0, #1
10003ea6:	4240      	negs	r0, r0
10003ea8:	e7f4      	b.n	10003e94 <mpu_read_mem+0x54>
10003eaa:	2001      	movs	r0, #1
10003eac:	4240      	negs	r0, r0
10003eae:	e7f1      	b.n	10003e94 <mpu_read_mem+0x54>
10003eb0:	2001      	movs	r0, #1
10003eb2:	4240      	negs	r0, r0
10003eb4:	e7ee      	b.n	10003e94 <mpu_read_mem+0x54>
10003eb6:	46c0      	nop			; (mov r8, r8)
10003eb8:	20000a80 	.word	0x20000a80

10003ebc <mpu_load_firmware>:
10003ebc:	b5f0      	push	{r4, r5, r6, r7, lr}
10003ebe:	46ce      	mov	lr, r9
10003ec0:	b500      	push	{lr}
10003ec2:	b08c      	sub	sp, #48	; 0x30
10003ec4:	0006      	movs	r6, r0
10003ec6:	000d      	movs	r5, r1
10003ec8:	9200      	str	r2, [sp, #0]
10003eca:	9301      	str	r3, [sp, #4]
10003ecc:	4a2f      	ldr	r2, [pc, #188]	; (10003f8c <mpu_load_firmware+0xd0>)
10003ece:	2325      	movs	r3, #37	; 0x25
10003ed0:	5cd3      	ldrb	r3, [r2, r3]
10003ed2:	2b00      	cmp	r3, #0
10003ed4:	d148      	bne.n	10003f68 <mpu_load_firmware+0xac>
10003ed6:	2900      	cmp	r1, #0
10003ed8:	d049      	beq.n	10003f6e <mpu_load_firmware+0xb2>
10003eda:	2700      	movs	r7, #0
10003edc:	e01f      	b.n	10003f1e <mpu_load_firmware+0x62>
10003ede:	18fa      	adds	r2, r7, r3
10003ee0:	5ca9      	ldrb	r1, [r5, r2]
10003ee2:	aa03      	add	r2, sp, #12
10003ee4:	54d1      	strb	r1, [r2, r3]
10003ee6:	3301      	adds	r3, #1
10003ee8:	0404      	lsls	r4, r0, #16
10003eea:	0c24      	lsrs	r4, r4, #16
10003eec:	42a3      	cmp	r3, r4
10003eee:	dbf6      	blt.n	10003ede <mpu_load_firmware+0x22>
10003ef0:	aa03      	add	r2, sp, #12
10003ef2:	4649      	mov	r1, r9
10003ef4:	0038      	movs	r0, r7
10003ef6:	f7ff ff65 	bl	10003dc4 <mpu_write_mem>
10003efa:	2800      	cmp	r0, #0
10003efc:	d13a      	bne.n	10003f74 <mpu_load_firmware+0xb8>
10003efe:	aa08      	add	r2, sp, #32
10003f00:	4649      	mov	r1, r9
10003f02:	0038      	movs	r0, r7
10003f04:	f7ff ff9c 	bl	10003e40 <mpu_read_mem>
10003f08:	2800      	cmp	r0, #0
10003f0a:	d136      	bne.n	10003f7a <mpu_load_firmware+0xbe>
10003f0c:	0022      	movs	r2, r4
10003f0e:	a908      	add	r1, sp, #32
10003f10:	a803      	add	r0, sp, #12
10003f12:	f007 fce1 	bl	1000b8d8 <memcmp>
10003f16:	2800      	cmp	r0, #0
10003f18:	d132      	bne.n	10003f80 <mpu_load_firmware+0xc4>
10003f1a:	444f      	add	r7, r9
10003f1c:	b2bf      	uxth	r7, r7
10003f1e:	42b7      	cmp	r7, r6
10003f20:	d207      	bcs.n	10003f32 <mpu_load_firmware+0x76>
10003f22:	1bf0      	subs	r0, r6, r7
10003f24:	2810      	cmp	r0, #16
10003f26:	dd00      	ble.n	10003f2a <mpu_load_firmware+0x6e>
10003f28:	2010      	movs	r0, #16
10003f2a:	b283      	uxth	r3, r0
10003f2c:	4699      	mov	r9, r3
10003f2e:	2300      	movs	r3, #0
10003f30:	e7da      	b.n	10003ee8 <mpu_load_firmware+0x2c>
10003f32:	9a00      	ldr	r2, [sp, #0]
10003f34:	0a13      	lsrs	r3, r2, #8
10003f36:	a902      	add	r1, sp, #8
10003f38:	750b      	strb	r3, [r1, #20]
10003f3a:	754a      	strb	r2, [r1, #21]
10003f3c:	4b13      	ldr	r3, [pc, #76]	; (10003f8c <mpu_load_firmware+0xd0>)
10003f3e:	685a      	ldr	r2, [r3, #4]
10003f40:	681b      	ldr	r3, [r3, #0]
10003f42:	7f59      	ldrb	r1, [r3, #29]
10003f44:	7810      	ldrb	r0, [r2, #0]
10003f46:	ab07      	add	r3, sp, #28
10003f48:	2202      	movs	r2, #2
10003f4a:	f7fe fd18 	bl	1000297e <twi_writeToPointer>
10003f4e:	2800      	cmp	r0, #0
10003f50:	d019      	beq.n	10003f86 <mpu_load_firmware+0xca>
10003f52:	4b0e      	ldr	r3, [pc, #56]	; (10003f8c <mpu_load_firmware+0xd0>)
10003f54:	2225      	movs	r2, #37	; 0x25
10003f56:	2101      	movs	r1, #1
10003f58:	5499      	strb	r1, [r3, r2]
10003f5a:	9a01      	ldr	r2, [sp, #4]
10003f5c:	84da      	strh	r2, [r3, #38]	; 0x26
10003f5e:	2000      	movs	r0, #0
10003f60:	b00c      	add	sp, #48	; 0x30
10003f62:	bc80      	pop	{r7}
10003f64:	46b9      	mov	r9, r7
10003f66:	bdf0      	pop	{r4, r5, r6, r7, pc}
10003f68:	2001      	movs	r0, #1
10003f6a:	4240      	negs	r0, r0
10003f6c:	e7f8      	b.n	10003f60 <mpu_load_firmware+0xa4>
10003f6e:	2001      	movs	r0, #1
10003f70:	4240      	negs	r0, r0
10003f72:	e7f5      	b.n	10003f60 <mpu_load_firmware+0xa4>
10003f74:	2002      	movs	r0, #2
10003f76:	4240      	negs	r0, r0
10003f78:	e7f2      	b.n	10003f60 <mpu_load_firmware+0xa4>
10003f7a:	2003      	movs	r0, #3
10003f7c:	4240      	negs	r0, r0
10003f7e:	e7ef      	b.n	10003f60 <mpu_load_firmware+0xa4>
10003f80:	2004      	movs	r0, #4
10003f82:	4240      	negs	r0, r0
10003f84:	e7ec      	b.n	10003f60 <mpu_load_firmware+0xa4>
10003f86:	2005      	movs	r0, #5
10003f88:	4240      	negs	r0, r0
10003f8a:	e7e9      	b.n	10003f60 <mpu_load_firmware+0xa4>
10003f8c:	20000a80 	.word	0x20000a80

10003f90 <mpu_set_dmp_state>:
10003f90:	b510      	push	{r4, lr}
10003f92:	b082      	sub	sp, #8
10003f94:	4a27      	ldr	r2, [pc, #156]	; (10004034 <mpu_set_dmp_state+0xa4>)
10003f96:	2324      	movs	r3, #36	; 0x24
10003f98:	5cd3      	ldrb	r3, [r2, r3]
10003f9a:	4283      	cmp	r3, r0
10003f9c:	d03f      	beq.n	1000401e <mpu_set_dmp_state+0x8e>
10003f9e:	2800      	cmp	r0, #0
10003fa0:	d025      	beq.n	10003fee <mpu_set_dmp_state+0x5e>
10003fa2:	2325      	movs	r3, #37	; 0x25
10003fa4:	5cd3      	ldrb	r3, [r2, r3]
10003fa6:	2b00      	cmp	r3, #0
10003fa8:	d03b      	beq.n	10004022 <mpu_set_dmp_state+0x92>
10003faa:	2000      	movs	r0, #0
10003fac:	f7ff f98e 	bl	100032cc <set_int_enable>
10003fb0:	2000      	movs	r0, #0
10003fb2:	f7ff fc61 	bl	10003878 <mpu_set_bypass>
10003fb6:	4c1f      	ldr	r4, [pc, #124]	; (10004034 <mpu_set_dmp_state+0xa4>)
10003fb8:	8ce0      	ldrh	r0, [r4, #38]	; 0x26
10003fba:	f7ff fdbf 	bl	10003b3c <mpu_set_sample_rate>
10003fbe:	466b      	mov	r3, sp
10003fc0:	3307      	adds	r3, #7
10003fc2:	2200      	movs	r2, #0
10003fc4:	701a      	strb	r2, [r3, #0]
10003fc6:	6862      	ldr	r2, [r4, #4]
10003fc8:	7810      	ldrb	r0, [r2, #0]
10003fca:	2201      	movs	r2, #1
10003fcc:	2123      	movs	r1, #35	; 0x23
10003fce:	f7fe fcd6 	bl	1000297e <twi_writeToPointer>
10003fd2:	2800      	cmp	r0, #0
10003fd4:	d028      	beq.n	10004028 <mpu_set_dmp_state+0x98>
10003fd6:	4a17      	ldr	r2, [pc, #92]	; (10004034 <mpu_set_dmp_state+0xa4>)
10003fd8:	2324      	movs	r3, #36	; 0x24
10003fda:	2101      	movs	r1, #1
10003fdc:	54d1      	strb	r1, [r2, r3]
10003fde:	2001      	movs	r0, #1
10003fe0:	f7ff f974 	bl	100032cc <set_int_enable>
10003fe4:	f7ff f9c8 	bl	10003378 <mpu_reset_fifo>
10003fe8:	2000      	movs	r0, #0
10003fea:	b002      	add	sp, #8
10003fec:	bd10      	pop	{r4, pc}
10003fee:	2000      	movs	r0, #0
10003ff0:	f7ff f96c 	bl	100032cc <set_int_enable>
10003ff4:	4a0f      	ldr	r2, [pc, #60]	; (10004034 <mpu_set_dmp_state+0xa4>)
10003ff6:	7c11      	ldrb	r1, [r2, #16]
10003ff8:	466b      	mov	r3, sp
10003ffa:	3307      	adds	r3, #7
10003ffc:	7019      	strb	r1, [r3, #0]
10003ffe:	6852      	ldr	r2, [r2, #4]
10004000:	7810      	ldrb	r0, [r2, #0]
10004002:	2201      	movs	r2, #1
10004004:	2123      	movs	r1, #35	; 0x23
10004006:	f7fe fcba 	bl	1000297e <twi_writeToPointer>
1000400a:	2800      	cmp	r0, #0
1000400c:	d00f      	beq.n	1000402e <mpu_set_dmp_state+0x9e>
1000400e:	4a09      	ldr	r2, [pc, #36]	; (10004034 <mpu_set_dmp_state+0xa4>)
10004010:	2324      	movs	r3, #36	; 0x24
10004012:	2100      	movs	r1, #0
10004014:	54d1      	strb	r1, [r2, r3]
10004016:	f7ff f9af 	bl	10003378 <mpu_reset_fifo>
1000401a:	2000      	movs	r0, #0
1000401c:	e7e5      	b.n	10003fea <mpu_set_dmp_state+0x5a>
1000401e:	2000      	movs	r0, #0
10004020:	e7e3      	b.n	10003fea <mpu_set_dmp_state+0x5a>
10004022:	2001      	movs	r0, #1
10004024:	4240      	negs	r0, r0
10004026:	e7e0      	b.n	10003fea <mpu_set_dmp_state+0x5a>
10004028:	2001      	movs	r0, #1
1000402a:	4240      	negs	r0, r0
1000402c:	e7dd      	b.n	10003fea <mpu_set_dmp_state+0x5a>
1000402e:	2001      	movs	r0, #1
10004030:	4240      	negs	r0, r0
10004032:	e7da      	b.n	10003fea <mpu_set_dmp_state+0x5a>
10004034:	20000a80 	.word	0x20000a80

10004038 <quaternionToEuler>:
10004038:	b5f8      	push	{r3, r4, r5, r6, r7, lr}
1000403a:	46de      	mov	lr, fp
1000403c:	4657      	mov	r7, sl
1000403e:	464e      	mov	r6, r9
10004040:	4645      	mov	r5, r8
10004042:	b5e0      	push	{r5, r6, r7, lr}
10004044:	000e      	movs	r6, r1
10004046:	2102      	movs	r1, #2
10004048:	5e43      	ldrsh	r3, [r0, r1]
1000404a:	469a      	mov	sl, r3
1000404c:	8845      	ldrh	r5, [r0, #2]
1000404e:	2306      	movs	r3, #6
10004050:	5ec1      	ldrsh	r1, [r0, r3]
10004052:	468b      	mov	fp, r1
10004054:	88c3      	ldrh	r3, [r0, #6]
10004056:	435d      	muls	r5, r3
10004058:	b2ad      	uxth	r5, r5
1000405a:	2700      	movs	r7, #0
1000405c:	5fc4      	ldrsh	r4, [r0, r7]
1000405e:	46a4      	mov	ip, r4
10004060:	8804      	ldrh	r4, [r0, #0]
10004062:	2104      	movs	r1, #4
10004064:	5e47      	ldrsh	r7, [r0, r1]
10004066:	46b8      	mov	r8, r7
10004068:	8887      	ldrh	r7, [r0, #4]
1000406a:	0038      	movs	r0, r7
1000406c:	4360      	muls	r0, r4
1000406e:	b280      	uxth	r0, r0
10004070:	1a28      	subs	r0, r5, r0
10004072:	b200      	sxth	r0, r0
10004074:	4d2a      	ldr	r5, [pc, #168]	; (10004120 <quaternionToEuler+0xe8>)
10004076:	8028      	strh	r0, [r5, #0]
10004078:	003d      	movs	r5, r7
1000407a:	437d      	muls	r5, r7
1000407c:	b22d      	sxth	r5, r5
1000407e:	4f29      	ldr	r7, [pc, #164]	; (10004124 <quaternionToEuler+0xec>)
10004080:	803d      	strh	r5, [r7, #0]
10004082:	435b      	muls	r3, r3
10004084:	b21b      	sxth	r3, r3
10004086:	4f28      	ldr	r7, [pc, #160]	; (10004128 <quaternionToEuler+0xf0>)
10004088:	803b      	strh	r3, [r7, #0]
1000408a:	4364      	muls	r4, r4
1000408c:	b224      	sxth	r4, r4
1000408e:	4f27      	ldr	r7, [pc, #156]	; (1000412c <quaternionToEuler+0xf4>)
10004090:	803c      	strh	r4, [r7, #0]
10004092:	2a01      	cmp	r2, #1
10004094:	d02c      	beq.n	100040f0 <quaternionToEuler+0xb8>
10004096:	2a02      	cmp	r2, #2
10004098:	d02e      	beq.n	100040f8 <quaternionToEuler+0xc0>
1000409a:	2a00      	cmp	r2, #0
1000409c:	d015      	beq.n	100040ca <quaternionToEuler+0x92>
1000409e:	2300      	movs	r3, #0
100040a0:	5ef2      	ldrsh	r2, [r6, r3]
100040a2:	4b23      	ldr	r3, [pc, #140]	; (10004130 <quaternionToEuler+0xf8>)
100040a4:	429a      	cmp	r2, r3
100040a6:	dd00      	ble.n	100040aa <quaternionToEuler+0x72>
100040a8:	8033      	strh	r3, [r6, #0]
100040aa:	2300      	movs	r3, #0
100040ac:	5ef2      	ldrsh	r2, [r6, r3]
100040ae:	4b21      	ldr	r3, [pc, #132]	; (10004134 <quaternionToEuler+0xfc>)
100040b0:	429a      	cmp	r2, r3
100040b2:	da00      	bge.n	100040b6 <quaternionToEuler+0x7e>
100040b4:	8033      	strh	r3, [r6, #0]
100040b6:	8833      	ldrh	r3, [r6, #0]
100040b8:	009a      	lsls	r2, r3, #2
100040ba:	189b      	adds	r3, r3, r2
100040bc:	8033      	strh	r3, [r6, #0]
100040be:	bcf0      	pop	{r4, r5, r6, r7}
100040c0:	46bb      	mov	fp, r7
100040c2:	46b2      	mov	sl, r6
100040c4:	46a9      	mov	r9, r5
100040c6:	46a0      	mov	r8, r4
100040c8:	bdf8      	pop	{r3, r4, r5, r6, r7, pc}
100040ca:	4647      	mov	r7, r8
100040cc:	4652      	mov	r2, sl
100040ce:	4357      	muls	r7, r2
100040d0:	4661      	mov	r1, ip
100040d2:	465a      	mov	r2, fp
100040d4:	4351      	muls	r1, r2
100040d6:	1a78      	subs	r0, r7, r1
100040d8:	18eb      	adds	r3, r5, r3
100040da:	2180      	movs	r1, #128	; 0x80
100040dc:	01c9      	lsls	r1, r1, #7
100040de:	1ac9      	subs	r1, r1, r3
100040e0:	0049      	lsls	r1, r1, #1
100040e2:	b209      	sxth	r1, r1
100040e4:	0040      	lsls	r0, r0, #1
100040e6:	b200      	sxth	r0, r0
100040e8:	f000 f826 	bl	10004138 <fxpt_atan2>
100040ec:	8030      	strh	r0, [r6, #0]
100040ee:	e7d6      	b.n	1000409e <quaternionToEuler+0x66>
100040f0:	f000 f8c2 	bl	10004278 <fxpt_asin>
100040f4:	8030      	strh	r0, [r6, #0]
100040f6:	e7d2      	b.n	1000409e <quaternionToEuler+0x66>
100040f8:	4660      	mov	r0, ip
100040fa:	4652      	mov	r2, sl
100040fc:	4350      	muls	r0, r2
100040fe:	4642      	mov	r2, r8
10004100:	4659      	mov	r1, fp
10004102:	4351      	muls	r1, r2
10004104:	1840      	adds	r0, r0, r1
10004106:	191b      	adds	r3, r3, r4
10004108:	2180      	movs	r1, #128	; 0x80
1000410a:	01c9      	lsls	r1, r1, #7
1000410c:	1ac9      	subs	r1, r1, r3
1000410e:	0049      	lsls	r1, r1, #1
10004110:	b209      	sxth	r1, r1
10004112:	0040      	lsls	r0, r0, #1
10004114:	b200      	sxth	r0, r0
10004116:	f000 f80f 	bl	10004138 <fxpt_atan2>
1000411a:	8030      	strh	r0, [r6, #0]
1000411c:	e7bf      	b.n	1000409e <quaternionToEuler+0x66>
1000411e:	46c0      	nop			; (mov r8, r8)
10004120:	20002606 	.word	0x20002606
10004124:	20002602 	.word	0x20002602
10004128:	20002604 	.word	0x20002604
1000412c:	20002600 	.word	0x20002600
10004130:	00001999 	.word	0x00001999
10004134:	ffffe667 	.word	0xffffe667

10004138 <fxpt_atan2>:
10004138:	b570      	push	{r4, r5, r6, lr}
1000413a:	0004      	movs	r4, r0
1000413c:	000d      	movs	r5, r1
1000413e:	4281      	cmp	r1, r0
10004140:	d03e      	beq.n	100041c0 <fxpt_atan2+0x88>
10004142:	13c2      	asrs	r2, r0, #15
10004144:	43d2      	mvns	r2, r2
10004146:	0013      	movs	r3, r2
10004148:	4043      	eors	r3, r0
1000414a:	1a9b      	subs	r3, r3, r2
1000414c:	b21b      	sxth	r3, r3
1000414e:	13c9      	asrs	r1, r1, #15
10004150:	43c9      	mvns	r1, r1
10004152:	000a      	movs	r2, r1
10004154:	406a      	eors	r2, r5
10004156:	1a52      	subs	r2, r2, r1
10004158:	b212      	sxth	r2, r2
1000415a:	429a      	cmp	r2, r3
1000415c:	da41      	bge.n	100041e2 <fxpt_atan2+0xaa>
1000415e:	03c0      	lsls	r0, r0, #15
10004160:	0029      	movs	r1, r5
10004162:	f003 fd67 	bl	10007c34 <__wrap___aeabi_idiv>
10004166:	b204      	sxth	r4, r0
10004168:	483d      	ldr	r0, [pc, #244]	; (10004260 <fxpt_atan2+0x128>)
1000416a:	493e      	ldr	r1, [pc, #248]	; (10004264 <fxpt_atan2+0x12c>)
1000416c:	f007 fcb8 	bl	1000bae0 <__lrint_veneer>
10004170:	b201      	sxth	r1, r0
10004172:	13e2      	asrs	r2, r4, #15
10004174:	43d2      	mvns	r2, r2
10004176:	0013      	movs	r3, r2
10004178:	4063      	eors	r3, r4
1000417a:	1a9b      	subs	r3, r3, r2
1000417c:	b218      	sxth	r0, r3
1000417e:	4348      	muls	r0, r1
10004180:	0443      	lsls	r3, r0, #17
10004182:	0c5b      	lsrs	r3, r3, #17
10004184:	2280      	movs	r2, #128	; 0x80
10004186:	01d2      	lsls	r2, r2, #7
10004188:	4293      	cmp	r3, r2
1000418a:	d021      	beq.n	100041d0 <fxpt_atan2+0x98>
1000418c:	2680      	movs	r6, #128	; 0x80
1000418e:	01f6      	lsls	r6, r6, #7
10004190:	1986      	adds	r6, r0, r6
10004192:	13f6      	asrs	r6, r6, #15
10004194:	4834      	ldr	r0, [pc, #208]	; (10004268 <fxpt_atan2+0x130>)
10004196:	4935      	ldr	r1, [pc, #212]	; (1000426c <fxpt_atan2+0x134>)
10004198:	f007 fca2 	bl	1000bae0 <__lrint_veneer>
1000419c:	b280      	uxth	r0, r0
1000419e:	1986      	adds	r6, r0, r6
100041a0:	b236      	sxth	r6, r6
100041a2:	4374      	muls	r4, r6
100041a4:	0463      	lsls	r3, r4, #17
100041a6:	0c5b      	lsrs	r3, r3, #17
100041a8:	2280      	movs	r2, #128	; 0x80
100041aa:	01d2      	lsls	r2, r2, #7
100041ac:	4293      	cmp	r3, r2
100041ae:	d011      	beq.n	100041d4 <fxpt_atan2+0x9c>
100041b0:	2080      	movs	r0, #128	; 0x80
100041b2:	01c0      	lsls	r0, r0, #7
100041b4:	1824      	adds	r4, r4, r0
100041b6:	13e4      	asrs	r4, r4, #15
100041b8:	2d00      	cmp	r5, #0
100041ba:	dd0d      	ble.n	100041d8 <fxpt_atan2+0xa0>
100041bc:	b2a0      	uxth	r0, r4
100041be:	bd70      	pop	{r4, r5, r6, pc}
100041c0:	2800      	cmp	r0, #0
100041c2:	dc4a      	bgt.n	1000425a <fxpt_atan2+0x122>
100041c4:	db01      	blt.n	100041ca <fxpt_atan2+0x92>
100041c6:	2000      	movs	r0, #0
100041c8:	e7f9      	b.n	100041be <fxpt_atan2+0x86>
100041ca:	20a0      	movs	r0, #160	; 0xa0
100041cc:	0200      	lsls	r0, r0, #8
100041ce:	e7f6      	b.n	100041be <fxpt_atan2+0x86>
100041d0:	2600      	movs	r6, #0
100041d2:	e7dd      	b.n	10004190 <fxpt_atan2+0x58>
100041d4:	2000      	movs	r0, #0
100041d6:	e7ed      	b.n	100041b4 <fxpt_atan2+0x7c>
100041d8:	4b25      	ldr	r3, [pc, #148]	; (10004270 <fxpt_atan2+0x138>)
100041da:	469c      	mov	ip, r3
100041dc:	4464      	add	r4, ip
100041de:	b2a0      	uxth	r0, r4
100041e0:	e7ed      	b.n	100041be <fxpt_atan2+0x86>
100041e2:	03e8      	lsls	r0, r5, #15
100041e4:	0021      	movs	r1, r4
100041e6:	f003 fd25 	bl	10007c34 <__wrap___aeabi_idiv>
100041ea:	b206      	sxth	r6, r0
100041ec:	481c      	ldr	r0, [pc, #112]	; (10004260 <fxpt_atan2+0x128>)
100041ee:	491d      	ldr	r1, [pc, #116]	; (10004264 <fxpt_atan2+0x12c>)
100041f0:	f007 fc76 	bl	1000bae0 <__lrint_veneer>
100041f4:	b201      	sxth	r1, r0
100041f6:	13f2      	asrs	r2, r6, #15
100041f8:	43d2      	mvns	r2, r2
100041fa:	0013      	movs	r3, r2
100041fc:	4073      	eors	r3, r6
100041fe:	1a9b      	subs	r3, r3, r2
10004200:	b218      	sxth	r0, r3
10004202:	4348      	muls	r0, r1
10004204:	0443      	lsls	r3, r0, #17
10004206:	0c5b      	lsrs	r3, r3, #17
10004208:	2280      	movs	r2, #128	; 0x80
1000420a:	01d2      	lsls	r2, r2, #7
1000420c:	4293      	cmp	r3, r2
1000420e:	d01c      	beq.n	1000424a <fxpt_atan2+0x112>
10004210:	2580      	movs	r5, #128	; 0x80
10004212:	01ed      	lsls	r5, r5, #7
10004214:	1945      	adds	r5, r0, r5
10004216:	13ed      	asrs	r5, r5, #15
10004218:	4813      	ldr	r0, [pc, #76]	; (10004268 <fxpt_atan2+0x130>)
1000421a:	4914      	ldr	r1, [pc, #80]	; (1000426c <fxpt_atan2+0x134>)
1000421c:	f007 fc60 	bl	1000bae0 <__lrint_veneer>
10004220:	b280      	uxth	r0, r0
10004222:	1945      	adds	r5, r0, r5
10004224:	b22d      	sxth	r5, r5
10004226:	436e      	muls	r6, r5
10004228:	0473      	lsls	r3, r6, #17
1000422a:	0c5b      	lsrs	r3, r3, #17
1000422c:	2280      	movs	r2, #128	; 0x80
1000422e:	01d2      	lsls	r2, r2, #7
10004230:	4293      	cmp	r3, r2
10004232:	d00c      	beq.n	1000424e <fxpt_atan2+0x116>
10004234:	2080      	movs	r0, #128	; 0x80
10004236:	01c0      	lsls	r0, r0, #7
10004238:	1836      	adds	r6, r6, r0
1000423a:	13f6      	asrs	r6, r6, #15
1000423c:	2c00      	cmp	r4, #0
1000423e:	dd08      	ble.n	10004252 <fxpt_atan2+0x11a>
10004240:	2080      	movs	r0, #128	; 0x80
10004242:	01c0      	lsls	r0, r0, #7
10004244:	1b80      	subs	r0, r0, r6
10004246:	b280      	uxth	r0, r0
10004248:	e7b9      	b.n	100041be <fxpt_atan2+0x86>
1000424a:	2500      	movs	r5, #0
1000424c:	e7e2      	b.n	10004214 <fxpt_atan2+0xdc>
1000424e:	2000      	movs	r0, #0
10004250:	e7f2      	b.n	10004238 <fxpt_atan2+0x100>
10004252:	4808      	ldr	r0, [pc, #32]	; (10004274 <fxpt_atan2+0x13c>)
10004254:	1b80      	subs	r0, r0, r6
10004256:	b280      	uxth	r0, r0
10004258:	e7b1      	b.n	100041be <fxpt_atan2+0x86>
1000425a:	2080      	movs	r0, #128	; 0x80
1000425c:	0180      	lsls	r0, r0, #6
1000425e:	e7ae      	b.n	100041be <fxpt_atan2+0x86>
10004260:	9076f8a8 	.word	0x9076f8a8
10004264:	40a63efc 	.word	0x40a63efc
10004268:	241dbe2a 	.word	0x241dbe2a
1000426c:	40c58fbf 	.word	0x40c58fbf
10004270:	ffff8000 	.word	0xffff8000
10004274:	ffffc000 	.word	0xffffc000

10004278 <fxpt_asin>:
10004278:	b5f0      	push	{r4, r5, r6, r7, lr}
1000427a:	46de      	mov	lr, fp
1000427c:	4657      	mov	r7, sl
1000427e:	464e      	mov	r6, r9
10004280:	4645      	mov	r5, r8
10004282:	b5e0      	push	{r5, r6, r7, lr}
10004284:	b085      	sub	sp, #20
10004286:	4683      	mov	fp, r0
10004288:	0005      	movs	r5, r0
1000428a:	4345      	muls	r5, r0
1000428c:	046b      	lsls	r3, r5, #17
1000428e:	0c5b      	lsrs	r3, r3, #17
10004290:	2280      	movs	r2, #128	; 0x80
10004292:	01d2      	lsls	r2, r2, #7
10004294:	4293      	cmp	r3, r2
10004296:	d100      	bne.n	1000429a <fxpt_asin+0x22>
10004298:	e0d0      	b.n	1000443c <fxpt_asin+0x1c4>
1000429a:	2380      	movs	r3, #128	; 0x80
1000429c:	01db      	lsls	r3, r3, #7
1000429e:	18ed      	adds	r5, r5, r3
100042a0:	13ed      	asrs	r5, r5, #15
100042a2:	b22d      	sxth	r5, r5
100042a4:	002f      	movs	r7, r5
100042a6:	436f      	muls	r7, r5
100042a8:	047b      	lsls	r3, r7, #17
100042aa:	0c5b      	lsrs	r3, r3, #17
100042ac:	2280      	movs	r2, #128	; 0x80
100042ae:	01d2      	lsls	r2, r2, #7
100042b0:	4293      	cmp	r3, r2
100042b2:	d100      	bne.n	100042b6 <fxpt_asin+0x3e>
100042b4:	e0c4      	b.n	10004440 <fxpt_asin+0x1c8>
100042b6:	2380      	movs	r3, #128	; 0x80
100042b8:	01db      	lsls	r3, r3, #7
100042ba:	18ff      	adds	r7, r7, r3
100042bc:	13ff      	asrs	r7, r7, #15
100042be:	b23f      	sxth	r7, r7
100042c0:	003e      	movs	r6, r7
100042c2:	437e      	muls	r6, r7
100042c4:	0473      	lsls	r3, r6, #17
100042c6:	0c5b      	lsrs	r3, r3, #17
100042c8:	2280      	movs	r2, #128	; 0x80
100042ca:	01d2      	lsls	r2, r2, #7
100042cc:	4293      	cmp	r3, r2
100042ce:	d100      	bne.n	100042d2 <fxpt_asin+0x5a>
100042d0:	e0b8      	b.n	10004444 <fxpt_asin+0x1cc>
100042d2:	2380      	movs	r3, #128	; 0x80
100042d4:	01db      	lsls	r3, r3, #7
100042d6:	18f6      	adds	r6, r6, r3
100042d8:	13f6      	asrs	r6, r6, #15
100042da:	b236      	sxth	r6, r6
100042dc:	4863      	ldr	r0, [pc, #396]	; (1000446c <fxpt_asin+0x1f4>)
100042de:	4964      	ldr	r1, [pc, #400]	; (10004470 <fxpt_asin+0x1f8>)
100042e0:	f007 fbfe 	bl	1000bae0 <__lrint_veneer>
100042e4:	b204      	sxth	r4, r0
100042e6:	436c      	muls	r4, r5
100042e8:	0463      	lsls	r3, r4, #17
100042ea:	0c5b      	lsrs	r3, r3, #17
100042ec:	2280      	movs	r2, #128	; 0x80
100042ee:	01d2      	lsls	r2, r2, #7
100042f0:	4293      	cmp	r3, r2
100042f2:	d100      	bne.n	100042f6 <fxpt_asin+0x7e>
100042f4:	e0a8      	b.n	10004448 <fxpt_asin+0x1d0>
100042f6:	2080      	movs	r0, #128	; 0x80
100042f8:	01c0      	lsls	r0, r0, #7
100042fa:	1824      	adds	r4, r4, r0
100042fc:	13e4      	asrs	r4, r4, #15
100042fe:	485d      	ldr	r0, [pc, #372]	; (10004474 <fxpt_asin+0x1fc>)
10004300:	495d      	ldr	r1, [pc, #372]	; (10004478 <fxpt_asin+0x200>)
10004302:	f007 fbed 	bl	1000bae0 <__lrint_veneer>
10004306:	9001      	str	r0, [sp, #4]
10004308:	485c      	ldr	r0, [pc, #368]	; (1000447c <fxpt_asin+0x204>)
1000430a:	495d      	ldr	r1, [pc, #372]	; (10004480 <fxpt_asin+0x208>)
1000430c:	f007 fbe8 	bl	1000bae0 <__lrint_veneer>
10004310:	b200      	sxth	r0, r0
10004312:	4368      	muls	r0, r5
10004314:	0443      	lsls	r3, r0, #17
10004316:	0c5b      	lsrs	r3, r3, #17
10004318:	2280      	movs	r2, #128	; 0x80
1000431a:	01d2      	lsls	r2, r2, #7
1000431c:	4293      	cmp	r3, r2
1000431e:	d100      	bne.n	10004322 <fxpt_asin+0xaa>
10004320:	e094      	b.n	1000444c <fxpt_asin+0x1d4>
10004322:	2380      	movs	r3, #128	; 0x80
10004324:	01db      	lsls	r3, r3, #7
10004326:	18c0      	adds	r0, r0, r3
10004328:	13c3      	asrs	r3, r0, #15
1000432a:	469a      	mov	sl, r3
1000432c:	4855      	ldr	r0, [pc, #340]	; (10004484 <fxpt_asin+0x20c>)
1000432e:	4956      	ldr	r1, [pc, #344]	; (10004488 <fxpt_asin+0x210>)
10004330:	f007 fbd6 	bl	1000bae0 <__lrint_veneer>
10004334:	9002      	str	r0, [sp, #8]
10004336:	4855      	ldr	r0, [pc, #340]	; (1000448c <fxpt_asin+0x214>)
10004338:	4955      	ldr	r1, [pc, #340]	; (10004490 <fxpt_asin+0x218>)
1000433a:	f007 fbd1 	bl	1000bae0 <__lrint_veneer>
1000433e:	b200      	sxth	r0, r0
10004340:	4368      	muls	r0, r5
10004342:	0443      	lsls	r3, r0, #17
10004344:	0c5b      	lsrs	r3, r3, #17
10004346:	2280      	movs	r2, #128	; 0x80
10004348:	01d2      	lsls	r2, r2, #7
1000434a:	4293      	cmp	r3, r2
1000434c:	d100      	bne.n	10004350 <fxpt_asin+0xd8>
1000434e:	e07f      	b.n	10004450 <fxpt_asin+0x1d8>
10004350:	2380      	movs	r3, #128	; 0x80
10004352:	01db      	lsls	r3, r3, #7
10004354:	18c0      	adds	r0, r0, r3
10004356:	13c3      	asrs	r3, r0, #15
10004358:	4699      	mov	r9, r3
1000435a:	484e      	ldr	r0, [pc, #312]	; (10004494 <fxpt_asin+0x21c>)
1000435c:	494e      	ldr	r1, [pc, #312]	; (10004498 <fxpt_asin+0x220>)
1000435e:	f007 fbbf 	bl	1000bae0 <__lrint_veneer>
10004362:	9003      	str	r0, [sp, #12]
10004364:	484d      	ldr	r0, [pc, #308]	; (1000449c <fxpt_asin+0x224>)
10004366:	494e      	ldr	r1, [pc, #312]	; (100044a0 <fxpt_asin+0x228>)
10004368:	f007 fbba 	bl	1000bae0 <__lrint_veneer>
1000436c:	b200      	sxth	r0, r0
1000436e:	4368      	muls	r0, r5
10004370:	0443      	lsls	r3, r0, #17
10004372:	0c5b      	lsrs	r3, r3, #17
10004374:	2280      	movs	r2, #128	; 0x80
10004376:	01d2      	lsls	r2, r2, #7
10004378:	4293      	cmp	r3, r2
1000437a:	d06b      	beq.n	10004454 <fxpt_asin+0x1dc>
1000437c:	2380      	movs	r3, #128	; 0x80
1000437e:	01db      	lsls	r3, r3, #7
10004380:	18c0      	adds	r0, r0, r3
10004382:	13c3      	asrs	r3, r0, #15
10004384:	4698      	mov	r8, r3
10004386:	4847      	ldr	r0, [pc, #284]	; (100044a4 <fxpt_asin+0x22c>)
10004388:	4947      	ldr	r1, [pc, #284]	; (100044a8 <fxpt_asin+0x230>)
1000438a:	f007 fba9 	bl	1000bae0 <__lrint_veneer>
1000438e:	9b01      	ldr	r3, [sp, #4]
10004390:	1ae4      	subs	r4, r4, r3
10004392:	b224      	sxth	r4, r4
10004394:	437c      	muls	r4, r7
10004396:	0463      	lsls	r3, r4, #17
10004398:	0c5b      	lsrs	r3, r3, #17
1000439a:	2280      	movs	r2, #128	; 0x80
1000439c:	01d2      	lsls	r2, r2, #7
1000439e:	4293      	cmp	r3, r2
100043a0:	d05a      	beq.n	10004458 <fxpt_asin+0x1e0>
100043a2:	2380      	movs	r3, #128	; 0x80
100043a4:	01db      	lsls	r3, r3, #7
100043a6:	18e4      	adds	r4, r4, r3
100043a8:	13e4      	asrs	r4, r4, #15
100043aa:	b2a4      	uxth	r4, r4
100043ac:	9b02      	ldr	r3, [sp, #8]
100043ae:	4453      	add	r3, sl
100043b0:	b29b      	uxth	r3, r3
100043b2:	18e4      	adds	r4, r4, r3
100043b4:	b224      	sxth	r4, r4
100043b6:	4366      	muls	r6, r4
100043b8:	0473      	lsls	r3, r6, #17
100043ba:	0c5b      	lsrs	r3, r3, #17
100043bc:	2280      	movs	r2, #128	; 0x80
100043be:	01d2      	lsls	r2, r2, #7
100043c0:	4293      	cmp	r3, r2
100043c2:	d04b      	beq.n	1000445c <fxpt_asin+0x1e4>
100043c4:	2480      	movs	r4, #128	; 0x80
100043c6:	01e4      	lsls	r4, r4, #7
100043c8:	1936      	adds	r6, r6, r4
100043ca:	13f6      	asrs	r6, r6, #15
100043cc:	b2b6      	uxth	r6, r6
100043ce:	9b03      	ldr	r3, [sp, #12]
100043d0:	444b      	add	r3, r9
100043d2:	b21b      	sxth	r3, r3
100043d4:	435f      	muls	r7, r3
100043d6:	047b      	lsls	r3, r7, #17
100043d8:	0c5b      	lsrs	r3, r3, #17
100043da:	2280      	movs	r2, #128	; 0x80
100043dc:	01d2      	lsls	r2, r2, #7
100043de:	4293      	cmp	r3, r2
100043e0:	d03e      	beq.n	10004460 <fxpt_asin+0x1e8>
100043e2:	2380      	movs	r3, #128	; 0x80
100043e4:	01db      	lsls	r3, r3, #7
100043e6:	18ff      	adds	r7, r7, r3
100043e8:	13ff      	asrs	r7, r7, #15
100043ea:	b2bf      	uxth	r7, r7
100043ec:	19f7      	adds	r7, r6, r7
100043ee:	b2bf      	uxth	r7, r7
100043f0:	4440      	add	r0, r8
100043f2:	b280      	uxth	r0, r0
100043f4:	183f      	adds	r7, r7, r0
100043f6:	b23f      	sxth	r7, r7
100043f8:	437d      	muls	r5, r7
100043fa:	046b      	lsls	r3, r5, #17
100043fc:	0c5b      	lsrs	r3, r3, #17
100043fe:	2280      	movs	r2, #128	; 0x80
10004400:	01d2      	lsls	r2, r2, #7
10004402:	4293      	cmp	r3, r2
10004404:	d02e      	beq.n	10004464 <fxpt_asin+0x1ec>
10004406:	2380      	movs	r3, #128	; 0x80
10004408:	01db      	lsls	r3, r3, #7
1000440a:	18ed      	adds	r5, r5, r3
1000440c:	13ed      	asrs	r5, r5, #15
1000440e:	b22d      	sxth	r5, r5
10004410:	465b      	mov	r3, fp
10004412:	435d      	muls	r5, r3
10004414:	046b      	lsls	r3, r5, #17
10004416:	0c5b      	lsrs	r3, r3, #17
10004418:	2280      	movs	r2, #128	; 0x80
1000441a:	01d2      	lsls	r2, r2, #7
1000441c:	4293      	cmp	r3, r2
1000441e:	d023      	beq.n	10004468 <fxpt_asin+0x1f0>
10004420:	2080      	movs	r0, #128	; 0x80
10004422:	01c0      	lsls	r0, r0, #7
10004424:	1940      	adds	r0, r0, r5
10004426:	13c0      	asrs	r0, r0, #15
10004428:	b280      	uxth	r0, r0
1000442a:	4458      	add	r0, fp
1000442c:	b280      	uxth	r0, r0
1000442e:	b005      	add	sp, #20
10004430:	bcf0      	pop	{r4, r5, r6, r7}
10004432:	46bb      	mov	fp, r7
10004434:	46b2      	mov	sl, r6
10004436:	46a9      	mov	r9, r5
10004438:	46a0      	mov	r8, r4
1000443a:	bdf0      	pop	{r4, r5, r6, r7, pc}
1000443c:	2300      	movs	r3, #0
1000443e:	e72e      	b.n	1000429e <fxpt_asin+0x26>
10004440:	2300      	movs	r3, #0
10004442:	e73a      	b.n	100042ba <fxpt_asin+0x42>
10004444:	2300      	movs	r3, #0
10004446:	e746      	b.n	100042d6 <fxpt_asin+0x5e>
10004448:	2000      	movs	r0, #0
1000444a:	e756      	b.n	100042fa <fxpt_asin+0x82>
1000444c:	2300      	movs	r3, #0
1000444e:	e76a      	b.n	10004326 <fxpt_asin+0xae>
10004450:	2300      	movs	r3, #0
10004452:	e77f      	b.n	10004354 <fxpt_asin+0xdc>
10004454:	2300      	movs	r3, #0
10004456:	e793      	b.n	10004380 <fxpt_asin+0x108>
10004458:	2300      	movs	r3, #0
1000445a:	e7a4      	b.n	100043a6 <fxpt_asin+0x12e>
1000445c:	2400      	movs	r4, #0
1000445e:	e7b3      	b.n	100043c8 <fxpt_asin+0x150>
10004460:	2300      	movs	r3, #0
10004462:	e7c0      	b.n	100043e6 <fxpt_asin+0x16e>
10004464:	2300      	movs	r3, #0
10004466:	e7d0      	b.n	1000440a <fxpt_asin+0x192>
10004468:	2000      	movs	r0, #0
1000446a:	e7db      	b.n	10004424 <fxpt_asin+0x1ac>
1000446c:	05477779 	.word	0x05477779
10004470:	4097360c 	.word	0x4097360c
10004474:	4ed31832 	.word	0x4ed31832
10004478:	4076fdc5 	.word	0x4076fdc5
1000447c:	b6bb8db7 	.word	0xb6bb8db7
10004480:	408af75f 	.word	0x408af75f
10004484:	b8f43115 	.word	0xb8f43115
10004488:	40851734 	.word	0x40851734
1000448c:	347a0edb 	.word	0x347a0edb
10004490:	408f50e6 	.word	0x408f50e6
10004494:	5f011a1e 	.word	0x5f011a1e
10004498:	4096d9d0 	.word	0x4096d9d0
1000449c:	4eb6f6a0 	.word	0x4eb6f6a0
100044a0:	40a33339 	.word	0x40a33339
100044a4:	4d78ae5f 	.word	0x4d78ae5f
100044a8:	40b55555 	.word	0x40b55555

100044ac <sei>:
100044ac:	4b02      	ldr	r3, [pc, #8]	; (100044b8 <sei+0xc>)
100044ae:	681b      	ldr	r3, [r3, #0]
100044b0:	f383 8810 	msr	PRIMASK, r3
100044b4:	4770      	bx	lr
100044b6:	46c0      	nop			; (mov r8, r8)
100044b8:	2000237c 	.word	0x2000237c

100044bc <_delay_ms>:
100044bc:	b510      	push	{r4, lr}
100044be:	f001 fa77 	bl	100059b0 <sleep_ms>
100044c2:	bd10      	pop	{r4, pc}

100044c4 <_delay_us>:
100044c4:	b510      	push	{r4, lr}
100044c6:	2100      	movs	r1, #0
100044c8:	f001 fa46 	bl	10005958 <sleep_us>
100044cc:	bd10      	pop	{r4, pc}

100044ce <millis>:
100044ce:	b510      	push	{r4, lr}
100044d0:	f001 fb0a 	bl	10005ae8 <time_us_64>
100044d4:	2900      	cmp	r1, #0
100044d6:	d005      	beq.n	100044e4 <millis+0x16>
100044d8:	22fa      	movs	r2, #250	; 0xfa
100044da:	0092      	lsls	r2, r2, #2
100044dc:	2300      	movs	r3, #0
100044de:	f003 fc1b 	bl	10007d18 <__wrap___aeabi_uldivmod>
100044e2:	e003      	b.n	100044ec <millis+0x1e>
100044e4:	21fa      	movs	r1, #250	; 0xfa
100044e6:	0089      	lsls	r1, r1, #2
100044e8:	f003 fbd0 	bl	10007c8c <__wrap___aeabi_uidiv>
100044ec:	bd10      	pop	{r4, pc}

100044ee <setupMicrosTimer>:
100044ee:	4770      	bx	lr

100044f0 <spi_begin>:
100044f0:	b570      	push	{r4, r5, r6, lr}
100044f2:	000c      	movs	r4, r1
100044f4:	0015      	movs	r5, r2
100044f6:	4e0f      	ldr	r6, [pc, #60]	; (10004534 <spi_begin+0x44>)
100044f8:	0001      	movs	r1, r0
100044fa:	0030      	movs	r0, r6
100044fc:	f004 feb6 	bl	1000926c <spi_init>
10004500:	01a4      	lsls	r4, r4, #6
10004502:	2107      	movs	r1, #7
10004504:	430c      	orrs	r4, r1
10004506:	01ed      	lsls	r5, r5, #7
10004508:	432c      	orrs	r4, r5
1000450a:	6832      	ldr	r2, [r6, #0]
1000450c:	4054      	eors	r4, r2
1000450e:	22cf      	movs	r2, #207	; 0xcf
10004510:	4014      	ands	r4, r2
10004512:	2080      	movs	r0, #128	; 0x80
10004514:	0140      	lsls	r0, r0, #5
10004516:	4330      	orrs	r0, r6
10004518:	6004      	str	r4, [r0, #0]
1000451a:	3906      	subs	r1, #6
1000451c:	2004      	movs	r0, #4
1000451e:	f000 fb1d 	bl	10004b5c <gpio_set_function>
10004522:	2101      	movs	r1, #1
10004524:	2003      	movs	r0, #3
10004526:	f000 fb19 	bl	10004b5c <gpio_set_function>
1000452a:	2101      	movs	r1, #1
1000452c:	2006      	movs	r0, #6
1000452e:	f000 fb15 	bl	10004b5c <gpio_set_function>
10004532:	bd70      	pop	{r4, r5, r6, pc}
10004534:	4003c000 	.word	0x4003c000

10004538 <spi_transfer>:
10004538:	b510      	push	{r4, lr}
1000453a:	b084      	sub	sp, #16
1000453c:	466b      	mov	r3, sp
1000453e:	1dd9      	adds	r1, r3, #7
10004540:	7008      	strb	r0, [r1, #0]
10004542:	240f      	movs	r4, #15
10004544:	446c      	add	r4, sp
10004546:	2301      	movs	r3, #1
10004548:	0022      	movs	r2, r4
1000454a:	4803      	ldr	r0, [pc, #12]	; (10004558 <spi_transfer+0x20>)
1000454c:	f007 fac0 	bl	1000bad0 <__spi_write_read_blocking_veneer>
10004550:	7820      	ldrb	r0, [r4, #0]
10004552:	b004      	add	sp, #16
10004554:	bd10      	pop	{r4, pc}
10004556:	46c0      	nop			; (mov r8, r8)
10004558:	4003c000 	.word	0x4003c000

1000455c <twi_init>:
1000455c:	b570      	push	{r4, r5, r6, lr}
1000455e:	4d0e      	ldr	r5, [pc, #56]	; (10004598 <twi_init+0x3c>)
10004560:	4c0e      	ldr	r4, [pc, #56]	; (1000459c <twi_init+0x40>)
10004562:	0029      	movs	r1, r5
10004564:	0020      	movs	r0, r4
10004566:	f004 fdf5 	bl	10009154 <i2c_init>
1000456a:	0029      	movs	r1, r5
1000456c:	0020      	movs	r0, r4
1000456e:	f004 fd79 	bl	10009064 <i2c_set_baudrate>
10004572:	2103      	movs	r1, #3
10004574:	201a      	movs	r0, #26
10004576:	f000 faf1 	bl	10004b5c <gpio_set_function>
1000457a:	2103      	movs	r1, #3
1000457c:	201b      	movs	r0, #27
1000457e:	f000 faed 	bl	10004b5c <gpio_set_function>
10004582:	2200      	movs	r2, #0
10004584:	2101      	movs	r1, #1
10004586:	201a      	movs	r0, #26
10004588:	f000 fb00 	bl	10004b8c <gpio_set_pulls>
1000458c:	2200      	movs	r2, #0
1000458e:	2101      	movs	r1, #1
10004590:	201b      	movs	r0, #27
10004592:	f000 fafb 	bl	10004b8c <gpio_set_pulls>
10004596:	bd70      	pop	{r4, r5, r6, pc}
10004598:	0007a120 	.word	0x0007a120
1000459c:	20000b5c 	.word	0x20000b5c

100045a0 <twi_readFrom>:
100045a0:	b510      	push	{r4, lr}
100045a2:	b082      	sub	sp, #8
100045a4:	425c      	negs	r4, r3
100045a6:	4163      	adcs	r3, r4
100045a8:	9300      	str	r3, [sp, #0]
100045aa:	0013      	movs	r3, r2
100045ac:	000a      	movs	r2, r1
100045ae:	0001      	movs	r1, r0
100045b0:	4803      	ldr	r0, [pc, #12]	; (100045c0 <twi_readFrom+0x20>)
100045b2:	f004 fe05 	bl	100091c0 <i2c_read_blocking>
100045b6:	17c3      	asrs	r3, r0, #31
100045b8:	1a18      	subs	r0, r3, r0
100045ba:	0fc0      	lsrs	r0, r0, #31
100045bc:	b002      	add	sp, #8
100045be:	bd10      	pop	{r4, pc}
100045c0:	20000b5c 	.word	0x20000b5c

100045c4 <twi_writeTo>:
100045c4:	b510      	push	{r4, lr}
100045c6:	b082      	sub	sp, #8
100045c8:	0013      	movs	r3, r2
100045ca:	aa04      	add	r2, sp, #16
100045cc:	7812      	ldrb	r2, [r2, #0]
100045ce:	4254      	negs	r4, r2
100045d0:	4162      	adcs	r2, r4
100045d2:	9200      	str	r2, [sp, #0]
100045d4:	000a      	movs	r2, r1
100045d6:	0001      	movs	r1, r0
100045d8:	4805      	ldr	r0, [pc, #20]	; (100045f0 <twi_writeTo+0x2c>)
100045da:	f004 fde5 	bl	100091a8 <i2c_write_blocking>
100045de:	b2c4      	uxtb	r4, r0
100045e0:	203c      	movs	r0, #60	; 0x3c
100045e2:	f7ff ff6f 	bl	100044c4 <_delay_us>
100045e6:	1e63      	subs	r3, r4, #1
100045e8:	419c      	sbcs	r4, r3
100045ea:	b2e0      	uxtb	r0, r4
100045ec:	b002      	add	sp, #8
100045ee:	bd10      	pop	{r4, pc}
100045f0:	20000b5c 	.word	0x20000b5c

100045f4 <tud_xinput_n_ready>:
100045f4:	b510      	push	{r4, lr}
100045f6:	0003      	movs	r3, r0
100045f8:	0100      	lsls	r0, r0, #4
100045fa:	18c0      	adds	r0, r0, r3
100045fc:	00c0      	lsls	r0, r0, #3
100045fe:	4b11      	ldr	r3, [pc, #68]	; (10004644 <tud_xinput_n_ready+0x50>)
10004600:	1818      	adds	r0, r3, r0
10004602:	7844      	ldrb	r4, [r0, #1]
10004604:	f005 fca2 	bl	10009f4c <tud_mounted>
10004608:	2800      	cmp	r0, #0
1000460a:	d106      	bne.n	1000461a <tud_xinput_n_ready+0x26>
1000460c:	2300      	movs	r3, #0
1000460e:	2b00      	cmp	r3, #0
10004610:	d013      	beq.n	1000463a <tud_xinput_n_ready+0x46>
10004612:	2c00      	cmp	r4, #0
10004614:	d109      	bne.n	1000462a <tud_xinput_n_ready+0x36>
10004616:	2000      	movs	r0, #0
10004618:	e010      	b.n	1000463c <tud_xinput_n_ready+0x48>
1000461a:	f005 fc9f 	bl	10009f5c <tud_suspended>
1000461e:	2800      	cmp	r0, #0
10004620:	d101      	bne.n	10004626 <tud_xinput_n_ready+0x32>
10004622:	2301      	movs	r3, #1
10004624:	e7f3      	b.n	1000460e <tud_xinput_n_ready+0x1a>
10004626:	2300      	movs	r3, #0
10004628:	e7f1      	b.n	1000460e <tud_xinput_n_ready+0x1a>
1000462a:	0021      	movs	r1, r4
1000462c:	2000      	movs	r0, #0
1000462e:	f005 ff45 	bl	1000a4bc <usbd_edpt_busy>
10004632:	2800      	cmp	r0, #0
10004634:	d103      	bne.n	1000463e <tud_xinput_n_ready+0x4a>
10004636:	3001      	adds	r0, #1
10004638:	e000      	b.n	1000463c <tud_xinput_n_ready+0x48>
1000463a:	2000      	movs	r0, #0
1000463c:	bd10      	pop	{r4, pc}
1000463e:	2000      	movs	r0, #0
10004640:	e7fc      	b.n	1000463c <tud_xinput_n_ready+0x48>
10004642:	46c0      	nop			; (mov r8, r8)
10004644:	200013e8 	.word	0x200013e8

10004648 <tud_xinput_n_report>:
10004648:	b5f8      	push	{r3, r4, r5, r6, r7, lr}
1000464a:	0004      	movs	r4, r0
1000464c:	000f      	movs	r7, r1
1000464e:	0016      	movs	r6, r2
10004650:	001d      	movs	r5, r3
10004652:	0103      	lsls	r3, r0, #4
10004654:	181b      	adds	r3, r3, r0
10004656:	00db      	lsls	r3, r3, #3
10004658:	4a1f      	ldr	r2, [pc, #124]	; (100046d8 <tud_xinput_n_report+0x90>)
1000465a:	18d3      	adds	r3, r2, r3
1000465c:	7859      	ldrb	r1, [r3, #1]
1000465e:	2000      	movs	r0, #0
10004660:	f005 fe72 	bl	1000a348 <usbd_edpt_claim>
10004664:	2800      	cmp	r0, #0
10004666:	d025      	beq.n	100046b4 <tud_xinput_n_report+0x6c>
10004668:	2f00      	cmp	r7, #0
1000466a:	d024      	beq.n	100046b6 <tud_xinput_n_report+0x6e>
1000466c:	1c2b      	adds	r3, r5, #0
1000466e:	2d3f      	cmp	r5, #63	; 0x3f
10004670:	d900      	bls.n	10004674 <tud_xinput_n_report+0x2c>
10004672:	233f      	movs	r3, #63	; 0x3f
10004674:	b2dd      	uxtb	r5, r3
10004676:	4918      	ldr	r1, [pc, #96]	; (100046d8 <tud_xinput_n_report+0x90>)
10004678:	0123      	lsls	r3, r4, #4
1000467a:	191a      	adds	r2, r3, r4
1000467c:	00d2      	lsls	r2, r2, #3
1000467e:	188a      	adds	r2, r1, r2
10004680:	7217      	strb	r7, [r2, #8]
10004682:	191b      	adds	r3, r3, r4
10004684:	00db      	lsls	r3, r3, #3
10004686:	3308      	adds	r3, #8
10004688:	1858      	adds	r0, r3, r1
1000468a:	3001      	adds	r0, #1
1000468c:	002a      	movs	r2, r5
1000468e:	0031      	movs	r1, r6
10004690:	f004 fa20 	bl	10008ad4 <__wrap___aeabi_memcpy>
10004694:	3501      	adds	r5, #1
10004696:	b2ed      	uxtb	r5, r5
10004698:	0120      	lsls	r0, r4, #4
1000469a:	1902      	adds	r2, r0, r4
1000469c:	00d2      	lsls	r2, r2, #3
1000469e:	3208      	adds	r2, #8
100046a0:	490d      	ldr	r1, [pc, #52]	; (100046d8 <tud_xinput_n_report+0x90>)
100046a2:	1852      	adds	r2, r2, r1
100046a4:	b2ab      	uxth	r3, r5
100046a6:	1900      	adds	r0, r0, r4
100046a8:	00c0      	lsls	r0, r0, #3
100046aa:	1808      	adds	r0, r1, r0
100046ac:	7841      	ldrb	r1, [r0, #1]
100046ae:	2000      	movs	r0, #0
100046b0:	f005 fec4 	bl	1000a43c <usbd_edpt_xfer>
100046b4:	bdf8      	pop	{r3, r4, r5, r6, r7, pc}
100046b6:	1c2b      	adds	r3, r5, #0
100046b8:	2d40      	cmp	r5, #64	; 0x40
100046ba:	d900      	bls.n	100046be <tud_xinput_n_report+0x76>
100046bc:	2340      	movs	r3, #64	; 0x40
100046be:	b2dd      	uxtb	r5, r3
100046c0:	0120      	lsls	r0, r4, #4
100046c2:	1900      	adds	r0, r0, r4
100046c4:	00c0      	lsls	r0, r0, #3
100046c6:	3008      	adds	r0, #8
100046c8:	4b03      	ldr	r3, [pc, #12]	; (100046d8 <tud_xinput_n_report+0x90>)
100046ca:	18c0      	adds	r0, r0, r3
100046cc:	002a      	movs	r2, r5
100046ce:	0031      	movs	r1, r6
100046d0:	f004 fa00 	bl	10008ad4 <__wrap___aeabi_memcpy>
100046d4:	e7e0      	b.n	10004698 <tud_xinput_n_report+0x50>
100046d6:	46c0      	nop			; (mov r8, r8)
100046d8:	200013e8 	.word	0x200013e8

100046dc <xinputd_reset>:
100046dc:	b510      	push	{r4, lr}
100046de:	2288      	movs	r2, #136	; 0x88
100046e0:	0052      	lsls	r2, r2, #1
100046e2:	2100      	movs	r1, #0
100046e4:	4801      	ldr	r0, [pc, #4]	; (100046ec <xinputd_reset+0x10>)
100046e6:	f004 f9ef 	bl	10008ac8 <__wrap_memset>
100046ea:	bd10      	pop	{r4, pc}
100046ec:	200013e8 	.word	0x200013e8

100046f0 <xinputd_init>:
100046f0:	b510      	push	{r4, lr}
100046f2:	2000      	movs	r0, #0
100046f4:	f7ff fff2 	bl	100046dc <xinputd_reset>
100046f8:	bd10      	pop	{r4, pc}
	...

100046fc <xinputd_open>:
100046fc:	b5f0      	push	{r4, r5, r6, r7, lr}
100046fe:	b085      	sub	sp, #20
10004700:	9003      	str	r0, [sp, #12]
10004702:	000c      	movs	r4, r1
10004704:	794b      	ldrb	r3, [r1, #5]
10004706:	2bff      	cmp	r3, #255	; 0xff
10004708:	d160      	bne.n	100047cc <xinputd_open+0xd0>
1000470a:	7908      	ldrb	r0, [r1, #4]
1000470c:	00c7      	lsls	r7, r0, #3
1000470e:	1a3f      	subs	r7, r7, r0
10004710:	b2bf      	uxth	r7, r7
10004712:	003d      	movs	r5, r7
10004714:	3509      	adds	r5, #9
10004716:	b2ad      	uxth	r5, r5
10004718:	4295      	cmp	r5, r2
1000471a:	d85b      	bhi.n	100047d4 <xinputd_open+0xd8>
1000471c:	2300      	movs	r3, #0
1000471e:	e001      	b.n	10004724 <xinputd_open+0x28>
10004720:	3301      	adds	r3, #1
10004722:	b2db      	uxtb	r3, r3
10004724:	2b01      	cmp	r3, #1
10004726:	d815      	bhi.n	10004754 <xinputd_open+0x58>
10004728:	001e      	movs	r6, r3
1000472a:	0119      	lsls	r1, r3, #4
1000472c:	18c9      	adds	r1, r1, r3
1000472e:	00c9      	lsls	r1, r1, #3
10004730:	4a2a      	ldr	r2, [pc, #168]	; (100047dc <xinputd_open+0xe0>)
10004732:	1851      	adds	r1, r2, r1
10004734:	784a      	ldrb	r2, [r1, #1]
10004736:	2a00      	cmp	r2, #0
10004738:	d1f2      	bne.n	10004720 <xinputd_open+0x24>
1000473a:	011a      	lsls	r2, r3, #4
1000473c:	18d2      	adds	r2, r2, r3
1000473e:	00d2      	lsls	r2, r2, #3
10004740:	4926      	ldr	r1, [pc, #152]	; (100047dc <xinputd_open+0xe0>)
10004742:	188a      	adds	r2, r1, r2
10004744:	7892      	ldrb	r2, [r2, #2]
10004746:	2a00      	cmp	r2, #0
10004748:	d1ea      	bne.n	10004720 <xinputd_open+0x24>
1000474a:	011b      	lsls	r3, r3, #4
1000474c:	199b      	adds	r3, r3, r6
1000474e:	00db      	lsls	r3, r3, #3
10004750:	185e      	adds	r6, r3, r1
10004752:	e000      	b.n	10004756 <xinputd_open+0x5a>
10004754:	2600      	movs	r6, #0
10004756:	2e00      	cmp	r6, #0
10004758:	d03e      	beq.n	100047d8 <xinputd_open+0xdc>
1000475a:	79a3      	ldrb	r3, [r4, #6]
1000475c:	2b5d      	cmp	r3, #93	; 0x5d
1000475e:	d136      	bne.n	100047ce <xinputd_open+0xd2>
10004760:	79e3      	ldrb	r3, [r4, #7]
10004762:	2b01      	cmp	r3, #1
10004764:	d133      	bne.n	100047ce <xinputd_open+0xd2>
10004766:	7821      	ldrb	r1, [r4, #0]
10004768:	1861      	adds	r1, r4, r1
1000476a:	784b      	ldrb	r3, [r1, #1]
1000476c:	2b21      	cmp	r3, #33	; 0x21
1000476e:	d006      	beq.n	1000477e <xinputd_open+0x82>
10004770:	2288      	movs	r2, #136	; 0x88
10004772:	491b      	ldr	r1, [pc, #108]	; (100047e0 <xinputd_open+0xe4>)
10004774:	481b      	ldr	r0, [pc, #108]	; (100047e4 <xinputd_open+0xe8>)
10004776:	f004 fae1 	bl	10008d3c <__wrap_printf>
1000477a:	2500      	movs	r5, #0
1000477c:	e027      	b.n	100047ce <xinputd_open+0xd2>
1000477e:	371a      	adds	r7, #26
10004780:	b2bd      	uxth	r5, r7
10004782:	780b      	ldrb	r3, [r1, #0]
10004784:	18c9      	adds	r1, r1, r3
10004786:	1c73      	adds	r3, r6, #1
10004788:	9301      	str	r3, [sp, #4]
1000478a:	1cb3      	adds	r3, r6, #2
1000478c:	9300      	str	r3, [sp, #0]
1000478e:	2303      	movs	r3, #3
10004790:	0002      	movs	r2, r0
10004792:	9803      	ldr	r0, [sp, #12]
10004794:	f005 fd92 	bl	1000a2bc <usbd_open_edpt_pair>
10004798:	2800      	cmp	r0, #0
1000479a:	d010      	beq.n	100047be <xinputd_open+0xc2>
1000479c:	78a3      	ldrb	r3, [r4, #2]
1000479e:	7033      	strb	r3, [r6, #0]
100047a0:	0032      	movs	r2, r6
100047a2:	3248      	adds	r2, #72	; 0x48
100047a4:	78b1      	ldrb	r1, [r6, #2]
100047a6:	2340      	movs	r3, #64	; 0x40
100047a8:	9803      	ldr	r0, [sp, #12]
100047aa:	f005 fe47 	bl	1000a43c <usbd_edpt_xfer>
100047ae:	2800      	cmp	r0, #0
100047b0:	d10d      	bne.n	100047ce <xinputd_open+0xd2>
100047b2:	2293      	movs	r2, #147	; 0x93
100047b4:	490c      	ldr	r1, [pc, #48]	; (100047e8 <xinputd_open+0xec>)
100047b6:	480d      	ldr	r0, [pc, #52]	; (100047ec <xinputd_open+0xf0>)
100047b8:	f004 fac0 	bl	10008d3c <__wrap_printf>
100047bc:	e007      	b.n	100047ce <xinputd_open+0xd2>
100047be:	228b      	movs	r2, #139	; 0x8b
100047c0:	4907      	ldr	r1, [pc, #28]	; (100047e0 <xinputd_open+0xe4>)
100047c2:	4808      	ldr	r0, [pc, #32]	; (100047e4 <xinputd_open+0xe8>)
100047c4:	f004 faba 	bl	10008d3c <__wrap_printf>
100047c8:	2500      	movs	r5, #0
100047ca:	e000      	b.n	100047ce <xinputd_open+0xd2>
100047cc:	2500      	movs	r5, #0
100047ce:	0028      	movs	r0, r5
100047d0:	b005      	add	sp, #20
100047d2:	bdf0      	pop	{r4, r5, r6, r7, pc}
100047d4:	2500      	movs	r5, #0
100047d6:	e7fa      	b.n	100047ce <xinputd_open+0xd2>
100047d8:	2500      	movs	r5, #0
100047da:	e7f8      	b.n	100047ce <xinputd_open+0xd2>
100047dc:	200013e8 	.word	0x200013e8
100047e0:	1000ca18 	.word	0x1000ca18
100047e4:	1000c9cc 	.word	0x1000c9cc
100047e8:	1000c9f8 	.word	0x1000c9f8
100047ec:	1000c9e4 	.word	0x1000c9e4

100047f0 <xinputd_xfer_cb>:
100047f0:	b510      	push	{r4, lr}
100047f2:	4a0d      	ldr	r2, [pc, #52]	; (10004828 <xinputd_xfer_cb+0x38>)
100047f4:	2300      	movs	r3, #0
100047f6:	2b01      	cmp	r3, #1
100047f8:	d813      	bhi.n	10004822 <xinputd_xfer_cb+0x32>
100047fa:	7894      	ldrb	r4, [r2, #2]
100047fc:	428c      	cmp	r4, r1
100047fe:	d003      	beq.n	10004808 <xinputd_xfer_cb+0x18>
10004800:	3301      	adds	r3, #1
10004802:	b2db      	uxtb	r3, r3
10004804:	3288      	adds	r2, #136	; 0x88
10004806:	e7f6      	b.n	100047f6 <xinputd_xfer_cb+0x6>
10004808:	3248      	adds	r2, #72	; 0x48
1000480a:	2340      	movs	r3, #64	; 0x40
1000480c:	0021      	movs	r1, r4
1000480e:	f005 fe15 	bl	1000a43c <usbd_edpt_xfer>
10004812:	1e04      	subs	r4, r0, #0
10004814:	d106      	bne.n	10004824 <xinputd_xfer_cb+0x34>
10004816:	22ac      	movs	r2, #172	; 0xac
10004818:	4904      	ldr	r1, [pc, #16]	; (1000482c <xinputd_xfer_cb+0x3c>)
1000481a:	4805      	ldr	r0, [pc, #20]	; (10004830 <xinputd_xfer_cb+0x40>)
1000481c:	f004 fa8e 	bl	10008d3c <__wrap_printf>
10004820:	e000      	b.n	10004824 <xinputd_xfer_cb+0x34>
10004822:	2400      	movs	r4, #0
10004824:	0020      	movs	r0, r4
10004826:	bd10      	pop	{r4, pc}
10004828:	200013e8 	.word	0x200013e8
1000482c:	1000ca08 	.word	0x1000ca08
10004830:	1000c9cc 	.word	0x1000c9cc

10004834 <digitalWrite>:
10004834:	2301      	movs	r3, #1
10004836:	4083      	lsls	r3, r0
10004838:	2900      	cmp	r1, #0
1000483a:	d003      	beq.n	10004844 <digitalWrite+0x10>
1000483c:	22d0      	movs	r2, #208	; 0xd0
1000483e:	0612      	lsls	r2, r2, #24
10004840:	6153      	str	r3, [r2, #20]
10004842:	4770      	bx	lr
10004844:	22d0      	movs	r2, #208	; 0xd0
10004846:	0612      	lsls	r2, r2, #24
10004848:	6193      	str	r3, [r2, #24]
1000484a:	e7fa      	b.n	10004842 <digitalWrite+0xe>

1000484c <digitalRead>:
1000484c:	23d0      	movs	r3, #208	; 0xd0
1000484e:	061b      	lsls	r3, r3, #24
10004850:	685b      	ldr	r3, [r3, #4]
10004852:	40c3      	lsrs	r3, r0
10004854:	2001      	movs	r0, #1
10004856:	4018      	ands	r0, r3
10004858:	4770      	bx	lr

1000485a <setUpDigital>:
1000485a:	b5f0      	push	{r4, r5, r6, r7, lr}
1000485c:	46c6      	mov	lr, r8
1000485e:	b500      	push	{lr}
10004860:	0004      	movs	r4, r0
10004862:	000d      	movs	r5, r1
10004864:	0016      	movs	r6, r2
10004866:	001f      	movs	r7, r3
10004868:	ab06      	add	r3, sp, #24
1000486a:	781b      	ldrb	r3, [r3, #0]
1000486c:	4698      	mov	r8, r3
1000486e:	220e      	movs	r2, #14
10004870:	2100      	movs	r1, #0
10004872:	f004 f929 	bl	10008ac8 <__wrap_memset>
10004876:	71e7      	strb	r7, [r4, #7]
10004878:	7226      	strb	r6, [r4, #8]
1000487a:	4643      	mov	r3, r8
1000487c:	71a3      	strb	r3, [r4, #6]
1000487e:	2301      	movs	r3, #1
10004880:	72e3      	strb	r3, [r4, #11]
10004882:	33fe      	adds	r3, #254	; 0xfe
10004884:	7323      	strb	r3, [r4, #12]
10004886:	3311      	adds	r3, #17
10004888:	5ceb      	ldrb	r3, [r5, r3]
1000488a:	72a3      	strb	r3, [r4, #10]
1000488c:	0020      	movs	r0, r4
1000488e:	bc80      	pop	{r7}
10004890:	46b8      	mov	r8, r7
10004892:	bdf0      	pop	{r4, r5, r6, r7, pc}

10004894 <digitalReadPin>:
10004894:	b500      	push	{lr}
10004896:	b089      	sub	sp, #36	; 0x24
10004898:	9000      	str	r0, [sp, #0]
1000489a:	9101      	str	r1, [sp, #4]
1000489c:	9202      	str	r2, [sp, #8]
1000489e:	9303      	str	r3, [sp, #12]
100048a0:	466b      	mov	r3, sp
100048a2:	7b1a      	ldrb	r2, [r3, #12]
100048a4:	2aff      	cmp	r2, #255	; 0xff
100048a6:	d014      	beq.n	100048d2 <digitalReadPin+0x3e>
100048a8:	0093      	lsls	r3, r2, #2
100048aa:	189b      	adds	r3, r3, r2
100048ac:	005a      	lsls	r2, r3, #1
100048ae:	4910      	ldr	r1, [pc, #64]	; (100048f0 <digitalReadPin+0x5c>)
100048b0:	1889      	adds	r1, r1, r2
100048b2:	220a      	movs	r2, #10
100048b4:	a805      	add	r0, sp, #20
100048b6:	f004 f90d 	bl	10008ad4 <__wrap___aeabi_memcpy>
100048ba:	466b      	mov	r3, sp
100048bc:	8b1b      	ldrh	r3, [r3, #24]
100048be:	b21b      	sxth	r3, r3
100048c0:	466a      	mov	r2, sp
100048c2:	8b52      	ldrh	r2, [r2, #26]
100048c4:	2001      	movs	r0, #1
100048c6:	4293      	cmp	r3, r2
100048c8:	dc00      	bgt.n	100048cc <digitalReadPin+0x38>
100048ca:	2000      	movs	r0, #0
100048cc:	b2c0      	uxtb	r0, r0
100048ce:	b009      	add	sp, #36	; 0x24
100048d0:	bd00      	pop	{pc}
100048d2:	7a1a      	ldrb	r2, [r3, #8]
100048d4:	23d0      	movs	r3, #208	; 0xd0
100048d6:	061b      	lsls	r3, r3, #24
100048d8:	685b      	ldr	r3, [r3, #4]
100048da:	40d3      	lsrs	r3, r2
100048dc:	2001      	movs	r0, #1
100048de:	4003      	ands	r3, r0
100048e0:	466a      	mov	r2, sp
100048e2:	7990      	ldrb	r0, [r2, #6]
100048e4:	1ac0      	subs	r0, r0, r3
100048e6:	4243      	negs	r3, r0
100048e8:	4158      	adcs	r0, r3
100048ea:	b2c0      	uxtb	r0, r0
100048ec:	e7ef      	b.n	100048ce <digitalReadPin+0x3a>
100048ee:	46c0      	nop			; (mov r8, r8)
100048f0:	20001e64 	.word	0x20001e64

100048f4 <digitalWritePin>:
100048f4:	b510      	push	{r4, lr}
100048f6:	b084      	sub	sp, #16
100048f8:	9000      	str	r0, [sp, #0]
100048fa:	9101      	str	r1, [sp, #4]
100048fc:	9202      	str	r2, [sp, #8]
100048fe:	9303      	str	r3, [sp, #12]
10004900:	ab06      	add	r3, sp, #24
10004902:	781a      	ldrb	r2, [r3, #0]
10004904:	466b      	mov	r3, sp
10004906:	7adb      	ldrb	r3, [r3, #11]
10004908:	2b00      	cmp	r3, #0
1000490a:	d00a      	beq.n	10004922 <digitalWritePin+0x2e>
1000490c:	466b      	mov	r3, sp
1000490e:	7a19      	ldrb	r1, [r3, #8]
10004910:	2301      	movs	r3, #1
10004912:	408b      	lsls	r3, r1
10004914:	2a00      	cmp	r2, #0
10004916:	d01c      	beq.n	10004952 <digitalWritePin+0x5e>
10004918:	22d0      	movs	r2, #208	; 0xd0
1000491a:	0612      	lsls	r2, r2, #24
1000491c:	6153      	str	r3, [r2, #20]
1000491e:	b004      	add	sp, #16
10004920:	bd10      	pop	{r4, pc}
10004922:	2a00      	cmp	r2, #0
10004924:	d00a      	beq.n	1000493c <digitalWritePin+0x48>
10004926:	466b      	mov	r3, sp
10004928:	7a1c      	ldrb	r4, [r3, #8]
1000492a:	2103      	movs	r1, #3
1000492c:	0020      	movs	r0, r4
1000492e:	f000 f959 	bl	10004be4 <gpio_set_oeover>
10004932:	2103      	movs	r1, #3
10004934:	0020      	movs	r0, r4
10004936:	f000 f943 	bl	10004bc0 <gpio_set_outover>
1000493a:	e7f0      	b.n	1000491e <digitalWritePin+0x2a>
1000493c:	466b      	mov	r3, sp
1000493e:	7a1c      	ldrb	r4, [r3, #8]
10004940:	2100      	movs	r1, #0
10004942:	0020      	movs	r0, r4
10004944:	f000 f94e 	bl	10004be4 <gpio_set_oeover>
10004948:	2100      	movs	r1, #0
1000494a:	0020      	movs	r0, r4
1000494c:	f000 f938 	bl	10004bc0 <gpio_set_outover>
10004950:	e7e5      	b.n	1000491e <digitalWritePin+0x2a>
10004952:	22d0      	movs	r2, #208	; 0xd0
10004954:	0612      	lsls	r2, r2, #24
10004956:	6193      	str	r3, [r2, #24]
10004958:	e7e1      	b.n	1000491e <digitalWritePin+0x2a>
	...

1000495c <analogRead>:
1000495c:	301a      	adds	r0, #26
1000495e:	0300      	lsls	r0, r0, #12
10004960:	4b09      	ldr	r3, [pc, #36]	; (10004988 <analogRead+0x2c>)
10004962:	681b      	ldr	r3, [r3, #0]
10004964:	4058      	eors	r0, r3
10004966:	23e0      	movs	r3, #224	; 0xe0
10004968:	01db      	lsls	r3, r3, #7
1000496a:	4018      	ands	r0, r3
1000496c:	4b07      	ldr	r3, [pc, #28]	; (1000498c <analogRead+0x30>)
1000496e:	6018      	str	r0, [r3, #0]
10004970:	4b07      	ldr	r3, [pc, #28]	; (10004990 <analogRead+0x34>)
10004972:	2204      	movs	r2, #4
10004974:	601a      	str	r2, [r3, #0]
10004976:	4b04      	ldr	r3, [pc, #16]	; (10004988 <analogRead+0x2c>)
10004978:	681b      	ldr	r3, [r3, #0]
1000497a:	05db      	lsls	r3, r3, #23
1000497c:	d5fb      	bpl.n	10004976 <analogRead+0x1a>
1000497e:	4b02      	ldr	r3, [pc, #8]	; (10004988 <analogRead+0x2c>)
10004980:	6858      	ldr	r0, [r3, #4]
10004982:	b280      	uxth	r0, r0
10004984:	0880      	lsrs	r0, r0, #2
10004986:	4770      	bx	lr
10004988:	4004c000 	.word	0x4004c000
1000498c:	4004d000 	.word	0x4004d000
10004990:	4004e000 	.word	0x4004e000

10004994 <tickAnalog>:
10004994:	b570      	push	{r4, r5, r6, lr}
10004996:	4b19      	ldr	r3, [pc, #100]	; (100049fc <tickAnalog+0x68>)
10004998:	681b      	ldr	r3, [r3, #0]
1000499a:	2b00      	cmp	r3, #0
1000499c:	d02c      	beq.n	100049f8 <tickAnalog+0x64>
1000499e:	2400      	movs	r4, #0
100049a0:	e00d      	b.n	100049be <tickAnalog+0x2a>
100049a2:	4a17      	ldr	r2, [pc, #92]	; (10004a00 <tickAnalog+0x6c>)
100049a4:	4694      	mov	ip, r2
100049a6:	4463      	add	r3, ip
100049a8:	b29b      	uxth	r3, r3
100049aa:	019b      	lsls	r3, r3, #6
100049ac:	b29b      	uxth	r3, r3
100049ae:	b21b      	sxth	r3, r3
100049b0:	00a2      	lsls	r2, r4, #2
100049b2:	1912      	adds	r2, r2, r4
100049b4:	0052      	lsls	r2, r2, #1
100049b6:	4913      	ldr	r1, [pc, #76]	; (10004a04 <tickAnalog+0x70>)
100049b8:	188a      	adds	r2, r1, r2
100049ba:	8093      	strh	r3, [r2, #4]
100049bc:	3401      	adds	r4, #1
100049be:	4b0f      	ldr	r3, [pc, #60]	; (100049fc <tickAnalog+0x68>)
100049c0:	681b      	ldr	r3, [r3, #0]
100049c2:	42a3      	cmp	r3, r4
100049c4:	dd18      	ble.n	100049f8 <tickAnalog+0x64>
100049c6:	00a3      	lsls	r3, r4, #2
100049c8:	191b      	adds	r3, r3, r4
100049ca:	005b      	lsls	r3, r3, #1
100049cc:	4d0d      	ldr	r5, [pc, #52]	; (10004a04 <tickAnalog+0x70>)
100049ce:	18ed      	adds	r5, r5, r3
100049d0:	7868      	ldrb	r0, [r5, #1]
100049d2:	381a      	subs	r0, #26
100049d4:	b2c0      	uxtb	r0, r0
100049d6:	f7ff ffc1 	bl	1000495c <analogRead>
100049da:	0003      	movs	r3, r0
100049dc:	7a2a      	ldrb	r2, [r5, #8]
100049de:	2a00      	cmp	r2, #0
100049e0:	d1e5      	bne.n	100049ae <tickAnalog+0x1a>
100049e2:	00a2      	lsls	r2, r4, #2
100049e4:	1912      	adds	r2, r2, r4
100049e6:	0052      	lsls	r2, r2, #1
100049e8:	4906      	ldr	r1, [pc, #24]	; (10004a04 <tickAnalog+0x70>)
100049ea:	188a      	adds	r2, r1, r2
100049ec:	7892      	ldrb	r2, [r2, #2]
100049ee:	2a00      	cmp	r2, #0
100049f0:	d0d7      	beq.n	100049a2 <tickAnalog+0xe>
100049f2:	4240      	negs	r0, r0
100049f4:	b283      	uxth	r3, r0
100049f6:	e7d4      	b.n	100049a2 <tickAnalog+0xe>
100049f8:	bd70      	pop	{r4, r5, r6, pc}
100049fa:	46c0      	nop			; (mov r8, r8)
100049fc:	200025f0 	.word	0x200025f0
10004a00:	fffffe00 	.word	0xfffffe00
10004a04:	20001e64 	.word	0x20001e64

10004a08 <pinMode>:
10004a08:	b570      	push	{r4, r5, r6, lr}
10004a0a:	0005      	movs	r5, r0
10004a0c:	000c      	movs	r4, r1
10004a0e:	2901      	cmp	r1, #1
10004a10:	d101      	bne.n	10004a16 <pinMode+0xe>
10004a12:	2819      	cmp	r0, #25
10004a14:	d812      	bhi.n	10004a3c <pinMode+0x34>
10004a16:	0028      	movs	r0, r5
10004a18:	f000 f990 	bl	10004d3c <gpio_init>
10004a1c:	2301      	movs	r3, #1
10004a1e:	40ab      	lsls	r3, r5
10004a20:	2c00      	cmp	r4, #0
10004a22:	d118      	bne.n	10004a56 <pinMode+0x4e>
10004a24:	22d0      	movs	r2, #208	; 0xd0
10004a26:	0612      	lsls	r2, r2, #24
10004a28:	6253      	str	r3, [r2, #36]	; 0x24
10004a2a:	3c02      	subs	r4, #2
10004a2c:	4263      	negs	r3, r4
10004a2e:	415c      	adcs	r4, r3
10004a30:	b2e1      	uxtb	r1, r4
10004a32:	2200      	movs	r2, #0
10004a34:	0028      	movs	r0, r5
10004a36:	f000 f8a9 	bl	10004b8c <gpio_set_pulls>
10004a3a:	bd70      	pop	{r4, r5, r6, pc}
10004a3c:	211f      	movs	r1, #31
10004a3e:	f000 f88d 	bl	10004b5c <gpio_set_function>
10004a42:	2200      	movs	r2, #0
10004a44:	2100      	movs	r1, #0
10004a46:	0028      	movs	r0, r5
10004a48:	f000 f8a0 	bl	10004b8c <gpio_set_pulls>
10004a4c:	2100      	movs	r1, #0
10004a4e:	0028      	movs	r0, r5
10004a50:	f000 f95c 	bl	10004d0c <gpio_set_input_enabled>
10004a54:	e7f1      	b.n	10004a3a <pinMode+0x32>
10004a56:	22d0      	movs	r2, #208	; 0xd0
10004a58:	0612      	lsls	r2, r2, #24
10004a5a:	6293      	str	r3, [r2, #40]	; 0x28
10004a5c:	e7e5      	b.n	10004a2a <pinMode+0x22>
	...

10004a60 <setUpAnalogPin>:
10004a60:	b570      	push	{r4, r5, r6, lr}
10004a62:	b084      	sub	sp, #16
10004a64:	0005      	movs	r5, r0
10004a66:	000c      	movs	r4, r1
10004a68:	ae01      	add	r6, sp, #4
10004a6a:	220a      	movs	r2, #10
10004a6c:	2100      	movs	r1, #0
10004a6e:	0030      	movs	r0, r6
10004a70:	f004 f82a 	bl	10008ac8 <__wrap_memset>
10004a74:	7034      	strb	r4, [r6, #0]
10004a76:	0021      	movs	r1, r4
10004a78:	3108      	adds	r1, #8
10004a7a:	0049      	lsls	r1, r1, #1
10004a7c:	1869      	adds	r1, r5, r1
10004a7e:	3110      	adds	r1, #16
10004a80:	2202      	movs	r2, #2
10004a82:	4668      	mov	r0, sp
10004a84:	f004 f826 	bl	10008ad4 <__wrap___aeabi_memcpy>
10004a88:	466b      	mov	r3, sp
10004a8a:	781b      	ldrb	r3, [r3, #0]
10004a8c:	2bff      	cmp	r3, #255	; 0xff
10004a8e:	d01f      	beq.n	10004ad0 <setUpAnalogPin+0x70>
10004a90:	2c05      	cmp	r4, #5
10004a92:	d106      	bne.n	10004aa2 <setUpAnalogPin+0x42>
10004a94:	4a0f      	ldr	r2, [pc, #60]	; (10004ad4 <setUpAnalogPin+0x74>)
10004a96:	7812      	ldrb	r2, [r2, #0]
10004a98:	2a00      	cmp	r2, #0
10004a9a:	d002      	beq.n	10004aa2 <setUpAnalogPin+0x42>
10004a9c:	78aa      	ldrb	r2, [r5, #2]
10004a9e:	2a03      	cmp	r2, #3
10004aa0:	d116      	bne.n	10004ad0 <setUpAnalogPin+0x70>
10004aa2:	466a      	mov	r2, sp
10004aa4:	7153      	strb	r3, [r2, #5]
10004aa6:	7852      	ldrb	r2, [r2, #1]
10004aa8:	4669      	mov	r1, sp
10004aaa:	718a      	strb	r2, [r1, #6]
10004aac:	331a      	adds	r3, #26
10004aae:	b2d8      	uxtb	r0, r3
10004ab0:	2101      	movs	r1, #1
10004ab2:	f7ff ffa9 	bl	10004a08 <pinMode>
10004ab6:	4a08      	ldr	r2, [pc, #32]	; (10004ad8 <setUpAnalogPin+0x78>)
10004ab8:	6813      	ldr	r3, [r2, #0]
10004aba:	1c59      	adds	r1, r3, #1
10004abc:	6011      	str	r1, [r2, #0]
10004abe:	0098      	lsls	r0, r3, #2
10004ac0:	18c0      	adds	r0, r0, r3
10004ac2:	0040      	lsls	r0, r0, #1
10004ac4:	4b05      	ldr	r3, [pc, #20]	; (10004adc <setUpAnalogPin+0x7c>)
10004ac6:	1818      	adds	r0, r3, r0
10004ac8:	220a      	movs	r2, #10
10004aca:	a901      	add	r1, sp, #4
10004acc:	f004 f802 	bl	10008ad4 <__wrap___aeabi_memcpy>
10004ad0:	b004      	add	sp, #16
10004ad2:	bd70      	pop	{r4, r5, r6, pc}
10004ad4:	20002625 	.word	0x20002625
10004ad8:	200025f0 	.word	0x200025f0
10004adc:	20001e64 	.word	0x20001e64

10004ae0 <setUpAnalogDigitalPin>:
10004ae0:	b5f0      	push	{r4, r5, r6, r7, lr}
10004ae2:	b085      	sub	sp, #20
10004ae4:	0006      	movs	r6, r0
10004ae6:	000c      	movs	r4, r1
10004ae8:	0017      	movs	r7, r2
10004aea:	ad01      	add	r5, sp, #4
10004aec:	220a      	movs	r2, #10
10004aee:	2100      	movs	r1, #0
10004af0:	0028      	movs	r0, r5
10004af2:	f003 ffe9 	bl	10008ac8 <__wrap_memset>
10004af6:	702c      	strb	r4, [r5, #0]
10004af8:	2301      	movs	r3, #1
10004afa:	722b      	strb	r3, [r5, #8]
10004afc:	80ef      	strh	r7, [r5, #6]
10004afe:	706c      	strb	r4, [r5, #1]
10004b00:	341a      	adds	r4, #26
10004b02:	b2e0      	uxtb	r0, r4
10004b04:	2101      	movs	r1, #1
10004b06:	f7ff ff7f 	bl	10004a08 <pinMode>
10004b0a:	4a08      	ldr	r2, [pc, #32]	; (10004b2c <setUpAnalogDigitalPin+0x4c>)
10004b0c:	6813      	ldr	r3, [r2, #0]
10004b0e:	7333      	strb	r3, [r6, #12]
10004b10:	1c59      	adds	r1, r3, #1
10004b12:	6011      	str	r1, [r2, #0]
10004b14:	0098      	lsls	r0, r3, #2
10004b16:	18c0      	adds	r0, r0, r3
10004b18:	0040      	lsls	r0, r0, #1
10004b1a:	4b05      	ldr	r3, [pc, #20]	; (10004b30 <setUpAnalogDigitalPin+0x50>)
10004b1c:	1818      	adds	r0, r3, r0
10004b1e:	220a      	movs	r2, #10
10004b20:	0029      	movs	r1, r5
10004b22:	f003 ffd7 	bl	10008ad4 <__wrap___aeabi_memcpy>
10004b26:	b005      	add	sp, #20
10004b28:	bdf0      	pop	{r4, r5, r6, r7, pc}
10004b2a:	46c0      	nop			; (mov r8, r8)
10004b2c:	200025f0 	.word	0x200025f0
10004b30:	20001e64 	.word	0x20001e64

10004b34 <setupADC>:
10004b34:	b510      	push	{r4, lr}
10004b36:	f004 fbcf 	bl	100092d8 <adc_init>
10004b3a:	bd10      	pop	{r4, pc}

10004b3c <setUpValidPins>:
10004b3c:	b570      	push	{r4, r5, r6, lr}
10004b3e:	0005      	movs	r5, r0
10004b40:	2400      	movs	r4, #0
10004b42:	e004      	b.n	10004b4e <setUpValidPins+0x12>
10004b44:	b2e1      	uxtb	r1, r4
10004b46:	0028      	movs	r0, r5
10004b48:	f7ff ff8a 	bl	10004a60 <setUpAnalogPin>
10004b4c:	3401      	adds	r4, #1
10004b4e:	2c05      	cmp	r4, #5
10004b50:	ddf8      	ble.n	10004b44 <setUpValidPins+0x8>
10004b52:	bd70      	pop	{r4, r5, r6, pc}

10004b54 <setup_default_uart>:
10004b54:	b510      	push	{r4, lr}
10004b56:	f004 f981 	bl	10008e5c <stdio_uart_init>
10004b5a:	bd10      	pop	{r4, pc}

10004b5c <gpio_set_function>:
10004b5c:	b510      	push	{r4, lr}
10004b5e:	0083      	lsls	r3, r0, #2
10004b60:	4a08      	ldr	r2, [pc, #32]	; (10004b84 <gpio_set_function+0x28>)
10004b62:	4694      	mov	ip, r2
10004b64:	4463      	add	r3, ip
10004b66:	681c      	ldr	r4, [r3, #0]
10004b68:	2240      	movs	r2, #64	; 0x40
10004b6a:	4062      	eors	r2, r4
10004b6c:	24c0      	movs	r4, #192	; 0xc0
10004b6e:	4014      	ands	r4, r2
10004b70:	2280      	movs	r2, #128	; 0x80
10004b72:	0152      	lsls	r2, r2, #5
10004b74:	4313      	orrs	r3, r2
10004b76:	601c      	str	r4, [r3, #0]
10004b78:	00c0      	lsls	r0, r0, #3
10004b7a:	4b03      	ldr	r3, [pc, #12]	; (10004b88 <gpio_set_function+0x2c>)
10004b7c:	469c      	mov	ip, r3
10004b7e:	4460      	add	r0, ip
10004b80:	6041      	str	r1, [r0, #4]
10004b82:	bd10      	pop	{r4, pc}
10004b84:	4001c004 	.word	0x4001c004
10004b88:	40014000 	.word	0x40014000

10004b8c <gpio_set_pulls>:
10004b8c:	0080      	lsls	r0, r0, #2
10004b8e:	4b0b      	ldr	r3, [pc, #44]	; (10004bbc <gpio_set_pulls+0x30>)
10004b90:	469c      	mov	ip, r3
10004b92:	4460      	add	r0, ip
10004b94:	2900      	cmp	r1, #0
10004b96:	d00d      	beq.n	10004bb4 <gpio_set_pulls+0x28>
10004b98:	2308      	movs	r3, #8
10004b9a:	2a00      	cmp	r2, #0
10004b9c:	d00c      	beq.n	10004bb8 <gpio_set_pulls+0x2c>
10004b9e:	2204      	movs	r2, #4
10004ba0:	4313      	orrs	r3, r2
10004ba2:	6802      	ldr	r2, [r0, #0]
10004ba4:	4053      	eors	r3, r2
10004ba6:	220c      	movs	r2, #12
10004ba8:	4013      	ands	r3, r2
10004baa:	2280      	movs	r2, #128	; 0x80
10004bac:	0152      	lsls	r2, r2, #5
10004bae:	4310      	orrs	r0, r2
10004bb0:	6003      	str	r3, [r0, #0]
10004bb2:	4770      	bx	lr
10004bb4:	2300      	movs	r3, #0
10004bb6:	e7f0      	b.n	10004b9a <gpio_set_pulls+0xe>
10004bb8:	2200      	movs	r2, #0
10004bba:	e7f1      	b.n	10004ba0 <gpio_set_pulls+0x14>
10004bbc:	4001c004 	.word	0x4001c004

10004bc0 <gpio_set_outover>:
10004bc0:	00c0      	lsls	r0, r0, #3
10004bc2:	4b07      	ldr	r3, [pc, #28]	; (10004be0 <gpio_set_outover+0x20>)
10004bc4:	469c      	mov	ip, r3
10004bc6:	4460      	add	r0, ip
10004bc8:	0209      	lsls	r1, r1, #8
10004bca:	6803      	ldr	r3, [r0, #0]
10004bcc:	4059      	eors	r1, r3
10004bce:	23c0      	movs	r3, #192	; 0xc0
10004bd0:	009b      	lsls	r3, r3, #2
10004bd2:	4019      	ands	r1, r3
10004bd4:	2380      	movs	r3, #128	; 0x80
10004bd6:	015b      	lsls	r3, r3, #5
10004bd8:	4318      	orrs	r0, r3
10004bda:	6001      	str	r1, [r0, #0]
10004bdc:	4770      	bx	lr
10004bde:	46c0      	nop			; (mov r8, r8)
10004be0:	40014004 	.word	0x40014004

10004be4 <gpio_set_oeover>:
10004be4:	00c0      	lsls	r0, r0, #3
10004be6:	4b07      	ldr	r3, [pc, #28]	; (10004c04 <gpio_set_oeover+0x20>)
10004be8:	469c      	mov	ip, r3
10004bea:	4460      	add	r0, ip
10004bec:	0309      	lsls	r1, r1, #12
10004bee:	6803      	ldr	r3, [r0, #0]
10004bf0:	4059      	eors	r1, r3
10004bf2:	23c0      	movs	r3, #192	; 0xc0
10004bf4:	019b      	lsls	r3, r3, #6
10004bf6:	4019      	ands	r1, r3
10004bf8:	2380      	movs	r3, #128	; 0x80
10004bfa:	015b      	lsls	r3, r3, #5
10004bfc:	4318      	orrs	r0, r3
10004bfe:	6001      	str	r1, [r0, #0]
10004c00:	4770      	bx	lr
10004c02:	46c0      	nop			; (mov r8, r8)
10004c04:	40014004 	.word	0x40014004

10004c08 <gpio_acknowledge_irq>:
10004c08:	2307      	movs	r3, #7
10004c0a:	4003      	ands	r3, r0
10004c0c:	009b      	lsls	r3, r3, #2
10004c0e:	08c0      	lsrs	r0, r0, #3
10004c10:	4099      	lsls	r1, r3
10004c12:	303c      	adds	r0, #60	; 0x3c
10004c14:	0080      	lsls	r0, r0, #2
10004c16:	4b01      	ldr	r3, [pc, #4]	; (10004c1c <gpio_acknowledge_irq+0x14>)
10004c18:	50c1      	str	r1, [r0, r3]
10004c1a:	4770      	bx	lr
10004c1c:	40014000 	.word	0x40014000

10004c20 <_gpio_set_irq_enabled>:
10004c20:	b5f8      	push	{r3, r4, r5, r6, r7, lr}
10004c22:	0007      	movs	r7, r0
10004c24:	000c      	movs	r4, r1
10004c26:	0016      	movs	r6, r2
10004c28:	001d      	movs	r5, r3
10004c2a:	f7ff ffed 	bl	10004c08 <gpio_acknowledge_irq>
10004c2e:	08fb      	lsrs	r3, r7, #3
10004c30:	009b      	lsls	r3, r3, #2
10004c32:	18ed      	adds	r5, r5, r3
10004c34:	2007      	movs	r0, #7
10004c36:	4038      	ands	r0, r7
10004c38:	0080      	lsls	r0, r0, #2
10004c3a:	4084      	lsls	r4, r0
10004c3c:	2e00      	cmp	r6, #0
10004c3e:	d004      	beq.n	10004c4a <_gpio_set_irq_enabled+0x2a>
10004c40:	2380      	movs	r3, #128	; 0x80
10004c42:	019b      	lsls	r3, r3, #6
10004c44:	431d      	orrs	r5, r3
10004c46:	602c      	str	r4, [r5, #0]
10004c48:	bdf8      	pop	{r3, r4, r5, r6, r7, pc}
10004c4a:	23c0      	movs	r3, #192	; 0xc0
10004c4c:	019b      	lsls	r3, r3, #6
10004c4e:	431d      	orrs	r5, r3
10004c50:	602c      	str	r4, [r5, #0]
10004c52:	e7f9      	b.n	10004c48 <_gpio_set_irq_enabled+0x28>

10004c54 <gpio_set_irq_enabled>:
10004c54:	b510      	push	{r4, lr}
10004c56:	23d0      	movs	r3, #208	; 0xd0
10004c58:	061b      	lsls	r3, r3, #24
10004c5a:	681b      	ldr	r3, [r3, #0]
10004c5c:	2b00      	cmp	r3, #0
10004c5e:	d003      	beq.n	10004c68 <gpio_set_irq_enabled+0x14>
10004c60:	4b02      	ldr	r3, [pc, #8]	; (10004c6c <gpio_set_irq_enabled+0x18>)
10004c62:	f7ff ffdd 	bl	10004c20 <_gpio_set_irq_enabled>
10004c66:	bd10      	pop	{r4, pc}
10004c68:	4b01      	ldr	r3, [pc, #4]	; (10004c70 <gpio_set_irq_enabled+0x1c>)
10004c6a:	e7fa      	b.n	10004c62 <gpio_set_irq_enabled+0xe>
10004c6c:	40014130 	.word	0x40014130
10004c70:	40014100 	.word	0x40014100

10004c74 <gpio_set_irq_enabled_with_callback>:
10004c74:	b510      	push	{r4, lr}
10004c76:	001c      	movs	r4, r3
10004c78:	f7ff ffec 	bl	10004c54 <gpio_set_irq_enabled>
10004c7c:	23d0      	movs	r3, #208	; 0xd0
10004c7e:	061b      	lsls	r3, r3, #24
10004c80:	681a      	ldr	r2, [r3, #0]
10004c82:	0092      	lsls	r2, r2, #2
10004c84:	4b05      	ldr	r3, [pc, #20]	; (10004c9c <gpio_set_irq_enabled_with_callback+0x28>)
10004c86:	50d4      	str	r4, [r2, r3]
10004c88:	4905      	ldr	r1, [pc, #20]	; (10004ca0 <gpio_set_irq_enabled_with_callback+0x2c>)
10004c8a:	200d      	movs	r0, #13
10004c8c:	f001 fd68 	bl	10006760 <irq_set_exclusive_handler>
10004c90:	2101      	movs	r1, #1
10004c92:	200d      	movs	r0, #13
10004c94:	f001 fd54 	bl	10006740 <irq_set_enabled>
10004c98:	bd10      	pop	{r4, pc}
10004c9a:	46c0      	nop			; (mov r8, r8)
10004c9c:	200010e8 	.word	0x200010e8
10004ca0:	10004ca5 	.word	0x10004ca5

10004ca4 <gpio_irq_handler>:
10004ca4:	b570      	push	{r4, r5, r6, lr}
10004ca6:	23d0      	movs	r3, #208	; 0xd0
10004ca8:	061b      	lsls	r3, r3, #24
10004caa:	681b      	ldr	r3, [r3, #0]
10004cac:	2b00      	cmp	r3, #0
10004cae:	d002      	beq.n	10004cb6 <gpio_irq_handler+0x12>
10004cb0:	4d13      	ldr	r5, [pc, #76]	; (10004d00 <gpio_irq_handler+0x5c>)
10004cb2:	2400      	movs	r4, #0
10004cb4:	e002      	b.n	10004cbc <gpio_irq_handler+0x18>
10004cb6:	4d13      	ldr	r5, [pc, #76]	; (10004d04 <gpio_irq_handler+0x60>)
10004cb8:	e7fb      	b.n	10004cb2 <gpio_irq_handler+0xe>
10004cba:	3401      	adds	r4, #1
10004cbc:	2c1d      	cmp	r4, #29
10004cbe:	d81d      	bhi.n	10004cfc <gpio_irq_handler+0x58>
10004cc0:	08e3      	lsrs	r3, r4, #3
10004cc2:	3308      	adds	r3, #8
10004cc4:	009b      	lsls	r3, r3, #2
10004cc6:	595a      	ldr	r2, [r3, r5]
10004cc8:	2307      	movs	r3, #7
10004cca:	4023      	ands	r3, r4
10004ccc:	009b      	lsls	r3, r3, #2
10004cce:	40da      	lsrs	r2, r3
10004cd0:	0013      	movs	r3, r2
10004cd2:	220f      	movs	r2, #15
10004cd4:	0016      	movs	r6, r2
10004cd6:	401e      	ands	r6, r3
10004cd8:	421a      	tst	r2, r3
10004cda:	d0ee      	beq.n	10004cba <gpio_irq_handler+0x16>
10004cdc:	0031      	movs	r1, r6
10004cde:	0020      	movs	r0, r4
10004ce0:	f7ff ff92 	bl	10004c08 <gpio_acknowledge_irq>
10004ce4:	23d0      	movs	r3, #208	; 0xd0
10004ce6:	061b      	lsls	r3, r3, #24
10004ce8:	681b      	ldr	r3, [r3, #0]
10004cea:	009b      	lsls	r3, r3, #2
10004cec:	4a06      	ldr	r2, [pc, #24]	; (10004d08 <gpio_irq_handler+0x64>)
10004cee:	589b      	ldr	r3, [r3, r2]
10004cf0:	2b00      	cmp	r3, #0
10004cf2:	d0e2      	beq.n	10004cba <gpio_irq_handler+0x16>
10004cf4:	0031      	movs	r1, r6
10004cf6:	0020      	movs	r0, r4
10004cf8:	4798      	blx	r3
10004cfa:	e7de      	b.n	10004cba <gpio_irq_handler+0x16>
10004cfc:	bd70      	pop	{r4, r5, r6, pc}
10004cfe:	46c0      	nop			; (mov r8, r8)
10004d00:	40014130 	.word	0x40014130
10004d04:	40014100 	.word	0x40014100
10004d08:	200010e8 	.word	0x200010e8

10004d0c <gpio_set_input_enabled>:
10004d0c:	2900      	cmp	r1, #0
10004d0e:	d009      	beq.n	10004d24 <gpio_set_input_enabled+0x18>
10004d10:	0080      	lsls	r0, r0, #2
10004d12:	4b09      	ldr	r3, [pc, #36]	; (10004d38 <gpio_set_input_enabled+0x2c>)
10004d14:	469c      	mov	ip, r3
10004d16:	4460      	add	r0, ip
10004d18:	2380      	movs	r3, #128	; 0x80
10004d1a:	019b      	lsls	r3, r3, #6
10004d1c:	4318      	orrs	r0, r3
10004d1e:	2340      	movs	r3, #64	; 0x40
10004d20:	6003      	str	r3, [r0, #0]
10004d22:	4770      	bx	lr
10004d24:	0080      	lsls	r0, r0, #2
10004d26:	4b04      	ldr	r3, [pc, #16]	; (10004d38 <gpio_set_input_enabled+0x2c>)
10004d28:	469c      	mov	ip, r3
10004d2a:	4460      	add	r0, ip
10004d2c:	23c0      	movs	r3, #192	; 0xc0
10004d2e:	019b      	lsls	r3, r3, #6
10004d30:	4318      	orrs	r0, r3
10004d32:	2340      	movs	r3, #64	; 0x40
10004d34:	6003      	str	r3, [r0, #0]
10004d36:	e7f4      	b.n	10004d22 <gpio_set_input_enabled+0x16>
10004d38:	4001c004 	.word	0x4001c004

10004d3c <gpio_init>:
10004d3c:	b510      	push	{r4, lr}
10004d3e:	2301      	movs	r3, #1
10004d40:	4083      	lsls	r3, r0
10004d42:	22d0      	movs	r2, #208	; 0xd0
10004d44:	0612      	lsls	r2, r2, #24
10004d46:	6293      	str	r3, [r2, #40]	; 0x28
10004d48:	6193      	str	r3, [r2, #24]
10004d4a:	2105      	movs	r1, #5
10004d4c:	f7ff ff06 	bl	10004b5c <gpio_set_function>
10004d50:	bd10      	pop	{r4, pc}
	...

10004d54 <hw_claim_lock>:
10004d54:	f3ef 8010 	mrs	r0, PRIMASK
10004d58:	b672      	cpsid	i
10004d5a:	4b03      	ldr	r3, [pc, #12]	; (10004d68 <hw_claim_lock+0x14>)
10004d5c:	681b      	ldr	r3, [r3, #0]
10004d5e:	2b00      	cmp	r3, #0
10004d60:	d0fb      	beq.n	10004d5a <hw_claim_lock+0x6>
10004d62:	f3bf 8f5f 	dmb	sy
10004d66:	4770      	bx	lr
10004d68:	d000012c 	.word	0xd000012c

10004d6c <hw_claim_unlock>:
10004d6c:	f3bf 8f5f 	dmb	sy
10004d70:	4b02      	ldr	r3, [pc, #8]	; (10004d7c <hw_claim_unlock+0x10>)
10004d72:	2200      	movs	r2, #0
10004d74:	601a      	str	r2, [r3, #0]
10004d76:	f380 8810 	msr	PRIMASK, r0
10004d7a:	4770      	bx	lr
10004d7c:	d000012c 	.word	0xd000012c

10004d80 <hw_claim_or_assert>:
10004d80:	b5f8      	push	{r3, r4, r5, r6, r7, lr}
10004d82:	0005      	movs	r5, r0
10004d84:	000c      	movs	r4, r1
10004d86:	0016      	movs	r6, r2
10004d88:	f7ff ffe4 	bl	10004d54 <hw_claim_lock>
10004d8c:	08e3      	lsrs	r3, r4, #3
10004d8e:	18ef      	adds	r7, r5, r3
10004d90:	5cea      	ldrb	r2, [r5, r3]
10004d92:	2107      	movs	r1, #7
10004d94:	4021      	ands	r1, r4
10004d96:	0013      	movs	r3, r2
10004d98:	40cb      	lsrs	r3, r1
10004d9a:	07db      	lsls	r3, r3, #31
10004d9c:	d407      	bmi.n	10004dae <hw_claim_or_assert+0x2e>
10004d9e:	2301      	movs	r3, #1
10004da0:	408b      	lsls	r3, r1
10004da2:	b2db      	uxtb	r3, r3
10004da4:	4313      	orrs	r3, r2
10004da6:	703b      	strb	r3, [r7, #0]
10004da8:	f7ff ffe0 	bl	10004d6c <hw_claim_unlock>
10004dac:	bdf8      	pop	{r3, r4, r5, r6, r7, pc}
10004dae:	0021      	movs	r1, r4
10004db0:	0030      	movs	r0, r6
10004db2:	f001 fa55 	bl	10006260 <panic>

10004db6 <hw_claim_unused_from_range>:
10004db6:	b5f0      	push	{r4, r5, r6, r7, lr}
10004db8:	b083      	sub	sp, #12
10004dba:	0006      	movs	r6, r0
10004dbc:	9101      	str	r1, [sp, #4]
10004dbe:	0014      	movs	r4, r2
10004dc0:	001f      	movs	r7, r3
10004dc2:	f7ff ffc7 	bl	10004d54 <hw_claim_lock>
10004dc6:	0005      	movs	r5, r0
10004dc8:	e000      	b.n	10004dcc <hw_claim_unused_from_range+0x16>
10004dca:	3401      	adds	r4, #1
10004dcc:	42bc      	cmp	r4, r7
10004dce:	d80e      	bhi.n	10004dee <hw_claim_unused_from_range+0x38>
10004dd0:	08e2      	lsrs	r2, r4, #3
10004dd2:	18b0      	adds	r0, r6, r2
10004dd4:	5cb1      	ldrb	r1, [r6, r2]
10004dd6:	2207      	movs	r2, #7
10004dd8:	4022      	ands	r2, r4
10004dda:	000b      	movs	r3, r1
10004ddc:	40d3      	lsrs	r3, r2
10004dde:	07db      	lsls	r3, r3, #31
10004de0:	d4f3      	bmi.n	10004dca <hw_claim_unused_from_range+0x14>
10004de2:	2301      	movs	r3, #1
10004de4:	4093      	lsls	r3, r2
10004de6:	b2db      	uxtb	r3, r3
10004de8:	4319      	orrs	r1, r3
10004dea:	7001      	strb	r1, [r0, #0]
10004dec:	e001      	b.n	10004df2 <hw_claim_unused_from_range+0x3c>
10004dee:	2401      	movs	r4, #1
10004df0:	4264      	negs	r4, r4
10004df2:	0028      	movs	r0, r5
10004df4:	f7ff ffba 	bl	10004d6c <hw_claim_unlock>
10004df8:	2c00      	cmp	r4, #0
10004dfa:	db02      	blt.n	10004e02 <hw_claim_unused_from_range+0x4c>
10004dfc:	0020      	movs	r0, r4
10004dfe:	b003      	add	sp, #12
10004e00:	bdf0      	pop	{r4, r5, r6, r7, pc}
10004e02:	9b01      	ldr	r3, [sp, #4]
10004e04:	2b00      	cmp	r3, #0
10004e06:	d0f9      	beq.n	10004dfc <hw_claim_unused_from_range+0x46>
10004e08:	9808      	ldr	r0, [sp, #32]
10004e0a:	f001 fa29 	bl	10006260 <panic>
	...

10004e10 <spin_locks_reset>:
10004e10:	2300      	movs	r3, #0
10004e12:	e007      	b.n	10004e24 <spin_locks_reset+0x14>
10004e14:	4a05      	ldr	r2, [pc, #20]	; (10004e2c <spin_locks_reset+0x1c>)
10004e16:	189a      	adds	r2, r3, r2
10004e18:	0092      	lsls	r2, r2, #2
10004e1a:	f3bf 8f5f 	dmb	sy
10004e1e:	2100      	movs	r1, #0
10004e20:	6011      	str	r1, [r2, #0]
10004e22:	3301      	adds	r3, #1
10004e24:	2b1f      	cmp	r3, #31
10004e26:	d9f5      	bls.n	10004e14 <spin_locks_reset+0x4>
10004e28:	4770      	bx	lr
10004e2a:	46c0      	nop			; (mov r8, r8)
10004e2c:	34000040 	.word	0x34000040

10004e30 <next_striped_spin_lock_num>:
10004e30:	4a05      	ldr	r2, [pc, #20]	; (10004e48 <next_striped_spin_lock_num+0x18>)
10004e32:	7810      	ldrb	r0, [r2, #0]
10004e34:	1c43      	adds	r3, r0, #1
10004e36:	b2db      	uxtb	r3, r3
10004e38:	7013      	strb	r3, [r2, #0]
10004e3a:	2b17      	cmp	r3, #23
10004e3c:	d902      	bls.n	10004e44 <next_striped_spin_lock_num+0x14>
10004e3e:	0013      	movs	r3, r2
10004e40:	2210      	movs	r2, #16
10004e42:	701a      	strb	r2, [r3, #0]
10004e44:	4770      	bx	lr
10004e46:	46c0      	nop			; (mov r8, r8)
10004e48:	20000aac 	.word	0x20000aac

10004e4c <spin_lock_claim_unused>:
10004e4c:	b500      	push	{lr}
10004e4e:	b083      	sub	sp, #12
10004e50:	0001      	movs	r1, r0
10004e52:	4b04      	ldr	r3, [pc, #16]	; (10004e64 <spin_lock_claim_unused+0x18>)
10004e54:	9300      	str	r3, [sp, #0]
10004e56:	231f      	movs	r3, #31
10004e58:	2218      	movs	r2, #24
10004e5a:	4803      	ldr	r0, [pc, #12]	; (10004e68 <spin_lock_claim_unused+0x1c>)
10004e5c:	f7ff ffab 	bl	10004db6 <hw_claim_unused_from_range>
10004e60:	b003      	add	sp, #12
10004e62:	bd00      	pop	{pc}
10004e64:	1000ca28 	.word	0x1000ca28
10004e68:	20001664 	.word	0x20001664

10004e6c <running_on_fpga>:
10004e6c:	4b03      	ldr	r3, [pc, #12]	; (10004e7c <running_on_fpga+0x10>)
10004e6e:	681b      	ldr	r3, [r3, #0]
10004e70:	2002      	movs	r0, #2
10004e72:	4018      	ands	r0, r3
10004e74:	1e43      	subs	r3, r0, #1
10004e76:	4198      	sbcs	r0, r3
10004e78:	b2c0      	uxtb	r0, r0
10004e7a:	4770      	bx	lr
10004e7c:	4006c000 	.word	0x4006c000

10004e80 <uart_set_baudrate>:
10004e80:	b570      	push	{r4, r5, r6, lr}
10004e82:	0004      	movs	r4, r0
10004e84:	000d      	movs	r5, r1
10004e86:	2006      	movs	r0, #6
10004e88:	f001 faf6 	bl	10006478 <clock_get_hz>
10004e8c:	00c0      	lsls	r0, r0, #3
10004e8e:	0029      	movs	r1, r5
10004e90:	f002 fefc 	bl	10007c8c <__wrap___aeabi_uidiv>
10004e94:	0003      	movs	r3, r0
10004e96:	09c6      	lsrs	r6, r0, #7
10004e98:	207f      	movs	r0, #127	; 0x7f
10004e9a:	4018      	ands	r0, r3
10004e9c:	3001      	adds	r0, #1
10004e9e:	0840      	lsrs	r0, r0, #1
10004ea0:	2e00      	cmp	r6, #0
10004ea2:	d005      	beq.n	10004eb0 <uart_set_baudrate+0x30>
10004ea4:	4b0d      	ldr	r3, [pc, #52]	; (10004edc <uart_set_baudrate+0x5c>)
10004ea6:	429e      	cmp	r6, r3
10004ea8:	d814      	bhi.n	10004ed4 <uart_set_baudrate+0x54>
10004eaa:	0035      	movs	r5, r6
10004eac:	0006      	movs	r6, r0
10004eae:	e000      	b.n	10004eb2 <uart_set_baudrate+0x32>
10004eb0:	2501      	movs	r5, #1
10004eb2:	6265      	str	r5, [r4, #36]	; 0x24
10004eb4:	62a6      	str	r6, [r4, #40]	; 0x28
10004eb6:	342c      	adds	r4, #44	; 0x2c
10004eb8:	2080      	movs	r0, #128	; 0x80
10004eba:	0180      	lsls	r0, r0, #6
10004ebc:	4304      	orrs	r4, r0
10004ebe:	2300      	movs	r3, #0
10004ec0:	6023      	str	r3, [r4, #0]
10004ec2:	2006      	movs	r0, #6
10004ec4:	f001 fad8 	bl	10006478 <clock_get_hz>
10004ec8:	0080      	lsls	r0, r0, #2
10004eca:	01a9      	lsls	r1, r5, #6
10004ecc:	1989      	adds	r1, r1, r6
10004ece:	f002 fedd 	bl	10007c8c <__wrap___aeabi_uidiv>
10004ed2:	bd70      	pop	{r4, r5, r6, pc}
10004ed4:	2600      	movs	r6, #0
10004ed6:	4d02      	ldr	r5, [pc, #8]	; (10004ee0 <uart_set_baudrate+0x60>)
10004ed8:	e7eb      	b.n	10004eb2 <uart_set_baudrate+0x32>
10004eda:	46c0      	nop			; (mov r8, r8)
10004edc:	0000fffe 	.word	0x0000fffe
10004ee0:	0000ffff 	.word	0x0000ffff

10004ee4 <uart_set_translate_crlf>:
10004ee4:	2900      	cmp	r1, #0
10004ee6:	d009      	beq.n	10004efc <uart_set_translate_crlf+0x18>
10004ee8:	220a      	movs	r2, #10
10004eea:	4b06      	ldr	r3, [pc, #24]	; (10004f04 <uart_set_translate_crlf+0x20>)
10004eec:	469c      	mov	ip, r3
10004eee:	4460      	add	r0, ip
10004ef0:	4243      	negs	r3, r0
10004ef2:	4158      	adcs	r0, r3
10004ef4:	0040      	lsls	r0, r0, #1
10004ef6:	4b04      	ldr	r3, [pc, #16]	; (10004f08 <uart_set_translate_crlf+0x24>)
10004ef8:	52c2      	strh	r2, [r0, r3]
10004efa:	4770      	bx	lr
10004efc:	2280      	movs	r2, #128	; 0x80
10004efe:	0052      	lsls	r2, r2, #1
10004f00:	e7f3      	b.n	10004eea <uart_set_translate_crlf+0x6>
10004f02:	46c0      	nop			; (mov r8, r8)
10004f04:	bffc8000 	.word	0xbffc8000
10004f08:	200025e8 	.word	0x200025e8

10004f0c <uart_init>:
10004f0c:	b570      	push	{r4, r5, r6, lr}
10004f0e:	0005      	movs	r5, r0
10004f10:	000c      	movs	r4, r1
10004f12:	2006      	movs	r0, #6
10004f14:	f001 fab0 	bl	10006478 <clock_get_hz>
10004f18:	2800      	cmp	r0, #0
10004f1a:	d029      	beq.n	10004f70 <uart_init+0x64>
10004f1c:	4b16      	ldr	r3, [pc, #88]	; (10004f78 <uart_init+0x6c>)
10004f1e:	429d      	cmp	r5, r3
10004f20:	d027      	beq.n	10004f72 <uart_init+0x66>
10004f22:	2280      	movs	r2, #128	; 0x80
10004f24:	03d2      	lsls	r2, r2, #15
10004f26:	4b15      	ldr	r3, [pc, #84]	; (10004f7c <uart_init+0x70>)
10004f28:	601a      	str	r2, [r3, #0]
10004f2a:	4b15      	ldr	r3, [pc, #84]	; (10004f80 <uart_init+0x74>)
10004f2c:	601a      	str	r2, [r3, #0]
10004f2e:	4b15      	ldr	r3, [pc, #84]	; (10004f84 <uart_init+0x78>)
10004f30:	689b      	ldr	r3, [r3, #8]
10004f32:	0011      	movs	r1, r2
10004f34:	4399      	bics	r1, r3
10004f36:	d1fa      	bne.n	10004f2e <uart_init+0x22>
10004f38:	2100      	movs	r1, #0
10004f3a:	0028      	movs	r0, r5
10004f3c:	f7ff ffd2 	bl	10004ee4 <uart_set_translate_crlf>
10004f40:	0021      	movs	r1, r4
10004f42:	0028      	movs	r0, r5
10004f44:	f7ff ff9c 	bl	10004e80 <uart_set_baudrate>
10004f48:	002c      	movs	r4, r5
10004f4a:	342c      	adds	r4, #44	; 0x2c
10004f4c:	6ae9      	ldr	r1, [r5, #44]	; 0x2c
10004f4e:	2260      	movs	r2, #96	; 0x60
10004f50:	404a      	eors	r2, r1
10004f52:	216e      	movs	r1, #110	; 0x6e
10004f54:	4011      	ands	r1, r2
10004f56:	2280      	movs	r2, #128	; 0x80
10004f58:	0152      	lsls	r2, r2, #5
10004f5a:	4322      	orrs	r2, r4
10004f5c:	6011      	str	r1, [r2, #0]
10004f5e:	4b0a      	ldr	r3, [pc, #40]	; (10004f88 <uart_init+0x7c>)
10004f60:	632b      	str	r3, [r5, #48]	; 0x30
10004f62:	2380      	movs	r3, #128	; 0x80
10004f64:	019b      	lsls	r3, r3, #6
10004f66:	4323      	orrs	r3, r4
10004f68:	2210      	movs	r2, #16
10004f6a:	601a      	str	r2, [r3, #0]
10004f6c:	2303      	movs	r3, #3
10004f6e:	64ab      	str	r3, [r5, #72]	; 0x48
10004f70:	bd70      	pop	{r4, r5, r6, pc}
10004f72:	2280      	movs	r2, #128	; 0x80
10004f74:	0412      	lsls	r2, r2, #16
10004f76:	e7d6      	b.n	10004f26 <uart_init+0x1a>
10004f78:	40038000 	.word	0x40038000
10004f7c:	4000e000 	.word	0x4000e000
10004f80:	4000f000 	.word	0x4000f000
10004f84:	4000c000 	.word	0x4000c000
10004f88:	00000301 	.word	0x00000301

10004f8c <sev_callback>:
10004f8c:	bf40      	sev
10004f8e:	2000      	movs	r0, #0
10004f90:	2100      	movs	r1, #0
10004f92:	4770      	bx	lr

10004f94 <alarm_pool_post_alloc_init>:
10004f94:	b570      	push	{r4, r5, r6, lr}
10004f96:	0005      	movs	r5, r0
10004f98:	000c      	movs	r4, r1
10004f9a:	0008      	movs	r0, r1
10004f9c:	f000 fd98 	bl	10005ad0 <hardware_alarm_claim>
10004fa0:	0020      	movs	r0, r4
10004fa2:	f000 fe7d 	bl	10005ca0 <hardware_alarm_cancel>
10004fa6:	4908      	ldr	r1, [pc, #32]	; (10004fc8 <alarm_pool_post_alloc_init+0x34>)
10004fa8:	0020      	movs	r0, r4
10004faa:	f000 fdbd 	bl	10005b28 <hardware_alarm_set_callback>
10004fae:	f7ff ff3f 	bl	10004e30 <next_striped_spin_lock_num>
10004fb2:	4b06      	ldr	r3, [pc, #24]	; (10004fcc <alarm_pool_post_alloc_init+0x38>)
10004fb4:	469c      	mov	ip, r3
10004fb6:	4460      	add	r0, ip
10004fb8:	0080      	lsls	r0, r0, #2
10004fba:	6068      	str	r0, [r5, #4]
10004fbc:	752c      	strb	r4, [r5, #20]
10004fbe:	00a4      	lsls	r4, r4, #2
10004fc0:	4b03      	ldr	r3, [pc, #12]	; (10004fd0 <alarm_pool_post_alloc_init+0x3c>)
10004fc2:	50e5      	str	r5, [r4, r3]
10004fc4:	bd70      	pop	{r4, r5, r6, pc}
10004fc6:	46c0      	nop			; (mov r8, r8)
10004fc8:	100052a9 	.word	0x100052a9
10004fcc:	34000040 	.word	0x34000040
10004fd0:	200022e0 	.word	0x200022e0

10004fd4 <timer_pool_entry_comparator>:
10004fd4:	b510      	push	{r4, lr}
10004fd6:	2900      	cmp	r1, #0
10004fd8:	d022      	beq.n	10005020 <timer_pool_entry_comparator+0x4c>
10004fda:	6803      	ldr	r3, [r0, #0]
10004fdc:	7b1b      	ldrb	r3, [r3, #12]
10004fde:	4299      	cmp	r1, r3
10004fe0:	d81e      	bhi.n	10005020 <timer_pool_entry_comparator+0x4c>
10004fe2:	4b17      	ldr	r3, [pc, #92]	; (10005040 <timer_pool_entry_comparator+0x6c>)
10004fe4:	469c      	mov	ip, r3
10004fe6:	4461      	add	r1, ip
10004fe8:	0109      	lsls	r1, r1, #4
10004fea:	6883      	ldr	r3, [r0, #8]
10004fec:	469c      	mov	ip, r3
10004fee:	4461      	add	r1, ip
10004ff0:	680c      	ldr	r4, [r1, #0]
10004ff2:	6849      	ldr	r1, [r1, #4]
10004ff4:	2a00      	cmp	r2, #0
10004ff6:	d019      	beq.n	1000502c <timer_pool_entry_comparator+0x58>
10004ff8:	6803      	ldr	r3, [r0, #0]
10004ffa:	7b1b      	ldrb	r3, [r3, #12]
10004ffc:	429a      	cmp	r2, r3
10004ffe:	d815      	bhi.n	1000502c <timer_pool_entry_comparator+0x58>
10005000:	6883      	ldr	r3, [r0, #8]
10005002:	480f      	ldr	r0, [pc, #60]	; (10005040 <timer_pool_entry_comparator+0x6c>)
10005004:	4684      	mov	ip, r0
10005006:	4462      	add	r2, ip
10005008:	0112      	lsls	r2, r2, #4
1000500a:	189a      	adds	r2, r3, r2
1000500c:	6810      	ldr	r0, [r2, #0]
1000500e:	6853      	ldr	r3, [r2, #4]
10005010:	0002      	movs	r2, r0
10005012:	2001      	movs	r0, #1
10005014:	428b      	cmp	r3, r1
10005016:	d801      	bhi.n	1000501c <timer_pool_entry_comparator+0x48>
10005018:	d00e      	beq.n	10005038 <timer_pool_entry_comparator+0x64>
1000501a:	2000      	movs	r0, #0
1000501c:	b2c0      	uxtb	r0, r0
1000501e:	bd10      	pop	{r4, pc}
10005020:	4b08      	ldr	r3, [pc, #32]	; (10005044 <timer_pool_entry_comparator+0x70>)
10005022:	4a09      	ldr	r2, [pc, #36]	; (10005048 <timer_pool_entry_comparator+0x74>)
10005024:	2139      	movs	r1, #57	; 0x39
10005026:	4809      	ldr	r0, [pc, #36]	; (1000504c <timer_pool_entry_comparator+0x78>)
10005028:	f001 f8fc 	bl	10006224 <__assert_func>
1000502c:	4b05      	ldr	r3, [pc, #20]	; (10005044 <timer_pool_entry_comparator+0x70>)
1000502e:	4a06      	ldr	r2, [pc, #24]	; (10005048 <timer_pool_entry_comparator+0x74>)
10005030:	2139      	movs	r1, #57	; 0x39
10005032:	4806      	ldr	r0, [pc, #24]	; (1000504c <timer_pool_entry_comparator+0x78>)
10005034:	f001 f8f6 	bl	10006224 <__assert_func>
10005038:	42a2      	cmp	r2, r4
1000503a:	d8ef      	bhi.n	1000501c <timer_pool_entry_comparator+0x48>
1000503c:	e7ed      	b.n	1000501a <timer_pool_entry_comparator+0x46>
1000503e:	46c0      	nop			; (mov r8, r8)
10005040:	0fffffff 	.word	0x0fffffff
10005044:	1000caa4 	.word	0x1000caa4
10005048:	1000cd90 	.word	0x1000cd90
1000504c:	1000ca58 	.word	0x1000ca58

10005050 <ph_add_child_node>:
10005050:	b510      	push	{r4, lr}
10005052:	2900      	cmp	r1, #0
10005054:	d01e      	beq.n	10005094 <ph_add_child_node+0x44>
10005056:	7b03      	ldrb	r3, [r0, #12]
10005058:	4299      	cmp	r1, r3
1000505a:	d81b      	bhi.n	10005094 <ph_add_child_node+0x44>
1000505c:	004b      	lsls	r3, r1, #1
1000505e:	185b      	adds	r3, r3, r1
10005060:	3b03      	subs	r3, #3
10005062:	6804      	ldr	r4, [r0, #0]
10005064:	46a4      	mov	ip, r4
10005066:	4463      	add	r3, ip
10005068:	2900      	cmp	r1, #0
1000506a:	d019      	beq.n	100050a0 <ph_add_child_node+0x50>
1000506c:	2a00      	cmp	r2, #0
1000506e:	d01d      	beq.n	100050ac <ph_add_child_node+0x5c>
10005070:	4291      	cmp	r1, r2
10005072:	d021      	beq.n	100050b8 <ph_add_child_node+0x68>
10005074:	2a00      	cmp	r2, #0
10005076:	d025      	beq.n	100050c4 <ph_add_child_node+0x74>
10005078:	7b04      	ldrb	r4, [r0, #12]
1000507a:	42a2      	cmp	r2, r4
1000507c:	d822      	bhi.n	100050c4 <ph_add_child_node+0x74>
1000507e:	6804      	ldr	r4, [r0, #0]
10005080:	0050      	lsls	r0, r2, #1
10005082:	1880      	adds	r0, r0, r2
10005084:	3803      	subs	r0, #3
10005086:	1820      	adds	r0, r4, r0
10005088:	7081      	strb	r1, [r0, #2]
1000508a:	7819      	ldrb	r1, [r3, #0]
1000508c:	2900      	cmp	r1, #0
1000508e:	d11f      	bne.n	100050d0 <ph_add_child_node+0x80>
10005090:	701a      	strb	r2, [r3, #0]
10005092:	bd10      	pop	{r4, pc}
10005094:	4b10      	ldr	r3, [pc, #64]	; (100050d8 <ph_add_child_node+0x88>)
10005096:	4a11      	ldr	r2, [pc, #68]	; (100050dc <ph_add_child_node+0x8c>)
10005098:	2169      	movs	r1, #105	; 0x69
1000509a:	4811      	ldr	r0, [pc, #68]	; (100050e0 <ph_add_child_node+0x90>)
1000509c:	f001 f8c2 	bl	10006224 <__assert_func>
100050a0:	4b10      	ldr	r3, [pc, #64]	; (100050e4 <ph_add_child_node+0x94>)
100050a2:	4a11      	ldr	r2, [pc, #68]	; (100050e8 <ph_add_child_node+0x98>)
100050a4:	3170      	adds	r1, #112	; 0x70
100050a6:	480e      	ldr	r0, [pc, #56]	; (100050e0 <ph_add_child_node+0x90>)
100050a8:	f001 f8bc 	bl	10006224 <__assert_func>
100050ac:	4b0f      	ldr	r3, [pc, #60]	; (100050ec <ph_add_child_node+0x9c>)
100050ae:	4a0e      	ldr	r2, [pc, #56]	; (100050e8 <ph_add_child_node+0x98>)
100050b0:	2171      	movs	r1, #113	; 0x71
100050b2:	480b      	ldr	r0, [pc, #44]	; (100050e0 <ph_add_child_node+0x90>)
100050b4:	f001 f8b6 	bl	10006224 <__assert_func>
100050b8:	4b0d      	ldr	r3, [pc, #52]	; (100050f0 <ph_add_child_node+0xa0>)
100050ba:	4a0b      	ldr	r2, [pc, #44]	; (100050e8 <ph_add_child_node+0x98>)
100050bc:	2172      	movs	r1, #114	; 0x72
100050be:	4808      	ldr	r0, [pc, #32]	; (100050e0 <ph_add_child_node+0x90>)
100050c0:	f001 f8b0 	bl	10006224 <__assert_func>
100050c4:	4b04      	ldr	r3, [pc, #16]	; (100050d8 <ph_add_child_node+0x88>)
100050c6:	4a05      	ldr	r2, [pc, #20]	; (100050dc <ph_add_child_node+0x8c>)
100050c8:	2169      	movs	r1, #105	; 0x69
100050ca:	4805      	ldr	r0, [pc, #20]	; (100050e0 <ph_add_child_node+0x90>)
100050cc:	f001 f8aa 	bl	10006224 <__assert_func>
100050d0:	7041      	strb	r1, [r0, #1]
100050d2:	701a      	strb	r2, [r3, #0]
100050d4:	e7dd      	b.n	10005092 <ph_add_child_node+0x42>
100050d6:	46c0      	nop			; (mov r8, r8)
100050d8:	1000cad8 	.word	0x1000cad8
100050dc:	1000cdfc 	.word	0x1000cdfc
100050e0:	1000caf4 	.word	0x1000caf4
100050e4:	1000cb54 	.word	0x1000cb54
100050e8:	1000cdd8 	.word	0x1000cdd8
100050ec:	1000cb60 	.word	0x1000cb60
100050f0:	1000cb6c 	.word	0x1000cb6c

100050f4 <ph_merge_nodes>:
100050f4:	b570      	push	{r4, r5, r6, lr}
100050f6:	0006      	movs	r6, r0
100050f8:	000d      	movs	r5, r1
100050fa:	0014      	movs	r4, r2
100050fc:	2900      	cmp	r1, #0
100050fe:	d014      	beq.n	1000512a <ph_merge_nodes+0x36>
10005100:	2a00      	cmp	r2, #0
10005102:	d014      	beq.n	1000512e <ph_merge_nodes+0x3a>
10005104:	6880      	ldr	r0, [r0, #8]
10005106:	6873      	ldr	r3, [r6, #4]
10005108:	4798      	blx	r3
1000510a:	2800      	cmp	r0, #0
1000510c:	d006      	beq.n	1000511c <ph_merge_nodes+0x28>
1000510e:	0022      	movs	r2, r4
10005110:	0029      	movs	r1, r5
10005112:	0030      	movs	r0, r6
10005114:	f7ff ff9c 	bl	10005050 <ph_add_child_node>
10005118:	0028      	movs	r0, r5
1000511a:	e007      	b.n	1000512c <ph_merge_nodes+0x38>
1000511c:	002a      	movs	r2, r5
1000511e:	0021      	movs	r1, r4
10005120:	0030      	movs	r0, r6
10005122:	f7ff ff95 	bl	10005050 <ph_add_child_node>
10005126:	0020      	movs	r0, r4
10005128:	e000      	b.n	1000512c <ph_merge_nodes+0x38>
1000512a:	0010      	movs	r0, r2
1000512c:	bd70      	pop	{r4, r5, r6, pc}
1000512e:	0008      	movs	r0, r1
10005130:	e7fc      	b.n	1000512c <ph_merge_nodes+0x38>
	...

10005134 <add_alarm_under_lock>:
10005134:	b5f0      	push	{r4, r5, r6, r7, lr}
10005136:	b083      	sub	sp, #12
10005138:	0005      	movs	r5, r0
1000513a:	9200      	str	r2, [sp, #0]
1000513c:	9301      	str	r3, [sp, #4]
1000513e:	ab0a      	add	r3, sp, #40	; 0x28
10005140:	781c      	ldrb	r4, [r3, #0]
10005142:	ab0b      	add	r3, sp, #44	; 0x2c
10005144:	781f      	ldrb	r7, [r3, #0]
10005146:	2c00      	cmp	r4, #0
10005148:	d026      	beq.n	10005198 <add_alarm_under_lock+0x64>
1000514a:	6803      	ldr	r3, [r0, #0]
1000514c:	7b5a      	ldrb	r2, [r3, #13]
1000514e:	4294      	cmp	r4, r2
10005150:	d107      	bne.n	10005162 <add_alarm_under_lock+0x2e>
10005152:	2301      	movs	r3, #1
10005154:	2b00      	cmp	r3, #0
10005156:	d119      	bne.n	1000518c <add_alarm_under_lock+0x58>
10005158:	2c00      	cmp	r4, #0
1000515a:	d13b      	bne.n	100051d4 <add_alarm_under_lock+0xa0>
1000515c:	0020      	movs	r0, r4
1000515e:	b003      	add	sp, #12
10005160:	bdf0      	pop	{r4, r5, r6, r7, pc}
10005162:	2c00      	cmp	r4, #0
10005164:	d00c      	beq.n	10005180 <add_alarm_under_lock+0x4c>
10005166:	7b1a      	ldrb	r2, [r3, #12]
10005168:	4294      	cmp	r4, r2
1000516a:	d809      	bhi.n	10005180 <add_alarm_under_lock+0x4c>
1000516c:	681a      	ldr	r2, [r3, #0]
1000516e:	0063      	lsls	r3, r4, #1
10005170:	191b      	adds	r3, r3, r4
10005172:	3b03      	subs	r3, #3
10005174:	18d3      	adds	r3, r2, r3
10005176:	789b      	ldrb	r3, [r3, #2]
10005178:	2b00      	cmp	r3, #0
1000517a:	d0eb      	beq.n	10005154 <add_alarm_under_lock+0x20>
1000517c:	2301      	movs	r3, #1
1000517e:	e7e9      	b.n	10005154 <add_alarm_under_lock+0x20>
10005180:	4b3e      	ldr	r3, [pc, #248]	; (1000527c <add_alarm_under_lock+0x148>)
10005182:	4a3f      	ldr	r2, [pc, #252]	; (10005280 <add_alarm_under_lock+0x14c>)
10005184:	2169      	movs	r1, #105	; 0x69
10005186:	483f      	ldr	r0, [pc, #252]	; (10005284 <add_alarm_under_lock+0x150>)
10005188:	f001 f84c 	bl	10006224 <__assert_func>
1000518c:	4b3e      	ldr	r3, [pc, #248]	; (10005288 <add_alarm_under_lock+0x154>)
1000518e:	4a3f      	ldr	r2, [pc, #252]	; (1000528c <add_alarm_under_lock+0x158>)
10005190:	2162      	movs	r1, #98	; 0x62
10005192:	483f      	ldr	r0, [pc, #252]	; (10005290 <add_alarm_under_lock+0x15c>)
10005194:	f001 f846 	bl	10006224 <__assert_func>
10005198:	6803      	ldr	r3, [r0, #0]
1000519a:	7b9c      	ldrb	r4, [r3, #14]
1000519c:	2c00      	cmp	r4, #0
1000519e:	d0db      	beq.n	10005158 <add_alarm_under_lock+0x24>
100051a0:	d012      	beq.n	100051c8 <add_alarm_under_lock+0x94>
100051a2:	7b1a      	ldrb	r2, [r3, #12]
100051a4:	4294      	cmp	r4, r2
100051a6:	d80f      	bhi.n	100051c8 <add_alarm_under_lock+0x94>
100051a8:	0062      	lsls	r2, r4, #1
100051aa:	1912      	adds	r2, r2, r4
100051ac:	3a03      	subs	r2, #3
100051ae:	6819      	ldr	r1, [r3, #0]
100051b0:	468c      	mov	ip, r1
100051b2:	4462      	add	r2, ip
100051b4:	7851      	ldrb	r1, [r2, #1]
100051b6:	7399      	strb	r1, [r3, #14]
100051b8:	2900      	cmp	r1, #0
100051ba:	d100      	bne.n	100051be <add_alarm_under_lock+0x8a>
100051bc:	73d9      	strb	r1, [r3, #15]
100051be:	2300      	movs	r3, #0
100051c0:	7093      	strb	r3, [r2, #2]
100051c2:	7053      	strb	r3, [r2, #1]
100051c4:	7013      	strb	r3, [r2, #0]
100051c6:	e7c7      	b.n	10005158 <add_alarm_under_lock+0x24>
100051c8:	4b2c      	ldr	r3, [pc, #176]	; (1000527c <add_alarm_under_lock+0x148>)
100051ca:	4a2d      	ldr	r2, [pc, #180]	; (10005280 <add_alarm_under_lock+0x14c>)
100051cc:	2169      	movs	r1, #105	; 0x69
100051ce:	482d      	ldr	r0, [pc, #180]	; (10005284 <add_alarm_under_lock+0x150>)
100051d0:	f001 f828 	bl	10006224 <__assert_func>
100051d4:	2c00      	cmp	r4, #0
100051d6:	d03a      	beq.n	1000524e <add_alarm_under_lock+0x11a>
100051d8:	682b      	ldr	r3, [r5, #0]
100051da:	7b1b      	ldrb	r3, [r3, #12]
100051dc:	429c      	cmp	r4, r3
100051de:	d836      	bhi.n	1000524e <add_alarm_under_lock+0x11a>
100051e0:	4b2c      	ldr	r3, [pc, #176]	; (10005294 <add_alarm_under_lock+0x160>)
100051e2:	18e3      	adds	r3, r4, r3
100051e4:	011b      	lsls	r3, r3, #4
100051e6:	68aa      	ldr	r2, [r5, #8]
100051e8:	4694      	mov	ip, r2
100051ea:	4463      	add	r3, ip
100051ec:	9a00      	ldr	r2, [sp, #0]
100051ee:	601a      	str	r2, [r3, #0]
100051f0:	9a01      	ldr	r2, [sp, #4]
100051f2:	605a      	str	r2, [r3, #4]
100051f4:	9a08      	ldr	r2, [sp, #32]
100051f6:	609a      	str	r2, [r3, #8]
100051f8:	9a09      	ldr	r2, [sp, #36]	; 0x24
100051fa:	60da      	str	r2, [r3, #12]
100051fc:	682e      	ldr	r6, [r5, #0]
100051fe:	2c00      	cmp	r4, #0
10005200:	d02b      	beq.n	1000525a <add_alarm_under_lock+0x126>
10005202:	d030      	beq.n	10005266 <add_alarm_under_lock+0x132>
10005204:	7b33      	ldrb	r3, [r6, #12]
10005206:	429c      	cmp	r4, r3
10005208:	d82d      	bhi.n	10005266 <add_alarm_under_lock+0x132>
1000520a:	0063      	lsls	r3, r4, #1
1000520c:	191b      	adds	r3, r3, r4
1000520e:	3b03      	subs	r3, #3
10005210:	6832      	ldr	r2, [r6, #0]
10005212:	4694      	mov	ip, r2
10005214:	4463      	add	r3, ip
10005216:	2200      	movs	r2, #0
10005218:	709a      	strb	r2, [r3, #2]
1000521a:	705a      	strb	r2, [r3, #1]
1000521c:	701a      	strb	r2, [r3, #0]
1000521e:	7b71      	ldrb	r1, [r6, #13]
10005220:	0022      	movs	r2, r4
10005222:	0030      	movs	r0, r6
10005224:	f7ff ff66 	bl	100050f4 <ph_merge_nodes>
10005228:	7370      	strb	r0, [r6, #13]
1000522a:	4284      	cmp	r4, r0
1000522c:	d000      	beq.n	10005230 <add_alarm_under_lock+0xfc>
1000522e:	e795      	b.n	1000515c <add_alarm_under_lock+0x28>
10005230:	7d28      	ldrb	r0, [r5, #20]
10005232:	9a00      	ldr	r2, [sp, #0]
10005234:	9b01      	ldr	r3, [sp, #4]
10005236:	f000 fcbf 	bl	10005bb8 <hardware_alarm_set_target>
1000523a:	1e06      	subs	r6, r0, #0
1000523c:	d001      	beq.n	10005242 <add_alarm_under_lock+0x10e>
1000523e:	2f00      	cmp	r7, #0
10005240:	d017      	beq.n	10005272 <add_alarm_under_lock+0x13e>
10005242:	9b0c      	ldr	r3, [sp, #48]	; 0x30
10005244:	2b00      	cmp	r3, #0
10005246:	d100      	bne.n	1000524a <add_alarm_under_lock+0x116>
10005248:	e788      	b.n	1000515c <add_alarm_under_lock+0x28>
1000524a:	701e      	strb	r6, [r3, #0]
1000524c:	e786      	b.n	1000515c <add_alarm_under_lock+0x28>
1000524e:	4b12      	ldr	r3, [pc, #72]	; (10005298 <add_alarm_under_lock+0x164>)
10005250:	4a12      	ldr	r2, [pc, #72]	; (1000529c <add_alarm_under_lock+0x168>)
10005252:	2139      	movs	r1, #57	; 0x39
10005254:	480e      	ldr	r0, [pc, #56]	; (10005290 <add_alarm_under_lock+0x15c>)
10005256:	f000 ffe5 	bl	10006224 <__assert_func>
1000525a:	4b11      	ldr	r3, [pc, #68]	; (100052a0 <add_alarm_under_lock+0x16c>)
1000525c:	4a11      	ldr	r2, [pc, #68]	; (100052a4 <add_alarm_under_lock+0x170>)
1000525e:	21a6      	movs	r1, #166	; 0xa6
10005260:	4808      	ldr	r0, [pc, #32]	; (10005284 <add_alarm_under_lock+0x150>)
10005262:	f000 ffdf 	bl	10006224 <__assert_func>
10005266:	4b05      	ldr	r3, [pc, #20]	; (1000527c <add_alarm_under_lock+0x148>)
10005268:	4a05      	ldr	r2, [pc, #20]	; (10005280 <add_alarm_under_lock+0x14c>)
1000526a:	2169      	movs	r1, #105	; 0x69
1000526c:	4805      	ldr	r0, [pc, #20]	; (10005284 <add_alarm_under_lock+0x150>)
1000526e:	f000 ffd9 	bl	10006224 <__assert_func>
10005272:	6828      	ldr	r0, [r5, #0]
10005274:	0021      	movs	r1, r4
10005276:	f000 feed 	bl	10006054 <ph_remove_and_free_node>
1000527a:	e7e2      	b.n	10005242 <add_alarm_under_lock+0x10e>
1000527c:	1000cad8 	.word	0x1000cad8
10005280:	1000cdfc 	.word	0x1000cdfc
10005284:	1000caf4 	.word	0x1000caf4
10005288:	1000cb84 	.word	0x1000cb84
1000528c:	1000ce08 	.word	0x1000ce08
10005290:	1000ca58 	.word	0x1000ca58
10005294:	0fffffff 	.word	0x0fffffff
10005298:	1000caa4 	.word	0x1000caa4
1000529c:	1000cd90 	.word	0x1000cd90
100052a0:	1000ca54 	.word	0x1000ca54
100052a4:	1000cdec 	.word	0x1000cdec

100052a8 <alarm_pool_alarm_callback>:
100052a8:	b5f0      	push	{r4, r5, r6, r7, lr}
100052aa:	46de      	mov	lr, fp
100052ac:	4657      	mov	r7, sl
100052ae:	464e      	mov	r6, r9
100052b0:	4645      	mov	r5, r8
100052b2:	b5e0      	push	{r5, r6, r7, lr}
100052b4:	b08b      	sub	sp, #44	; 0x2c
100052b6:	9009      	str	r0, [sp, #36]	; 0x24
100052b8:	2300      	movs	r3, #0
100052ba:	9308      	str	r3, [sp, #32]
100052bc:	0082      	lsls	r2, r0, #2
100052be:	4bb2      	ldr	r3, [pc, #712]	; (10005588 <alarm_pool_alarm_callback+0x2e0>)
100052c0:	58d6      	ldr	r6, [r2, r3]
100052c2:	0037      	movs	r7, r6
100052c4:	e032      	b.n	1000532c <alarm_pool_alarm_callback+0x84>
100052c6:	4bb1      	ldr	r3, [pc, #708]	; (1000558c <alarm_pool_alarm_callback+0x2e4>)
100052c8:	4ab1      	ldr	r2, [pc, #708]	; (10005590 <alarm_pool_alarm_callback+0x2e8>)
100052ca:	213d      	movs	r1, #61	; 0x3d
100052cc:	48b1      	ldr	r0, [pc, #708]	; (10005594 <alarm_pool_alarm_callback+0x2ec>)
100052ce:	f000 ffa9 	bl	10006224 <__assert_func>
100052d2:	4bb1      	ldr	r3, [pc, #708]	; (10005598 <alarm_pool_alarm_callback+0x2f0>)
100052d4:	4ab1      	ldr	r2, [pc, #708]	; (1000559c <alarm_pool_alarm_callback+0x2f4>)
100052d6:	2139      	movs	r1, #57	; 0x39
100052d8:	48b1      	ldr	r0, [pc, #708]	; (100055a0 <alarm_pool_alarm_callback+0x2f8>)
100052da:	f000 ffa3 	bl	10006224 <__assert_func>
100052de:	4bb1      	ldr	r3, [pc, #708]	; (100055a4 <alarm_pool_alarm_callback+0x2fc>)
100052e0:	4ab1      	ldr	r2, [pc, #708]	; (100055a8 <alarm_pool_alarm_callback+0x300>)
100052e2:	2189      	movs	r1, #137	; 0x89
100052e4:	48ae      	ldr	r0, [pc, #696]	; (100055a0 <alarm_pool_alarm_callback+0x2f8>)
100052e6:	f000 ff9d 	bl	10006224 <__assert_func>
100052ea:	4bb0      	ldr	r3, [pc, #704]	; (100055ac <alarm_pool_alarm_callback+0x304>)
100052ec:	4aae      	ldr	r2, [pc, #696]	; (100055a8 <alarm_pool_alarm_callback+0x300>)
100052ee:	218d      	movs	r1, #141	; 0x8d
100052f0:	48ab      	ldr	r0, [pc, #684]	; (100055a0 <alarm_pool_alarm_callback+0x2f8>)
100052f2:	f000 ff97 	bl	10006224 <__assert_func>
100052f6:	4ba8      	ldr	r3, [pc, #672]	; (10005598 <alarm_pool_alarm_callback+0x2f0>)
100052f8:	4aad      	ldr	r2, [pc, #692]	; (100055b0 <alarm_pool_alarm_callback+0x308>)
100052fa:	213e      	movs	r1, #62	; 0x3e
100052fc:	48a8      	ldr	r0, [pc, #672]	; (100055a0 <alarm_pool_alarm_callback+0x2f8>)
100052fe:	f000 ff91 	bl	10006224 <__assert_func>
10005302:	682a      	ldr	r2, [r5, #0]
10005304:	686b      	ldr	r3, [r5, #4]
10005306:	9809      	ldr	r0, [sp, #36]	; 0x24
10005308:	f000 fc56 	bl	10005bb8 <hardware_alarm_set_target>
1000530c:	2300      	movs	r3, #0
1000530e:	469a      	mov	sl, r3
10005310:	4698      	mov	r8, r3
10005312:	687b      	ldr	r3, [r7, #4]
10005314:	f3bf 8f5f 	dmb	sy
10005318:	2200      	movs	r2, #0
1000531a:	601a      	str	r2, [r3, #0]
1000531c:	f386 8810 	msr	PRIMASK, r6
10005320:	4643      	mov	r3, r8
10005322:	2b00      	cmp	r3, #0
10005324:	d151      	bne.n	100053ca <alarm_pool_alarm_callback+0x122>
10005326:	2800      	cmp	r0, #0
10005328:	d100      	bne.n	1000532c <alarm_pool_alarm_callback+0x84>
1000532a:	e126      	b.n	1000557a <alarm_pool_alarm_callback+0x2d2>
1000532c:	f000 fbdc 	bl	10005ae8 <time_us_64>
10005330:	0002      	movs	r2, r0
10005332:	1e0b      	subs	r3, r1, #0
10005334:	dbc7      	blt.n	100052c6 <alarm_pool_alarm_callback+0x1e>
10005336:	2000      	movs	r0, #0
10005338:	2100      	movs	r1, #0
1000533a:	9006      	str	r0, [sp, #24]
1000533c:	9107      	str	r1, [sp, #28]
1000533e:	6878      	ldr	r0, [r7, #4]
10005340:	f3ef 8610 	mrs	r6, PRIMASK
10005344:	b672      	cpsid	i
10005346:	6801      	ldr	r1, [r0, #0]
10005348:	2900      	cmp	r1, #0
1000534a:	d0fc      	beq.n	10005346 <alarm_pool_alarm_callback+0x9e>
1000534c:	f3bf 8f5f 	dmb	sy
10005350:	6839      	ldr	r1, [r7, #0]
10005352:	4688      	mov	r8, r1
10005354:	7b4c      	ldrb	r4, [r1, #13]
10005356:	2c00      	cmp	r4, #0
10005358:	d032      	beq.n	100053c0 <alarm_pool_alarm_callback+0x118>
1000535a:	d0ba      	beq.n	100052d2 <alarm_pool_alarm_callback+0x2a>
1000535c:	7b09      	ldrb	r1, [r1, #12]
1000535e:	428c      	cmp	r4, r1
10005360:	d8b7      	bhi.n	100052d2 <alarm_pool_alarm_callback+0x2a>
10005362:	4994      	ldr	r1, [pc, #592]	; (100055b4 <alarm_pool_alarm_callback+0x30c>)
10005364:	1865      	adds	r5, r4, r1
10005366:	012d      	lsls	r5, r5, #4
10005368:	68b9      	ldr	r1, [r7, #8]
1000536a:	468c      	mov	ip, r1
1000536c:	4465      	add	r5, ip
1000536e:	6828      	ldr	r0, [r5, #0]
10005370:	6869      	ldr	r1, [r5, #4]
10005372:	1a80      	subs	r0, r0, r2
10005374:	4199      	sbcs	r1, r3
10005376:	2900      	cmp	r1, #0
10005378:	dcc3      	bgt.n	10005302 <alarm_pool_alarm_callback+0x5a>
1000537a:	d101      	bne.n	10005380 <alarm_pool_alarm_callback+0xd8>
1000537c:	2800      	cmp	r0, #0
1000537e:	d1c0      	bne.n	10005302 <alarm_pool_alarm_callback+0x5a>
10005380:	2100      	movs	r1, #0
10005382:	4640      	mov	r0, r8
10005384:	f000 fe5c 	bl	10006040 <ph_remove_head>
10005388:	42a0      	cmp	r0, r4
1000538a:	d1a8      	bne.n	100052de <alarm_pool_alarm_callback+0x36>
1000538c:	682a      	ldr	r2, [r5, #0]
1000538e:	686b      	ldr	r3, [r5, #4]
10005390:	9206      	str	r2, [sp, #24]
10005392:	9307      	str	r3, [sp, #28]
10005394:	68ab      	ldr	r3, [r5, #8]
10005396:	4698      	mov	r8, r3
10005398:	68eb      	ldr	r3, [r5, #12]
1000539a:	469a      	mov	sl, r3
1000539c:	4643      	mov	r3, r8
1000539e:	2b00      	cmp	r3, #0
100053a0:	d0a3      	beq.n	100052ea <alarm_pool_alarm_callback+0x42>
100053a2:	2c00      	cmp	r4, #0
100053a4:	d0a7      	beq.n	100052f6 <alarm_pool_alarm_callback+0x4e>
100053a6:	683b      	ldr	r3, [r7, #0]
100053a8:	7b1b      	ldrb	r3, [r3, #12]
100053aa:	429c      	cmp	r4, r3
100053ac:	d8a3      	bhi.n	100052f6 <alarm_pool_alarm_callback+0x4e>
100053ae:	1e63      	subs	r3, r4, #1
100053b0:	68fa      	ldr	r2, [r7, #12]
100053b2:	5cd3      	ldrb	r3, [r2, r3]
100053b4:	9308      	str	r3, [sp, #32]
100053b6:	021b      	lsls	r3, r3, #8
100053b8:	4318      	orrs	r0, r3
100053ba:	6138      	str	r0, [r7, #16]
100053bc:	2000      	movs	r0, #0
100053be:	e7a8      	b.n	10005312 <alarm_pool_alarm_callback+0x6a>
100053c0:	2300      	movs	r3, #0
100053c2:	469a      	mov	sl, r3
100053c4:	4698      	mov	r8, r3
100053c6:	2000      	movs	r0, #0
100053c8:	e7a3      	b.n	10005312 <alarm_pool_alarm_callback+0x6a>
100053ca:	9b08      	ldr	r3, [sp, #32]
100053cc:	021b      	lsls	r3, r3, #8
100053ce:	4323      	orrs	r3, r4
100053d0:	4699      	mov	r9, r3
100053d2:	4651      	mov	r1, sl
100053d4:	0018      	movs	r0, r3
100053d6:	47c0      	blx	r8
100053d8:	0005      	movs	r5, r0
100053da:	000e      	movs	r6, r1
100053dc:	687a      	ldr	r2, [r7, #4]
100053de:	f3ef 8b10 	mrs	fp, PRIMASK
100053e2:	b672      	cpsid	i
100053e4:	6813      	ldr	r3, [r2, #0]
100053e6:	4259      	negs	r1, r3
100053e8:	414b      	adcs	r3, r1
100053ea:	b2d9      	uxtb	r1, r3
100053ec:	2b00      	cmp	r3, #0
100053ee:	d1f9      	bne.n	100053e4 <alarm_pool_alarm_callback+0x13c>
100053f0:	f3bf 8f5f 	dmb	sy
100053f4:	2e00      	cmp	r6, #0
100053f6:	db26      	blt.n	10005446 <alarm_pool_alarm_callback+0x19e>
100053f8:	2e00      	cmp	r6, #0
100053fa:	dd52      	ble.n	100054a2 <alarm_pool_alarm_callback+0x1fa>
100053fc:	693b      	ldr	r3, [r7, #16]
100053fe:	2b00      	cmp	r3, #0
10005400:	d053      	beq.n	100054aa <alarm_pool_alarm_callback+0x202>
10005402:	454b      	cmp	r3, r9
10005404:	d172      	bne.n	100054ec <alarm_pool_alarm_callback+0x244>
10005406:	f000 fb6f 	bl	10005ae8 <time_us_64>
1000540a:	0002      	movs	r2, r0
1000540c:	1e0b      	subs	r3, r1, #0
1000540e:	db73      	blt.n	100054f8 <alarm_pool_alarm_callback+0x250>
10005410:	0001      	movs	r1, r0
10005412:	0018      	movs	r0, r3
10005414:	1952      	adds	r2, r2, r5
10005416:	4173      	adcs	r3, r6
10005418:	4298      	cmp	r0, r3
1000541a:	d802      	bhi.n	10005422 <alarm_pool_alarm_callback+0x17a>
1000541c:	d104      	bne.n	10005428 <alarm_pool_alarm_callback+0x180>
1000541e:	4291      	cmp	r1, r2
10005420:	d902      	bls.n	10005428 <alarm_pool_alarm_callback+0x180>
10005422:	2201      	movs	r2, #1
10005424:	4252      	negs	r2, r2
10005426:	17d3      	asrs	r3, r2, #31
10005428:	2b00      	cmp	r3, #0
1000542a:	db6b      	blt.n	10005504 <alarm_pool_alarm_callback+0x25c>
1000542c:	2100      	movs	r1, #0
1000542e:	9104      	str	r1, [sp, #16]
10005430:	3101      	adds	r1, #1
10005432:	9103      	str	r1, [sp, #12]
10005434:	9402      	str	r4, [sp, #8]
10005436:	4651      	mov	r1, sl
10005438:	9101      	str	r1, [sp, #4]
1000543a:	4641      	mov	r1, r8
1000543c:	9100      	str	r1, [sp, #0]
1000543e:	0038      	movs	r0, r7
10005440:	f7ff fe78 	bl	10005134 <add_alarm_under_lock>
10005444:	e049      	b.n	100054da <alarm_pool_alarm_callback+0x232>
10005446:	693b      	ldr	r3, [r7, #16]
10005448:	2b00      	cmp	r3, #0
1000544a:	d0d5      	beq.n	100053f8 <alarm_pool_alarm_callback+0x150>
1000544c:	454b      	cmp	r3, r9
1000544e:	d11c      	bne.n	1000548a <alarm_pool_alarm_callback+0x1e2>
10005450:	9a06      	ldr	r2, [sp, #24]
10005452:	9b07      	ldr	r3, [sp, #28]
10005454:	0010      	movs	r0, r2
10005456:	0019      	movs	r1, r3
10005458:	1b52      	subs	r2, r2, r5
1000545a:	41b3      	sbcs	r3, r6
1000545c:	4299      	cmp	r1, r3
1000545e:	d802      	bhi.n	10005466 <alarm_pool_alarm_callback+0x1be>
10005460:	d104      	bne.n	1000546c <alarm_pool_alarm_callback+0x1c4>
10005462:	4290      	cmp	r0, r2
10005464:	d902      	bls.n	1000546c <alarm_pool_alarm_callback+0x1c4>
10005466:	2201      	movs	r2, #1
10005468:	4252      	negs	r2, r2
1000546a:	17d3      	asrs	r3, r2, #31
1000546c:	2b00      	cmp	r3, #0
1000546e:	db12      	blt.n	10005496 <alarm_pool_alarm_callback+0x1ee>
10005470:	2100      	movs	r1, #0
10005472:	9104      	str	r1, [sp, #16]
10005474:	3101      	adds	r1, #1
10005476:	9103      	str	r1, [sp, #12]
10005478:	9402      	str	r4, [sp, #8]
1000547a:	4651      	mov	r1, sl
1000547c:	9101      	str	r1, [sp, #4]
1000547e:	4641      	mov	r1, r8
10005480:	9100      	str	r1, [sp, #0]
10005482:	0038      	movs	r0, r7
10005484:	f7ff fe56 	bl	10005134 <add_alarm_under_lock>
10005488:	e027      	b.n	100054da <alarm_pool_alarm_callback+0x232>
1000548a:	4b4b      	ldr	r3, [pc, #300]	; (100055b8 <alarm_pool_alarm_callback+0x310>)
1000548c:	4a46      	ldr	r2, [pc, #280]	; (100055a8 <alarm_pool_alarm_callback+0x300>)
1000548e:	219c      	movs	r1, #156	; 0x9c
10005490:	4843      	ldr	r0, [pc, #268]	; (100055a0 <alarm_pool_alarm_callback+0x2f8>)
10005492:	f000 fec7 	bl	10006224 <__assert_func>
10005496:	4b3d      	ldr	r3, [pc, #244]	; (1000558c <alarm_pool_alarm_callback+0x2e4>)
10005498:	4a3d      	ldr	r2, [pc, #244]	; (10005590 <alarm_pool_alarm_callback+0x2e8>)
1000549a:	213d      	movs	r1, #61	; 0x3d
1000549c:	483d      	ldr	r0, [pc, #244]	; (10005594 <alarm_pool_alarm_callback+0x2ec>)
1000549e:	f000 fec1 	bl	10006224 <__assert_func>
100054a2:	2e00      	cmp	r6, #0
100054a4:	d101      	bne.n	100054aa <alarm_pool_alarm_callback+0x202>
100054a6:	2d00      	cmp	r5, #0
100054a8:	d1a8      	bne.n	100053fc <alarm_pool_alarm_callback+0x154>
100054aa:	683a      	ldr	r2, [r7, #0]
100054ac:	2c00      	cmp	r4, #0
100054ae:	d045      	beq.n	1000553c <alarm_pool_alarm_callback+0x294>
100054b0:	7b53      	ldrb	r3, [r2, #13]
100054b2:	429c      	cmp	r4, r3
100054b4:	d12c      	bne.n	10005510 <alarm_pool_alarm_callback+0x268>
100054b6:	2101      	movs	r1, #1
100054b8:	2900      	cmp	r1, #0
100054ba:	d13f      	bne.n	1000553c <alarm_pool_alarm_callback+0x294>
100054bc:	7bd3      	ldrb	r3, [r2, #15]
100054be:	2b00      	cmp	r3, #0
100054c0:	d142      	bne.n	10005548 <alarm_pool_alarm_callback+0x2a0>
100054c2:	73d4      	strb	r4, [r2, #15]
100054c4:	2c00      	cmp	r4, #0
100054c6:	d052      	beq.n	1000556e <alarm_pool_alarm_callback+0x2c6>
100054c8:	683b      	ldr	r3, [r7, #0]
100054ca:	7b1b      	ldrb	r3, [r3, #12]
100054cc:	429c      	cmp	r4, r3
100054ce:	d84e      	bhi.n	1000556e <alarm_pool_alarm_callback+0x2c6>
100054d0:	68fa      	ldr	r2, [r7, #12]
100054d2:	3c01      	subs	r4, #1
100054d4:	5d13      	ldrb	r3, [r2, r4]
100054d6:	3301      	adds	r3, #1
100054d8:	5513      	strb	r3, [r2, r4]
100054da:	2300      	movs	r3, #0
100054dc:	613b      	str	r3, [r7, #16]
100054de:	687a      	ldr	r2, [r7, #4]
100054e0:	f3bf 8f5f 	dmb	sy
100054e4:	6013      	str	r3, [r2, #0]
100054e6:	f38b 8810 	msr	PRIMASK, fp
100054ea:	e71f      	b.n	1000532c <alarm_pool_alarm_callback+0x84>
100054ec:	4b32      	ldr	r3, [pc, #200]	; (100055b8 <alarm_pool_alarm_callback+0x310>)
100054ee:	4a2e      	ldr	r2, [pc, #184]	; (100055a8 <alarm_pool_alarm_callback+0x300>)
100054f0:	219f      	movs	r1, #159	; 0x9f
100054f2:	482b      	ldr	r0, [pc, #172]	; (100055a0 <alarm_pool_alarm_callback+0x2f8>)
100054f4:	f000 fe96 	bl	10006224 <__assert_func>
100054f8:	4b24      	ldr	r3, [pc, #144]	; (1000558c <alarm_pool_alarm_callback+0x2e4>)
100054fa:	4a25      	ldr	r2, [pc, #148]	; (10005590 <alarm_pool_alarm_callback+0x2e8>)
100054fc:	213d      	movs	r1, #61	; 0x3d
100054fe:	4825      	ldr	r0, [pc, #148]	; (10005594 <alarm_pool_alarm_callback+0x2ec>)
10005500:	f000 fe90 	bl	10006224 <__assert_func>
10005504:	4b21      	ldr	r3, [pc, #132]	; (1000558c <alarm_pool_alarm_callback+0x2e4>)
10005506:	4a22      	ldr	r2, [pc, #136]	; (10005590 <alarm_pool_alarm_callback+0x2e8>)
10005508:	213d      	movs	r1, #61	; 0x3d
1000550a:	4822      	ldr	r0, [pc, #136]	; (10005594 <alarm_pool_alarm_callback+0x2ec>)
1000550c:	f000 fe8a 	bl	10006224 <__assert_func>
10005510:	2c00      	cmp	r4, #0
10005512:	d00d      	beq.n	10005530 <alarm_pool_alarm_callback+0x288>
10005514:	7b13      	ldrb	r3, [r2, #12]
10005516:	429c      	cmp	r4, r3
10005518:	d80a      	bhi.n	10005530 <alarm_pool_alarm_callback+0x288>
1000551a:	0063      	lsls	r3, r4, #1
1000551c:	191b      	adds	r3, r3, r4
1000551e:	3b03      	subs	r3, #3
10005520:	6810      	ldr	r0, [r2, #0]
10005522:	4684      	mov	ip, r0
10005524:	4463      	add	r3, ip
10005526:	789b      	ldrb	r3, [r3, #2]
10005528:	2b00      	cmp	r3, #0
1000552a:	d0c5      	beq.n	100054b8 <alarm_pool_alarm_callback+0x210>
1000552c:	2101      	movs	r1, #1
1000552e:	e7c3      	b.n	100054b8 <alarm_pool_alarm_callback+0x210>
10005530:	4b22      	ldr	r3, [pc, #136]	; (100055bc <alarm_pool_alarm_callback+0x314>)
10005532:	4a23      	ldr	r2, [pc, #140]	; (100055c0 <alarm_pool_alarm_callback+0x318>)
10005534:	2169      	movs	r1, #105	; 0x69
10005536:	4823      	ldr	r0, [pc, #140]	; (100055c4 <alarm_pool_alarm_callback+0x31c>)
10005538:	f000 fe74 	bl	10006224 <__assert_func>
1000553c:	4b22      	ldr	r3, [pc, #136]	; (100055c8 <alarm_pool_alarm_callback+0x320>)
1000553e:	4a23      	ldr	r2, [pc, #140]	; (100055cc <alarm_pool_alarm_callback+0x324>)
10005540:	21f7      	movs	r1, #247	; 0xf7
10005542:	4820      	ldr	r0, [pc, #128]	; (100055c4 <alarm_pool_alarm_callback+0x31c>)
10005544:	f000 fe6e 	bl	10006224 <__assert_func>
10005548:	2b00      	cmp	r3, #0
1000554a:	d00a      	beq.n	10005562 <alarm_pool_alarm_callback+0x2ba>
1000554c:	7b11      	ldrb	r1, [r2, #12]
1000554e:	428b      	cmp	r3, r1
10005550:	d807      	bhi.n	10005562 <alarm_pool_alarm_callback+0x2ba>
10005552:	0059      	lsls	r1, r3, #1
10005554:	18cb      	adds	r3, r1, r3
10005556:	3b03      	subs	r3, #3
10005558:	6811      	ldr	r1, [r2, #0]
1000555a:	468c      	mov	ip, r1
1000555c:	4463      	add	r3, ip
1000555e:	705c      	strb	r4, [r3, #1]
10005560:	e7af      	b.n	100054c2 <alarm_pool_alarm_callback+0x21a>
10005562:	4b16      	ldr	r3, [pc, #88]	; (100055bc <alarm_pool_alarm_callback+0x314>)
10005564:	4a16      	ldr	r2, [pc, #88]	; (100055c0 <alarm_pool_alarm_callback+0x318>)
10005566:	2169      	movs	r1, #105	; 0x69
10005568:	4816      	ldr	r0, [pc, #88]	; (100055c4 <alarm_pool_alarm_callback+0x31c>)
1000556a:	f000 fe5b 	bl	10006224 <__assert_func>
1000556e:	4b0a      	ldr	r3, [pc, #40]	; (10005598 <alarm_pool_alarm_callback+0x2f0>)
10005570:	4a0f      	ldr	r2, [pc, #60]	; (100055b0 <alarm_pool_alarm_callback+0x308>)
10005572:	213e      	movs	r1, #62	; 0x3e
10005574:	480a      	ldr	r0, [pc, #40]	; (100055a0 <alarm_pool_alarm_callback+0x2f8>)
10005576:	f000 fe55 	bl	10006224 <__assert_func>
1000557a:	b00b      	add	sp, #44	; 0x2c
1000557c:	bcf0      	pop	{r4, r5, r6, r7}
1000557e:	46bb      	mov	fp, r7
10005580:	46b2      	mov	sl, r6
10005582:	46a9      	mov	r9, r5
10005584:	46a0      	mov	r8, r4
10005586:	bdf0      	pop	{r4, r5, r6, r7, pc}
10005588:	200022e0 	.word	0x200022e0
1000558c:	1000cbac 	.word	0x1000cbac
10005590:	1000cd5c 	.word	0x1000cd5c
10005594:	1000cbc8 	.word	0x1000cbc8
10005598:	1000caa4 	.word	0x1000caa4
1000559c:	1000cd90 	.word	0x1000cd90
100055a0:	1000ca58 	.word	0x1000ca58
100055a4:	1000cc24 	.word	0x1000cc24
100055a8:	1000cd74 	.word	0x1000cd74
100055ac:	1000cc3c 	.word	0x1000cc3c
100055b0:	1000cdb4 	.word	0x1000cdb4
100055b4:	0fffffff 	.word	0x0fffffff
100055b8:	1000cc48 	.word	0x1000cc48
100055bc:	1000cad8 	.word	0x1000cad8
100055c0:	1000cdfc 	.word	0x1000cdfc
100055c4:	1000caf4 	.word	0x1000caf4
100055c8:	1000cc84 	.word	0x1000cc84
100055cc:	1000cdc8 	.word	0x1000cdc8

100055d0 <alarm_pool_init_default>:
100055d0:	b510      	push	{r4, lr}
100055d2:	4b08      	ldr	r3, [pc, #32]	; (100055f4 <alarm_pool_init_default+0x24>)
100055d4:	685b      	ldr	r3, [r3, #4]
100055d6:	2b00      	cmp	r3, #0
100055d8:	d000      	beq.n	100055dc <alarm_pool_init_default+0xc>
100055da:	bd10      	pop	{r4, pc}
100055dc:	4c05      	ldr	r4, [pc, #20]	; (100055f4 <alarm_pool_init_default+0x24>)
100055de:	0023      	movs	r3, r4
100055e0:	4a05      	ldr	r2, [pc, #20]	; (100055f8 <alarm_pool_init_default+0x28>)
100055e2:	2110      	movs	r1, #16
100055e4:	6820      	ldr	r0, [r4, #0]
100055e6:	f000 fc4b 	bl	10005e80 <ph_post_alloc_init>
100055ea:	2103      	movs	r1, #3
100055ec:	0020      	movs	r0, r4
100055ee:	f7ff fcd1 	bl	10004f94 <alarm_pool_post_alloc_init>
100055f2:	e7f2      	b.n	100055da <alarm_pool_init_default+0xa>
100055f4:	20000ab0 	.word	0x20000ab0
100055f8:	10004fd5 	.word	0x10004fd5

100055fc <alarm_pool_get_default>:
100055fc:	b510      	push	{r4, lr}
100055fe:	4b06      	ldr	r3, [pc, #24]	; (10005618 <alarm_pool_get_default+0x1c>)
10005600:	685b      	ldr	r3, [r3, #4]
10005602:	2b00      	cmp	r3, #0
10005604:	d001      	beq.n	1000560a <alarm_pool_get_default+0xe>
10005606:	4804      	ldr	r0, [pc, #16]	; (10005618 <alarm_pool_get_default+0x1c>)
10005608:	bd10      	pop	{r4, pc}
1000560a:	4b04      	ldr	r3, [pc, #16]	; (1000561c <alarm_pool_get_default+0x20>)
1000560c:	4a04      	ldr	r2, [pc, #16]	; (10005620 <alarm_pool_get_default+0x24>)
1000560e:	2159      	movs	r1, #89	; 0x59
10005610:	4804      	ldr	r0, [pc, #16]	; (10005624 <alarm_pool_get_default+0x28>)
10005612:	f000 fe07 	bl	10006224 <__assert_func>
10005616:	46c0      	nop			; (mov r8, r8)
10005618:	20000ab0 	.word	0x20000ab0
1000561c:	1000cca8 	.word	0x1000cca8
10005620:	1000cd9c 	.word	0x1000cd9c
10005624:	1000ca58 	.word	0x1000ca58

10005628 <alarm_pool_add_alarm_at>:
10005628:	b5f0      	push	{r4, r5, r6, r7, lr}
1000562a:	46de      	mov	lr, fp
1000562c:	4657      	mov	r7, sl
1000562e:	464e      	mov	r6, r9
10005630:	4645      	mov	r5, r8
10005632:	b5e0      	push	{r5, r6, r7, lr}
10005634:	b08b      	sub	sp, #44	; 0x2c
10005636:	4680      	mov	r8, r0
10005638:	0016      	movs	r6, r2
1000563a:	001f      	movs	r7, r3
1000563c:	9b14      	ldr	r3, [sp, #80]	; 0x50
1000563e:	469a      	mov	sl, r3
10005640:	9b15      	ldr	r3, [sp, #84]	; 0x54
10005642:	4699      	mov	r9, r3
10005644:	ab16      	add	r3, sp, #88	; 0x58
10005646:	781b      	ldrb	r3, [r3, #0]
10005648:	469b      	mov	fp, r3
1000564a:	231f      	movs	r3, #31
1000564c:	aa02      	add	r2, sp, #8
1000564e:	4694      	mov	ip, r2
10005650:	4463      	add	r3, ip
10005652:	2200      	movs	r2, #0
10005654:	701a      	strb	r2, [r3, #0]
10005656:	e032      	b.n	100056be <alarm_pool_add_alarm_at+0x96>
10005658:	2800      	cmp	r0, #0
1000565a:	d009      	beq.n	10005670 <alarm_pool_add_alarm_at+0x48>
1000565c:	4642      	mov	r2, r8
1000565e:	6812      	ldr	r2, [r2, #0]
10005660:	7b12      	ldrb	r2, [r2, #12]
10005662:	4290      	cmp	r0, r2
10005664:	d804      	bhi.n	10005670 <alarm_pool_add_alarm_at+0x48>
10005666:	1e42      	subs	r2, r0, #1
10005668:	4641      	mov	r1, r8
1000566a:	68c9      	ldr	r1, [r1, #12]
1000566c:	5c8a      	ldrb	r2, [r1, r2]
1000566e:	e048      	b.n	10005702 <alarm_pool_add_alarm_at+0xda>
10005670:	4b43      	ldr	r3, [pc, #268]	; (10005780 <alarm_pool_add_alarm_at+0x158>)
10005672:	4a44      	ldr	r2, [pc, #272]	; (10005784 <alarm_pool_add_alarm_at+0x15c>)
10005674:	213e      	movs	r1, #62	; 0x3e
10005676:	4844      	ldr	r0, [pc, #272]	; (10005788 <alarm_pool_add_alarm_at+0x160>)
10005678:	f000 fdd4 	bl	10006224 <__assert_func>
1000567c:	9807      	ldr	r0, [sp, #28]
1000567e:	2b00      	cmp	r3, #0
10005680:	d075      	beq.n	1000576e <alarm_pool_add_alarm_at+0x146>
10005682:	465b      	mov	r3, fp
10005684:	2b00      	cmp	r3, #0
10005686:	d072      	beq.n	1000576e <alarm_pool_add_alarm_at+0x146>
10005688:	4649      	mov	r1, r9
1000568a:	47d0      	blx	sl
1000568c:	0004      	movs	r4, r0
1000568e:	000d      	movs	r5, r1
10005690:	0003      	movs	r3, r0
10005692:	430b      	orrs	r3, r1
10005694:	d100      	bne.n	10005698 <alarm_pool_add_alarm_at+0x70>
10005696:	e071      	b.n	1000577c <alarm_pool_add_alarm_at+0x154>
10005698:	2900      	cmp	r1, #0
1000569a:	db46      	blt.n	1000572a <alarm_pool_add_alarm_at+0x102>
1000569c:	f000 fa24 	bl	10005ae8 <time_us_64>
100056a0:	0006      	movs	r6, r0
100056a2:	1e0f      	subs	r7, r1, #0
100056a4:	db55      	blt.n	10005752 <alarm_pool_add_alarm_at+0x12a>
100056a6:	1936      	adds	r6, r6, r4
100056a8:	416f      	adcs	r7, r5
100056aa:	42b9      	cmp	r1, r7
100056ac:	d802      	bhi.n	100056b4 <alarm_pool_add_alarm_at+0x8c>
100056ae:	d104      	bne.n	100056ba <alarm_pool_add_alarm_at+0x92>
100056b0:	42b0      	cmp	r0, r6
100056b2:	d902      	bls.n	100056ba <alarm_pool_add_alarm_at+0x92>
100056b4:	2601      	movs	r6, #1
100056b6:	4276      	negs	r6, r6
100056b8:	17f7      	asrs	r7, r6, #31
100056ba:	2f00      	cmp	r7, #0
100056bc:	db4f      	blt.n	1000575e <alarm_pool_add_alarm_at+0x136>
100056be:	4643      	mov	r3, r8
100056c0:	685a      	ldr	r2, [r3, #4]
100056c2:	f3ef 8410 	mrs	r4, PRIMASK
100056c6:	b672      	cpsid	i
100056c8:	6813      	ldr	r3, [r2, #0]
100056ca:	4259      	negs	r1, r3
100056cc:	414b      	adcs	r3, r1
100056ce:	b2d9      	uxtb	r1, r3
100056d0:	9107      	str	r1, [sp, #28]
100056d2:	2b00      	cmp	r3, #0
100056d4:	d1f8      	bne.n	100056c8 <alarm_pool_add_alarm_at+0xa0>
100056d6:	f3bf 8f5f 	dmb	sy
100056da:	331f      	adds	r3, #31
100056dc:	aa02      	add	r2, sp, #8
100056de:	4694      	mov	ip, r2
100056e0:	4463      	add	r3, ip
100056e2:	9304      	str	r3, [sp, #16]
100056e4:	2300      	movs	r3, #0
100056e6:	9303      	str	r3, [sp, #12]
100056e8:	9302      	str	r3, [sp, #8]
100056ea:	464b      	mov	r3, r9
100056ec:	9301      	str	r3, [sp, #4]
100056ee:	4653      	mov	r3, sl
100056f0:	9300      	str	r3, [sp, #0]
100056f2:	0032      	movs	r2, r6
100056f4:	003b      	movs	r3, r7
100056f6:	4640      	mov	r0, r8
100056f8:	f7ff fd1c 	bl	10005134 <add_alarm_under_lock>
100056fc:	1e03      	subs	r3, r0, #0
100056fe:	d1ab      	bne.n	10005658 <alarm_pool_add_alarm_at+0x30>
10005700:	0002      	movs	r2, r0
10005702:	4641      	mov	r1, r8
10005704:	6849      	ldr	r1, [r1, #4]
10005706:	f3bf 8f5f 	dmb	sy
1000570a:	2500      	movs	r5, #0
1000570c:	600d      	str	r5, [r1, #0]
1000570e:	f384 8810 	msr	PRIMASK, r4
10005712:	2b00      	cmp	r3, #0
10005714:	d029      	beq.n	1000576a <alarm_pool_add_alarm_at+0x142>
10005716:	231f      	movs	r3, #31
10005718:	a902      	add	r1, sp, #8
1000571a:	468c      	mov	ip, r1
1000571c:	4463      	add	r3, ip
1000571e:	781b      	ldrb	r3, [r3, #0]
10005720:	2b00      	cmp	r3, #0
10005722:	d1ab      	bne.n	1000567c <alarm_pool_add_alarm_at+0x54>
10005724:	0212      	lsls	r2, r2, #8
10005726:	4310      	orrs	r0, r2
10005728:	e7a9      	b.n	1000567e <alarm_pool_add_alarm_at+0x56>
1000572a:	0032      	movs	r2, r6
1000572c:	003b      	movs	r3, r7
1000572e:	1b36      	subs	r6, r6, r4
10005730:	41af      	sbcs	r7, r5
10005732:	42bb      	cmp	r3, r7
10005734:	d802      	bhi.n	1000573c <alarm_pool_add_alarm_at+0x114>
10005736:	d104      	bne.n	10005742 <alarm_pool_add_alarm_at+0x11a>
10005738:	42b2      	cmp	r2, r6
1000573a:	d902      	bls.n	10005742 <alarm_pool_add_alarm_at+0x11a>
1000573c:	2601      	movs	r6, #1
1000573e:	4276      	negs	r6, r6
10005740:	17f7      	asrs	r7, r6, #31
10005742:	2f00      	cmp	r7, #0
10005744:	dabb      	bge.n	100056be <alarm_pool_add_alarm_at+0x96>
10005746:	4b11      	ldr	r3, [pc, #68]	; (1000578c <alarm_pool_add_alarm_at+0x164>)
10005748:	4a11      	ldr	r2, [pc, #68]	; (10005790 <alarm_pool_add_alarm_at+0x168>)
1000574a:	213d      	movs	r1, #61	; 0x3d
1000574c:	4811      	ldr	r0, [pc, #68]	; (10005794 <alarm_pool_add_alarm_at+0x16c>)
1000574e:	f000 fd69 	bl	10006224 <__assert_func>
10005752:	4b0e      	ldr	r3, [pc, #56]	; (1000578c <alarm_pool_add_alarm_at+0x164>)
10005754:	4a0e      	ldr	r2, [pc, #56]	; (10005790 <alarm_pool_add_alarm_at+0x168>)
10005756:	213d      	movs	r1, #61	; 0x3d
10005758:	480e      	ldr	r0, [pc, #56]	; (10005794 <alarm_pool_add_alarm_at+0x16c>)
1000575a:	f000 fd63 	bl	10006224 <__assert_func>
1000575e:	4b0b      	ldr	r3, [pc, #44]	; (1000578c <alarm_pool_add_alarm_at+0x164>)
10005760:	4a0b      	ldr	r2, [pc, #44]	; (10005790 <alarm_pool_add_alarm_at+0x168>)
10005762:	213d      	movs	r1, #61	; 0x3d
10005764:	480b      	ldr	r0, [pc, #44]	; (10005794 <alarm_pool_add_alarm_at+0x16c>)
10005766:	f000 fd5d 	bl	10006224 <__assert_func>
1000576a:	2001      	movs	r0, #1
1000576c:	4240      	negs	r0, r0
1000576e:	b00b      	add	sp, #44	; 0x2c
10005770:	bcf0      	pop	{r4, r5, r6, r7}
10005772:	46bb      	mov	fp, r7
10005774:	46b2      	mov	sl, r6
10005776:	46a9      	mov	r9, r5
10005778:	46a0      	mov	r8, r4
1000577a:	bdf0      	pop	{r4, r5, r6, r7, pc}
1000577c:	9807      	ldr	r0, [sp, #28]
1000577e:	e7f6      	b.n	1000576e <alarm_pool_add_alarm_at+0x146>
10005780:	1000caa4 	.word	0x1000caa4
10005784:	1000cdb4 	.word	0x1000cdb4
10005788:	1000ca58 	.word	0x1000ca58
1000578c:	1000cbac 	.word	0x1000cbac
10005790:	1000cd5c 	.word	0x1000cd5c
10005794:	1000cbc8 	.word	0x1000cbc8

10005798 <alarm_pool_cancel_alarm>:
10005798:	b5f8      	push	{r3, r4, r5, r6, r7, lr}
1000579a:	0004      	movs	r4, r0
1000579c:	6842      	ldr	r2, [r0, #4]
1000579e:	f3ef 8510 	mrs	r5, PRIMASK
100057a2:	b672      	cpsid	i
100057a4:	6813      	ldr	r3, [r2, #0]
100057a6:	4258      	negs	r0, r3
100057a8:	4143      	adcs	r3, r0
100057aa:	b2d8      	uxtb	r0, r3
100057ac:	2b00      	cmp	r3, #0
100057ae:	d1f9      	bne.n	100057a4 <alarm_pool_cancel_alarm+0xc>
100057b0:	f3bf 8f5f 	dmb	sy
100057b4:	b2cb      	uxtb	r3, r1
100057b6:	6822      	ldr	r2, [r4, #0]
100057b8:	7b56      	ldrb	r6, [r2, #13]
100057ba:	42b3      	cmp	r3, r6
100057bc:	d11b      	bne.n	100057f6 <alarm_pool_cancel_alarm+0x5e>
100057be:	2001      	movs	r0, #1
100057c0:	2800      	cmp	r0, #0
100057c2:	d047      	beq.n	10005854 <alarm_pool_cancel_alarm+0xbc>
100057c4:	6920      	ldr	r0, [r4, #16]
100057c6:	4288      	cmp	r0, r1
100057c8:	d02b      	beq.n	10005822 <alarm_pool_cancel_alarm+0x8a>
100057ca:	0a09      	lsrs	r1, r1, #8
100057cc:	b2c9      	uxtb	r1, r1
100057ce:	2b00      	cmp	r3, #0
100057d0:	d02d      	beq.n	1000582e <alarm_pool_cancel_alarm+0x96>
100057d2:	6820      	ldr	r0, [r4, #0]
100057d4:	7b00      	ldrb	r0, [r0, #12]
100057d6:	4283      	cmp	r3, r0
100057d8:	d829      	bhi.n	1000582e <alarm_pool_cancel_alarm+0x96>
100057da:	1e58      	subs	r0, r3, #1
100057dc:	68e6      	ldr	r6, [r4, #12]
100057de:	5c30      	ldrb	r0, [r6, r0]
100057e0:	4288      	cmp	r0, r1
100057e2:	d02a      	beq.n	1000583a <alarm_pool_cancel_alarm+0xa2>
100057e4:	2000      	movs	r0, #0
100057e6:	6863      	ldr	r3, [r4, #4]
100057e8:	f3bf 8f5f 	dmb	sy
100057ec:	2200      	movs	r2, #0
100057ee:	601a      	str	r2, [r3, #0]
100057f0:	f385 8810 	msr	PRIMASK, r5
100057f4:	bdf8      	pop	{r3, r4, r5, r6, r7, pc}
100057f6:	2b00      	cmp	r3, #0
100057f8:	d00d      	beq.n	10005816 <alarm_pool_cancel_alarm+0x7e>
100057fa:	7b16      	ldrb	r6, [r2, #12]
100057fc:	42b3      	cmp	r3, r6
100057fe:	d80a      	bhi.n	10005816 <alarm_pool_cancel_alarm+0x7e>
10005800:	005e      	lsls	r6, r3, #1
10005802:	18f6      	adds	r6, r6, r3
10005804:	3e03      	subs	r6, #3
10005806:	6817      	ldr	r7, [r2, #0]
10005808:	46bc      	mov	ip, r7
1000580a:	4466      	add	r6, ip
1000580c:	78b6      	ldrb	r6, [r6, #2]
1000580e:	2e00      	cmp	r6, #0
10005810:	d0d6      	beq.n	100057c0 <alarm_pool_cancel_alarm+0x28>
10005812:	2001      	movs	r0, #1
10005814:	e7d4      	b.n	100057c0 <alarm_pool_cancel_alarm+0x28>
10005816:	4b12      	ldr	r3, [pc, #72]	; (10005860 <alarm_pool_cancel_alarm+0xc8>)
10005818:	4a12      	ldr	r2, [pc, #72]	; (10005864 <alarm_pool_cancel_alarm+0xcc>)
1000581a:	2169      	movs	r1, #105	; 0x69
1000581c:	4812      	ldr	r0, [pc, #72]	; (10005868 <alarm_pool_cancel_alarm+0xd0>)
1000581e:	f000 fd01 	bl	10006224 <__assert_func>
10005822:	4b12      	ldr	r3, [pc, #72]	; (1000586c <alarm_pool_cancel_alarm+0xd4>)
10005824:	4a12      	ldr	r2, [pc, #72]	; (10005870 <alarm_pool_cancel_alarm+0xd8>)
10005826:	21fb      	movs	r1, #251	; 0xfb
10005828:	4812      	ldr	r0, [pc, #72]	; (10005874 <alarm_pool_cancel_alarm+0xdc>)
1000582a:	f000 fcfb 	bl	10006224 <__assert_func>
1000582e:	4b12      	ldr	r3, [pc, #72]	; (10005878 <alarm_pool_cancel_alarm+0xe0>)
10005830:	4a12      	ldr	r2, [pc, #72]	; (1000587c <alarm_pool_cancel_alarm+0xe4>)
10005832:	213e      	movs	r1, #62	; 0x3e
10005834:	480f      	ldr	r0, [pc, #60]	; (10005874 <alarm_pool_cancel_alarm+0xdc>)
10005836:	f000 fcf5 	bl	10006224 <__assert_func>
1000583a:	0019      	movs	r1, r3
1000583c:	0010      	movs	r0, r2
1000583e:	f000 fc09 	bl	10006054 <ph_remove_and_free_node>
10005842:	2800      	cmp	r0, #0
10005844:	d1cf      	bne.n	100057e6 <alarm_pool_cancel_alarm+0x4e>
10005846:	2181      	movs	r1, #129	; 0x81
10005848:	4b0d      	ldr	r3, [pc, #52]	; (10005880 <alarm_pool_cancel_alarm+0xe8>)
1000584a:	4a09      	ldr	r2, [pc, #36]	; (10005870 <alarm_pool_cancel_alarm+0xd8>)
1000584c:	0049      	lsls	r1, r1, #1
1000584e:	4809      	ldr	r0, [pc, #36]	; (10005874 <alarm_pool_cancel_alarm+0xdc>)
10005850:	f000 fce8 	bl	10006224 <__assert_func>
10005854:	6923      	ldr	r3, [r4, #16]
10005856:	428b      	cmp	r3, r1
10005858:	d1c5      	bne.n	100057e6 <alarm_pool_cancel_alarm+0x4e>
1000585a:	2300      	movs	r3, #0
1000585c:	6123      	str	r3, [r4, #16]
1000585e:	e7c2      	b.n	100057e6 <alarm_pool_cancel_alarm+0x4e>
10005860:	1000cad8 	.word	0x1000cad8
10005864:	1000cdfc 	.word	0x1000cdfc
10005868:	1000caf4 	.word	0x1000caf4
1000586c:	1000cccc 	.word	0x1000cccc
10005870:	1000cd44 	.word	0x1000cd44
10005874:	1000ca58 	.word	0x1000ca58
10005878:	1000caa4 	.word	0x1000caa4
1000587c:	1000cdb4 	.word	0x1000cdb4
10005880:	1000ccf0 	.word	0x1000ccf0

10005884 <sleep_until>:
10005884:	b5f0      	push	{r4, r5, r6, r7, lr}
10005886:	b087      	sub	sp, #28
10005888:	0006      	movs	r6, r0
1000588a:	000f      	movs	r7, r1
1000588c:	f7fa fceb 	bl	10000266 <__get_current_exception>
10005890:	2800      	cmp	r0, #0
10005892:	d11f      	bne.n	100058d4 <sleep_until+0x50>
10005894:	2406      	movs	r4, #6
10005896:	4264      	negs	r4, r4
10005898:	17e5      	asrs	r5, r4, #31
1000589a:	19a4      	adds	r4, r4, r6
1000589c:	417d      	adcs	r5, r7
1000589e:	42bd      	cmp	r5, r7
100058a0:	d802      	bhi.n	100058a8 <sleep_until+0x24>
100058a2:	d103      	bne.n	100058ac <sleep_until+0x28>
100058a4:	42b4      	cmp	r4, r6
100058a6:	d901      	bls.n	100058ac <sleep_until+0x28>
100058a8:	2400      	movs	r4, #0
100058aa:	2500      	movs	r5, #0
100058ac:	2d00      	cmp	r5, #0
100058ae:	db14      	blt.n	100058da <sleep_until+0x56>
100058b0:	9404      	str	r4, [sp, #16]
100058b2:	9505      	str	r5, [sp, #20]
100058b4:	f000 f918 	bl	10005ae8 <time_us_64>
100058b8:	0002      	movs	r2, r0
100058ba:	1e0b      	subs	r3, r1, #0
100058bc:	db13      	blt.n	100058e6 <sleep_until+0x62>
100058be:	1aa4      	subs	r4, r4, r2
100058c0:	419d      	sbcs	r5, r3
100058c2:	2d00      	cmp	r5, #0
100058c4:	dc17      	bgt.n	100058f6 <sleep_until+0x72>
100058c6:	d014      	beq.n	100058f2 <sleep_until+0x6e>
100058c8:	0030      	movs	r0, r6
100058ca:	0039      	movs	r1, r7
100058cc:	f000 f918 	bl	10005b00 <busy_wait_until>
100058d0:	b007      	add	sp, #28
100058d2:	bdf0      	pop	{r4, r5, r6, r7, pc}
100058d4:	481a      	ldr	r0, [pc, #104]	; (10005940 <sleep_until+0xbc>)
100058d6:	f000 fcc3 	bl	10006260 <panic>
100058da:	4b1a      	ldr	r3, [pc, #104]	; (10005944 <sleep_until+0xc0>)
100058dc:	4a1a      	ldr	r2, [pc, #104]	; (10005948 <sleep_until+0xc4>)
100058de:	213d      	movs	r1, #61	; 0x3d
100058e0:	481a      	ldr	r0, [pc, #104]	; (1000594c <sleep_until+0xc8>)
100058e2:	f000 fc9f 	bl	10006224 <__assert_func>
100058e6:	4b17      	ldr	r3, [pc, #92]	; (10005944 <sleep_until+0xc0>)
100058e8:	4a17      	ldr	r2, [pc, #92]	; (10005948 <sleep_until+0xc4>)
100058ea:	213d      	movs	r1, #61	; 0x3d
100058ec:	4817      	ldr	r0, [pc, #92]	; (1000594c <sleep_until+0xc8>)
100058ee:	f000 fc99 	bl	10006224 <__assert_func>
100058f2:	2c00      	cmp	r4, #0
100058f4:	d0e8      	beq.n	100058c8 <sleep_until+0x44>
100058f6:	f7ff fe81 	bl	100055fc <alarm_pool_get_default>
100058fa:	2300      	movs	r3, #0
100058fc:	9302      	str	r3, [sp, #8]
100058fe:	9301      	str	r3, [sp, #4]
10005900:	4b13      	ldr	r3, [pc, #76]	; (10005950 <sleep_until+0xcc>)
10005902:	9300      	str	r3, [sp, #0]
10005904:	9a04      	ldr	r2, [sp, #16]
10005906:	9b05      	ldr	r3, [sp, #20]
10005908:	f7ff fe8e 	bl	10005628 <alarm_pool_add_alarm_at>
1000590c:	2800      	cmp	r0, #0
1000590e:	da06      	bge.n	1000591e <sleep_until+0x9a>
10005910:	e7da      	b.n	100058c8 <sleep_until+0x44>
10005912:	2300      	movs	r3, #0
10005914:	e000      	b.n	10005918 <sleep_until+0x94>
10005916:	2300      	movs	r3, #0
10005918:	2b00      	cmp	r3, #0
1000591a:	d1d5      	bne.n	100058c8 <sleep_until+0x44>
1000591c:	bf20      	wfe
1000591e:	9904      	ldr	r1, [sp, #16]
10005920:	9a05      	ldr	r2, [sp, #20]
10005922:	4b0c      	ldr	r3, [pc, #48]	; (10005954 <sleep_until+0xd0>)
10005924:	6a5b      	ldr	r3, [r3, #36]	; 0x24
10005926:	429a      	cmp	r2, r3
10005928:	d8f5      	bhi.n	10005916 <sleep_until+0x92>
1000592a:	480a      	ldr	r0, [pc, #40]	; (10005954 <sleep_until+0xd0>)
1000592c:	6a80      	ldr	r0, [r0, #40]	; 0x28
1000592e:	4288      	cmp	r0, r1
10005930:	d203      	bcs.n	1000593a <sleep_until+0xb6>
10005932:	429a      	cmp	r2, r3
10005934:	d0ed      	beq.n	10005912 <sleep_until+0x8e>
10005936:	2301      	movs	r3, #1
10005938:	e7ee      	b.n	10005918 <sleep_until+0x94>
1000593a:	2301      	movs	r3, #1
1000593c:	e7ec      	b.n	10005918 <sleep_until+0x94>
1000593e:	46c0      	nop			; (mov r8, r8)
10005940:	1000ccf4 	.word	0x1000ccf4
10005944:	1000cbac 	.word	0x1000cbac
10005948:	1000cd5c 	.word	0x1000cd5c
1000594c:	1000cbc8 	.word	0x1000cbc8
10005950:	10004f8d 	.word	0x10004f8d
10005954:	40054000 	.word	0x40054000

10005958 <sleep_us>:
10005958:	b5f8      	push	{r3, r4, r5, r6, r7, lr}
1000595a:	0004      	movs	r4, r0
1000595c:	000d      	movs	r5, r1
1000595e:	f000 f8c3 	bl	10005ae8 <time_us_64>
10005962:	0002      	movs	r2, r0
10005964:	1e0b      	subs	r3, r1, #0
10005966:	db10      	blt.n	1000598a <sleep_us+0x32>
10005968:	0020      	movs	r0, r4
1000596a:	0029      	movs	r1, r5
1000596c:	1880      	adds	r0, r0, r2
1000596e:	4159      	adcs	r1, r3
10005970:	428b      	cmp	r3, r1
10005972:	d802      	bhi.n	1000597a <sleep_us+0x22>
10005974:	d104      	bne.n	10005980 <sleep_us+0x28>
10005976:	4282      	cmp	r2, r0
10005978:	d902      	bls.n	10005980 <sleep_us+0x28>
1000597a:	2001      	movs	r0, #1
1000597c:	4240      	negs	r0, r0
1000597e:	17c1      	asrs	r1, r0, #31
10005980:	2900      	cmp	r1, #0
10005982:	db08      	blt.n	10005996 <sleep_us+0x3e>
10005984:	f7ff ff7e 	bl	10005884 <sleep_until>
10005988:	bdf8      	pop	{r3, r4, r5, r6, r7, pc}
1000598a:	4b06      	ldr	r3, [pc, #24]	; (100059a4 <sleep_us+0x4c>)
1000598c:	4a06      	ldr	r2, [pc, #24]	; (100059a8 <sleep_us+0x50>)
1000598e:	213d      	movs	r1, #61	; 0x3d
10005990:	4806      	ldr	r0, [pc, #24]	; (100059ac <sleep_us+0x54>)
10005992:	f000 fc47 	bl	10006224 <__assert_func>
10005996:	4b03      	ldr	r3, [pc, #12]	; (100059a4 <sleep_us+0x4c>)
10005998:	4a03      	ldr	r2, [pc, #12]	; (100059a8 <sleep_us+0x50>)
1000599a:	213d      	movs	r1, #61	; 0x3d
1000599c:	4803      	ldr	r0, [pc, #12]	; (100059ac <sleep_us+0x54>)
1000599e:	f000 fc41 	bl	10006224 <__assert_func>
100059a2:	46c0      	nop			; (mov r8, r8)
100059a4:	1000cbac 	.word	0x1000cbac
100059a8:	1000cd5c 	.word	0x1000cd5c
100059ac:	1000cbc8 	.word	0x1000cbc8

100059b0 <sleep_ms>:
100059b0:	b510      	push	{r4, lr}
100059b2:	22fa      	movs	r2, #250	; 0xfa
100059b4:	0092      	lsls	r2, r2, #2
100059b6:	2300      	movs	r3, #0
100059b8:	2100      	movs	r1, #0
100059ba:	f002 ffcb 	bl	10008954 <__wrap___aeabi_lmul>
100059be:	f7ff ffcb 	bl	10005958 <sleep_us>
100059c2:	bd10      	pop	{r4, pc}

100059c4 <best_effort_wfe_or_timeout>:
100059c4:	b570      	push	{r4, r5, r6, lr}
100059c6:	b084      	sub	sp, #16
100059c8:	0006      	movs	r6, r0
100059ca:	000c      	movs	r4, r1
100059cc:	f7ff fe16 	bl	100055fc <alarm_pool_get_default>
100059d0:	2300      	movs	r3, #0
100059d2:	9302      	str	r3, [sp, #8]
100059d4:	9301      	str	r3, [sp, #4]
100059d6:	4b19      	ldr	r3, [pc, #100]	; (10005a3c <best_effort_wfe_or_timeout+0x78>)
100059d8:	9300      	str	r3, [sp, #0]
100059da:	0032      	movs	r2, r6
100059dc:	0023      	movs	r3, r4
100059de:	f7ff fe23 	bl	10005628 <alarm_pool_add_alarm_at>
100059e2:	1e05      	subs	r5, r0, #0
100059e4:	dd11      	ble.n	10005a0a <best_effort_wfe_or_timeout+0x46>
100059e6:	bf20      	wfe
100059e8:	f7ff fe08 	bl	100055fc <alarm_pool_get_default>
100059ec:	0029      	movs	r1, r5
100059ee:	f7ff fed3 	bl	10005798 <alarm_pool_cancel_alarm>
100059f2:	4b13      	ldr	r3, [pc, #76]	; (10005a40 <best_effort_wfe_or_timeout+0x7c>)
100059f4:	6a5b      	ldr	r3, [r3, #36]	; 0x24
100059f6:	429c      	cmp	r4, r3
100059f8:	d81b      	bhi.n	10005a32 <best_effort_wfe_or_timeout+0x6e>
100059fa:	4a11      	ldr	r2, [pc, #68]	; (10005a40 <best_effort_wfe_or_timeout+0x7c>)
100059fc:	6a92      	ldr	r2, [r2, #40]	; 0x28
100059fe:	42b2      	cmp	r2, r6
10005a00:	d21a      	bcs.n	10005a38 <best_effort_wfe_or_timeout+0x74>
10005a02:	429c      	cmp	r4, r3
10005a04:	d013      	beq.n	10005a2e <best_effort_wfe_or_timeout+0x6a>
10005a06:	2001      	movs	r0, #1
10005a08:	e014      	b.n	10005a34 <best_effort_wfe_or_timeout+0x70>
10005a0a:	4b0d      	ldr	r3, [pc, #52]	; (10005a40 <best_effort_wfe_or_timeout+0x7c>)
10005a0c:	6a5b      	ldr	r3, [r3, #36]	; 0x24
10005a0e:	429c      	cmp	r4, r3
10005a10:	d809      	bhi.n	10005a26 <best_effort_wfe_or_timeout+0x62>
10005a12:	4a0b      	ldr	r2, [pc, #44]	; (10005a40 <best_effort_wfe_or_timeout+0x7c>)
10005a14:	6a92      	ldr	r2, [r2, #40]	; 0x28
10005a16:	42b2      	cmp	r2, r6
10005a18:	d207      	bcs.n	10005a2a <best_effort_wfe_or_timeout+0x66>
10005a1a:	429c      	cmp	r4, r3
10005a1c:	d001      	beq.n	10005a22 <best_effort_wfe_or_timeout+0x5e>
10005a1e:	2001      	movs	r0, #1
10005a20:	e008      	b.n	10005a34 <best_effort_wfe_or_timeout+0x70>
10005a22:	2000      	movs	r0, #0
10005a24:	e006      	b.n	10005a34 <best_effort_wfe_or_timeout+0x70>
10005a26:	2000      	movs	r0, #0
10005a28:	e004      	b.n	10005a34 <best_effort_wfe_or_timeout+0x70>
10005a2a:	2001      	movs	r0, #1
10005a2c:	e002      	b.n	10005a34 <best_effort_wfe_or_timeout+0x70>
10005a2e:	2000      	movs	r0, #0
10005a30:	e000      	b.n	10005a34 <best_effort_wfe_or_timeout+0x70>
10005a32:	2000      	movs	r0, #0
10005a34:	b004      	add	sp, #16
10005a36:	bd70      	pop	{r4, r5, r6, pc}
10005a38:	2001      	movs	r0, #1
10005a3a:	e7fb      	b.n	10005a34 <best_effort_wfe_or_timeout+0x70>
10005a3c:	10004f8d 	.word	0x10004f8d
10005a40:	40054000 	.word	0x40054000

10005a44 <hardware_alarm_irq_handler>:
10005a44:	b570      	push	{r4, r5, r6, lr}
10005a46:	f3ef 8305 	mrs	r3, IPSR
10005a4a:	203f      	movs	r0, #63	; 0x3f
10005a4c:	4018      	ands	r0, r3
10005a4e:	3810      	subs	r0, #16
10005a50:	f3ef 8c10 	mrs	ip, PRIMASK
10005a54:	b672      	cpsid	i
10005a56:	4b19      	ldr	r3, [pc, #100]	; (10005abc <hardware_alarm_irq_handler+0x78>)
10005a58:	681b      	ldr	r3, [r3, #0]
10005a5a:	2b00      	cmp	r3, #0
10005a5c:	d0fb      	beq.n	10005a56 <hardware_alarm_irq_handler+0x12>
10005a5e:	f3bf 8f5f 	dmb	sy
10005a62:	2301      	movs	r3, #1
10005a64:	0019      	movs	r1, r3
10005a66:	4081      	lsls	r1, r0
10005a68:	4a15      	ldr	r2, [pc, #84]	; (10005ac0 <hardware_alarm_irq_handler+0x7c>)
10005a6a:	6351      	str	r1, [r2, #52]	; 0x34
10005a6c:	4a15      	ldr	r2, [pc, #84]	; (10005ac4 <hardware_alarm_irq_handler+0x80>)
10005a6e:	7812      	ldrb	r2, [r2, #0]
10005a70:	0014      	movs	r4, r2
10005a72:	40c4      	lsrs	r4, r0
10005a74:	4223      	tst	r3, r4
10005a76:	d014      	beq.n	10005aa2 <hardware_alarm_irq_handler+0x5e>
10005a78:	4b11      	ldr	r3, [pc, #68]	; (10005ac0 <hardware_alarm_irq_handler+0x7c>)
10005a7a:	6a5c      	ldr	r4, [r3, #36]	; 0x24
10005a7c:	0083      	lsls	r3, r0, #2
10005a7e:	4d12      	ldr	r5, [pc, #72]	; (10005ac8 <hardware_alarm_irq_handler+0x84>)
10005a80:	595b      	ldr	r3, [r3, r5]
10005a82:	429c      	cmp	r4, r3
10005a84:	d306      	bcc.n	10005a94 <hardware_alarm_irq_handler+0x50>
10005a86:	0083      	lsls	r3, r0, #2
10005a88:	4c10      	ldr	r4, [pc, #64]	; (10005acc <hardware_alarm_irq_handler+0x88>)
10005a8a:	591b      	ldr	r3, [r3, r4]
10005a8c:	438a      	bics	r2, r1
10005a8e:	490d      	ldr	r1, [pc, #52]	; (10005ac4 <hardware_alarm_irq_handler+0x80>)
10005a90:	700a      	strb	r2, [r1, #0]
10005a92:	e007      	b.n	10005aa4 <hardware_alarm_irq_handler+0x60>
10005a94:	4a0a      	ldr	r2, [pc, #40]	; (10005ac0 <hardware_alarm_irq_handler+0x7c>)
10005a96:	1d03      	adds	r3, r0, #4
10005a98:	009b      	lsls	r3, r3, #2
10005a9a:	5899      	ldr	r1, [r3, r2]
10005a9c:	5099      	str	r1, [r3, r2]
10005a9e:	2300      	movs	r3, #0
10005aa0:	e000      	b.n	10005aa4 <hardware_alarm_irq_handler+0x60>
10005aa2:	2300      	movs	r3, #0
10005aa4:	f3bf 8f5f 	dmb	sy
10005aa8:	4a04      	ldr	r2, [pc, #16]	; (10005abc <hardware_alarm_irq_handler+0x78>)
10005aaa:	2100      	movs	r1, #0
10005aac:	6011      	str	r1, [r2, #0]
10005aae:	f38c 8810 	msr	PRIMASK, ip
10005ab2:	2b00      	cmp	r3, #0
10005ab4:	d000      	beq.n	10005ab8 <hardware_alarm_irq_handler+0x74>
10005ab6:	4798      	blx	r3
10005ab8:	bd70      	pop	{r4, r5, r6, pc}
10005aba:	46c0      	nop			; (mov r8, r8)
10005abc:	d0000128 	.word	0xd0000128
10005ac0:	40054000 	.word	0x40054000
10005ac4:	20002623 	.word	0x20002623
10005ac8:	200025c8 	.word	0x200025c8
10005acc:	200014f8 	.word	0x200014f8

10005ad0 <hardware_alarm_claim>:
10005ad0:	b510      	push	{r4, lr}
10005ad2:	0001      	movs	r1, r0
10005ad4:	4a02      	ldr	r2, [pc, #8]	; (10005ae0 <hardware_alarm_claim+0x10>)
10005ad6:	4803      	ldr	r0, [pc, #12]	; (10005ae4 <hardware_alarm_claim+0x14>)
10005ad8:	f7ff f952 	bl	10004d80 <hw_claim_or_assert>
10005adc:	bd10      	pop	{r4, pc}
10005ade:	46c0      	nop			; (mov r8, r8)
10005ae0:	1000ce20 	.word	0x1000ce20
10005ae4:	2000260c 	.word	0x2000260c

10005ae8 <time_us_64>:
10005ae8:	4b04      	ldr	r3, [pc, #16]	; (10005afc <time_us_64+0x14>)
10005aea:	6a5b      	ldr	r3, [r3, #36]	; 0x24
10005aec:	4a03      	ldr	r2, [pc, #12]	; (10005afc <time_us_64+0x14>)
10005aee:	6a90      	ldr	r0, [r2, #40]	; 0x28
10005af0:	0019      	movs	r1, r3
10005af2:	6a53      	ldr	r3, [r2, #36]	; 0x24
10005af4:	4299      	cmp	r1, r3
10005af6:	d1f9      	bne.n	10005aec <time_us_64+0x4>
10005af8:	4770      	bx	lr
10005afa:	46c0      	nop			; (mov r8, r8)
10005afc:	40054000 	.word	0x40054000

10005b00 <busy_wait_until>:
10005b00:	4b08      	ldr	r3, [pc, #32]	; (10005b24 <busy_wait_until+0x24>)
10005b02:	6a5b      	ldr	r3, [r3, #36]	; 0x24
10005b04:	e001      	b.n	10005b0a <busy_wait_until+0xa>
10005b06:	4b07      	ldr	r3, [pc, #28]	; (10005b24 <busy_wait_until+0x24>)
10005b08:	6a5b      	ldr	r3, [r3, #36]	; 0x24
10005b0a:	428b      	cmp	r3, r1
10005b0c:	d3fb      	bcc.n	10005b06 <busy_wait_until+0x6>
10005b0e:	e001      	b.n	10005b14 <busy_wait_until+0x14>
10005b10:	4b04      	ldr	r3, [pc, #16]	; (10005b24 <busy_wait_until+0x24>)
10005b12:	6a5b      	ldr	r3, [r3, #36]	; 0x24
10005b14:	428b      	cmp	r3, r1
10005b16:	d103      	bne.n	10005b20 <busy_wait_until+0x20>
10005b18:	4b02      	ldr	r3, [pc, #8]	; (10005b24 <busy_wait_until+0x24>)
10005b1a:	6a9b      	ldr	r3, [r3, #40]	; 0x28
10005b1c:	4283      	cmp	r3, r0
10005b1e:	d3f7      	bcc.n	10005b10 <busy_wait_until+0x10>
10005b20:	4770      	bx	lr
10005b22:	46c0      	nop			; (mov r8, r8)
10005b24:	40054000 	.word	0x40054000

10005b28 <hardware_alarm_set_callback>:
10005b28:	b570      	push	{r4, r5, r6, lr}
10005b2a:	0004      	movs	r4, r0
10005b2c:	000d      	movs	r5, r1
10005b2e:	f3ef 8610 	mrs	r6, PRIMASK
10005b32:	b672      	cpsid	i
10005b34:	4b1b      	ldr	r3, [pc, #108]	; (10005ba4 <hardware_alarm_set_callback+0x7c>)
10005b36:	681b      	ldr	r3, [r3, #0]
10005b38:	2b00      	cmp	r3, #0
10005b3a:	d0fb      	beq.n	10005b34 <hardware_alarm_set_callback+0xc>
10005b3c:	f3bf 8f5f 	dmb	sy
10005b40:	2d00      	cmp	r5, #0
10005b42:	d01c      	beq.n	10005b7e <hardware_alarm_set_callback+0x56>
10005b44:	0020      	movs	r0, r4
10005b46:	f000 fe03 	bl	10006750 <irq_get_vtable_handler>
10005b4a:	4b17      	ldr	r3, [pc, #92]	; (10005ba8 <hardware_alarm_set_callback+0x80>)
10005b4c:	4283      	cmp	r3, r0
10005b4e:	d00b      	beq.n	10005b68 <hardware_alarm_set_callback+0x40>
10005b50:	0019      	movs	r1, r3
10005b52:	0020      	movs	r0, r4
10005b54:	f000 fe04 	bl	10006760 <irq_set_exclusive_handler>
10005b58:	2101      	movs	r1, #1
10005b5a:	0020      	movs	r0, r4
10005b5c:	f000 fdf0 	bl	10006740 <irq_set_enabled>
10005b60:	2301      	movs	r3, #1
10005b62:	40a3      	lsls	r3, r4
10005b64:	4a11      	ldr	r2, [pc, #68]	; (10005bac <hardware_alarm_set_callback+0x84>)
10005b66:	6013      	str	r3, [r2, #0]
10005b68:	00a4      	lsls	r4, r4, #2
10005b6a:	4b11      	ldr	r3, [pc, #68]	; (10005bb0 <hardware_alarm_set_callback+0x88>)
10005b6c:	50e5      	str	r5, [r4, r3]
10005b6e:	f3bf 8f5f 	dmb	sy
10005b72:	4b0c      	ldr	r3, [pc, #48]	; (10005ba4 <hardware_alarm_set_callback+0x7c>)
10005b74:	2200      	movs	r2, #0
10005b76:	601a      	str	r2, [r3, #0]
10005b78:	f386 8810 	msr	PRIMASK, r6
10005b7c:	bd70      	pop	{r4, r5, r6, pc}
10005b7e:	00a2      	lsls	r2, r4, #2
10005b80:	4b0b      	ldr	r3, [pc, #44]	; (10005bb0 <hardware_alarm_set_callback+0x88>)
10005b82:	2100      	movs	r1, #0
10005b84:	50d1      	str	r1, [r2, r3]
10005b86:	2201      	movs	r2, #1
10005b88:	40a2      	lsls	r2, r4
10005b8a:	490a      	ldr	r1, [pc, #40]	; (10005bb4 <hardware_alarm_set_callback+0x8c>)
10005b8c:	780b      	ldrb	r3, [r1, #0]
10005b8e:	4393      	bics	r3, r2
10005b90:	700b      	strb	r3, [r1, #0]
10005b92:	4905      	ldr	r1, [pc, #20]	; (10005ba8 <hardware_alarm_set_callback+0x80>)
10005b94:	0020      	movs	r0, r4
10005b96:	f000 fe0d 	bl	100067b4 <irq_remove_handler>
10005b9a:	2100      	movs	r1, #0
10005b9c:	0020      	movs	r0, r4
10005b9e:	f000 fdcf 	bl	10006740 <irq_set_enabled>
10005ba2:	e7e4      	b.n	10005b6e <hardware_alarm_set_callback+0x46>
10005ba4:	d0000128 	.word	0xd0000128
10005ba8:	10005a45 	.word	0x10005a45
10005bac:	40056038 	.word	0x40056038
10005bb0:	200014f8 	.word	0x200014f8
10005bb4:	20002623 	.word	0x20002623

10005bb8 <hardware_alarm_set_target>:
10005bb8:	b5f0      	push	{r4, r5, r6, r7, lr}
10005bba:	46de      	mov	lr, fp
10005bbc:	b500      	push	{lr}
10005bbe:	b084      	sub	sp, #16
10005bc0:	0004      	movs	r4, r0
10005bc2:	0015      	movs	r5, r2
10005bc4:	9201      	str	r2, [sp, #4]
10005bc6:	001e      	movs	r6, r3
10005bc8:	9302      	str	r3, [sp, #8]
10005bca:	f7ff ff8d 	bl	10005ae8 <time_us_64>
10005bce:	9503      	str	r5, [sp, #12]
10005bd0:	428e      	cmp	r6, r1
10005bd2:	d802      	bhi.n	10005bda <hardware_alarm_set_target+0x22>
10005bd4:	d14e      	bne.n	10005c74 <hardware_alarm_set_target+0xbc>
10005bd6:	4285      	cmp	r5, r0
10005bd8:	d94c      	bls.n	10005c74 <hardware_alarm_set_target+0xbc>
10005bda:	f3ef 8b10 	mrs	fp, PRIMASK
10005bde:	b672      	cpsid	i
10005be0:	4b27      	ldr	r3, [pc, #156]	; (10005c80 <hardware_alarm_set_target+0xc8>)
10005be2:	681b      	ldr	r3, [r3, #0]
10005be4:	2b00      	cmp	r3, #0
10005be6:	d0fb      	beq.n	10005be0 <hardware_alarm_set_target+0x28>
10005be8:	f3bf 8f5f 	dmb	sy
10005bec:	4a25      	ldr	r2, [pc, #148]	; (10005c84 <hardware_alarm_set_target+0xcc>)
10005bee:	7817      	ldrb	r7, [r2, #0]
10005bf0:	2501      	movs	r5, #1
10005bf2:	40a5      	lsls	r5, r4
10005bf4:	b2eb      	uxtb	r3, r5
10005bf6:	433b      	orrs	r3, r7
10005bf8:	7013      	strb	r3, [r2, #0]
10005bfa:	4b23      	ldr	r3, [pc, #140]	; (10005c88 <hardware_alarm_set_target+0xd0>)
10005bfc:	635d      	str	r5, [r3, #52]	; 0x34
10005bfe:	1d22      	adds	r2, r4, #4
10005c00:	0092      	lsls	r2, r2, #2
10005c02:	9901      	ldr	r1, [sp, #4]
10005c04:	50d1      	str	r1, [r2, r3]
10005c06:	00a2      	lsls	r2, r4, #2
10005c08:	4920      	ldr	r1, [pc, #128]	; (10005c8c <hardware_alarm_set_target+0xd4>)
10005c0a:	9802      	ldr	r0, [sp, #8]
10005c0c:	5050      	str	r0, [r2, r1]
10005c0e:	6a1b      	ldr	r3, [r3, #32]
10005c10:	422b      	tst	r3, r5
10005c12:	d112      	bne.n	10005c3a <hardware_alarm_set_target+0x82>
10005c14:	4b1c      	ldr	r3, [pc, #112]	; (10005c88 <hardware_alarm_set_target+0xd0>)
10005c16:	6c1b      	ldr	r3, [r3, #64]	; 0x40
10005c18:	422b      	tst	r3, r5
10005c1a:	d008      	beq.n	10005c2e <hardware_alarm_set_target+0x76>
10005c1c:	2000      	movs	r0, #0
10005c1e:	f3bf 8f5f 	dmb	sy
10005c22:	4b17      	ldr	r3, [pc, #92]	; (10005c80 <hardware_alarm_set_target+0xc8>)
10005c24:	2200      	movs	r2, #0
10005c26:	601a      	str	r2, [r3, #0]
10005c28:	f38b 8810 	msr	PRIMASK, fp
10005c2c:	e023      	b.n	10005c76 <hardware_alarm_set_target+0xbe>
10005c2e:	4b18      	ldr	r3, [pc, #96]	; (10005c90 <hardware_alarm_set_target+0xd8>)
10005c30:	4a18      	ldr	r2, [pc, #96]	; (10005c94 <hardware_alarm_set_target+0xdc>)
10005c32:	21b3      	movs	r1, #179	; 0xb3
10005c34:	4818      	ldr	r0, [pc, #96]	; (10005c98 <hardware_alarm_set_target+0xe0>)
10005c36:	f000 faf5 	bl	10006224 <__assert_func>
10005c3a:	f7ff ff55 	bl	10005ae8 <time_us_64>
10005c3e:	428e      	cmp	r6, r1
10005c40:	d814      	bhi.n	10005c6c <hardware_alarm_set_target+0xb4>
10005c42:	d102      	bne.n	10005c4a <hardware_alarm_set_target+0x92>
10005c44:	9b03      	ldr	r3, [sp, #12]
10005c46:	4283      	cmp	r3, r0
10005c48:	d810      	bhi.n	10005c6c <hardware_alarm_set_target+0xb4>
10005c4a:	4b0e      	ldr	r3, [pc, #56]	; (10005c84 <hardware_alarm_set_target+0xcc>)
10005c4c:	781b      	ldrb	r3, [r3, #0]
10005c4e:	42bb      	cmp	r3, r7
10005c50:	d00e      	beq.n	10005c70 <hardware_alarm_set_target+0xb8>
10005c52:	4b0d      	ldr	r3, [pc, #52]	; (10005c88 <hardware_alarm_set_target+0xd0>)
10005c54:	621d      	str	r5, [r3, #32]
10005c56:	635d      	str	r5, [r3, #52]	; 0x34
10005c58:	201f      	movs	r0, #31
10005c5a:	4004      	ands	r4, r0
10005c5c:	2301      	movs	r3, #1
10005c5e:	40a3      	lsls	r3, r4
10005c60:	4a0e      	ldr	r2, [pc, #56]	; (10005c9c <hardware_alarm_set_target+0xe4>)
10005c62:	6013      	str	r3, [r2, #0]
10005c64:	4b07      	ldr	r3, [pc, #28]	; (10005c84 <hardware_alarm_set_target+0xcc>)
10005c66:	701f      	strb	r7, [r3, #0]
10005c68:	381e      	subs	r0, #30
10005c6a:	e7d8      	b.n	10005c1e <hardware_alarm_set_target+0x66>
10005c6c:	2000      	movs	r0, #0
10005c6e:	e7d6      	b.n	10005c1e <hardware_alarm_set_target+0x66>
10005c70:	2001      	movs	r0, #1
10005c72:	e7d4      	b.n	10005c1e <hardware_alarm_set_target+0x66>
10005c74:	2001      	movs	r0, #1
10005c76:	b004      	add	sp, #16
10005c78:	bc80      	pop	{r7}
10005c7a:	46bb      	mov	fp, r7
10005c7c:	bdf0      	pop	{r4, r5, r6, r7, pc}
10005c7e:	46c0      	nop			; (mov r8, r8)
10005c80:	d0000128 	.word	0xd0000128
10005c84:	20002623 	.word	0x20002623
10005c88:	40054000 	.word	0x40054000
10005c8c:	200025c8 	.word	0x200025c8
10005c90:	1000ce44 	.word	0x1000ce44
10005c94:	1000cec0 	.word	0x1000cec0
10005c98:	1000ce68 	.word	0x1000ce68
10005c9c:	e000e280 	.word	0xe000e280

10005ca0 <hardware_alarm_cancel>:
10005ca0:	f3ef 8c10 	mrs	ip, PRIMASK
10005ca4:	b672      	cpsid	i
10005ca6:	4b0b      	ldr	r3, [pc, #44]	; (10005cd4 <hardware_alarm_cancel+0x34>)
10005ca8:	681b      	ldr	r3, [r3, #0]
10005caa:	2b00      	cmp	r3, #0
10005cac:	d0fb      	beq.n	10005ca6 <hardware_alarm_cancel+0x6>
10005cae:	f3bf 8f5f 	dmb	sy
10005cb2:	2301      	movs	r3, #1
10005cb4:	4083      	lsls	r3, r0
10005cb6:	4a08      	ldr	r2, [pc, #32]	; (10005cd8 <hardware_alarm_cancel+0x38>)
10005cb8:	6213      	str	r3, [r2, #32]
10005cba:	4908      	ldr	r1, [pc, #32]	; (10005cdc <hardware_alarm_cancel+0x3c>)
10005cbc:	780a      	ldrb	r2, [r1, #0]
10005cbe:	439a      	bics	r2, r3
10005cc0:	700a      	strb	r2, [r1, #0]
10005cc2:	f3bf 8f5f 	dmb	sy
10005cc6:	4b03      	ldr	r3, [pc, #12]	; (10005cd4 <hardware_alarm_cancel+0x34>)
10005cc8:	2200      	movs	r2, #0
10005cca:	601a      	str	r2, [r3, #0]
10005ccc:	f38c 8810 	msr	PRIMASK, ip
10005cd0:	4770      	bx	lr
10005cd2:	46c0      	nop			; (mov r8, r8)
10005cd4:	d0000128 	.word	0xd0000128
10005cd8:	40054000 	.word	0x40054000
10005cdc:	20002623 	.word	0x20002623

10005ce0 <lock_init>:
10005ce0:	4b02      	ldr	r3, [pc, #8]	; (10005cec <lock_init+0xc>)
10005ce2:	469c      	mov	ip, r3
10005ce4:	4461      	add	r1, ip
10005ce6:	0089      	lsls	r1, r1, #2
10005ce8:	6001      	str	r1, [r0, #0]
10005cea:	4770      	bx	lr
10005cec:	34000040 	.word	0x34000040

10005cf0 <mutex_init>:
10005cf0:	b510      	push	{r4, lr}
10005cf2:	0004      	movs	r4, r0
10005cf4:	f7ff f89c 	bl	10004e30 <next_striped_spin_lock_num>
10005cf8:	0001      	movs	r1, r0
10005cfa:	0020      	movs	r0, r4
10005cfc:	f7ff fff0 	bl	10005ce0 <lock_init>
10005d00:	23ff      	movs	r3, #255	; 0xff
10005d02:	7123      	strb	r3, [r4, #4]
10005d04:	f3bf 8f5f 	dmb	sy
10005d08:	bd10      	pop	{r4, pc}

10005d0a <critical_section_init_with_lock_num>:
10005d0a:	b510      	push	{r4, lr}
10005d0c:	f7ff ffe8 	bl	10005ce0 <lock_init>
10005d10:	f3bf 8f5f 	dmb	sy
10005d14:	bd10      	pop	{r4, pc}

10005d16 <critical_section_init>:
10005d16:	b510      	push	{r4, lr}
10005d18:	0004      	movs	r4, r0
10005d1a:	2001      	movs	r0, #1
10005d1c:	f7ff f896 	bl	10004e4c <spin_lock_claim_unused>
10005d20:	0001      	movs	r1, r0
10005d22:	0020      	movs	r0, r4
10005d24:	f7ff fff1 	bl	10005d0a <critical_section_init_with_lock_num>
10005d28:	bd10      	pop	{r4, pc}
	...

10005d2c <ph_add_child_node>:
10005d2c:	b510      	push	{r4, lr}
10005d2e:	2900      	cmp	r1, #0
10005d30:	d01e      	beq.n	10005d70 <ph_add_child_node+0x44>
10005d32:	7b03      	ldrb	r3, [r0, #12]
10005d34:	4299      	cmp	r1, r3
10005d36:	d81b      	bhi.n	10005d70 <ph_add_child_node+0x44>
10005d38:	004b      	lsls	r3, r1, #1
10005d3a:	185b      	adds	r3, r3, r1
10005d3c:	3b03      	subs	r3, #3
10005d3e:	6804      	ldr	r4, [r0, #0]
10005d40:	46a4      	mov	ip, r4
10005d42:	4463      	add	r3, ip
10005d44:	2900      	cmp	r1, #0
10005d46:	d019      	beq.n	10005d7c <ph_add_child_node+0x50>
10005d48:	2a00      	cmp	r2, #0
10005d4a:	d01d      	beq.n	10005d88 <ph_add_child_node+0x5c>
10005d4c:	4291      	cmp	r1, r2
10005d4e:	d021      	beq.n	10005d94 <ph_add_child_node+0x68>
10005d50:	2a00      	cmp	r2, #0
10005d52:	d025      	beq.n	10005da0 <ph_add_child_node+0x74>
10005d54:	7b04      	ldrb	r4, [r0, #12]
10005d56:	42a2      	cmp	r2, r4
10005d58:	d822      	bhi.n	10005da0 <ph_add_child_node+0x74>
10005d5a:	6804      	ldr	r4, [r0, #0]
10005d5c:	0050      	lsls	r0, r2, #1
10005d5e:	1880      	adds	r0, r0, r2
10005d60:	3803      	subs	r0, #3
10005d62:	1820      	adds	r0, r4, r0
10005d64:	7081      	strb	r1, [r0, #2]
10005d66:	7819      	ldrb	r1, [r3, #0]
10005d68:	2900      	cmp	r1, #0
10005d6a:	d11f      	bne.n	10005dac <ph_add_child_node+0x80>
10005d6c:	701a      	strb	r2, [r3, #0]
10005d6e:	bd10      	pop	{r4, pc}
10005d70:	4b10      	ldr	r3, [pc, #64]	; (10005db4 <ph_add_child_node+0x88>)
10005d72:	4a11      	ldr	r2, [pc, #68]	; (10005db8 <ph_add_child_node+0x8c>)
10005d74:	2169      	movs	r1, #105	; 0x69
10005d76:	4811      	ldr	r0, [pc, #68]	; (10005dbc <ph_add_child_node+0x90>)
10005d78:	f000 fa54 	bl	10006224 <__assert_func>
10005d7c:	4b10      	ldr	r3, [pc, #64]	; (10005dc0 <ph_add_child_node+0x94>)
10005d7e:	4a11      	ldr	r2, [pc, #68]	; (10005dc4 <ph_add_child_node+0x98>)
10005d80:	3170      	adds	r1, #112	; 0x70
10005d82:	480e      	ldr	r0, [pc, #56]	; (10005dbc <ph_add_child_node+0x90>)
10005d84:	f000 fa4e 	bl	10006224 <__assert_func>
10005d88:	4b0f      	ldr	r3, [pc, #60]	; (10005dc8 <ph_add_child_node+0x9c>)
10005d8a:	4a0e      	ldr	r2, [pc, #56]	; (10005dc4 <ph_add_child_node+0x98>)
10005d8c:	2171      	movs	r1, #113	; 0x71
10005d8e:	480b      	ldr	r0, [pc, #44]	; (10005dbc <ph_add_child_node+0x90>)
10005d90:	f000 fa48 	bl	10006224 <__assert_func>
10005d94:	4b0d      	ldr	r3, [pc, #52]	; (10005dcc <ph_add_child_node+0xa0>)
10005d96:	4a0b      	ldr	r2, [pc, #44]	; (10005dc4 <ph_add_child_node+0x98>)
10005d98:	2172      	movs	r1, #114	; 0x72
10005d9a:	4808      	ldr	r0, [pc, #32]	; (10005dbc <ph_add_child_node+0x90>)
10005d9c:	f000 fa42 	bl	10006224 <__assert_func>
10005da0:	4b04      	ldr	r3, [pc, #16]	; (10005db4 <ph_add_child_node+0x88>)
10005da2:	4a05      	ldr	r2, [pc, #20]	; (10005db8 <ph_add_child_node+0x8c>)
10005da4:	2169      	movs	r1, #105	; 0x69
10005da6:	4805      	ldr	r0, [pc, #20]	; (10005dbc <ph_add_child_node+0x90>)
10005da8:	f000 fa3c 	bl	10006224 <__assert_func>
10005dac:	7041      	strb	r1, [r0, #1]
10005dae:	701a      	strb	r2, [r3, #0]
10005db0:	e7dd      	b.n	10005d6e <ph_add_child_node+0x42>
10005db2:	46c0      	nop			; (mov r8, r8)
10005db4:	1000cad8 	.word	0x1000cad8
10005db8:	1000d0a8 	.word	0x1000d0a8
10005dbc:	1000caf4 	.word	0x1000caf4
10005dc0:	1000cb54 	.word	0x1000cb54
10005dc4:	1000d094 	.word	0x1000d094
10005dc8:	1000cb60 	.word	0x1000cb60
10005dcc:	1000cb6c 	.word	0x1000cb6c

10005dd0 <ph_merge_nodes>:
10005dd0:	b570      	push	{r4, r5, r6, lr}
10005dd2:	0006      	movs	r6, r0
10005dd4:	000d      	movs	r5, r1
10005dd6:	0014      	movs	r4, r2
10005dd8:	2900      	cmp	r1, #0
10005dda:	d014      	beq.n	10005e06 <ph_merge_nodes+0x36>
10005ddc:	2a00      	cmp	r2, #0
10005dde:	d014      	beq.n	10005e0a <ph_merge_nodes+0x3a>
10005de0:	6880      	ldr	r0, [r0, #8]
10005de2:	6873      	ldr	r3, [r6, #4]
10005de4:	4798      	blx	r3
10005de6:	2800      	cmp	r0, #0
10005de8:	d006      	beq.n	10005df8 <ph_merge_nodes+0x28>
10005dea:	0022      	movs	r2, r4
10005dec:	0029      	movs	r1, r5
10005dee:	0030      	movs	r0, r6
10005df0:	f7ff ff9c 	bl	10005d2c <ph_add_child_node>
10005df4:	0028      	movs	r0, r5
10005df6:	e007      	b.n	10005e08 <ph_merge_nodes+0x38>
10005df8:	002a      	movs	r2, r5
10005dfa:	0021      	movs	r1, r4
10005dfc:	0030      	movs	r0, r6
10005dfe:	f7ff ff95 	bl	10005d2c <ph_add_child_node>
10005e02:	0020      	movs	r0, r4
10005e04:	e000      	b.n	10005e08 <ph_merge_nodes+0x38>
10005e06:	0010      	movs	r0, r2
10005e08:	bd70      	pop	{r4, r5, r6, pc}
10005e0a:	0008      	movs	r0, r1
10005e0c:	e7fc      	b.n	10005e08 <ph_merge_nodes+0x38>
	...

10005e10 <ph_clear>:
10005e10:	b510      	push	{r4, lr}
10005e12:	2300      	movs	r3, #0
10005e14:	7343      	strb	r3, [r0, #13]
10005e16:	3301      	adds	r3, #1
10005e18:	7383      	strb	r3, [r0, #14]
10005e1a:	7b03      	ldrb	r3, [r0, #12]
10005e1c:	73c3      	strb	r3, [r0, #15]
10005e1e:	2301      	movs	r3, #1
10005e20:	7b02      	ldrb	r2, [r0, #12]
10005e22:	429a      	cmp	r2, r3
10005e24:	d914      	bls.n	10005e50 <ph_clear+0x40>
10005e26:	2b00      	cmp	r3, #0
10005e28:	d00c      	beq.n	10005e44 <ph_clear+0x34>
10005e2a:	7b02      	ldrb	r2, [r0, #12]
10005e2c:	4293      	cmp	r3, r2
10005e2e:	d809      	bhi.n	10005e44 <ph_clear+0x34>
10005e30:	005a      	lsls	r2, r3, #1
10005e32:	18d2      	adds	r2, r2, r3
10005e34:	3a03      	subs	r2, #3
10005e36:	6801      	ldr	r1, [r0, #0]
10005e38:	468c      	mov	ip, r1
10005e3a:	4462      	add	r2, ip
10005e3c:	3301      	adds	r3, #1
10005e3e:	b2db      	uxtb	r3, r3
10005e40:	7053      	strb	r3, [r2, #1]
10005e42:	e7ed      	b.n	10005e20 <ph_clear+0x10>
10005e44:	4b0b      	ldr	r3, [pc, #44]	; (10005e74 <ph_clear+0x64>)
10005e46:	4a0c      	ldr	r2, [pc, #48]	; (10005e78 <ph_clear+0x68>)
10005e48:	2169      	movs	r1, #105	; 0x69
10005e4a:	480c      	ldr	r0, [pc, #48]	; (10005e7c <ph_clear+0x6c>)
10005e4c:	f000 f9ea 	bl	10006224 <__assert_func>
10005e50:	2a00      	cmp	r2, #0
10005e52:	d009      	beq.n	10005e68 <ph_clear+0x58>
10005e54:	4292      	cmp	r2, r2
10005e56:	d807      	bhi.n	10005e68 <ph_clear+0x58>
10005e58:	6801      	ldr	r1, [r0, #0]
10005e5a:	0053      	lsls	r3, r2, #1
10005e5c:	189a      	adds	r2, r3, r2
10005e5e:	3a03      	subs	r2, #3
10005e60:	188a      	adds	r2, r1, r2
10005e62:	2300      	movs	r3, #0
10005e64:	7053      	strb	r3, [r2, #1]
10005e66:	bd10      	pop	{r4, pc}
10005e68:	4b02      	ldr	r3, [pc, #8]	; (10005e74 <ph_clear+0x64>)
10005e6a:	4a03      	ldr	r2, [pc, #12]	; (10005e78 <ph_clear+0x68>)
10005e6c:	2169      	movs	r1, #105	; 0x69
10005e6e:	4803      	ldr	r0, [pc, #12]	; (10005e7c <ph_clear+0x6c>)
10005e70:	f000 f9d8 	bl	10006224 <__assert_func>
10005e74:	1000cad8 	.word	0x1000cad8
10005e78:	1000d0a8 	.word	0x1000d0a8
10005e7c:	1000caf4 	.word	0x1000caf4

10005e80 <ph_post_alloc_init>:
10005e80:	b510      	push	{r4, lr}
10005e82:	7301      	strb	r1, [r0, #12]
10005e84:	6042      	str	r2, [r0, #4]
10005e86:	6083      	str	r3, [r0, #8]
10005e88:	f7ff ffc2 	bl	10005e10 <ph_clear>
10005e8c:	bd10      	pop	{r4, pc}
	...

10005e90 <ph_merge_two_pass>:
10005e90:	b570      	push	{r4, r5, r6, lr}
10005e92:	0004      	movs	r4, r0
10005e94:	1e08      	subs	r0, r1, #0
10005e96:	d100      	bne.n	10005e9a <ph_merge_two_pass+0xa>
10005e98:	bd70      	pop	{r4, r5, r6, pc}
10005e9a:	2900      	cmp	r1, #0
10005e9c:	d034      	beq.n	10005f08 <ph_merge_two_pass+0x78>
10005e9e:	7b23      	ldrb	r3, [r4, #12]
10005ea0:	4299      	cmp	r1, r3
10005ea2:	d831      	bhi.n	10005f08 <ph_merge_two_pass+0x78>
10005ea4:	004b      	lsls	r3, r1, #1
10005ea6:	185b      	adds	r3, r3, r1
10005ea8:	3b03      	subs	r3, #3
10005eaa:	6822      	ldr	r2, [r4, #0]
10005eac:	4694      	mov	ip, r2
10005eae:	4463      	add	r3, ip
10005eb0:	785a      	ldrb	r2, [r3, #1]
10005eb2:	2a00      	cmp	r2, #0
10005eb4:	d0f0      	beq.n	10005e98 <ph_merge_two_pass+0x8>
10005eb6:	d02d      	beq.n	10005f14 <ph_merge_two_pass+0x84>
10005eb8:	7b23      	ldrb	r3, [r4, #12]
10005eba:	429a      	cmp	r2, r3
10005ebc:	d82a      	bhi.n	10005f14 <ph_merge_two_pass+0x84>
10005ebe:	0053      	lsls	r3, r2, #1
10005ec0:	189b      	adds	r3, r3, r2
10005ec2:	3b03      	subs	r3, #3
10005ec4:	6821      	ldr	r1, [r4, #0]
10005ec6:	468c      	mov	ip, r1
10005ec8:	4463      	add	r3, ip
10005eca:	785d      	ldrb	r5, [r3, #1]
10005ecc:	2100      	movs	r1, #0
10005ece:	7059      	strb	r1, [r3, #1]
10005ed0:	2800      	cmp	r0, #0
10005ed2:	d025      	beq.n	10005f20 <ph_merge_two_pass+0x90>
10005ed4:	7b23      	ldrb	r3, [r4, #12]
10005ed6:	4298      	cmp	r0, r3
10005ed8:	d822      	bhi.n	10005f20 <ph_merge_two_pass+0x90>
10005eda:	0043      	lsls	r3, r0, #1
10005edc:	181b      	adds	r3, r3, r0
10005ede:	3b03      	subs	r3, #3
10005ee0:	6821      	ldr	r1, [r4, #0]
10005ee2:	468c      	mov	ip, r1
10005ee4:	4463      	add	r3, ip
10005ee6:	2100      	movs	r1, #0
10005ee8:	7059      	strb	r1, [r3, #1]
10005eea:	0001      	movs	r1, r0
10005eec:	0020      	movs	r0, r4
10005eee:	f7ff ff6f 	bl	10005dd0 <ph_merge_nodes>
10005ef2:	0006      	movs	r6, r0
10005ef4:	0029      	movs	r1, r5
10005ef6:	0020      	movs	r0, r4
10005ef8:	f7ff ffca 	bl	10005e90 <ph_merge_two_pass>
10005efc:	0002      	movs	r2, r0
10005efe:	0031      	movs	r1, r6
10005f00:	0020      	movs	r0, r4
10005f02:	f7ff ff65 	bl	10005dd0 <ph_merge_nodes>
10005f06:	e7c7      	b.n	10005e98 <ph_merge_two_pass+0x8>
10005f08:	4b08      	ldr	r3, [pc, #32]	; (10005f2c <ph_merge_two_pass+0x9c>)
10005f0a:	4a09      	ldr	r2, [pc, #36]	; (10005f30 <ph_merge_two_pass+0xa0>)
10005f0c:	2169      	movs	r1, #105	; 0x69
10005f0e:	4809      	ldr	r0, [pc, #36]	; (10005f34 <ph_merge_two_pass+0xa4>)
10005f10:	f000 f988 	bl	10006224 <__assert_func>
10005f14:	4b05      	ldr	r3, [pc, #20]	; (10005f2c <ph_merge_two_pass+0x9c>)
10005f16:	4a06      	ldr	r2, [pc, #24]	; (10005f30 <ph_merge_two_pass+0xa0>)
10005f18:	2169      	movs	r1, #105	; 0x69
10005f1a:	4806      	ldr	r0, [pc, #24]	; (10005f34 <ph_merge_two_pass+0xa4>)
10005f1c:	f000 f982 	bl	10006224 <__assert_func>
10005f20:	4b02      	ldr	r3, [pc, #8]	; (10005f2c <ph_merge_two_pass+0x9c>)
10005f22:	4a03      	ldr	r2, [pc, #12]	; (10005f30 <ph_merge_two_pass+0xa0>)
10005f24:	2169      	movs	r1, #105	; 0x69
10005f26:	4803      	ldr	r0, [pc, #12]	; (10005f34 <ph_merge_two_pass+0xa4>)
10005f28:	f000 f97c 	bl	10006224 <__assert_func>
10005f2c:	1000cad8 	.word	0x1000cad8
10005f30:	1000d0a8 	.word	0x1000d0a8
10005f34:	1000caf4 	.word	0x1000caf4

10005f38 <ph_remove_any_head>:
10005f38:	b570      	push	{r4, r5, r6, lr}
10005f3a:	0005      	movs	r5, r0
10005f3c:	000c      	movs	r4, r1
10005f3e:	0016      	movs	r6, r2
10005f40:	2900      	cmp	r1, #0
10005f42:	d028      	beq.n	10005f96 <ph_remove_any_head+0x5e>
10005f44:	d02d      	beq.n	10005fa2 <ph_remove_any_head+0x6a>
10005f46:	7b03      	ldrb	r3, [r0, #12]
10005f48:	4299      	cmp	r1, r3
10005f4a:	d82a      	bhi.n	10005fa2 <ph_remove_any_head+0x6a>
10005f4c:	004b      	lsls	r3, r1, #1
10005f4e:	185b      	adds	r3, r3, r1
10005f50:	3b03      	subs	r3, #3
10005f52:	6802      	ldr	r2, [r0, #0]
10005f54:	4694      	mov	ip, r2
10005f56:	4463      	add	r3, ip
10005f58:	785a      	ldrb	r2, [r3, #1]
10005f5a:	2a00      	cmp	r2, #0
10005f5c:	d127      	bne.n	10005fae <ph_remove_any_head+0x76>
10005f5e:	789a      	ldrb	r2, [r3, #2]
10005f60:	2a00      	cmp	r2, #0
10005f62:	d12a      	bne.n	10005fba <ph_remove_any_head+0x82>
10005f64:	7819      	ldrb	r1, [r3, #0]
10005f66:	f7ff ff93 	bl	10005e90 <ph_merge_two_pass>
10005f6a:	0003      	movs	r3, r0
10005f6c:	2e00      	cmp	r6, #0
10005f6e:	d003      	beq.n	10005f78 <ph_remove_any_head+0x40>
10005f70:	7bea      	ldrb	r2, [r5, #15]
10005f72:	2a00      	cmp	r2, #0
10005f74:	d127      	bne.n	10005fc6 <ph_remove_any_head+0x8e>
10005f76:	73ec      	strb	r4, [r5, #15]
10005f78:	2b00      	cmp	r3, #0
10005f7a:	d137      	bne.n	10005fec <ph_remove_any_head+0xb4>
10005f7c:	2c00      	cmp	r4, #0
10005f7e:	d049      	beq.n	10006014 <ph_remove_any_head+0xdc>
10005f80:	7b2b      	ldrb	r3, [r5, #12]
10005f82:	429c      	cmp	r4, r3
10005f84:	d846      	bhi.n	10006014 <ph_remove_any_head+0xdc>
10005f86:	682b      	ldr	r3, [r5, #0]
10005f88:	0061      	lsls	r1, r4, #1
10005f8a:	190c      	adds	r4, r1, r4
10005f8c:	3c03      	subs	r4, #3
10005f8e:	191c      	adds	r4, r3, r4
10005f90:	2300      	movs	r3, #0
10005f92:	7063      	strb	r3, [r4, #1]
10005f94:	bd70      	pop	{r4, r5, r6, pc}
10005f96:	4b22      	ldr	r3, [pc, #136]	; (10006020 <ph_remove_any_head+0xe8>)
10005f98:	4a22      	ldr	r2, [pc, #136]	; (10006024 <ph_remove_any_head+0xec>)
10005f9a:	2138      	movs	r1, #56	; 0x38
10005f9c:	4822      	ldr	r0, [pc, #136]	; (10006028 <ph_remove_any_head+0xf0>)
10005f9e:	f000 f941 	bl	10006224 <__assert_func>
10005fa2:	4b22      	ldr	r3, [pc, #136]	; (1000602c <ph_remove_any_head+0xf4>)
10005fa4:	4a22      	ldr	r2, [pc, #136]	; (10006030 <ph_remove_any_head+0xf8>)
10005fa6:	2169      	movs	r1, #105	; 0x69
10005fa8:	4822      	ldr	r0, [pc, #136]	; (10006034 <ph_remove_any_head+0xfc>)
10005faa:	f000 f93b 	bl	10006224 <__assert_func>
10005fae:	4b22      	ldr	r3, [pc, #136]	; (10006038 <ph_remove_any_head+0x100>)
10005fb0:	4a1c      	ldr	r2, [pc, #112]	; (10006024 <ph_remove_any_head+0xec>)
10005fb2:	213a      	movs	r1, #58	; 0x3a
10005fb4:	481c      	ldr	r0, [pc, #112]	; (10006028 <ph_remove_any_head+0xf0>)
10005fb6:	f000 f935 	bl	10006224 <__assert_func>
10005fba:	4b20      	ldr	r3, [pc, #128]	; (1000603c <ph_remove_any_head+0x104>)
10005fbc:	4a19      	ldr	r2, [pc, #100]	; (10006024 <ph_remove_any_head+0xec>)
10005fbe:	213b      	movs	r1, #59	; 0x3b
10005fc0:	4819      	ldr	r0, [pc, #100]	; (10006028 <ph_remove_any_head+0xf0>)
10005fc2:	f000 f92f 	bl	10006224 <__assert_func>
10005fc6:	2a00      	cmp	r2, #0
10005fc8:	d00a      	beq.n	10005fe0 <ph_remove_any_head+0xa8>
10005fca:	7b29      	ldrb	r1, [r5, #12]
10005fcc:	428a      	cmp	r2, r1
10005fce:	d807      	bhi.n	10005fe0 <ph_remove_any_head+0xa8>
10005fd0:	0051      	lsls	r1, r2, #1
10005fd2:	188a      	adds	r2, r1, r2
10005fd4:	3a03      	subs	r2, #3
10005fd6:	6829      	ldr	r1, [r5, #0]
10005fd8:	468c      	mov	ip, r1
10005fda:	4462      	add	r2, ip
10005fdc:	7054      	strb	r4, [r2, #1]
10005fde:	e7ca      	b.n	10005f76 <ph_remove_any_head+0x3e>
10005fe0:	4b12      	ldr	r3, [pc, #72]	; (1000602c <ph_remove_any_head+0xf4>)
10005fe2:	4a13      	ldr	r2, [pc, #76]	; (10006030 <ph_remove_any_head+0xf8>)
10005fe4:	2169      	movs	r1, #105	; 0x69
10005fe6:	4813      	ldr	r0, [pc, #76]	; (10006034 <ph_remove_any_head+0xfc>)
10005fe8:	f000 f91c 	bl	10006224 <__assert_func>
10005fec:	2b00      	cmp	r3, #0
10005fee:	d00b      	beq.n	10006008 <ph_remove_any_head+0xd0>
10005ff0:	7b2a      	ldrb	r2, [r5, #12]
10005ff2:	4293      	cmp	r3, r2
10005ff4:	d808      	bhi.n	10006008 <ph_remove_any_head+0xd0>
10005ff6:	0043      	lsls	r3, r0, #1
10005ff8:	181b      	adds	r3, r3, r0
10005ffa:	3b03      	subs	r3, #3
10005ffc:	682a      	ldr	r2, [r5, #0]
10005ffe:	4694      	mov	ip, r2
10006000:	4463      	add	r3, ip
10006002:	2200      	movs	r2, #0
10006004:	709a      	strb	r2, [r3, #2]
10006006:	e7b9      	b.n	10005f7c <ph_remove_any_head+0x44>
10006008:	4b08      	ldr	r3, [pc, #32]	; (1000602c <ph_remove_any_head+0xf4>)
1000600a:	4a09      	ldr	r2, [pc, #36]	; (10006030 <ph_remove_any_head+0xf8>)
1000600c:	2169      	movs	r1, #105	; 0x69
1000600e:	4809      	ldr	r0, [pc, #36]	; (10006034 <ph_remove_any_head+0xfc>)
10006010:	f000 f908 	bl	10006224 <__assert_func>
10006014:	4b05      	ldr	r3, [pc, #20]	; (1000602c <ph_remove_any_head+0xf4>)
10006016:	4a06      	ldr	r2, [pc, #24]	; (10006030 <ph_remove_any_head+0xf8>)
10006018:	2169      	movs	r1, #105	; 0x69
1000601a:	4806      	ldr	r0, [pc, #24]	; (10006034 <ph_remove_any_head+0xfc>)
1000601c:	f000 f902 	bl	10006224 <__assert_func>
10006020:	1000cfa0 	.word	0x1000cfa0
10006024:	1000d080 	.word	0x1000d080
10006028:	1000cfa8 	.word	0x1000cfa8
1000602c:	1000cad8 	.word	0x1000cad8
10006030:	1000d0a8 	.word	0x1000d0a8
10006034:	1000caf4 	.word	0x1000caf4
10006038:	1000cff4 	.word	0x1000cff4
1000603c:	1000d01c 	.word	0x1000d01c

10006040 <ph_remove_head>:
10006040:	b570      	push	{r4, r5, r6, lr}
10006042:	0004      	movs	r4, r0
10006044:	000a      	movs	r2, r1
10006046:	7b45      	ldrb	r5, [r0, #13]
10006048:	0029      	movs	r1, r5
1000604a:	f7ff ff75 	bl	10005f38 <ph_remove_any_head>
1000604e:	7360      	strb	r0, [r4, #13]
10006050:	0028      	movs	r0, r5
10006052:	bd70      	pop	{r4, r5, r6, pc}

10006054 <ph_remove_and_free_node>:
10006054:	b570      	push	{r4, r5, r6, lr}
10006056:	0004      	movs	r4, r0
10006058:	2900      	cmp	r1, #0
1000605a:	d067      	beq.n	1000612c <ph_remove_and_free_node+0xd8>
1000605c:	7b43      	ldrb	r3, [r0, #13]
1000605e:	428b      	cmp	r3, r1
10006060:	d00e      	beq.n	10006080 <ph_remove_and_free_node+0x2c>
10006062:	2900      	cmp	r1, #0
10006064:	d011      	beq.n	1000608a <ph_remove_and_free_node+0x36>
10006066:	7b03      	ldrb	r3, [r0, #12]
10006068:	4299      	cmp	r1, r3
1000606a:	d80e      	bhi.n	1000608a <ph_remove_and_free_node+0x36>
1000606c:	004b      	lsls	r3, r1, #1
1000606e:	185b      	adds	r3, r3, r1
10006070:	3b03      	subs	r3, #3
10006072:	6802      	ldr	r2, [r0, #0]
10006074:	18d0      	adds	r0, r2, r3
10006076:	7883      	ldrb	r3, [r0, #2]
10006078:	2b00      	cmp	r3, #0
1000607a:	d10c      	bne.n	10006096 <ph_remove_and_free_node+0x42>
1000607c:	2000      	movs	r0, #0
1000607e:	e056      	b.n	1000612e <ph_remove_and_free_node+0xda>
10006080:	2101      	movs	r1, #1
10006082:	f7ff ffdd 	bl	10006040 <ph_remove_head>
10006086:	2001      	movs	r0, #1
10006088:	e051      	b.n	1000612e <ph_remove_and_free_node+0xda>
1000608a:	4b29      	ldr	r3, [pc, #164]	; (10006130 <ph_remove_and_free_node+0xdc>)
1000608c:	4a29      	ldr	r2, [pc, #164]	; (10006134 <ph_remove_and_free_node+0xe0>)
1000608e:	2169      	movs	r1, #105	; 0x69
10006090:	4829      	ldr	r0, [pc, #164]	; (10006138 <ph_remove_and_free_node+0xe4>)
10006092:	f000 f8c7 	bl	10006224 <__assert_func>
10006096:	2b00      	cmp	r3, #0
10006098:	d020      	beq.n	100060dc <ph_remove_and_free_node+0x88>
1000609a:	7b22      	ldrb	r2, [r4, #12]
1000609c:	4293      	cmp	r3, r2
1000609e:	d81d      	bhi.n	100060dc <ph_remove_and_free_node+0x88>
100060a0:	005a      	lsls	r2, r3, #1
100060a2:	18d3      	adds	r3, r2, r3
100060a4:	3b03      	subs	r3, #3
100060a6:	6822      	ldr	r2, [r4, #0]
100060a8:	18d2      	adds	r2, r2, r3
100060aa:	6825      	ldr	r5, [r4, #0]
100060ac:	5ceb      	ldrb	r3, [r5, r3]
100060ae:	428b      	cmp	r3, r1
100060b0:	d01a      	beq.n	100060e8 <ph_remove_and_free_node+0x94>
100060b2:	2b00      	cmp	r3, #0
100060b4:	d01b      	beq.n	100060ee <ph_remove_and_free_node+0x9a>
100060b6:	7b22      	ldrb	r2, [r4, #12]
100060b8:	4293      	cmp	r3, r2
100060ba:	d818      	bhi.n	100060ee <ph_remove_and_free_node+0x9a>
100060bc:	005a      	lsls	r2, r3, #1
100060be:	18d3      	adds	r3, r2, r3
100060c0:	3b03      	subs	r3, #3
100060c2:	6822      	ldr	r2, [r4, #0]
100060c4:	18d2      	adds	r2, r2, r3
100060c6:	7853      	ldrb	r3, [r2, #1]
100060c8:	428b      	cmp	r3, r1
100060ca:	d016      	beq.n	100060fa <ph_remove_and_free_node+0xa6>
100060cc:	2b00      	cmp	r3, #0
100060ce:	d1f0      	bne.n	100060b2 <ph_remove_and_free_node+0x5e>
100060d0:	4b1a      	ldr	r3, [pc, #104]	; (1000613c <ph_remove_and_free_node+0xe8>)
100060d2:	4a1b      	ldr	r2, [pc, #108]	; (10006140 <ph_remove_and_free_node+0xec>)
100060d4:	2167      	movs	r1, #103	; 0x67
100060d6:	481b      	ldr	r0, [pc, #108]	; (10006144 <ph_remove_and_free_node+0xf0>)
100060d8:	f000 f8a4 	bl	10006224 <__assert_func>
100060dc:	4b14      	ldr	r3, [pc, #80]	; (10006130 <ph_remove_and_free_node+0xdc>)
100060de:	4a15      	ldr	r2, [pc, #84]	; (10006134 <ph_remove_and_free_node+0xe0>)
100060e0:	2169      	movs	r1, #105	; 0x69
100060e2:	4815      	ldr	r0, [pc, #84]	; (10006138 <ph_remove_and_free_node+0xe4>)
100060e4:	f000 f89e 	bl	10006224 <__assert_func>
100060e8:	7843      	ldrb	r3, [r0, #1]
100060ea:	7013      	strb	r3, [r2, #0]
100060ec:	e007      	b.n	100060fe <ph_remove_and_free_node+0xaa>
100060ee:	4b10      	ldr	r3, [pc, #64]	; (10006130 <ph_remove_and_free_node+0xdc>)
100060f0:	4a10      	ldr	r2, [pc, #64]	; (10006134 <ph_remove_and_free_node+0xe0>)
100060f2:	2169      	movs	r1, #105	; 0x69
100060f4:	4810      	ldr	r0, [pc, #64]	; (10006138 <ph_remove_and_free_node+0xe4>)
100060f6:	f000 f895 	bl	10006224 <__assert_func>
100060fa:	7843      	ldrb	r3, [r0, #1]
100060fc:	7053      	strb	r3, [r2, #1]
100060fe:	2300      	movs	r3, #0
10006100:	7083      	strb	r3, [r0, #2]
10006102:	7043      	strb	r3, [r0, #1]
10006104:	2201      	movs	r2, #1
10006106:	0020      	movs	r0, r4
10006108:	f7ff ff16 	bl	10005f38 <ph_remove_any_head>
1000610c:	0002      	movs	r2, r0
1000610e:	7b61      	ldrb	r1, [r4, #13]
10006110:	4281      	cmp	r1, r0
10006112:	d005      	beq.n	10006120 <ph_remove_and_free_node+0xcc>
10006114:	0020      	movs	r0, r4
10006116:	f7ff fe5b 	bl	10005dd0 <ph_merge_nodes>
1000611a:	7360      	strb	r0, [r4, #13]
1000611c:	2001      	movs	r0, #1
1000611e:	e006      	b.n	1000612e <ph_remove_and_free_node+0xda>
10006120:	4b09      	ldr	r3, [pc, #36]	; (10006148 <ph_remove_and_free_node+0xf4>)
10006122:	4a07      	ldr	r2, [pc, #28]	; (10006140 <ph_remove_and_free_node+0xec>)
10006124:	216d      	movs	r1, #109	; 0x6d
10006126:	4807      	ldr	r0, [pc, #28]	; (10006144 <ph_remove_and_free_node+0xf0>)
10006128:	f000 f87c 	bl	10006224 <__assert_func>
1000612c:	2000      	movs	r0, #0
1000612e:	bd70      	pop	{r4, r5, r6, pc}
10006130:	1000cad8 	.word	0x1000cad8
10006134:	1000d0a8 	.word	0x1000d0a8
10006138:	1000caf4 	.word	0x1000caf4
1000613c:	1000d040 	.word	0x1000d040
10006140:	1000d068 	.word	0x1000d068
10006144:	1000cfa8 	.word	0x1000cfa8
10006148:	1000d048 	.word	0x1000d048

1000614c <runtime_init>:
1000614c:	b570      	push	{r4, r5, r6, lr}
1000614e:	4b23      	ldr	r3, [pc, #140]	; (100061dc <runtime_init+0x90>)
10006150:	4a23      	ldr	r2, [pc, #140]	; (100061e0 <runtime_init+0x94>)
10006152:	601a      	str	r2, [r3, #0]
10006154:	4b23      	ldr	r3, [pc, #140]	; (100061e4 <runtime_init+0x98>)
10006156:	4a24      	ldr	r2, [pc, #144]	; (100061e8 <runtime_init+0x9c>)
10006158:	601a      	str	r2, [r3, #0]
1000615a:	4b24      	ldr	r3, [pc, #144]	; (100061ec <runtime_init+0xa0>)
1000615c:	689a      	ldr	r2, [r3, #8]
1000615e:	4b22      	ldr	r3, [pc, #136]	; (100061e8 <runtime_init+0x9c>)
10006160:	4393      	bics	r3, r2
10006162:	d1fa      	bne.n	1000615a <runtime_init+0xe>
10006164:	4c22      	ldr	r4, [pc, #136]	; (100061f0 <runtime_init+0xa4>)
10006166:	e001      	b.n	1000616c <runtime_init+0x20>
10006168:	cc08      	ldmia	r4!, {r3}
1000616a:	4798      	blx	r3
1000616c:	4b21      	ldr	r3, [pc, #132]	; (100061f4 <runtime_init+0xa8>)
1000616e:	429c      	cmp	r4, r3
10006170:	d3fa      	bcc.n	10006168 <runtime_init+0x1c>
10006172:	f000 f901 	bl	10006378 <clocks_init>
10006176:	4b1b      	ldr	r3, [pc, #108]	; (100061e4 <runtime_init+0x98>)
10006178:	4a1f      	ldr	r2, [pc, #124]	; (100061f8 <runtime_init+0xac>)
1000617a:	601a      	str	r2, [r3, #0]
1000617c:	4b1b      	ldr	r3, [pc, #108]	; (100061ec <runtime_init+0xa0>)
1000617e:	689b      	ldr	r3, [r3, #8]
10006180:	43db      	mvns	r3, r3
10006182:	01db      	lsls	r3, r3, #7
10006184:	d1fa      	bne.n	1000617c <runtime_init+0x30>
10006186:	4b1d      	ldr	r3, [pc, #116]	; (100061fc <runtime_init+0xb0>)
10006188:	2240      	movs	r2, #64	; 0x40
1000618a:	679a      	str	r2, [r3, #120]	; 0x78
1000618c:	675a      	str	r2, [r3, #116]	; 0x74
1000618e:	671a      	str	r2, [r3, #112]	; 0x70
10006190:	66da      	str	r2, [r3, #108]	; 0x6c
10006192:	4c1b      	ldr	r4, [pc, #108]	; (10006200 <runtime_init+0xb4>)
10006194:	e003      	b.n	1000619e <runtime_init+0x52>
10006196:	0020      	movs	r0, r4
10006198:	f7ff fdaa 	bl	10005cf0 <mutex_init>
1000619c:	3408      	adds	r4, #8
1000619e:	4b19      	ldr	r3, [pc, #100]	; (10006204 <runtime_init+0xb8>)
100061a0:	429c      	cmp	r4, r3
100061a2:	d3f8      	bcc.n	10006196 <runtime_init+0x4a>
100061a4:	4c18      	ldr	r4, [pc, #96]	; (10006208 <runtime_init+0xbc>)
100061a6:	68a1      	ldr	r1, [r4, #8]
100061a8:	4d18      	ldr	r5, [pc, #96]	; (1000620c <runtime_init+0xc0>)
100061aa:	22c0      	movs	r2, #192	; 0xc0
100061ac:	0028      	movs	r0, r5
100061ae:	f002 fc91 	bl	10008ad4 <__wrap___aeabi_memcpy>
100061b2:	60a5      	str	r5, [r4, #8]
100061b4:	f7fa f857 	bl	10000266 <__get_current_exception>
100061b8:	2800      	cmp	r0, #0
100061ba:	d000      	beq.n	100061be <runtime_init+0x72>
100061bc:	be00      	bkpt	0x0000
100061be:	f7fe fe27 	bl	10004e10 <spin_locks_reset>
100061c2:	f000 fc59 	bl	10006a78 <irq_init_priorities>
100061c6:	f7ff fa03 	bl	100055d0 <alarm_pool_init_default>
100061ca:	4c11      	ldr	r4, [pc, #68]	; (10006210 <runtime_init+0xc4>)
100061cc:	e001      	b.n	100061d2 <runtime_init+0x86>
100061ce:	cc08      	ldmia	r4!, {r3}
100061d0:	4798      	blx	r3
100061d2:	4b10      	ldr	r3, [pc, #64]	; (10006214 <runtime_init+0xc8>)
100061d4:	429c      	cmp	r4, r3
100061d6:	d3fa      	bcc.n	100061ce <runtime_init+0x82>
100061d8:	bd70      	pop	{r4, r5, r6, pc}
100061da:	46c0      	nop			; (mov r8, r8)
100061dc:	4000e000 	.word	0x4000e000
100061e0:	fefbcdbf 	.word	0xfefbcdbf
100061e4:	4000f000 	.word	0x4000f000
100061e8:	003c7ffe 	.word	0x003c7ffe
100061ec:	4000c000 	.word	0x4000c000
100061f0:	20000fc4 	.word	0x20000fc4
100061f4:	20000fd4 	.word	0x20000fd4
100061f8:	01ffffff 	.word	0x01ffffff
100061fc:	4001f000 	.word	0x4001f000
10006200:	20000fbc 	.word	0x20000fbc
10006204:	20000fc4 	.word	0x20000fc4
10006208:	e000ed00 	.word	0xe000ed00
1000620c:	20000000 	.word	0x20000000
10006210:	20000fd4 	.word	0x20000fd4
10006214:	20000fe0 	.word	0x20000fe0

10006218 <_exit>:
10006218:	be00      	bkpt	0x0000
1000621a:	e7fd      	b.n	10006218 <_exit>

1000621c <exit>:
1000621c:	b510      	push	{r4, lr}
1000621e:	f7ff fffb 	bl	10006218 <_exit>
	...

10006224 <__assert_func>:
10006224:	b510      	push	{r4, lr}
10006226:	b082      	sub	sp, #8
10006228:	000c      	movs	r4, r1
1000622a:	0019      	movs	r1, r3
1000622c:	2a00      	cmp	r2, #0
1000622e:	d00c      	beq.n	1000624a <__assert_func+0x26>
10006230:	4b08      	ldr	r3, [pc, #32]	; (10006254 <__assert_func+0x30>)
10006232:	2a00      	cmp	r2, #0
10006234:	d00b      	beq.n	1000624e <__assert_func+0x2a>
10006236:	9201      	str	r2, [sp, #4]
10006238:	9300      	str	r3, [sp, #0]
1000623a:	0023      	movs	r3, r4
1000623c:	0002      	movs	r2, r0
1000623e:	4806      	ldr	r0, [pc, #24]	; (10006258 <__assert_func+0x34>)
10006240:	f002 fd7c 	bl	10008d3c <__wrap_printf>
10006244:	2001      	movs	r0, #1
10006246:	f7ff ffe7 	bl	10006218 <_exit>
1000624a:	4b04      	ldr	r3, [pc, #16]	; (1000625c <__assert_func+0x38>)
1000624c:	e7f1      	b.n	10006232 <__assert_func+0xe>
1000624e:	4a03      	ldr	r2, [pc, #12]	; (1000625c <__assert_func+0x38>)
10006250:	e7f1      	b.n	10006236 <__assert_func+0x12>
10006252:	46c0      	nop			; (mov r8, r8)
10006254:	1000d0b4 	.word	0x1000d0b4
10006258:	1000d0c4 	.word	0x1000d0c4
1000625c:	1000c9f4 	.word	0x1000c9f4

10006260 <panic>:
10006260:	b40f      	push	{r0, r1, r2, r3}
10006262:	b500      	push	{lr}
10006264:	b083      	sub	sp, #12
10006266:	4808      	ldr	r0, [pc, #32]	; (10006288 <panic+0x28>)
10006268:	f002 fd38 	bl	10008cdc <__wrap_puts>
1000626c:	9b04      	ldr	r3, [sp, #16]
1000626e:	2b00      	cmp	r3, #0
10006270:	d007      	beq.n	10006282 <panic+0x22>
10006272:	a905      	add	r1, sp, #20
10006274:	9101      	str	r1, [sp, #4]
10006276:	0018      	movs	r0, r3
10006278:	f002 fd3e 	bl	10008cf8 <__wrap_vprintf>
1000627c:	4803      	ldr	r0, [pc, #12]	; (1000628c <panic+0x2c>)
1000627e:	f002 fd2d 	bl	10008cdc <__wrap_puts>
10006282:	2001      	movs	r0, #1
10006284:	f7ff ffc8 	bl	10006218 <_exit>
10006288:	1000d0f4 	.word	0x1000d0f4
1000628c:	1000dcc0 	.word	0x1000dcc0

10006290 <clock_configure>:
10006290:	b5f8      	push	{r3, r4, r5, r6, r7, lr}
10006292:	46d6      	mov	lr, sl
10006294:	4647      	mov	r7, r8
10006296:	b580      	push	{r7, lr}
10006298:	0006      	movs	r6, r0
1000629a:	000d      	movs	r5, r1
1000629c:	0017      	movs	r7, r2
1000629e:	9a08      	ldr	r2, [sp, #32]
100062a0:	4293      	cmp	r3, r2
100062a2:	d343      	bcc.n	1000632c <clock_configure+0x9c>
100062a4:	0e19      	lsrs	r1, r3, #24
100062a6:	0218      	lsls	r0, r3, #8
100062a8:	9a08      	ldr	r2, [sp, #32]
100062aa:	2300      	movs	r3, #0
100062ac:	f001 fd34 	bl	10007d18 <__wrap___aeabi_uldivmod>
100062b0:	4680      	mov	r8, r0
100062b2:	0074      	lsls	r4, r6, #1
100062b4:	19a4      	adds	r4, r4, r6
100062b6:	00a4      	lsls	r4, r4, #2
100062b8:	4b2a      	ldr	r3, [pc, #168]	; (10006364 <clock_configure+0xd4>)
100062ba:	469c      	mov	ip, r3
100062bc:	4464      	add	r4, ip
100062be:	6863      	ldr	r3, [r4, #4]
100062c0:	4283      	cmp	r3, r0
100062c2:	d200      	bcs.n	100062c6 <clock_configure+0x36>
100062c4:	6060      	str	r0, [r4, #4]
100062c6:	1f33      	subs	r3, r6, #4
100062c8:	b2db      	uxtb	r3, r3
100062ca:	469a      	mov	sl, r3
100062cc:	2b01      	cmp	r3, #1
100062ce:	d933      	bls.n	10006338 <clock_configure+0xa8>
100062d0:	23c0      	movs	r3, #192	; 0xc0
100062d2:	019b      	lsls	r3, r3, #6
100062d4:	4323      	orrs	r3, r4
100062d6:	2280      	movs	r2, #128	; 0x80
100062d8:	0112      	lsls	r2, r2, #4
100062da:	601a      	str	r2, [r3, #0]
100062dc:	00b3      	lsls	r3, r6, #2
100062de:	4a22      	ldr	r2, [pc, #136]	; (10006368 <clock_configure+0xd8>)
100062e0:	5899      	ldr	r1, [r3, r2]
100062e2:	2900      	cmp	r1, #0
100062e4:	d005      	beq.n	100062f2 <clock_configure+0x62>
100062e6:	6950      	ldr	r0, [r2, #20]
100062e8:	f001 fcd0 	bl	10007c8c <__wrap___aeabi_uidiv>
100062ec:	3001      	adds	r0, #1
100062ee:	3801      	subs	r0, #1
100062f0:	d1fd      	bne.n	100062ee <clock_configure+0x5e>
100062f2:	017f      	lsls	r7, r7, #5
100062f4:	6822      	ldr	r2, [r4, #0]
100062f6:	4057      	eors	r7, r2
100062f8:	22e0      	movs	r2, #224	; 0xe0
100062fa:	4017      	ands	r7, r2
100062fc:	2380      	movs	r3, #128	; 0x80
100062fe:	015b      	lsls	r3, r3, #5
10006300:	4323      	orrs	r3, r4
10006302:	601f      	str	r7, [r3, #0]
10006304:	4652      	mov	r2, sl
10006306:	2a01      	cmp	r2, #1
10006308:	d921      	bls.n	1000634e <clock_configure+0xbe>
1000630a:	2380      	movs	r3, #128	; 0x80
1000630c:	019b      	lsls	r3, r3, #6
1000630e:	4323      	orrs	r3, r4
10006310:	2280      	movs	r2, #128	; 0x80
10006312:	0112      	lsls	r2, r2, #4
10006314:	601a      	str	r2, [r3, #0]
10006316:	4643      	mov	r3, r8
10006318:	6063      	str	r3, [r4, #4]
1000631a:	00b6      	lsls	r6, r6, #2
1000631c:	4b12      	ldr	r3, [pc, #72]	; (10006368 <clock_configure+0xd8>)
1000631e:	9a08      	ldr	r2, [sp, #32]
10006320:	50f2      	str	r2, [r6, r3]
10006322:	2001      	movs	r0, #1
10006324:	bcc0      	pop	{r6, r7}
10006326:	46ba      	mov	sl, r7
10006328:	46b0      	mov	r8, r6
1000632a:	bdf8      	pop	{r3, r4, r5, r6, r7, pc}
1000632c:	4b0f      	ldr	r3, [pc, #60]	; (1000636c <clock_configure+0xdc>)
1000632e:	4a10      	ldr	r2, [pc, #64]	; (10006370 <clock_configure+0xe0>)
10006330:	212d      	movs	r1, #45	; 0x2d
10006332:	4810      	ldr	r0, [pc, #64]	; (10006374 <clock_configure+0xe4>)
10006334:	f7ff ff76 	bl	10006224 <__assert_func>
10006338:	2d01      	cmp	r5, #1
1000633a:	d1c9      	bne.n	100062d0 <clock_configure+0x40>
1000633c:	23c0      	movs	r3, #192	; 0xc0
1000633e:	019b      	lsls	r3, r3, #6
10006340:	4323      	orrs	r3, r4
10006342:	2203      	movs	r2, #3
10006344:	601a      	str	r2, [r3, #0]
10006346:	68a3      	ldr	r3, [r4, #8]
10006348:	07db      	lsls	r3, r3, #31
1000634a:	d5fc      	bpl.n	10006346 <clock_configure+0xb6>
1000634c:	e7d1      	b.n	100062f2 <clock_configure+0x62>
1000634e:	6821      	ldr	r1, [r4, #0]
10006350:	4069      	eors	r1, r5
10006352:	2203      	movs	r2, #3
10006354:	400a      	ands	r2, r1
10006356:	601a      	str	r2, [r3, #0]
10006358:	68a2      	ldr	r2, [r4, #8]
1000635a:	2301      	movs	r3, #1
1000635c:	40ab      	lsls	r3, r5
1000635e:	4213      	tst	r3, r2
10006360:	d0fa      	beq.n	10006358 <clock_configure+0xc8>
10006362:	e7d2      	b.n	1000630a <clock_configure+0x7a>
10006364:	40008000 	.word	0x40008000
10006368:	20001688 	.word	0x20001688
1000636c:	1000d104 	.word	0x1000d104
10006370:	1000d170 	.word	0x1000d170
10006374:	1000d118 	.word	0x1000d118

10006378 <clocks_init>:
10006378:	b530      	push	{r4, r5, lr}
1000637a:	b083      	sub	sp, #12
1000637c:	200c      	movs	r0, #12
1000637e:	f000 f881 	bl	10006484 <watchdog_start_tick>
10006382:	f7fe fd73 	bl	10004e6c <running_on_fpga>
10006386:	2800      	cmp	r0, #0
10006388:	d00d      	beq.n	100063a6 <clocks_init+0x2e>
1000638a:	2300      	movs	r3, #0
1000638c:	e004      	b.n	10006398 <clocks_init+0x20>
1000638e:	0099      	lsls	r1, r3, #2
10006390:	4a2d      	ldr	r2, [pc, #180]	; (10006448 <clocks_init+0xd0>)
10006392:	482e      	ldr	r0, [pc, #184]	; (1000644c <clocks_init+0xd4>)
10006394:	5088      	str	r0, [r1, r2]
10006396:	3301      	adds	r3, #1
10006398:	2b09      	cmp	r3, #9
1000639a:	d9f8      	bls.n	1000638e <clocks_init+0x16>
1000639c:	4b2a      	ldr	r3, [pc, #168]	; (10006448 <clocks_init+0xd0>)
1000639e:	4a2c      	ldr	r2, [pc, #176]	; (10006450 <clocks_init+0xd8>)
100063a0:	625a      	str	r2, [r3, #36]	; 0x24
100063a2:	b003      	add	sp, #12
100063a4:	bd30      	pop	{r4, r5, pc}
100063a6:	4b2b      	ldr	r3, [pc, #172]	; (10006454 <clocks_init+0xdc>)
100063a8:	2200      	movs	r2, #0
100063aa:	679a      	str	r2, [r3, #120]	; 0x78
100063ac:	f000 f8be 	bl	1000652c <xosc_init>
100063b0:	4b29      	ldr	r3, [pc, #164]	; (10006458 <clocks_init+0xe0>)
100063b2:	2201      	movs	r2, #1
100063b4:	601a      	str	r2, [r3, #0]
100063b6:	4b27      	ldr	r3, [pc, #156]	; (10006454 <clocks_init+0xdc>)
100063b8:	6c5b      	ldr	r3, [r3, #68]	; 0x44
100063ba:	2b01      	cmp	r3, #1
100063bc:	d1fb      	bne.n	100063b6 <clocks_init+0x3e>
100063be:	4b27      	ldr	r3, [pc, #156]	; (1000645c <clocks_init+0xe4>)
100063c0:	2203      	movs	r2, #3
100063c2:	601a      	str	r2, [r3, #0]
100063c4:	4b23      	ldr	r3, [pc, #140]	; (10006454 <clocks_init+0xdc>)
100063c6:	6b9b      	ldr	r3, [r3, #56]	; 0x38
100063c8:	2b01      	cmp	r3, #1
100063ca:	d1fb      	bne.n	100063c4 <clocks_init+0x4c>
100063cc:	2402      	movs	r4, #2
100063ce:	9400      	str	r4, [sp, #0]
100063d0:	3305      	adds	r3, #5
100063d2:	4a23      	ldr	r2, [pc, #140]	; (10006460 <clocks_init+0xe8>)
100063d4:	2101      	movs	r1, #1
100063d6:	4823      	ldr	r0, [pc, #140]	; (10006464 <clocks_init+0xec>)
100063d8:	f000 f8bc 	bl	10006554 <pll_init>
100063dc:	9400      	str	r4, [sp, #0]
100063de:	2305      	movs	r3, #5
100063e0:	4a21      	ldr	r2, [pc, #132]	; (10006468 <clocks_init+0xf0>)
100063e2:	2101      	movs	r1, #1
100063e4:	4821      	ldr	r0, [pc, #132]	; (1000646c <clocks_init+0xf4>)
100063e6:	f000 f8b5 	bl	10006554 <pll_init>
100063ea:	4b21      	ldr	r3, [pc, #132]	; (10006470 <clocks_init+0xf8>)
100063ec:	9300      	str	r3, [sp, #0]
100063ee:	2200      	movs	r2, #0
100063f0:	2102      	movs	r1, #2
100063f2:	2004      	movs	r0, #4
100063f4:	f7ff ff4c 	bl	10006290 <clock_configure>
100063f8:	4d1e      	ldr	r5, [pc, #120]	; (10006474 <clocks_init+0xfc>)
100063fa:	9500      	str	r5, [sp, #0]
100063fc:	002b      	movs	r3, r5
100063fe:	2200      	movs	r2, #0
10006400:	2101      	movs	r1, #1
10006402:	2005      	movs	r0, #5
10006404:	f7ff ff44 	bl	10006290 <clock_configure>
10006408:	4c10      	ldr	r4, [pc, #64]	; (1000644c <clocks_init+0xd4>)
1000640a:	9400      	str	r4, [sp, #0]
1000640c:	0023      	movs	r3, r4
1000640e:	2200      	movs	r2, #0
10006410:	2100      	movs	r1, #0
10006412:	2007      	movs	r0, #7
10006414:	f7ff ff3c 	bl	10006290 <clock_configure>
10006418:	9400      	str	r4, [sp, #0]
1000641a:	0023      	movs	r3, r4
1000641c:	2200      	movs	r2, #0
1000641e:	2100      	movs	r1, #0
10006420:	2008      	movs	r0, #8
10006422:	f7ff ff35 	bl	10006290 <clock_configure>
10006426:	4b0a      	ldr	r3, [pc, #40]	; (10006450 <clocks_init+0xd8>)
10006428:	9300      	str	r3, [sp, #0]
1000642a:	0023      	movs	r3, r4
1000642c:	2200      	movs	r2, #0
1000642e:	2100      	movs	r1, #0
10006430:	2009      	movs	r0, #9
10006432:	f7ff ff2d 	bl	10006290 <clock_configure>
10006436:	9500      	str	r5, [sp, #0]
10006438:	002b      	movs	r3, r5
1000643a:	2200      	movs	r2, #0
1000643c:	2100      	movs	r1, #0
1000643e:	2006      	movs	r0, #6
10006440:	f7ff ff26 	bl	10006290 <clock_configure>
10006444:	e7ad      	b.n	100063a2 <clocks_init+0x2a>
10006446:	46c0      	nop			; (mov r8, r8)
10006448:	20001688 	.word	0x20001688
1000644c:	02dc6c00 	.word	0x02dc6c00
10006450:	0000b71b 	.word	0x0000b71b
10006454:	40008000 	.word	0x40008000
10006458:	4000b03c 	.word	0x4000b03c
1000645c:	4000b030 	.word	0x4000b030
10006460:	59682f00 	.word	0x59682f00
10006464:	40028000 	.word	0x40028000
10006468:	1c9c3800 	.word	0x1c9c3800
1000646c:	4002c000 	.word	0x4002c000
10006470:	00b71b00 	.word	0x00b71b00
10006474:	07735940 	.word	0x07735940

10006478 <clock_get_hz>:
10006478:	0080      	lsls	r0, r0, #2
1000647a:	4b01      	ldr	r3, [pc, #4]	; (10006480 <clock_get_hz+0x8>)
1000647c:	58c0      	ldr	r0, [r0, r3]
1000647e:	4770      	bx	lr
10006480:	20001688 	.word	0x20001688

10006484 <watchdog_start_tick>:
10006484:	2380      	movs	r3, #128	; 0x80
10006486:	009b      	lsls	r3, r3, #2
10006488:	4303      	orrs	r3, r0
1000648a:	4a01      	ldr	r2, [pc, #4]	; (10006490 <watchdog_start_tick+0xc>)
1000648c:	62d3      	str	r3, [r2, #44]	; 0x2c
1000648e:	4770      	bx	lr
10006490:	40058000 	.word	0x40058000

10006494 <watchdog_update>:
10006494:	4b02      	ldr	r3, [pc, #8]	; (100064a0 <watchdog_update+0xc>)
10006496:	681a      	ldr	r2, [r3, #0]
10006498:	4b02      	ldr	r3, [pc, #8]	; (100064a4 <watchdog_update+0x10>)
1000649a:	605a      	str	r2, [r3, #4]
1000649c:	4770      	bx	lr
1000649e:	46c0      	nop			; (mov r8, r8)
100064a0:	20001f9c 	.word	0x20001f9c
100064a4:	40058000 	.word	0x40058000

100064a8 <_watchdog_enable>:
100064a8:	b510      	push	{r4, lr}
100064aa:	0002      	movs	r2, r0
100064ac:	4b14      	ldr	r3, [pc, #80]	; (10006500 <_watchdog_enable+0x58>)
100064ae:	2080      	movs	r0, #128	; 0x80
100064b0:	05c0      	lsls	r0, r0, #23
100064b2:	6018      	str	r0, [r3, #0]
100064b4:	4b13      	ldr	r3, [pc, #76]	; (10006504 <_watchdog_enable+0x5c>)
100064b6:	4814      	ldr	r0, [pc, #80]	; (10006508 <_watchdog_enable+0x60>)
100064b8:	6018      	str	r0, [r3, #0]
100064ba:	2900      	cmp	r1, #0
100064bc:	d01b      	beq.n	100064f6 <_watchdog_enable+0x4e>
100064be:	4b13      	ldr	r3, [pc, #76]	; (1000650c <_watchdog_enable+0x64>)
100064c0:	21e0      	movs	r1, #224	; 0xe0
100064c2:	04c9      	lsls	r1, r1, #19
100064c4:	6019      	str	r1, [r3, #0]
100064c6:	2a00      	cmp	r2, #0
100064c8:	d100      	bne.n	100064cc <_watchdog_enable+0x24>
100064ca:	3232      	adds	r2, #50	; 0x32
100064cc:	0153      	lsls	r3, r2, #5
100064ce:	1a9b      	subs	r3, r3, r2
100064d0:	0098      	lsls	r0, r3, #2
100064d2:	1880      	adds	r0, r0, r2
100064d4:	0100      	lsls	r0, r0, #4
100064d6:	4b0e      	ldr	r3, [pc, #56]	; (10006510 <_watchdog_enable+0x68>)
100064d8:	6018      	str	r0, [r3, #0]
100064da:	2380      	movs	r3, #128	; 0x80
100064dc:	045b      	lsls	r3, r3, #17
100064de:	4298      	cmp	r0, r3
100064e0:	d302      	bcc.n	100064e8 <_watchdog_enable+0x40>
100064e2:	4b0b      	ldr	r3, [pc, #44]	; (10006510 <_watchdog_enable+0x68>)
100064e4:	4a0b      	ldr	r2, [pc, #44]	; (10006514 <_watchdog_enable+0x6c>)
100064e6:	601a      	str	r2, [r3, #0]
100064e8:	f7ff ffd4 	bl	10006494 <watchdog_update>
100064ec:	4b07      	ldr	r3, [pc, #28]	; (1000650c <_watchdog_enable+0x64>)
100064ee:	2280      	movs	r2, #128	; 0x80
100064f0:	05d2      	lsls	r2, r2, #23
100064f2:	601a      	str	r2, [r3, #0]
100064f4:	bd10      	pop	{r4, pc}
100064f6:	4b02      	ldr	r3, [pc, #8]	; (10006500 <_watchdog_enable+0x58>)
100064f8:	21e0      	movs	r1, #224	; 0xe0
100064fa:	04c9      	lsls	r1, r1, #19
100064fc:	6019      	str	r1, [r3, #0]
100064fe:	e7e2      	b.n	100064c6 <_watchdog_enable+0x1e>
10006500:	4005b000 	.word	0x4005b000
10006504:	40012008 	.word	0x40012008
10006508:	0001fffc 	.word	0x0001fffc
1000650c:	4005a000 	.word	0x4005a000
10006510:	20001f9c 	.word	0x20001f9c
10006514:	00ffffff 	.word	0x00ffffff

10006518 <watchdog_enable>:
10006518:	b510      	push	{r4, lr}
1000651a:	4b03      	ldr	r3, [pc, #12]	; (10006528 <watchdog_enable+0x10>)
1000651c:	2200      	movs	r2, #0
1000651e:	61da      	str	r2, [r3, #28]
10006520:	f7ff ffc2 	bl	100064a8 <_watchdog_enable>
10006524:	bd10      	pop	{r4, pc}
10006526:	46c0      	nop			; (mov r8, r8)
10006528:	40058000 	.word	0x40058000

1000652c <xosc_init>:
1000652c:	4b06      	ldr	r3, [pc, #24]	; (10006548 <xosc_init+0x1c>)
1000652e:	22aa      	movs	r2, #170	; 0xaa
10006530:	0112      	lsls	r2, r2, #4
10006532:	601a      	str	r2, [r3, #0]
10006534:	222f      	movs	r2, #47	; 0x2f
10006536:	60da      	str	r2, [r3, #12]
10006538:	4b04      	ldr	r3, [pc, #16]	; (1000654c <xosc_init+0x20>)
1000653a:	4a05      	ldr	r2, [pc, #20]	; (10006550 <xosc_init+0x24>)
1000653c:	601a      	str	r2, [r3, #0]
1000653e:	4b02      	ldr	r3, [pc, #8]	; (10006548 <xosc_init+0x1c>)
10006540:	685b      	ldr	r3, [r3, #4]
10006542:	2b00      	cmp	r3, #0
10006544:	dafb      	bge.n	1000653e <xosc_init+0x12>
10006546:	4770      	bx	lr
10006548:	40024000 	.word	0x40024000
1000654c:	40026000 	.word	0x40026000
10006550:	00fab000 	.word	0x00fab000

10006554 <pll_init>:
10006554:	b5f0      	push	{r4, r5, r6, r7, lr}
10006556:	46ce      	mov	lr, r9
10006558:	b500      	push	{lr}
1000655a:	0004      	movs	r4, r0
1000655c:	000e      	movs	r6, r1
1000655e:	4691      	mov	r9, r2
10006560:	001f      	movs	r7, r3
10006562:	200c      	movs	r0, #12
10006564:	f001 fb92 	bl	10007c8c <__wrap___aeabi_uidiv>
10006568:	0005      	movs	r5, r0
1000656a:	0143      	lsls	r3, r0, #5
1000656c:	1a1b      	subs	r3, r3, r0
1000656e:	0199      	lsls	r1, r3, #6
10006570:	1ac9      	subs	r1, r1, r3
10006572:	00c9      	lsls	r1, r1, #3
10006574:	1809      	adds	r1, r1, r0
10006576:	0189      	lsls	r1, r1, #6
10006578:	4648      	mov	r0, r9
1000657a:	f001 fb87 	bl	10007c8c <__wrap___aeabi_uidiv>
1000657e:	0002      	movs	r2, r0
10006580:	3a10      	subs	r2, #16
10006582:	2398      	movs	r3, #152	; 0x98
10006584:	005b      	lsls	r3, r3, #1
10006586:	429a      	cmp	r2, r3
10006588:	d833      	bhi.n	100065f2 <pll_init+0x9e>
1000658a:	1e7b      	subs	r3, r7, #1
1000658c:	2b06      	cmp	r3, #6
1000658e:	d836      	bhi.n	100065fe <pll_init+0xaa>
10006590:	9b06      	ldr	r3, [sp, #24]
10006592:	3b01      	subs	r3, #1
10006594:	2b06      	cmp	r3, #6
10006596:	d832      	bhi.n	100065fe <pll_init+0xaa>
10006598:	9b06      	ldr	r3, [sp, #24]
1000659a:	429f      	cmp	r7, r3
1000659c:	d335      	bcc.n	1000660a <pll_init+0xb6>
1000659e:	464b      	mov	r3, r9
100065a0:	091a      	lsrs	r2, r3, #4
100065a2:	42aa      	cmp	r2, r5
100065a4:	d337      	bcc.n	10006616 <pll_init+0xc2>
100065a6:	043f      	lsls	r7, r7, #16
100065a8:	9b06      	ldr	r3, [sp, #24]
100065aa:	031d      	lsls	r5, r3, #12
100065ac:	432f      	orrs	r7, r5
100065ae:	6823      	ldr	r3, [r4, #0]
100065b0:	2b00      	cmp	r3, #0
100065b2:	db36      	blt.n	10006622 <pll_init+0xce>
100065b4:	4b23      	ldr	r3, [pc, #140]	; (10006644 <pll_init+0xf0>)
100065b6:	429c      	cmp	r4, r3
100065b8:	d041      	beq.n	1000663e <pll_init+0xea>
100065ba:	2280      	movs	r2, #128	; 0x80
100065bc:	0152      	lsls	r2, r2, #5
100065be:	4b22      	ldr	r3, [pc, #136]	; (10006648 <pll_init+0xf4>)
100065c0:	601a      	str	r2, [r3, #0]
100065c2:	4b22      	ldr	r3, [pc, #136]	; (1000664c <pll_init+0xf8>)
100065c4:	601a      	str	r2, [r3, #0]
100065c6:	4b22      	ldr	r3, [pc, #136]	; (10006650 <pll_init+0xfc>)
100065c8:	689b      	ldr	r3, [r3, #8]
100065ca:	0011      	movs	r1, r2
100065cc:	4399      	bics	r1, r3
100065ce:	d1fa      	bne.n	100065c6 <pll_init+0x72>
100065d0:	6026      	str	r6, [r4, #0]
100065d2:	60a0      	str	r0, [r4, #8]
100065d4:	1d23      	adds	r3, r4, #4
100065d6:	22c0      	movs	r2, #192	; 0xc0
100065d8:	0192      	lsls	r2, r2, #6
100065da:	431a      	orrs	r2, r3
100065dc:	2321      	movs	r3, #33	; 0x21
100065de:	6013      	str	r3, [r2, #0]
100065e0:	6823      	ldr	r3, [r4, #0]
100065e2:	2b00      	cmp	r3, #0
100065e4:	dafc      	bge.n	100065e0 <pll_init+0x8c>
100065e6:	60e7      	str	r7, [r4, #12]
100065e8:	2308      	movs	r3, #8
100065ea:	6013      	str	r3, [r2, #0]
100065ec:	bc80      	pop	{r7}
100065ee:	46b9      	mov	r9, r7
100065f0:	bdf0      	pop	{r4, r5, r6, r7, pc}
100065f2:	4b18      	ldr	r3, [pc, #96]	; (10006654 <pll_init+0x100>)
100065f4:	4a18      	ldr	r2, [pc, #96]	; (10006658 <pll_init+0x104>)
100065f6:	2116      	movs	r1, #22
100065f8:	4818      	ldr	r0, [pc, #96]	; (1000665c <pll_init+0x108>)
100065fa:	f7ff fe13 	bl	10006224 <__assert_func>
100065fe:	4b18      	ldr	r3, [pc, #96]	; (10006660 <pll_init+0x10c>)
10006600:	4a15      	ldr	r2, [pc, #84]	; (10006658 <pll_init+0x104>)
10006602:	2119      	movs	r1, #25
10006604:	4815      	ldr	r0, [pc, #84]	; (1000665c <pll_init+0x108>)
10006606:	f7ff fe0d 	bl	10006224 <__assert_func>
1000660a:	4b16      	ldr	r3, [pc, #88]	; (10006664 <pll_init+0x110>)
1000660c:	4a12      	ldr	r2, [pc, #72]	; (10006658 <pll_init+0x104>)
1000660e:	211f      	movs	r1, #31
10006610:	4812      	ldr	r0, [pc, #72]	; (1000665c <pll_init+0x108>)
10006612:	f7ff fe07 	bl	10006224 <__assert_func>
10006616:	4b14      	ldr	r3, [pc, #80]	; (10006668 <pll_init+0x114>)
10006618:	4a0f      	ldr	r2, [pc, #60]	; (10006658 <pll_init+0x104>)
1000661a:	2122      	movs	r1, #34	; 0x22
1000661c:	480f      	ldr	r0, [pc, #60]	; (1000665c <pll_init+0x108>)
1000661e:	f7ff fe01 	bl	10006224 <__assert_func>
10006622:	6822      	ldr	r2, [r4, #0]
10006624:	233f      	movs	r3, #63	; 0x3f
10006626:	4013      	ands	r3, r2
10006628:	42b3      	cmp	r3, r6
1000662a:	d1c3      	bne.n	100065b4 <pll_init+0x60>
1000662c:	68a3      	ldr	r3, [r4, #8]
1000662e:	051b      	lsls	r3, r3, #20
10006630:	0d1b      	lsrs	r3, r3, #20
10006632:	4283      	cmp	r3, r0
10006634:	d1be      	bne.n	100065b4 <pll_init+0x60>
10006636:	68e3      	ldr	r3, [r4, #12]
10006638:	2f00      	cmp	r7, #0
1000663a:	d1bb      	bne.n	100065b4 <pll_init+0x60>
1000663c:	e7d6      	b.n	100065ec <pll_init+0x98>
1000663e:	2280      	movs	r2, #128	; 0x80
10006640:	0192      	lsls	r2, r2, #6
10006642:	e7bc      	b.n	100065be <pll_init+0x6a>
10006644:	4002c000 	.word	0x4002c000
10006648:	4000e000 	.word	0x4000e000
1000664c:	4000f000 	.word	0x4000f000
10006650:	4000c000 	.word	0x4000c000
10006654:	1000d180 	.word	0x1000d180
10006658:	1000d270 	.word	0x1000d270
1000665c:	1000d19c 	.word	0x1000d19c
10006660:	1000d1f0 	.word	0x1000d1f0
10006664:	1000d23c 	.word	0x1000d23c
10006668:	1000d254 	.word	0x1000d254

1000666c <set_raw_irq_handler_and_unlock>:
1000666c:	4b07      	ldr	r3, [pc, #28]	; (1000668c <set_raw_irq_handler_and_unlock+0x20>)
1000666e:	689b      	ldr	r3, [r3, #8]
10006670:	3010      	adds	r0, #16
10006672:	0080      	lsls	r0, r0, #2
10006674:	5019      	str	r1, [r3, r0]
10006676:	f3bf 8f5f 	dmb	sy
1000667a:	f3bf 8f5f 	dmb	sy
1000667e:	4b04      	ldr	r3, [pc, #16]	; (10006690 <set_raw_irq_handler_and_unlock+0x24>)
10006680:	2100      	movs	r1, #0
10006682:	6019      	str	r1, [r3, #0]
10006684:	f382 8810 	msr	PRIMASK, r2
10006688:	4770      	bx	lr
1000668a:	46c0      	nop			; (mov r8, r8)
1000668c:	e000ed00 	.word	0xe000ed00
10006690:	d0000124 	.word	0xd0000124

10006694 <make_branch>:
10006694:	b510      	push	{r4, lr}
10006696:	1a09      	subs	r1, r1, r0
10006698:	3904      	subs	r1, #4
1000669a:	0848      	lsrs	r0, r1, #1
1000669c:	0b09      	lsrs	r1, r1, #12
1000669e:	d105      	bne.n	100066ac <make_branch+0x18>
100066a0:	0540      	lsls	r0, r0, #21
100066a2:	0d40      	lsrs	r0, r0, #21
100066a4:	4b04      	ldr	r3, [pc, #16]	; (100066b8 <make_branch+0x24>)
100066a6:	4318      	orrs	r0, r3
100066a8:	b280      	uxth	r0, r0
100066aa:	bd10      	pop	{r4, pc}
100066ac:	4b03      	ldr	r3, [pc, #12]	; (100066bc <make_branch+0x28>)
100066ae:	4a04      	ldr	r2, [pc, #16]	; (100066c0 <make_branch+0x2c>)
100066b0:	218c      	movs	r1, #140	; 0x8c
100066b2:	4804      	ldr	r0, [pc, #16]	; (100066c4 <make_branch+0x30>)
100066b4:	f7ff fdb6 	bl	10006224 <__assert_func>
100066b8:	ffffe000 	.word	0xffffe000
100066bc:	1000d27c 	.word	0x1000d27c
100066c0:	1000d49c 	.word	0x1000d49c
100066c4:	1000d28c 	.word	0x1000d28c

100066c8 <insert_branch_and_link>:
100066c8:	b510      	push	{r4, lr}
100066ca:	1a09      	subs	r1, r1, r0
100066cc:	3904      	subs	r1, #4
100066ce:	084c      	lsrs	r4, r1, #1
100066d0:	0b09      	lsrs	r1, r1, #12
100066d2:	d108      	bne.n	100066e6 <insert_branch_and_link+0x1e>
100066d4:	0549      	lsls	r1, r1, #21
100066d6:	0d49      	lsrs	r1, r1, #21
100066d8:	4a06      	ldr	r2, [pc, #24]	; (100066f4 <insert_branch_and_link+0x2c>)
100066da:	4311      	orrs	r1, r2
100066dc:	8001      	strh	r1, [r0, #0]
100066de:	4b06      	ldr	r3, [pc, #24]	; (100066f8 <insert_branch_and_link+0x30>)
100066e0:	4323      	orrs	r3, r4
100066e2:	8043      	strh	r3, [r0, #2]
100066e4:	bd10      	pop	{r4, pc}
100066e6:	4b05      	ldr	r3, [pc, #20]	; (100066fc <insert_branch_and_link+0x34>)
100066e8:	4a05      	ldr	r2, [pc, #20]	; (10006700 <insert_branch_and_link+0x38>)
100066ea:	2194      	movs	r1, #148	; 0x94
100066ec:	4805      	ldr	r0, [pc, #20]	; (10006704 <insert_branch_and_link+0x3c>)
100066ee:	f7ff fd99 	bl	10006224 <__assert_func>
100066f2:	46c0      	nop			; (mov r8, r8)
100066f4:	fffff000 	.word	0xfffff000
100066f8:	fffff800 	.word	0xfffff800
100066fc:	1000d27c 	.word	0x1000d27c
10006700:	1000d470 	.word	0x1000d470
10006704:	1000d28c 	.word	0x1000d28c

10006708 <irq_is_enabled>:
10006708:	2301      	movs	r3, #1
1000670a:	4083      	lsls	r3, r0
1000670c:	4a03      	ldr	r2, [pc, #12]	; (1000671c <irq_is_enabled+0x14>)
1000670e:	6810      	ldr	r0, [r2, #0]
10006710:	4018      	ands	r0, r3
10006712:	1e43      	subs	r3, r0, #1
10006714:	4198      	sbcs	r0, r3
10006716:	b2c0      	uxtb	r0, r0
10006718:	4770      	bx	lr
1000671a:	46c0      	nop			; (mov r8, r8)
1000671c:	e000e100 	.word	0xe000e100

10006720 <irq_set_mask_enabled>:
10006720:	2900      	cmp	r1, #0
10006722:	d004      	beq.n	1000672e <irq_set_mask_enabled+0xe>
10006724:	4b03      	ldr	r3, [pc, #12]	; (10006734 <irq_set_mask_enabled+0x14>)
10006726:	6018      	str	r0, [r3, #0]
10006728:	4b03      	ldr	r3, [pc, #12]	; (10006738 <irq_set_mask_enabled+0x18>)
1000672a:	6018      	str	r0, [r3, #0]
1000672c:	4770      	bx	lr
1000672e:	4b03      	ldr	r3, [pc, #12]	; (1000673c <irq_set_mask_enabled+0x1c>)
10006730:	6018      	str	r0, [r3, #0]
10006732:	e7fb      	b.n	1000672c <irq_set_mask_enabled+0xc>
10006734:	e000e280 	.word	0xe000e280
10006738:	e000e100 	.word	0xe000e100
1000673c:	e000e180 	.word	0xe000e180

10006740 <irq_set_enabled>:
10006740:	b510      	push	{r4, lr}
10006742:	2301      	movs	r3, #1
10006744:	4083      	lsls	r3, r0
10006746:	0018      	movs	r0, r3
10006748:	f7ff ffea 	bl	10006720 <irq_set_mask_enabled>
1000674c:	bd10      	pop	{r4, pc}
	...

10006750 <irq_get_vtable_handler>:
10006750:	4b02      	ldr	r3, [pc, #8]	; (1000675c <irq_get_vtable_handler+0xc>)
10006752:	689b      	ldr	r3, [r3, #8]
10006754:	3010      	adds	r0, #16
10006756:	0080      	lsls	r0, r0, #2
10006758:	58c0      	ldr	r0, [r0, r3]
1000675a:	4770      	bx	lr
1000675c:	e000ed00 	.word	0xe000ed00

10006760 <irq_set_exclusive_handler>:
10006760:	b570      	push	{r4, r5, r6, lr}
10006762:	0004      	movs	r4, r0
10006764:	000d      	movs	r5, r1
10006766:	f3ef 8610 	mrs	r6, PRIMASK
1000676a:	b672      	cpsid	i
1000676c:	4b0c      	ldr	r3, [pc, #48]	; (100067a0 <irq_set_exclusive_handler+0x40>)
1000676e:	681b      	ldr	r3, [r3, #0]
10006770:	2b00      	cmp	r3, #0
10006772:	d0fb      	beq.n	1000676c <irq_set_exclusive_handler+0xc>
10006774:	f3bf 8f5f 	dmb	sy
10006778:	0020      	movs	r0, r4
1000677a:	f7ff ffe9 	bl	10006750 <irq_get_vtable_handler>
1000677e:	4b09      	ldr	r3, [pc, #36]	; (100067a4 <irq_set_exclusive_handler+0x44>)
10006780:	4298      	cmp	r0, r3
10006782:	d001      	beq.n	10006788 <irq_set_exclusive_handler+0x28>
10006784:	42a8      	cmp	r0, r5
10006786:	d105      	bne.n	10006794 <irq_set_exclusive_handler+0x34>
10006788:	0032      	movs	r2, r6
1000678a:	0029      	movs	r1, r5
1000678c:	0020      	movs	r0, r4
1000678e:	f7ff ff6d 	bl	1000666c <set_raw_irq_handler_and_unlock>
10006792:	bd70      	pop	{r4, r5, r6, pc}
10006794:	4b04      	ldr	r3, [pc, #16]	; (100067a8 <irq_set_exclusive_handler+0x48>)
10006796:	4a05      	ldr	r2, [pc, #20]	; (100067ac <irq_set_exclusive_handler+0x4c>)
10006798:	2170      	movs	r1, #112	; 0x70
1000679a:	4805      	ldr	r0, [pc, #20]	; (100067b0 <irq_set_exclusive_handler+0x50>)
1000679c:	f7ff fd42 	bl	10006224 <__assert_func>
100067a0:	d0000124 	.word	0xd0000124
100067a4:	100001cd 	.word	0x100001cd
100067a8:	1000d2e0 	.word	0x1000d2e0
100067ac:	1000d4b8 	.word	0x1000d4b8
100067b0:	1000d28c 	.word	0x1000d28c

100067b4 <irq_remove_handler>:
100067b4:	b5f0      	push	{r4, r5, r6, r7, lr}
100067b6:	46ce      	mov	lr, r9
100067b8:	4647      	mov	r7, r8
100067ba:	b580      	push	{r7, lr}
100067bc:	b083      	sub	sp, #12
100067be:	0006      	movs	r6, r0
100067c0:	000d      	movs	r5, r1
100067c2:	f3ef 8810 	mrs	r8, PRIMASK
100067c6:	b672      	cpsid	i
100067c8:	4b57      	ldr	r3, [pc, #348]	; (10006928 <irq_remove_handler+0x174>)
100067ca:	681b      	ldr	r3, [r3, #0]
100067cc:	2b00      	cmp	r3, #0
100067ce:	d0fb      	beq.n	100067c8 <irq_remove_handler+0x14>
100067d0:	f3bf 8f5f 	dmb	sy
100067d4:	4b55      	ldr	r3, [pc, #340]	; (1000692c <irq_remove_handler+0x178>)
100067d6:	689a      	ldr	r2, [r3, #8]
100067d8:	0034      	movs	r4, r6
100067da:	3410      	adds	r4, #16
100067dc:	00a3      	lsls	r3, r4, #2
100067de:	58d7      	ldr	r7, [r2, r3]
100067e0:	4b53      	ldr	r3, [pc, #332]	; (10006930 <irq_remove_handler+0x17c>)
100067e2:	429f      	cmp	r7, r3
100067e4:	d007      	beq.n	100067f6 <irq_remove_handler+0x42>
100067e6:	42af      	cmp	r7, r5
100067e8:	d100      	bne.n	100067ec <irq_remove_handler+0x38>
100067ea:	e09b      	b.n	10006924 <irq_remove_handler+0x170>
100067ec:	9701      	str	r7, [sp, #4]
100067ee:	4b51      	ldr	r3, [pc, #324]	; (10006934 <irq_remove_handler+0x180>)
100067f0:	1afb      	subs	r3, r7, r3
100067f2:	2b2f      	cmp	r3, #47	; 0x2f
100067f4:	d909      	bls.n	1000680a <irq_remove_handler+0x56>
100067f6:	4642      	mov	r2, r8
100067f8:	0039      	movs	r1, r7
100067fa:	0030      	movs	r0, r6
100067fc:	f7ff ff36 	bl	1000666c <set_raw_irq_handler_and_unlock>
10006800:	b003      	add	sp, #12
10006802:	bcc0      	pop	{r6, r7}
10006804:	46b9      	mov	r9, r7
10006806:	46b0      	mov	r8, r6
10006808:	bdf0      	pop	{r4, r5, r6, r7, pc}
1000680a:	0030      	movs	r0, r6
1000680c:	f7ff ff7c 	bl	10006708 <irq_is_enabled>
10006810:	4681      	mov	r9, r0
10006812:	2100      	movs	r1, #0
10006814:	0030      	movs	r0, r6
10006816:	f7ff ff93 	bl	10006740 <irq_set_enabled>
1000681a:	f3bf 8f5f 	dmb	sy
1000681e:	f7f9 fd22 	bl	10000266 <__get_current_exception>
10006822:	2800      	cmp	r0, #0
10006824:	d001      	beq.n	1000682a <irq_remove_handler+0x76>
10006826:	4284      	cmp	r4, r0
10006828:	d119      	bne.n	1000685e <irq_remove_handler+0xaa>
1000682a:	2301      	movs	r3, #1
1000682c:	9c01      	ldr	r4, [sp, #4]
1000682e:	439c      	bics	r4, r3
10006830:	0023      	movs	r3, r4
10006832:	4940      	ldr	r1, [pc, #256]	; (10006934 <irq_remove_handler+0x180>)
10006834:	1a5b      	subs	r3, r3, r1
10006836:	415b      	adcs	r3, r3
10006838:	4948      	ldr	r1, [pc, #288]	; (1000695c <irq_remove_handler+0x1a8>)
1000683a:	4359      	muls	r1, r3
1000683c:	0d09      	lsrs	r1, r1, #20
1000683e:	b249      	sxtb	r1, r1
10006840:	2200      	movs	r2, #0
10006842:	68a3      	ldr	r3, [r4, #8]
10006844:	42ab      	cmp	r3, r5
10006846:	d012      	beq.n	1000686e <irq_remove_handler+0xba>
10006848:	2206      	movs	r2, #6
1000684a:	56a2      	ldrsb	r2, [r4, r2]
1000684c:	2a00      	cmp	r2, #0
1000684e:	db0d      	blt.n	1000686c <irq_remove_handler+0xb8>
10006850:	0053      	lsls	r3, r2, #1
10006852:	189b      	adds	r3, r3, r2
10006854:	009b      	lsls	r3, r3, #2
10006856:	0022      	movs	r2, r4
10006858:	4c36      	ldr	r4, [pc, #216]	; (10006934 <irq_remove_handler+0x180>)
1000685a:	18e4      	adds	r4, r4, r3
1000685c:	e7f1      	b.n	10006842 <irq_remove_handler+0x8e>
1000685e:	2120      	movs	r1, #32
10006860:	4b35      	ldr	r3, [pc, #212]	; (10006938 <irq_remove_handler+0x184>)
10006862:	4a36      	ldr	r2, [pc, #216]	; (1000693c <irq_remove_handler+0x188>)
10006864:	31ff      	adds	r1, #255	; 0xff
10006866:	4836      	ldr	r0, [pc, #216]	; (10006940 <irq_remove_handler+0x18c>)
10006868:	f7ff fcdc 	bl	10006224 <__assert_func>
1000686c:	0022      	movs	r2, r4
1000686e:	42ab      	cmp	r3, r5
10006870:	d151      	bne.n	10006916 <irq_remove_handler+0x162>
10006872:	2506      	movs	r5, #6
10006874:	5765      	ldrsb	r5, [r4, r5]
10006876:	2d00      	cmp	r5, #0
10006878:	db39      	blt.n	100068ee <irq_remove_handler+0x13a>
1000687a:	006b      	lsls	r3, r5, #1
1000687c:	195b      	adds	r3, r3, r5
1000687e:	009a      	lsls	r2, r3, #2
10006880:	4b2c      	ldr	r3, [pc, #176]	; (10006934 <irq_remove_handler+0x180>)
10006882:	189b      	adds	r3, r3, r2
10006884:	689a      	ldr	r2, [r3, #8]
10006886:	60a2      	str	r2, [r4, #8]
10006888:	79da      	ldrb	r2, [r3, #7]
1000688a:	71e2      	strb	r2, [r4, #7]
1000688c:	2206      	movs	r2, #6
1000688e:	569a      	ldrsb	r2, [r3, r2]
10006890:	71a2      	strb	r2, [r4, #6]
10006892:	799b      	ldrb	r3, [r3, #6]
10006894:	b25b      	sxtb	r3, r3
10006896:	2b00      	cmp	r3, #0
10006898:	da10      	bge.n	100068bc <irq_remove_handler+0x108>
1000689a:	20bd      	movs	r0, #189	; 0xbd
1000689c:	0200      	lsls	r0, r0, #8
1000689e:	80a0      	strh	r0, [r4, #4]
100068a0:	006b      	lsls	r3, r5, #1
100068a2:	195b      	adds	r3, r3, r5
100068a4:	009b      	lsls	r3, r3, #2
100068a6:	4a23      	ldr	r2, [pc, #140]	; (10006934 <irq_remove_handler+0x180>)
100068a8:	18d3      	adds	r3, r2, r3
100068aa:	4a26      	ldr	r2, [pc, #152]	; (10006944 <irq_remove_handler+0x190>)
100068ac:	7811      	ldrb	r1, [r2, #0]
100068ae:	7199      	strb	r1, [r3, #6]
100068b0:	7015      	strb	r5, [r2, #0]
100068b2:	4649      	mov	r1, r9
100068b4:	0030      	movs	r0, r6
100068b6:	f7ff ff43 	bl	10006740 <irq_set_enabled>
100068ba:	e79c      	b.n	100067f6 <irq_remove_handler+0x42>
100068bc:	1d20      	adds	r0, r4, #4
100068be:	006b      	lsls	r3, r5, #1
100068c0:	195b      	adds	r3, r3, r5
100068c2:	009b      	lsls	r3, r3, #2
100068c4:	4a1b      	ldr	r2, [pc, #108]	; (10006934 <irq_remove_handler+0x180>)
100068c6:	189b      	adds	r3, r3, r2
100068c8:	1d1a      	adds	r2, r3, #4
100068ca:	889b      	ldrh	r3, [r3, #4]
100068cc:	0ad9      	lsrs	r1, r3, #11
100068ce:	291c      	cmp	r1, #28
100068d0:	d107      	bne.n	100068e2 <irq_remove_handler+0x12e>
100068d2:	055b      	lsls	r3, r3, #21
100068d4:	155b      	asrs	r3, r3, #21
100068d6:	3302      	adds	r3, #2
100068d8:	0059      	lsls	r1, r3, #1
100068da:	1851      	adds	r1, r2, r1
100068dc:	f7ff feda 	bl	10006694 <make_branch>
100068e0:	e7dd      	b.n	1000689e <irq_remove_handler+0xea>
100068e2:	4b19      	ldr	r3, [pc, #100]	; (10006948 <irq_remove_handler+0x194>)
100068e4:	4a19      	ldr	r2, [pc, #100]	; (1000694c <irq_remove_handler+0x198>)
100068e6:	219a      	movs	r1, #154	; 0x9a
100068e8:	4815      	ldr	r0, [pc, #84]	; (10006940 <irq_remove_handler+0x18c>)
100068ea:	f7ff fc9b 	bl	10006224 <__assert_func>
100068ee:	2800      	cmp	r0, #0
100068f0:	d10c      	bne.n	1000690c <irq_remove_handler+0x158>
100068f2:	2a00      	cmp	r2, #0
100068f4:	d008      	beq.n	10006908 <irq_remove_handler+0x154>
100068f6:	23ff      	movs	r3, #255	; 0xff
100068f8:	7193      	strb	r3, [r2, #6]
100068fa:	4b15      	ldr	r3, [pc, #84]	; (10006950 <irq_remove_handler+0x19c>)
100068fc:	8093      	strh	r3, [r2, #4]
100068fe:	4b11      	ldr	r3, [pc, #68]	; (10006944 <irq_remove_handler+0x190>)
10006900:	781a      	ldrb	r2, [r3, #0]
10006902:	71a2      	strb	r2, [r4, #6]
10006904:	7019      	strb	r1, [r3, #0]
10006906:	e7d4      	b.n	100068b2 <irq_remove_handler+0xfe>
10006908:	4f09      	ldr	r7, [pc, #36]	; (10006930 <irq_remove_handler+0x17c>)
1000690a:	e7f8      	b.n	100068fe <irq_remove_handler+0x14a>
1000690c:	1d20      	adds	r0, r4, #4
1000690e:	4911      	ldr	r1, [pc, #68]	; (10006954 <irq_remove_handler+0x1a0>)
10006910:	f7ff feda 	bl	100066c8 <insert_branch_and_link>
10006914:	e7cd      	b.n	100068b2 <irq_remove_handler+0xfe>
10006916:	21aa      	movs	r1, #170	; 0xaa
10006918:	4b0f      	ldr	r3, [pc, #60]	; (10006958 <irq_remove_handler+0x1a4>)
1000691a:	4a08      	ldr	r2, [pc, #32]	; (1000693c <irq_remove_handler+0x188>)
1000691c:	0049      	lsls	r1, r1, #1
1000691e:	4808      	ldr	r0, [pc, #32]	; (10006940 <irq_remove_handler+0x18c>)
10006920:	f7ff fc80 	bl	10006224 <__assert_func>
10006924:	4f02      	ldr	r7, [pc, #8]	; (10006930 <irq_remove_handler+0x17c>)
10006926:	e766      	b.n	100067f6 <irq_remove_handler+0x42>
10006928:	d0000124 	.word	0xd0000124
1000692c:	e000ed00 	.word	0xe000ed00
10006930:	100001cd 	.word	0x100001cd
10006934:	20000ad8 	.word	0x20000ad8
10006938:	1000d3f4 	.word	0x1000d3f4
1000693c:	1000d488 	.word	0x1000d488
10006940:	1000d28c 	.word	0x1000d28c
10006944:	20002610 	.word	0x20002610
10006948:	1000d3dc 	.word	0x1000d3dc
1000694c:	1000d4a8 	.word	0x1000d4a8
10006950:	ffffbd00 	.word	0xffffbd00
10006954:	20000b12 	.word	0x20000b12
10006958:	1000d418 	.word	0x1000d418
1000695c:	0000aaaa 	.word	0x0000aaaa

10006960 <irq_set_priority>:
10006960:	b510      	push	{r4, lr}
10006962:	2303      	movs	r3, #3
10006964:	0004      	movs	r4, r0
10006966:	439c      	bics	r4, r3
10006968:	4a06      	ldr	r2, [pc, #24]	; (10006984 <irq_set_priority+0x24>)
1000696a:	4694      	mov	ip, r2
1000696c:	4464      	add	r4, ip
1000696e:	6822      	ldr	r2, [r4, #0]
10006970:	4018      	ands	r0, r3
10006972:	00c0      	lsls	r0, r0, #3
10006974:	33fc      	adds	r3, #252	; 0xfc
10006976:	4083      	lsls	r3, r0
10006978:	439a      	bics	r2, r3
1000697a:	0013      	movs	r3, r2
1000697c:	4081      	lsls	r1, r0
1000697e:	430b      	orrs	r3, r1
10006980:	6023      	str	r3, [r4, #0]
10006982:	bd10      	pop	{r4, pc}
10006984:	e000e400 	.word	0xe000e400

10006988 <irq_add_tail_to_free_list>:
10006988:	b570      	push	{r4, r5, r6, lr}
1000698a:	0004      	movs	r4, r0
1000698c:	2601      	movs	r6, #1
1000698e:	4306      	orrs	r6, r0
10006990:	4b2d      	ldr	r3, [pc, #180]	; (10006a48 <irq_add_tail_to_free_list+0xc0>)
10006992:	1af3      	subs	r3, r6, r3
10006994:	2b2f      	cmp	r3, #47	; 0x2f
10006996:	d828      	bhi.n	100069ea <irq_add_tail_to_free_list+0x62>
10006998:	f7f9 fc65 	bl	10000266 <__get_current_exception>
1000699c:	2800      	cmp	r0, #0
1000699e:	d02b      	beq.n	100069f8 <irq_add_tail_to_free_list+0x70>
100069a0:	f3ef 8c10 	mrs	ip, PRIMASK
100069a4:	b672      	cpsid	i
100069a6:	4b29      	ldr	r3, [pc, #164]	; (10006a4c <irq_add_tail_to_free_list+0xc4>)
100069a8:	681b      	ldr	r3, [r3, #0]
100069aa:	2b00      	cmp	r3, #0
100069ac:	d0fb      	beq.n	100069a6 <irq_add_tail_to_free_list+0x1e>
100069ae:	f3bf 8f5f 	dmb	sy
100069b2:	0023      	movs	r3, r4
100069b4:	4d24      	ldr	r5, [pc, #144]	; (10006a48 <irq_add_tail_to_free_list+0xc0>)
100069b6:	1b5b      	subs	r3, r3, r5
100069b8:	415b      	adcs	r3, r3
100069ba:	4d2e      	ldr	r5, [pc, #184]	; (10006a74 <irq_add_tail_to_free_list+0xec>)
100069bc:	435d      	muls	r5, r3
100069be:	0d2d      	lsrs	r5, r5, #20
100069c0:	b26d      	sxtb	r5, r5
100069c2:	4b23      	ldr	r3, [pc, #140]	; (10006a50 <irq_add_tail_to_free_list+0xc8>)
100069c4:	689b      	ldr	r3, [r3, #8]
100069c6:	0080      	lsls	r0, r0, #2
100069c8:	581b      	ldr	r3, [r3, r0]
100069ca:	42b3      	cmp	r3, r6
100069cc:	d01b      	beq.n	10006a06 <irq_add_tail_to_free_list+0x7e>
100069ce:	2200      	movs	r2, #0
100069d0:	2a03      	cmp	r2, #3
100069d2:	d832      	bhi.n	10006a3a <irq_add_tail_to_free_list+0xb2>
100069d4:	0053      	lsls	r3, r2, #1
100069d6:	189b      	adds	r3, r3, r2
100069d8:	009b      	lsls	r3, r3, #2
100069da:	491b      	ldr	r1, [pc, #108]	; (10006a48 <irq_add_tail_to_free_list+0xc0>)
100069dc:	18cb      	adds	r3, r1, r3
100069de:	799b      	ldrb	r3, [r3, #6]
100069e0:	b25b      	sxtb	r3, r3
100069e2:	42ab      	cmp	r3, r5
100069e4:	d01f      	beq.n	10006a26 <irq_add_tail_to_free_list+0x9e>
100069e6:	3201      	adds	r2, #1
100069e8:	e7f2      	b.n	100069d0 <irq_add_tail_to_free_list+0x48>
100069ea:	2172      	movs	r1, #114	; 0x72
100069ec:	4b19      	ldr	r3, [pc, #100]	; (10006a54 <irq_add_tail_to_free_list+0xcc>)
100069ee:	4a1a      	ldr	r2, [pc, #104]	; (10006a58 <irq_add_tail_to_free_list+0xd0>)
100069f0:	31ff      	adds	r1, #255	; 0xff
100069f2:	481a      	ldr	r0, [pc, #104]	; (10006a5c <irq_add_tail_to_free_list+0xd4>)
100069f4:	f7ff fc16 	bl	10006224 <__assert_func>
100069f8:	21ba      	movs	r1, #186	; 0xba
100069fa:	4b19      	ldr	r3, [pc, #100]	; (10006a60 <irq_add_tail_to_free_list+0xd8>)
100069fc:	4a16      	ldr	r2, [pc, #88]	; (10006a58 <irq_add_tail_to_free_list+0xd0>)
100069fe:	0049      	lsls	r1, r1, #1
10006a00:	4816      	ldr	r0, [pc, #88]	; (10006a5c <irq_add_tail_to_free_list+0xd4>)
10006a02:	f7ff fc0f 	bl	10006224 <__assert_func>
10006a06:	4b12      	ldr	r3, [pc, #72]	; (10006a50 <irq_add_tail_to_free_list+0xc8>)
10006a08:	689b      	ldr	r3, [r3, #8]
10006a0a:	4a16      	ldr	r2, [pc, #88]	; (10006a64 <irq_add_tail_to_free_list+0xdc>)
10006a0c:	501a      	str	r2, [r3, r0]
10006a0e:	4b16      	ldr	r3, [pc, #88]	; (10006a68 <irq_add_tail_to_free_list+0xe0>)
10006a10:	781a      	ldrb	r2, [r3, #0]
10006a12:	71a2      	strb	r2, [r4, #6]
10006a14:	701d      	strb	r5, [r3, #0]
10006a16:	f3bf 8f5f 	dmb	sy
10006a1a:	4b0c      	ldr	r3, [pc, #48]	; (10006a4c <irq_add_tail_to_free_list+0xc4>)
10006a1c:	2200      	movs	r2, #0
10006a1e:	601a      	str	r2, [r3, #0]
10006a20:	f38c 8810 	msr	PRIMASK, ip
10006a24:	bd70      	pop	{r4, r5, r6, pc}
10006a26:	0008      	movs	r0, r1
10006a28:	0053      	lsls	r3, r2, #1
10006a2a:	1899      	adds	r1, r3, r2
10006a2c:	0089      	lsls	r1, r1, #2
10006a2e:	1841      	adds	r1, r0, r1
10006a30:	26ff      	movs	r6, #255	; 0xff
10006a32:	718e      	strb	r6, [r1, #6]
10006a34:	4a0d      	ldr	r2, [pc, #52]	; (10006a6c <irq_add_tail_to_free_list+0xe4>)
10006a36:	808a      	strh	r2, [r1, #4]
10006a38:	e7e9      	b.n	10006a0e <irq_add_tail_to_free_list+0x86>
10006a3a:	2186      	movs	r1, #134	; 0x86
10006a3c:	4b0c      	ldr	r3, [pc, #48]	; (10006a70 <irq_add_tail_to_free_list+0xe8>)
10006a3e:	4a06      	ldr	r2, [pc, #24]	; (10006a58 <irq_add_tail_to_free_list+0xd0>)
10006a40:	31ff      	adds	r1, #255	; 0xff
10006a42:	4806      	ldr	r0, [pc, #24]	; (10006a5c <irq_add_tail_to_free_list+0xd4>)
10006a44:	f7ff fbee 	bl	10006224 <__assert_func>
10006a48:	20000ad8 	.word	0x20000ad8
10006a4c:	d0000124 	.word	0xd0000124
10006a50:	e000ed00 	.word	0xe000ed00
10006a54:	1000d420 	.word	0x1000d420
10006a58:	1000d454 	.word	0x1000d454
10006a5c:	1000d28c 	.word	0x1000d28c
10006a60:	1000d448 	.word	0x1000d448
10006a64:	100001cd 	.word	0x100001cd
10006a68:	20002610 	.word	0x20002610
10006a6c:	ffffbd00 	.word	0xffffbd00
10006a70:	1000d040 	.word	0x1000d040
10006a74:	0000aaaa 	.word	0x0000aaaa

10006a78 <irq_init_priorities>:
10006a78:	b510      	push	{r4, lr}
10006a7a:	2400      	movs	r4, #0
10006a7c:	e004      	b.n	10006a88 <irq_init_priorities+0x10>
10006a7e:	2180      	movs	r1, #128	; 0x80
10006a80:	0020      	movs	r0, r4
10006a82:	f7ff ff6d 	bl	10006960 <irq_set_priority>
10006a86:	3401      	adds	r4, #1
10006a88:	2c1f      	cmp	r4, #31
10006a8a:	d9f8      	bls.n	10006a7e <irq_init_priorities+0x6>
10006a8c:	bd10      	pop	{r4, pc}

10006a8e <_out_null>:
10006a8e:	4770      	bx	lr

10006a90 <_out_fct>:
10006a90:	b510      	push	{r4, lr}
10006a92:	2800      	cmp	r0, #0
10006a94:	d002      	beq.n	10006a9c <_out_fct+0xc>
10006a96:	680b      	ldr	r3, [r1, #0]
10006a98:	6849      	ldr	r1, [r1, #4]
10006a9a:	4798      	blx	r3
10006a9c:	bd10      	pop	{r4, pc}

10006a9e <_atoi>:
10006a9e:	0001      	movs	r1, r0
10006aa0:	2000      	movs	r0, #0
10006aa2:	e007      	b.n	10006ab4 <_atoi+0x16>
10006aa4:	0083      	lsls	r3, r0, #2
10006aa6:	181b      	adds	r3, r3, r0
10006aa8:	005b      	lsls	r3, r3, #1
10006aaa:	1c50      	adds	r0, r2, #1
10006aac:	6008      	str	r0, [r1, #0]
10006aae:	7810      	ldrb	r0, [r2, #0]
10006ab0:	18c0      	adds	r0, r0, r3
10006ab2:	3830      	subs	r0, #48	; 0x30
10006ab4:	680a      	ldr	r2, [r1, #0]
10006ab6:	7813      	ldrb	r3, [r2, #0]
10006ab8:	3b30      	subs	r3, #48	; 0x30
10006aba:	b2db      	uxtb	r3, r3
10006abc:	2b09      	cmp	r3, #9
10006abe:	d9f1      	bls.n	10006aa4 <_atoi+0x6>
10006ac0:	4770      	bx	lr

10006ac2 <_out_rev>:
10006ac2:	b5f0      	push	{r4, r5, r6, r7, lr}
10006ac4:	46de      	mov	lr, fp
10006ac6:	4657      	mov	r7, sl
10006ac8:	464e      	mov	r6, r9
10006aca:	4645      	mov	r5, r8
10006acc:	b5e0      	push	{r5, r6, r7, lr}
10006ace:	b083      	sub	sp, #12
10006ad0:	4693      	mov	fp, r2
10006ad2:	001f      	movs	r7, r3
10006ad4:	9b0c      	ldr	r3, [sp, #48]	; 0x30
10006ad6:	469a      	mov	sl, r3
10006ad8:	9c0d      	ldr	r4, [sp, #52]	; 0x34
10006ada:	9b0e      	ldr	r3, [sp, #56]	; 0x38
10006adc:	4699      	mov	r9, r3
10006ade:	9b0f      	ldr	r3, [sp, #60]	; 0x3c
10006ae0:	079b      	lsls	r3, r3, #30
10006ae2:	d003      	beq.n	10006aec <_out_rev+0x2a>
10006ae4:	46b8      	mov	r8, r7
10006ae6:	000f      	movs	r7, r1
10006ae8:	0006      	movs	r6, r0
10006aea:	e022      	b.n	10006b32 <_out_rev+0x70>
10006aec:	9201      	str	r2, [sp, #4]
10006aee:	46a3      	mov	fp, r4
10006af0:	4688      	mov	r8, r1
10006af2:	464e      	mov	r6, r9
10006af4:	46b9      	mov	r9, r7
10006af6:	0007      	movs	r7, r0
10006af8:	42b4      	cmp	r4, r6
10006afa:	d207      	bcs.n	10006b0c <_out_rev+0x4a>
10006afc:	1c55      	adds	r5, r2, #1
10006afe:	464b      	mov	r3, r9
10006b00:	4641      	mov	r1, r8
10006b02:	2020      	movs	r0, #32
10006b04:	47b8      	blx	r7
10006b06:	3401      	adds	r4, #1
10006b08:	002a      	movs	r2, r5
10006b0a:	e7f5      	b.n	10006af8 <_out_rev+0x36>
10006b0c:	003d      	movs	r5, r7
10006b0e:	464f      	mov	r7, r9
10006b10:	465c      	mov	r4, fp
10006b12:	9b01      	ldr	r3, [sp, #4]
10006b14:	469b      	mov	fp, r3
10006b16:	46b1      	mov	r9, r6
10006b18:	4646      	mov	r6, r8
10006b1a:	46b8      	mov	r8, r7
10006b1c:	0037      	movs	r7, r6
10006b1e:	002e      	movs	r6, r5
10006b20:	e007      	b.n	10006b32 <_out_rev+0x70>
10006b22:	3c01      	subs	r4, #1
10006b24:	1c55      	adds	r5, r2, #1
10006b26:	4653      	mov	r3, sl
10006b28:	5d18      	ldrb	r0, [r3, r4]
10006b2a:	4643      	mov	r3, r8
10006b2c:	0039      	movs	r1, r7
10006b2e:	47b0      	blx	r6
10006b30:	002a      	movs	r2, r5
10006b32:	2c00      	cmp	r4, #0
10006b34:	d1f5      	bne.n	10006b22 <_out_rev+0x60>
10006b36:	0035      	movs	r5, r6
10006b38:	003e      	movs	r6, r7
10006b3a:	4647      	mov	r7, r8
10006b3c:	9b0f      	ldr	r3, [sp, #60]	; 0x3c
10006b3e:	079b      	lsls	r3, r3, #30
10006b40:	d407      	bmi.n	10006b52 <_out_rev+0x90>
10006b42:	0010      	movs	r0, r2
10006b44:	b003      	add	sp, #12
10006b46:	bcf0      	pop	{r4, r5, r6, r7}
10006b48:	46bb      	mov	fp, r7
10006b4a:	46b2      	mov	sl, r6
10006b4c:	46a9      	mov	r9, r5
10006b4e:	46a0      	mov	r8, r4
10006b50:	bdf0      	pop	{r4, r5, r6, r7, pc}
10006b52:	46b0      	mov	r8, r6
10006b54:	464e      	mov	r6, r9
10006b56:	46b9      	mov	r9, r7
10006b58:	002f      	movs	r7, r5
10006b5a:	465d      	mov	r5, fp
10006b5c:	1b53      	subs	r3, r2, r5
10006b5e:	42b3      	cmp	r3, r6
10006b60:	d2ef      	bcs.n	10006b42 <_out_rev+0x80>
10006b62:	1c54      	adds	r4, r2, #1
10006b64:	464b      	mov	r3, r9
10006b66:	4641      	mov	r1, r8
10006b68:	2020      	movs	r0, #32
10006b6a:	47b8      	blx	r7
10006b6c:	0022      	movs	r2, r4
10006b6e:	e7f5      	b.n	10006b5c <_out_rev+0x9a>

10006b70 <_ntoa_format>:
10006b70:	b5f0      	push	{r4, r5, r6, r7, lr}
10006b72:	46ce      	mov	lr, r9
10006b74:	4647      	mov	r7, r8
10006b76:	b580      	push	{r7, lr}
10006b78:	b085      	sub	sp, #20
10006b7a:	4694      	mov	ip, r2
10006b7c:	4698      	mov	r8, r3
10006b7e:	9d0c      	ldr	r5, [sp, #48]	; 0x30
10006b80:	9c0d      	ldr	r4, [sp, #52]	; 0x34
10006b82:	ab0e      	add	r3, sp, #56	; 0x38
10006b84:	781b      	ldrb	r3, [r3, #0]
10006b86:	4699      	mov	r9, r3
10006b88:	9a10      	ldr	r2, [sp, #64]	; 0x40
10006b8a:	9b11      	ldr	r3, [sp, #68]	; 0x44
10006b8c:	9e12      	ldr	r6, [sp, #72]	; 0x48
10006b8e:	07b7      	lsls	r7, r6, #30
10006b90:	d41c      	bmi.n	10006bcc <_ntoa_format+0x5c>
10006b92:	2b00      	cmp	r3, #0
10006b94:	d00c      	beq.n	10006bb0 <_ntoa_format+0x40>
10006b96:	07f7      	lsls	r7, r6, #31
10006b98:	d50a      	bpl.n	10006bb0 <_ntoa_format+0x40>
10006b9a:	464f      	mov	r7, r9
10006b9c:	2f00      	cmp	r7, #0
10006b9e:	d102      	bne.n	10006ba6 <_ntoa_format+0x36>
10006ba0:	370c      	adds	r7, #12
10006ba2:	4237      	tst	r7, r6
10006ba4:	d004      	beq.n	10006bb0 <_ntoa_format+0x40>
10006ba6:	3b01      	subs	r3, #1
10006ba8:	e002      	b.n	10006bb0 <_ntoa_format+0x40>
10006baa:	2730      	movs	r7, #48	; 0x30
10006bac:	552f      	strb	r7, [r5, r4]
10006bae:	3401      	adds	r4, #1
10006bb0:	4294      	cmp	r4, r2
10006bb2:	d201      	bcs.n	10006bb8 <_ntoa_format+0x48>
10006bb4:	2c1f      	cmp	r4, #31
10006bb6:	d9f8      	bls.n	10006baa <_ntoa_format+0x3a>
10006bb8:	07f7      	lsls	r7, r6, #31
10006bba:	d507      	bpl.n	10006bcc <_ntoa_format+0x5c>
10006bbc:	429c      	cmp	r4, r3
10006bbe:	d205      	bcs.n	10006bcc <_ntoa_format+0x5c>
10006bc0:	2c1f      	cmp	r4, #31
10006bc2:	d803      	bhi.n	10006bcc <_ntoa_format+0x5c>
10006bc4:	2730      	movs	r7, #48	; 0x30
10006bc6:	552f      	strb	r7, [r5, r4]
10006bc8:	3401      	adds	r4, #1
10006bca:	e7f5      	b.n	10006bb8 <_ntoa_format+0x48>
10006bcc:	06f7      	lsls	r7, r6, #27
10006bce:	d515      	bpl.n	10006bfc <_ntoa_format+0x8c>
10006bd0:	0577      	lsls	r7, r6, #21
10006bd2:	d405      	bmi.n	10006be0 <_ntoa_format+0x70>
10006bd4:	2c00      	cmp	r4, #0
10006bd6:	d003      	beq.n	10006be0 <_ntoa_format+0x70>
10006bd8:	4294      	cmp	r4, r2
10006bda:	d024      	beq.n	10006c26 <_ntoa_format+0xb6>
10006bdc:	429c      	cmp	r4, r3
10006bde:	d022      	beq.n	10006c26 <_ntoa_format+0xb6>
10006be0:	9a0f      	ldr	r2, [sp, #60]	; 0x3c
10006be2:	2a10      	cmp	r2, #16
10006be4:	d02b      	beq.n	10006c3e <_ntoa_format+0xce>
10006be6:	9a0f      	ldr	r2, [sp, #60]	; 0x3c
10006be8:	2a10      	cmp	r2, #16
10006bea:	d030      	beq.n	10006c4e <_ntoa_format+0xde>
10006bec:	9a0f      	ldr	r2, [sp, #60]	; 0x3c
10006bee:	2a02      	cmp	r2, #2
10006bf0:	d035      	beq.n	10006c5e <_ntoa_format+0xee>
10006bf2:	2c1f      	cmp	r4, #31
10006bf4:	d802      	bhi.n	10006bfc <_ntoa_format+0x8c>
10006bf6:	2230      	movs	r2, #48	; 0x30
10006bf8:	552a      	strb	r2, [r5, r4]
10006bfa:	3401      	adds	r4, #1
10006bfc:	2c1f      	cmp	r4, #31
10006bfe:	d805      	bhi.n	10006c0c <_ntoa_format+0x9c>
10006c00:	464a      	mov	r2, r9
10006c02:	2a00      	cmp	r2, #0
10006c04:	d031      	beq.n	10006c6a <_ntoa_format+0xfa>
10006c06:	222d      	movs	r2, #45	; 0x2d
10006c08:	552a      	strb	r2, [r5, r4]
10006c0a:	3401      	adds	r4, #1
10006c0c:	9603      	str	r6, [sp, #12]
10006c0e:	9302      	str	r3, [sp, #8]
10006c10:	9401      	str	r4, [sp, #4]
10006c12:	9500      	str	r5, [sp, #0]
10006c14:	4643      	mov	r3, r8
10006c16:	4662      	mov	r2, ip
10006c18:	f7ff ff53 	bl	10006ac2 <_out_rev>
10006c1c:	b005      	add	sp, #20
10006c1e:	bcc0      	pop	{r6, r7}
10006c20:	46b9      	mov	r9, r7
10006c22:	46b0      	mov	r8, r6
10006c24:	bdf0      	pop	{r4, r5, r6, r7, pc}
10006c26:	1e62      	subs	r2, r4, #1
10006c28:	2c01      	cmp	r4, #1
10006c2a:	d006      	beq.n	10006c3a <_ntoa_format+0xca>
10006c2c:	9f0f      	ldr	r7, [sp, #60]	; 0x3c
10006c2e:	2f10      	cmp	r7, #16
10006c30:	d001      	beq.n	10006c36 <_ntoa_format+0xc6>
10006c32:	0014      	movs	r4, r2
10006c34:	e7d4      	b.n	10006be0 <_ntoa_format+0x70>
10006c36:	3c02      	subs	r4, #2
10006c38:	e7d2      	b.n	10006be0 <_ntoa_format+0x70>
10006c3a:	0014      	movs	r4, r2
10006c3c:	e7d0      	b.n	10006be0 <_ntoa_format+0x70>
10006c3e:	06b2      	lsls	r2, r6, #26
10006c40:	d4d1      	bmi.n	10006be6 <_ntoa_format+0x76>
10006c42:	2c1f      	cmp	r4, #31
10006c44:	d8cf      	bhi.n	10006be6 <_ntoa_format+0x76>
10006c46:	2278      	movs	r2, #120	; 0x78
10006c48:	552a      	strb	r2, [r5, r4]
10006c4a:	3401      	adds	r4, #1
10006c4c:	e7d1      	b.n	10006bf2 <_ntoa_format+0x82>
10006c4e:	06b2      	lsls	r2, r6, #26
10006c50:	d5cc      	bpl.n	10006bec <_ntoa_format+0x7c>
10006c52:	2c1f      	cmp	r4, #31
10006c54:	d8ca      	bhi.n	10006bec <_ntoa_format+0x7c>
10006c56:	2258      	movs	r2, #88	; 0x58
10006c58:	552a      	strb	r2, [r5, r4]
10006c5a:	3401      	adds	r4, #1
10006c5c:	e7c9      	b.n	10006bf2 <_ntoa_format+0x82>
10006c5e:	2c1f      	cmp	r4, #31
10006c60:	d8c7      	bhi.n	10006bf2 <_ntoa_format+0x82>
10006c62:	3260      	adds	r2, #96	; 0x60
10006c64:	552a      	strb	r2, [r5, r4]
10006c66:	3401      	adds	r4, #1
10006c68:	e7c3      	b.n	10006bf2 <_ntoa_format+0x82>
10006c6a:	0772      	lsls	r2, r6, #29
10006c6c:	d503      	bpl.n	10006c76 <_ntoa_format+0x106>
10006c6e:	222b      	movs	r2, #43	; 0x2b
10006c70:	552a      	strb	r2, [r5, r4]
10006c72:	3401      	adds	r4, #1
10006c74:	e7ca      	b.n	10006c0c <_ntoa_format+0x9c>
10006c76:	0732      	lsls	r2, r6, #28
10006c78:	d5c8      	bpl.n	10006c0c <_ntoa_format+0x9c>
10006c7a:	2220      	movs	r2, #32
10006c7c:	552a      	strb	r2, [r5, r4]
10006c7e:	3401      	adds	r4, #1
10006c80:	e7c4      	b.n	10006c0c <_ntoa_format+0x9c>

10006c82 <_ntoa_long>:
10006c82:	b5f0      	push	{r4, r5, r6, r7, lr}
10006c84:	46de      	mov	lr, fp
10006c86:	4657      	mov	r7, sl
10006c88:	464e      	mov	r6, r9
10006c8a:	4645      	mov	r5, r8
10006c8c:	b5e0      	push	{r5, r6, r7, lr}
10006c8e:	b093      	sub	sp, #76	; 0x4c
10006c90:	4681      	mov	r9, r0
10006c92:	468a      	mov	sl, r1
10006c94:	9208      	str	r2, [sp, #32]
10006c96:	9309      	str	r3, [sp, #36]	; 0x24
10006c98:	ab1c      	add	r3, sp, #112	; 0x70
10006c9a:	cb10      	ldmia	r3!, {r4}
10006c9c:	781b      	ldrb	r3, [r3, #0]
10006c9e:	469b      	mov	fp, r3
10006ca0:	9d1e      	ldr	r5, [sp, #120]	; 0x78
10006ca2:	9b21      	ldr	r3, [sp, #132]	; 0x84
10006ca4:	4698      	mov	r8, r3
10006ca6:	2c00      	cmp	r4, #0
10006ca8:	d103      	bne.n	10006cb2 <_ntoa_long+0x30>
10006caa:	2310      	movs	r3, #16
10006cac:	4642      	mov	r2, r8
10006cae:	439a      	bics	r2, r3
10006cb0:	4690      	mov	r8, r2
10006cb2:	2380      	movs	r3, #128	; 0x80
10006cb4:	00db      	lsls	r3, r3, #3
10006cb6:	4646      	mov	r6, r8
10006cb8:	401e      	ands	r6, r3
10006cba:	4642      	mov	r2, r8
10006cbc:	421a      	tst	r2, r3
10006cbe:	d012      	beq.n	10006ce6 <_ntoa_long+0x64>
10006cc0:	2c00      	cmp	r4, #0
10006cc2:	d022      	beq.n	10006d0a <_ntoa_long+0x88>
10006cc4:	2600      	movs	r6, #0
10006cc6:	e00e      	b.n	10006ce6 <_ntoa_long+0x64>
10006cc8:	3330      	adds	r3, #48	; 0x30
10006cca:	b2d9      	uxtb	r1, r3
10006ccc:	1c77      	adds	r7, r6, #1
10006cce:	ab0a      	add	r3, sp, #40	; 0x28
10006cd0:	5599      	strb	r1, [r3, r6]
10006cd2:	0029      	movs	r1, r5
10006cd4:	0020      	movs	r0, r4
10006cd6:	f000 ffd9 	bl	10007c8c <__wrap___aeabi_uidiv>
10006cda:	42ac      	cmp	r4, r5
10006cdc:	d316      	bcc.n	10006d0c <_ntoa_long+0x8a>
10006cde:	2f1f      	cmp	r7, #31
10006ce0:	d814      	bhi.n	10006d0c <_ntoa_long+0x8a>
10006ce2:	003e      	movs	r6, r7
10006ce4:	0004      	movs	r4, r0
10006ce6:	0029      	movs	r1, r5
10006ce8:	0020      	movs	r0, r4
10006cea:	f000 ffcf 	bl	10007c8c <__wrap___aeabi_uidiv>
10006cee:	b2cb      	uxtb	r3, r1
10006cf0:	2b09      	cmp	r3, #9
10006cf2:	d9e9      	bls.n	10006cc8 <_ntoa_long+0x46>
10006cf4:	4642      	mov	r2, r8
10006cf6:	0692      	lsls	r2, r2, #26
10006cf8:	d505      	bpl.n	10006d06 <_ntoa_long+0x84>
10006cfa:	2141      	movs	r1, #65	; 0x41
10006cfc:	18c9      	adds	r1, r1, r3
10006cfe:	b2c9      	uxtb	r1, r1
10006d00:	390a      	subs	r1, #10
10006d02:	b2c9      	uxtb	r1, r1
10006d04:	e7e2      	b.n	10006ccc <_ntoa_long+0x4a>
10006d06:	2161      	movs	r1, #97	; 0x61
10006d08:	e7f8      	b.n	10006cfc <_ntoa_long+0x7a>
10006d0a:	0027      	movs	r7, r4
10006d0c:	4643      	mov	r3, r8
10006d0e:	9306      	str	r3, [sp, #24]
10006d10:	9b20      	ldr	r3, [sp, #128]	; 0x80
10006d12:	9305      	str	r3, [sp, #20]
10006d14:	9b1f      	ldr	r3, [sp, #124]	; 0x7c
10006d16:	9304      	str	r3, [sp, #16]
10006d18:	9503      	str	r5, [sp, #12]
10006d1a:	465b      	mov	r3, fp
10006d1c:	9302      	str	r3, [sp, #8]
10006d1e:	9701      	str	r7, [sp, #4]
10006d20:	ab0a      	add	r3, sp, #40	; 0x28
10006d22:	9300      	str	r3, [sp, #0]
10006d24:	9b09      	ldr	r3, [sp, #36]	; 0x24
10006d26:	9a08      	ldr	r2, [sp, #32]
10006d28:	4651      	mov	r1, sl
10006d2a:	4648      	mov	r0, r9
10006d2c:	f7ff ff20 	bl	10006b70 <_ntoa_format>
10006d30:	b013      	add	sp, #76	; 0x4c
10006d32:	bcf0      	pop	{r4, r5, r6, r7}
10006d34:	46bb      	mov	fp, r7
10006d36:	46b2      	mov	sl, r6
10006d38:	46a9      	mov	r9, r5
10006d3a:	46a0      	mov	r8, r4
10006d3c:	bdf0      	pop	{r4, r5, r6, r7, pc}

10006d3e <_ntoa_long_long>:
10006d3e:	b5f0      	push	{r4, r5, r6, r7, lr}
10006d40:	46de      	mov	lr, fp
10006d42:	4657      	mov	r7, sl
10006d44:	464e      	mov	r6, r9
10006d46:	4645      	mov	r5, r8
10006d48:	b5e0      	push	{r5, r6, r7, lr}
10006d4a:	b095      	sub	sp, #84	; 0x54
10006d4c:	9008      	str	r0, [sp, #32]
10006d4e:	9109      	str	r1, [sp, #36]	; 0x24
10006d50:	920a      	str	r2, [sp, #40]	; 0x28
10006d52:	930b      	str	r3, [sp, #44]	; 0x2c
10006d54:	9e1e      	ldr	r6, [sp, #120]	; 0x78
10006d56:	9c1f      	ldr	r4, [sp, #124]	; 0x7c
10006d58:	ab20      	add	r3, sp, #128	; 0x80
10006d5a:	781b      	ldrb	r3, [r3, #0]
10006d5c:	469b      	mov	fp, r3
10006d5e:	9b22      	ldr	r3, [sp, #136]	; 0x88
10006d60:	4699      	mov	r9, r3
10006d62:	9d23      	ldr	r5, [sp, #140]	; 0x8c
10006d64:	9b26      	ldr	r3, [sp, #152]	; 0x98
10006d66:	469a      	mov	sl, r3
10006d68:	0033      	movs	r3, r6
10006d6a:	4323      	orrs	r3, r4
10006d6c:	d103      	bne.n	10006d76 <_ntoa_long_long+0x38>
10006d6e:	3310      	adds	r3, #16
10006d70:	4652      	mov	r2, sl
10006d72:	439a      	bics	r2, r3
10006d74:	4692      	mov	sl, r2
10006d76:	2380      	movs	r3, #128	; 0x80
10006d78:	00db      	lsls	r3, r3, #3
10006d7a:	4657      	mov	r7, sl
10006d7c:	401f      	ands	r7, r3
10006d7e:	4652      	mov	r2, sl
10006d80:	421a      	tst	r2, r3
10006d82:	d019      	beq.n	10006db8 <_ntoa_long_long+0x7a>
10006d84:	0033      	movs	r3, r6
10006d86:	4323      	orrs	r3, r4
10006d88:	d02d      	beq.n	10006de6 <_ntoa_long_long+0xa8>
10006d8a:	2700      	movs	r7, #0
10006d8c:	e014      	b.n	10006db8 <_ntoa_long_long+0x7a>
10006d8e:	3330      	adds	r3, #48	; 0x30
10006d90:	b2da      	uxtb	r2, r3
10006d92:	1c7b      	adds	r3, r7, #1
10006d94:	4698      	mov	r8, r3
10006d96:	ab0c      	add	r3, sp, #48	; 0x30
10006d98:	55da      	strb	r2, [r3, r7]
10006d9a:	464a      	mov	r2, r9
10006d9c:	002b      	movs	r3, r5
10006d9e:	0030      	movs	r0, r6
10006da0:	0021      	movs	r1, r4
10006da2:	f000 ffb9 	bl	10007d18 <__wrap___aeabi_uldivmod>
10006da6:	42a5      	cmp	r5, r4
10006da8:	d81f      	bhi.n	10006dea <_ntoa_long_long+0xac>
10006daa:	d019      	beq.n	10006de0 <_ntoa_long_long+0xa2>
10006dac:	4643      	mov	r3, r8
10006dae:	2b1f      	cmp	r3, #31
10006db0:	d81b      	bhi.n	10006dea <_ntoa_long_long+0xac>
10006db2:	4647      	mov	r7, r8
10006db4:	0006      	movs	r6, r0
10006db6:	000c      	movs	r4, r1
10006db8:	464a      	mov	r2, r9
10006dba:	002b      	movs	r3, r5
10006dbc:	0030      	movs	r0, r6
10006dbe:	0021      	movs	r1, r4
10006dc0:	f000 ffaa 	bl	10007d18 <__wrap___aeabi_uldivmod>
10006dc4:	b2d3      	uxtb	r3, r2
10006dc6:	2b09      	cmp	r3, #9
10006dc8:	d9e1      	bls.n	10006d8e <_ntoa_long_long+0x50>
10006dca:	4652      	mov	r2, sl
10006dcc:	0692      	lsls	r2, r2, #26
10006dce:	d505      	bpl.n	10006ddc <_ntoa_long_long+0x9e>
10006dd0:	2241      	movs	r2, #65	; 0x41
10006dd2:	18d2      	adds	r2, r2, r3
10006dd4:	b2d2      	uxtb	r2, r2
10006dd6:	3a0a      	subs	r2, #10
10006dd8:	b2d2      	uxtb	r2, r2
10006dda:	e7da      	b.n	10006d92 <_ntoa_long_long+0x54>
10006ddc:	2261      	movs	r2, #97	; 0x61
10006dde:	e7f8      	b.n	10006dd2 <_ntoa_long_long+0x94>
10006de0:	45b1      	cmp	r9, r6
10006de2:	d9e3      	bls.n	10006dac <_ntoa_long_long+0x6e>
10006de4:	e001      	b.n	10006dea <_ntoa_long_long+0xac>
10006de6:	2300      	movs	r3, #0
10006de8:	4698      	mov	r8, r3
10006dea:	4653      	mov	r3, sl
10006dec:	9306      	str	r3, [sp, #24]
10006dee:	9b25      	ldr	r3, [sp, #148]	; 0x94
10006df0:	9305      	str	r3, [sp, #20]
10006df2:	9b24      	ldr	r3, [sp, #144]	; 0x90
10006df4:	9304      	str	r3, [sp, #16]
10006df6:	464b      	mov	r3, r9
10006df8:	9303      	str	r3, [sp, #12]
10006dfa:	465b      	mov	r3, fp
10006dfc:	9302      	str	r3, [sp, #8]
10006dfe:	4643      	mov	r3, r8
10006e00:	9301      	str	r3, [sp, #4]
10006e02:	ab0c      	add	r3, sp, #48	; 0x30
10006e04:	9300      	str	r3, [sp, #0]
10006e06:	9b0b      	ldr	r3, [sp, #44]	; 0x2c
10006e08:	9a0a      	ldr	r2, [sp, #40]	; 0x28
10006e0a:	9909      	ldr	r1, [sp, #36]	; 0x24
10006e0c:	9808      	ldr	r0, [sp, #32]
10006e0e:	f7ff feaf 	bl	10006b70 <_ntoa_format>
10006e12:	b015      	add	sp, #84	; 0x54
10006e14:	bcf0      	pop	{r4, r5, r6, r7}
10006e16:	46bb      	mov	fp, r7
10006e18:	46b2      	mov	sl, r6
10006e1a:	46a9      	mov	r9, r5
10006e1c:	46a0      	mov	r8, r4
10006e1e:	bdf0      	pop	{r4, r5, r6, r7, pc}

10006e20 <_etoa>:
10006e20:	b5f0      	push	{r4, r5, r6, r7, lr}
10006e22:	46de      	mov	lr, fp
10006e24:	4657      	mov	r7, sl
10006e26:	464e      	mov	r6, r9
10006e28:	4645      	mov	r5, r8
10006e2a:	b5e0      	push	{r5, r6, r7, lr}
10006e2c:	b091      	sub	sp, #68	; 0x44
10006e2e:	4683      	mov	fp, r0
10006e30:	468a      	mov	sl, r1
10006e32:	920c      	str	r2, [sp, #48]	; 0x30
10006e34:	4698      	mov	r8, r3
10006e36:	9c1a      	ldr	r4, [sp, #104]	; 0x68
10006e38:	9408      	str	r4, [sp, #32]
10006e3a:	9d1b      	ldr	r5, [sp, #108]	; 0x6c
10006e3c:	9509      	str	r5, [sp, #36]	; 0x24
10006e3e:	0022      	movs	r2, r4
10006e40:	002b      	movs	r3, r5
10006e42:	0020      	movs	r0, r4
10006e44:	0029      	movs	r1, r5
10006e46:	f001 f9de 	bl	10008206 <__wrap___aeabi_dcmpun>
10006e4a:	2800      	cmp	r0, #0
10006e4c:	d000      	beq.n	10006e50 <_etoa+0x30>
10006e4e:	e0e5      	b.n	1000701c <_etoa+0x1fc>
10006e50:	2201      	movs	r2, #1
10006e52:	4252      	negs	r2, r2
10006e54:	4bd7      	ldr	r3, [pc, #860]	; (100071b4 <_etoa+0x394>)
10006e56:	0020      	movs	r0, r4
10006e58:	0029      	movs	r1, r5
10006e5a:	f001 f9cf 	bl	100081fc <__wrap___aeabi_dcmpgt>
10006e5e:	2800      	cmp	r0, #0
10006e60:	d000      	beq.n	10006e64 <_etoa+0x44>
10006e62:	e0db      	b.n	1000701c <_etoa+0x1fc>
10006e64:	2201      	movs	r2, #1
10006e66:	4252      	negs	r2, r2
10006e68:	4bd3      	ldr	r3, [pc, #844]	; (100071b8 <_etoa+0x398>)
10006e6a:	0020      	movs	r0, r4
10006e6c:	0029      	movs	r1, r5
10006e6e:	f001 f9af 	bl	100081d0 <__wrap___aeabi_dcmplt>
10006e72:	2800      	cmp	r0, #0
10006e74:	d000      	beq.n	10006e78 <_etoa+0x58>
10006e76:	e0d1      	b.n	1000701c <_etoa+0x1fc>
10006e78:	2200      	movs	r2, #0
10006e7a:	2300      	movs	r3, #0
10006e7c:	9d08      	ldr	r5, [sp, #32]
10006e7e:	0028      	movs	r0, r5
10006e80:	9e09      	ldr	r6, [sp, #36]	; 0x24
10006e82:	0031      	movs	r1, r6
10006e84:	f001 f9a4 	bl	100081d0 <__wrap___aeabi_dcmplt>
10006e88:	2800      	cmp	r0, #0
10006e8a:	d000      	beq.n	10006e8e <_etoa+0x6e>
10006e8c:	e0dd      	b.n	1000704a <_etoa+0x22a>
10006e8e:	9808      	ldr	r0, [sp, #32]
10006e90:	9909      	ldr	r1, [sp, #36]	; 0x24
10006e92:	9006      	str	r0, [sp, #24]
10006e94:	9107      	str	r1, [sp, #28]
10006e96:	2380      	movs	r3, #128	; 0x80
10006e98:	00db      	lsls	r3, r3, #3
10006e9a:	9a1e      	ldr	r2, [sp, #120]	; 0x78
10006e9c:	401a      	ands	r2, r3
10006e9e:	920d      	str	r2, [sp, #52]	; 0x34
10006ea0:	9a1e      	ldr	r2, [sp, #120]	; 0x78
10006ea2:	421a      	tst	r2, r3
10006ea4:	d101      	bne.n	10006eaa <_etoa+0x8a>
10006ea6:	2306      	movs	r3, #6
10006ea8:	931c      	str	r3, [sp, #112]	; 0x70
10006eaa:	9806      	ldr	r0, [sp, #24]
10006eac:	9907      	ldr	r1, [sp, #28]
10006eae:	0004      	movs	r4, r0
10006eb0:	000d      	movs	r5, r1
10006eb2:	000a      	movs	r2, r1
10006eb4:	0006      	movs	r6, r0
10006eb6:	4302      	orrs	r2, r0
10006eb8:	d100      	bne.n	10006ebc <_etoa+0x9c>
10006eba:	e0d1      	b.n	10007060 <_etoa+0x240>
10006ebc:	0d08      	lsrs	r0, r1, #20
10006ebe:	0540      	lsls	r0, r0, #21
10006ec0:	0d40      	lsrs	r0, r0, #21
10006ec2:	4cbe      	ldr	r4, [pc, #760]	; (100071bc <_etoa+0x39c>)
10006ec4:	46a4      	mov	ip, r4
10006ec6:	4460      	add	r0, ip
10006ec8:	030a      	lsls	r2, r1, #12
10006eca:	0b12      	lsrs	r2, r2, #12
10006ecc:	4bbc      	ldr	r3, [pc, #752]	; (100071c0 <_etoa+0x3a0>)
10006ece:	4313      	orrs	r3, r2
10006ed0:	001f      	movs	r7, r3
10006ed2:	f001 f9ab 	bl	1000822c <__wrap___aeabi_i2d>
10006ed6:	4abb      	ldr	r2, [pc, #748]	; (100071c4 <_etoa+0x3a4>)
10006ed8:	4bbb      	ldr	r3, [pc, #748]	; (100071c8 <_etoa+0x3a8>)
10006eda:	f001 f937 	bl	1000814c <__wrap___aeabi_dmul>
10006ede:	4abb      	ldr	r2, [pc, #748]	; (100071cc <_etoa+0x3ac>)
10006ee0:	4bbb      	ldr	r3, [pc, #748]	; (100071d0 <_etoa+0x3b0>)
10006ee2:	f001 f921 	bl	10008128 <__wrap___aeabi_dadd>
10006ee6:	0004      	movs	r4, r0
10006ee8:	000d      	movs	r5, r1
10006eea:	2200      	movs	r2, #0
10006eec:	4bb9      	ldr	r3, [pc, #740]	; (100071d4 <_etoa+0x3b4>)
10006eee:	0030      	movs	r0, r6
10006ef0:	0039      	movs	r1, r7
10006ef2:	f001 f910 	bl	10008116 <__wrap___aeabi_dsub>
10006ef6:	4ab8      	ldr	r2, [pc, #736]	; (100071d8 <_etoa+0x3b8>)
10006ef8:	4bb8      	ldr	r3, [pc, #736]	; (100071dc <_etoa+0x3bc>)
10006efa:	f001 f927 	bl	1000814c <__wrap___aeabi_dmul>
10006efe:	0002      	movs	r2, r0
10006f00:	000b      	movs	r3, r1
10006f02:	0020      	movs	r0, r4
10006f04:	0029      	movs	r1, r5
10006f06:	f001 f90f 	bl	10008128 <__wrap___aeabi_dadd>
10006f0a:	f001 f9a7 	bl	1000825c <__wrap___aeabi_d2iz>
10006f0e:	4681      	mov	r9, r0
10006f10:	f001 f98c 	bl	1000822c <__wrap___aeabi_i2d>
10006f14:	0004      	movs	r4, r0
10006f16:	000d      	movs	r5, r1
10006f18:	4ab1      	ldr	r2, [pc, #708]	; (100071e0 <_etoa+0x3c0>)
10006f1a:	4bb2      	ldr	r3, [pc, #712]	; (100071e4 <_etoa+0x3c4>)
10006f1c:	f001 f916 	bl	1000814c <__wrap___aeabi_dmul>
10006f20:	2200      	movs	r2, #0
10006f22:	4bb1      	ldr	r3, [pc, #708]	; (100071e8 <_etoa+0x3c8>)
10006f24:	f001 f900 	bl	10008128 <__wrap___aeabi_dadd>
10006f28:	f001 f998 	bl	1000825c <__wrap___aeabi_d2iz>
10006f2c:	0006      	movs	r6, r0
10006f2e:	4aaf      	ldr	r2, [pc, #700]	; (100071ec <_etoa+0x3cc>)
10006f30:	4baf      	ldr	r3, [pc, #700]	; (100071f0 <_etoa+0x3d0>)
10006f32:	0020      	movs	r0, r4
10006f34:	0029      	movs	r1, r5
10006f36:	f001 f909 	bl	1000814c <__wrap___aeabi_dmul>
10006f3a:	0004      	movs	r4, r0
10006f3c:	000d      	movs	r5, r1
10006f3e:	0030      	movs	r0, r6
10006f40:	f001 f974 	bl	1000822c <__wrap___aeabi_i2d>
10006f44:	4aab      	ldr	r2, [pc, #684]	; (100071f4 <_etoa+0x3d4>)
10006f46:	4bac      	ldr	r3, [pc, #688]	; (100071f8 <_etoa+0x3d8>)
10006f48:	f001 f900 	bl	1000814c <__wrap___aeabi_dmul>
10006f4c:	0002      	movs	r2, r0
10006f4e:	000b      	movs	r3, r1
10006f50:	0020      	movs	r0, r4
10006f52:	0029      	movs	r1, r5
10006f54:	f001 f8df 	bl	10008116 <__wrap___aeabi_dsub>
10006f58:	0004      	movs	r4, r0
10006f5a:	000d      	movs	r5, r1
10006f5c:	0002      	movs	r2, r0
10006f5e:	000b      	movs	r3, r1
10006f60:	f001 f8f4 	bl	1000814c <__wrap___aeabi_dmul>
10006f64:	900a      	str	r0, [sp, #40]	; 0x28
10006f66:	910b      	str	r1, [sp, #44]	; 0x2c
10006f68:	4ba4      	ldr	r3, [pc, #656]	; (100071fc <_etoa+0x3dc>)
10006f6a:	18f3      	adds	r3, r6, r3
10006f6c:	2600      	movs	r6, #0
10006f6e:	051f      	lsls	r7, r3, #20
10006f70:	0022      	movs	r2, r4
10006f72:	002b      	movs	r3, r5
10006f74:	0020      	movs	r0, r4
10006f76:	0029      	movs	r1, r5
10006f78:	f001 f8d6 	bl	10008128 <__wrap___aeabi_dadd>
10006f7c:	900e      	str	r0, [sp, #56]	; 0x38
10006f7e:	910f      	str	r1, [sp, #60]	; 0x3c
10006f80:	0022      	movs	r2, r4
10006f82:	002b      	movs	r3, r5
10006f84:	2000      	movs	r0, #0
10006f86:	2180      	movs	r1, #128	; 0x80
10006f88:	05c9      	lsls	r1, r1, #23
10006f8a:	f001 f8c4 	bl	10008116 <__wrap___aeabi_dsub>
10006f8e:	0004      	movs	r4, r0
10006f90:	000d      	movs	r5, r1
10006f92:	2200      	movs	r2, #0
10006f94:	4b9a      	ldr	r3, [pc, #616]	; (10007200 <_etoa+0x3e0>)
10006f96:	980a      	ldr	r0, [sp, #40]	; 0x28
10006f98:	990b      	ldr	r1, [sp, #44]	; 0x2c
10006f9a:	f001 f8ce 	bl	1000813a <__wrap___aeabi_ddiv>
10006f9e:	2200      	movs	r2, #0
10006fa0:	4b98      	ldr	r3, [pc, #608]	; (10007204 <_etoa+0x3e4>)
10006fa2:	f001 f8c1 	bl	10008128 <__wrap___aeabi_dadd>
10006fa6:	0002      	movs	r2, r0
10006fa8:	000b      	movs	r3, r1
10006faa:	980a      	ldr	r0, [sp, #40]	; 0x28
10006fac:	990b      	ldr	r1, [sp, #44]	; 0x2c
10006fae:	f001 f8c4 	bl	1000813a <__wrap___aeabi_ddiv>
10006fb2:	2200      	movs	r2, #0
10006fb4:	4b94      	ldr	r3, [pc, #592]	; (10007208 <_etoa+0x3e8>)
10006fb6:	f001 f8b7 	bl	10008128 <__wrap___aeabi_dadd>
10006fba:	0002      	movs	r2, r0
10006fbc:	000b      	movs	r3, r1
10006fbe:	980a      	ldr	r0, [sp, #40]	; 0x28
10006fc0:	990b      	ldr	r1, [sp, #44]	; 0x2c
10006fc2:	f001 f8ba 	bl	1000813a <__wrap___aeabi_ddiv>
10006fc6:	0002      	movs	r2, r0
10006fc8:	000b      	movs	r3, r1
10006fca:	0020      	movs	r0, r4
10006fcc:	0029      	movs	r1, r5
10006fce:	f001 f8ab 	bl	10008128 <__wrap___aeabi_dadd>
10006fd2:	0002      	movs	r2, r0
10006fd4:	000b      	movs	r3, r1
10006fd6:	980e      	ldr	r0, [sp, #56]	; 0x38
10006fd8:	990f      	ldr	r1, [sp, #60]	; 0x3c
10006fda:	f001 f8ae 	bl	1000813a <__wrap___aeabi_ddiv>
10006fde:	2200      	movs	r2, #0
10006fe0:	4b77      	ldr	r3, [pc, #476]	; (100071c0 <_etoa+0x3a0>)
10006fe2:	f001 f8a1 	bl	10008128 <__wrap___aeabi_dadd>
10006fe6:	0032      	movs	r2, r6
10006fe8:	003b      	movs	r3, r7
10006fea:	f001 f8af 	bl	1000814c <__wrap___aeabi_dmul>
10006fee:	0006      	movs	r6, r0
10006ff0:	000f      	movs	r7, r1
10006ff2:	0004      	movs	r4, r0
10006ff4:	000d      	movs	r5, r1
10006ff6:	9a06      	ldr	r2, [sp, #24]
10006ff8:	9b07      	ldr	r3, [sp, #28]
10006ffa:	f001 f8ff 	bl	100081fc <__wrap___aeabi_dcmpgt>
10006ffe:	2800      	cmp	r0, #0
10007000:	d030      	beq.n	10007064 <_etoa+0x244>
10007002:	2301      	movs	r3, #1
10007004:	425b      	negs	r3, r3
10007006:	469c      	mov	ip, r3
10007008:	44e1      	add	r9, ip
1000700a:	2200      	movs	r2, #0
1000700c:	4b7d      	ldr	r3, [pc, #500]	; (10007204 <_etoa+0x3e4>)
1000700e:	0030      	movs	r0, r6
10007010:	0039      	movs	r1, r7
10007012:	f001 f892 	bl	1000813a <__wrap___aeabi_ddiv>
10007016:	0004      	movs	r4, r0
10007018:	000d      	movs	r5, r1
1000701a:	e023      	b.n	10007064 <_etoa+0x244>
1000701c:	9b1e      	ldr	r3, [sp, #120]	; 0x78
1000701e:	9304      	str	r3, [sp, #16]
10007020:	9b1d      	ldr	r3, [sp, #116]	; 0x74
10007022:	9303      	str	r3, [sp, #12]
10007024:	9b1c      	ldr	r3, [sp, #112]	; 0x70
10007026:	9302      	str	r3, [sp, #8]
10007028:	9a08      	ldr	r2, [sp, #32]
1000702a:	9b09      	ldr	r3, [sp, #36]	; 0x24
1000702c:	9200      	str	r2, [sp, #0]
1000702e:	9301      	str	r3, [sp, #4]
10007030:	4643      	mov	r3, r8
10007032:	9a0c      	ldr	r2, [sp, #48]	; 0x30
10007034:	4651      	mov	r1, sl
10007036:	4658      	mov	r0, fp
10007038:	f000 f8fc 	bl	10007234 <_ftoa>
1000703c:	b011      	add	sp, #68	; 0x44
1000703e:	bcf0      	pop	{r4, r5, r6, r7}
10007040:	46bb      	mov	fp, r7
10007042:	46b2      	mov	sl, r6
10007044:	46a9      	mov	r9, r5
10007046:	46a0      	mov	r8, r4
10007048:	bdf0      	pop	{r4, r5, r6, r7, pc}
1000704a:	2300      	movs	r3, #0
1000704c:	2400      	movs	r4, #0
1000704e:	9306      	str	r3, [sp, #24]
10007050:	9407      	str	r4, [sp, #28]
10007052:	9506      	str	r5, [sp, #24]
10007054:	2380      	movs	r3, #128	; 0x80
10007056:	061b      	lsls	r3, r3, #24
10007058:	469c      	mov	ip, r3
1000705a:	4466      	add	r6, ip
1000705c:	9607      	str	r6, [sp, #28]
1000705e:	e71a      	b.n	10006e96 <_etoa+0x76>
10007060:	2300      	movs	r3, #0
10007062:	4699      	mov	r9, r3
10007064:	464b      	mov	r3, r9
10007066:	3363      	adds	r3, #99	; 0x63
10007068:	2bc6      	cmp	r3, #198	; 0xc6
1000706a:	d81e      	bhi.n	100070aa <_etoa+0x28a>
1000706c:	2604      	movs	r6, #4
1000706e:	9b1e      	ldr	r3, [sp, #120]	; 0x78
10007070:	051b      	lsls	r3, r3, #20
10007072:	d526      	bpl.n	100070c2 <_etoa+0x2a2>
10007074:	002b      	movs	r3, r5
10007076:	4323      	orrs	r3, r4
10007078:	d00f      	beq.n	1000709a <_etoa+0x27a>
1000707a:	4a64      	ldr	r2, [pc, #400]	; (1000720c <_etoa+0x3ec>)
1000707c:	4b64      	ldr	r3, [pc, #400]	; (10007210 <_etoa+0x3f0>)
1000707e:	9806      	ldr	r0, [sp, #24]
10007080:	9907      	ldr	r1, [sp, #28]
10007082:	f001 f8b3 	bl	100081ec <__wrap___aeabi_dcmpge>
10007086:	2800      	cmp	r0, #0
10007088:	d079      	beq.n	1000717e <_etoa+0x35e>
1000708a:	2200      	movs	r2, #0
1000708c:	4b61      	ldr	r3, [pc, #388]	; (10007214 <_etoa+0x3f4>)
1000708e:	9806      	ldr	r0, [sp, #24]
10007090:	9907      	ldr	r1, [sp, #28]
10007092:	f001 f89d 	bl	100081d0 <__wrap___aeabi_dcmplt>
10007096:	2800      	cmp	r0, #0
10007098:	d071      	beq.n	1000717e <_etoa+0x35e>
1000709a:	9b1c      	ldr	r3, [sp, #112]	; 0x70
1000709c:	454b      	cmp	r3, r9
1000709e:	dd06      	ble.n	100070ae <_etoa+0x28e>
100070a0:	464a      	mov	r2, r9
100070a2:	1a98      	subs	r0, r3, r2
100070a4:	1e43      	subs	r3, r0, #1
100070a6:	931c      	str	r3, [sp, #112]	; 0x70
100070a8:	e003      	b.n	100070b2 <_etoa+0x292>
100070aa:	2605      	movs	r6, #5
100070ac:	e7df      	b.n	1000706e <_etoa+0x24e>
100070ae:	2300      	movs	r3, #0
100070b0:	931c      	str	r3, [sp, #112]	; 0x70
100070b2:	2380      	movs	r3, #128	; 0x80
100070b4:	00db      	lsls	r3, r3, #3
100070b6:	9a1e      	ldr	r2, [sp, #120]	; 0x78
100070b8:	431a      	orrs	r2, r3
100070ba:	921e      	str	r2, [sp, #120]	; 0x78
100070bc:	2600      	movs	r6, #0
100070be:	2300      	movs	r3, #0
100070c0:	4699      	mov	r9, r3
100070c2:	9b1d      	ldr	r3, [sp, #116]	; 0x74
100070c4:	429e      	cmp	r6, r3
100070c6:	d264      	bcs.n	10007192 <_etoa+0x372>
100070c8:	1b9f      	subs	r7, r3, r6
100070ca:	2302      	movs	r3, #2
100070cc:	9a1e      	ldr	r2, [sp, #120]	; 0x78
100070ce:	401a      	ands	r2, r3
100070d0:	920a      	str	r2, [sp, #40]	; 0x28
100070d2:	9a1e      	ldr	r2, [sp, #120]	; 0x78
100070d4:	4213      	tst	r3, r2
100070d6:	d002      	beq.n	100070de <_etoa+0x2be>
100070d8:	2e00      	cmp	r6, #0
100070da:	d000      	beq.n	100070de <_etoa+0x2be>
100070dc:	2700      	movs	r7, #0
100070de:	464b      	mov	r3, r9
100070e0:	2b00      	cmp	r3, #0
100070e2:	d007      	beq.n	100070f4 <_etoa+0x2d4>
100070e4:	0022      	movs	r2, r4
100070e6:	002b      	movs	r3, r5
100070e8:	9806      	ldr	r0, [sp, #24]
100070ea:	9907      	ldr	r1, [sp, #28]
100070ec:	f001 f825 	bl	1000813a <__wrap___aeabi_ddiv>
100070f0:	9006      	str	r0, [sp, #24]
100070f2:	9107      	str	r1, [sp, #28]
100070f4:	2200      	movs	r2, #0
100070f6:	2300      	movs	r3, #0
100070f8:	9808      	ldr	r0, [sp, #32]
100070fa:	9909      	ldr	r1, [sp, #36]	; 0x24
100070fc:	f001 f868 	bl	100081d0 <__wrap___aeabi_dcmplt>
10007100:	2800      	cmp	r0, #0
10007102:	d148      	bne.n	10007196 <_etoa+0x376>
10007104:	4b44      	ldr	r3, [pc, #272]	; (10007218 <_etoa+0x3f8>)
10007106:	9a1e      	ldr	r2, [sp, #120]	; 0x78
10007108:	4013      	ands	r3, r2
1000710a:	9304      	str	r3, [sp, #16]
1000710c:	9703      	str	r7, [sp, #12]
1000710e:	9b1c      	ldr	r3, [sp, #112]	; 0x70
10007110:	9302      	str	r3, [sp, #8]
10007112:	9b06      	ldr	r3, [sp, #24]
10007114:	9c07      	ldr	r4, [sp, #28]
10007116:	9300      	str	r3, [sp, #0]
10007118:	9401      	str	r4, [sp, #4]
1000711a:	4643      	mov	r3, r8
1000711c:	9a0c      	ldr	r2, [sp, #48]	; 0x30
1000711e:	4651      	mov	r1, sl
10007120:	4658      	mov	r0, fp
10007122:	f000 f887 	bl	10007234 <_ftoa>
10007126:	2e00      	cmp	r6, #0
10007128:	d100      	bne.n	1000712c <_etoa+0x30c>
1000712a:	e787      	b.n	1000703c <_etoa+0x21c>
1000712c:	9b1e      	ldr	r3, [sp, #120]	; 0x78
1000712e:	069b      	lsls	r3, r3, #26
10007130:	d53d      	bpl.n	100071ae <_etoa+0x38e>
10007132:	2545      	movs	r5, #69	; 0x45
10007134:	1c44      	adds	r4, r0, #1
10007136:	4643      	mov	r3, r8
10007138:	0002      	movs	r2, r0
1000713a:	4651      	mov	r1, sl
1000713c:	0028      	movs	r0, r5
1000713e:	47d8      	blx	fp
10007140:	464b      	mov	r3, r9
10007142:	17da      	asrs	r2, r3, #31
10007144:	189b      	adds	r3, r3, r2
10007146:	4053      	eors	r3, r2
10007148:	2205      	movs	r2, #5
1000714a:	9205      	str	r2, [sp, #20]
1000714c:	3e01      	subs	r6, #1
1000714e:	9604      	str	r6, [sp, #16]
10007150:	2200      	movs	r2, #0
10007152:	9203      	str	r2, [sp, #12]
10007154:	320a      	adds	r2, #10
10007156:	9202      	str	r2, [sp, #8]
10007158:	464a      	mov	r2, r9
1000715a:	0fd0      	lsrs	r0, r2, #31
1000715c:	9001      	str	r0, [sp, #4]
1000715e:	9300      	str	r3, [sp, #0]
10007160:	4643      	mov	r3, r8
10007162:	0022      	movs	r2, r4
10007164:	4651      	mov	r1, sl
10007166:	4658      	mov	r0, fp
10007168:	f7ff fd8b 	bl	10006c82 <_ntoa_long>
1000716c:	9b0a      	ldr	r3, [sp, #40]	; 0x28
1000716e:	2b00      	cmp	r3, #0
10007170:	d100      	bne.n	10007174 <_etoa+0x354>
10007172:	e763      	b.n	1000703c <_etoa+0x21c>
10007174:	0002      	movs	r2, r0
10007176:	465f      	mov	r7, fp
10007178:	9e0c      	ldr	r6, [sp, #48]	; 0x30
1000717a:	9d1d      	ldr	r5, [sp, #116]	; 0x74
1000717c:	e054      	b.n	10007228 <_etoa+0x408>
1000717e:	9b1c      	ldr	r3, [sp, #112]	; 0x70
10007180:	2b00      	cmp	r3, #0
10007182:	d09e      	beq.n	100070c2 <_etoa+0x2a2>
10007184:	9b0d      	ldr	r3, [sp, #52]	; 0x34
10007186:	2b00      	cmp	r3, #0
10007188:	d09b      	beq.n	100070c2 <_etoa+0x2a2>
1000718a:	9b1c      	ldr	r3, [sp, #112]	; 0x70
1000718c:	3b01      	subs	r3, #1
1000718e:	931c      	str	r3, [sp, #112]	; 0x70
10007190:	e797      	b.n	100070c2 <_etoa+0x2a2>
10007192:	2700      	movs	r7, #0
10007194:	e799      	b.n	100070ca <_etoa+0x2aa>
10007196:	9c06      	ldr	r4, [sp, #24]
10007198:	9d07      	ldr	r5, [sp, #28]
1000719a:	0022      	movs	r2, r4
1000719c:	0029      	movs	r1, r5
1000719e:	2080      	movs	r0, #128	; 0x80
100071a0:	0600      	lsls	r0, r0, #24
100071a2:	4684      	mov	ip, r0
100071a4:	4461      	add	r1, ip
100071a6:	000b      	movs	r3, r1
100071a8:	9206      	str	r2, [sp, #24]
100071aa:	9307      	str	r3, [sp, #28]
100071ac:	e7aa      	b.n	10007104 <_etoa+0x2e4>
100071ae:	2565      	movs	r5, #101	; 0x65
100071b0:	e7c0      	b.n	10007134 <_etoa+0x314>
100071b2:	46c0      	nop			; (mov r8, r8)
100071b4:	7fefffff 	.word	0x7fefffff
100071b8:	ffefffff 	.word	0xffefffff
100071bc:	fffffc01 	.word	0xfffffc01
100071c0:	3ff00000 	.word	0x3ff00000
100071c4:	509f79fb 	.word	0x509f79fb
100071c8:	3fd34413 	.word	0x3fd34413
100071cc:	8b60c8b3 	.word	0x8b60c8b3
100071d0:	3fc68a28 	.word	0x3fc68a28
100071d4:	3ff80000 	.word	0x3ff80000
100071d8:	636f4361 	.word	0x636f4361
100071dc:	3fd287a7 	.word	0x3fd287a7
100071e0:	0979a371 	.word	0x0979a371
100071e4:	400a934f 	.word	0x400a934f
100071e8:	3fe00000 	.word	0x3fe00000
100071ec:	bbb55516 	.word	0xbbb55516
100071f0:	40026bb1 	.word	0x40026bb1
100071f4:	fefa39ef 	.word	0xfefa39ef
100071f8:	3fe62e42 	.word	0x3fe62e42
100071fc:	000003ff 	.word	0x000003ff
10007200:	402c0000 	.word	0x402c0000
10007204:	40240000 	.word	0x40240000
10007208:	40180000 	.word	0x40180000
1000720c:	eb1c432d 	.word	0xeb1c432d
10007210:	3f1a36e2 	.word	0x3f1a36e2
10007214:	412e8480 	.word	0x412e8480
10007218:	fffff7ff 	.word	0xfffff7ff
1000721c:	1c54      	adds	r4, r2, #1
1000721e:	4643      	mov	r3, r8
10007220:	4651      	mov	r1, sl
10007222:	2020      	movs	r0, #32
10007224:	47b8      	blx	r7
10007226:	0022      	movs	r2, r4
10007228:	1b93      	subs	r3, r2, r6
1000722a:	42ab      	cmp	r3, r5
1000722c:	d3f6      	bcc.n	1000721c <_etoa+0x3fc>
1000722e:	0010      	movs	r0, r2
10007230:	e704      	b.n	1000703c <_etoa+0x21c>
10007232:	46c0      	nop			; (mov r8, r8)

10007234 <_ftoa>:
10007234:	b5f0      	push	{r4, r5, r6, r7, lr}
10007236:	46de      	mov	lr, fp
10007238:	4657      	mov	r7, sl
1000723a:	464e      	mov	r6, r9
1000723c:	4645      	mov	r5, r8
1000723e:	b5e0      	push	{r5, r6, r7, lr}
10007240:	b095      	sub	sp, #84	; 0x54
10007242:	9006      	str	r0, [sp, #24]
10007244:	9107      	str	r1, [sp, #28]
10007246:	4693      	mov	fp, r2
10007248:	4699      	mov	r9, r3
1000724a:	9f20      	ldr	r7, [sp, #128]	; 0x80
1000724c:	9a1e      	ldr	r2, [sp, #120]	; 0x78
1000724e:	9b1f      	ldr	r3, [sp, #124]	; 0x7c
10007250:	0010      	movs	r0, r2
10007252:	0019      	movs	r1, r3
10007254:	f000 ffd7 	bl	10008206 <__wrap___aeabi_dcmpun>
10007258:	2800      	cmp	r0, #0
1000725a:	d131      	bne.n	100072c0 <_ftoa+0x8c>
1000725c:	2201      	movs	r2, #1
1000725e:	4252      	negs	r2, r2
10007260:	4bbf      	ldr	r3, [pc, #764]	; (10007560 <_ftoa+0x32c>)
10007262:	981e      	ldr	r0, [sp, #120]	; 0x78
10007264:	991f      	ldr	r1, [sp, #124]	; 0x7c
10007266:	f000 ffb3 	bl	100081d0 <__wrap___aeabi_dcmplt>
1000726a:	2800      	cmp	r0, #0
1000726c:	d137      	bne.n	100072de <_ftoa+0xaa>
1000726e:	2201      	movs	r2, #1
10007270:	4252      	negs	r2, r2
10007272:	4bbc      	ldr	r3, [pc, #752]	; (10007564 <_ftoa+0x330>)
10007274:	981e      	ldr	r0, [sp, #120]	; 0x78
10007276:	991f      	ldr	r1, [sp, #124]	; 0x7c
10007278:	f000 ffc0 	bl	100081fc <__wrap___aeabi_dcmpgt>
1000727c:	2800      	cmp	r0, #0
1000727e:	d13d      	bne.n	100072fc <_ftoa+0xc8>
10007280:	2200      	movs	r2, #0
10007282:	4bb9      	ldr	r3, [pc, #740]	; (10007568 <_ftoa+0x334>)
10007284:	981e      	ldr	r0, [sp, #120]	; 0x78
10007286:	991f      	ldr	r1, [sp, #124]	; 0x7c
10007288:	f000 ffb8 	bl	100081fc <__wrap___aeabi_dcmpgt>
1000728c:	2800      	cmp	r0, #0
1000728e:	d150      	bne.n	10007332 <_ftoa+0xfe>
10007290:	2200      	movs	r2, #0
10007292:	4bb6      	ldr	r3, [pc, #728]	; (1000756c <_ftoa+0x338>)
10007294:	981e      	ldr	r0, [sp, #120]	; 0x78
10007296:	991f      	ldr	r1, [sp, #124]	; 0x7c
10007298:	f000 ff9a 	bl	100081d0 <__wrap___aeabi_dcmplt>
1000729c:	2800      	cmp	r0, #0
1000729e:	d148      	bne.n	10007332 <_ftoa+0xfe>
100072a0:	2200      	movs	r2, #0
100072a2:	2300      	movs	r3, #0
100072a4:	981e      	ldr	r0, [sp, #120]	; 0x78
100072a6:	991f      	ldr	r1, [sp, #124]	; 0x7c
100072a8:	f000 ff92 	bl	100081d0 <__wrap___aeabi_dcmplt>
100072ac:	2800      	cmp	r0, #0
100072ae:	d150      	bne.n	10007352 <_ftoa+0x11e>
100072b0:	2300      	movs	r3, #0
100072b2:	4698      	mov	r8, r3
100072b4:	9b22      	ldr	r3, [sp, #136]	; 0x88
100072b6:	055b      	lsls	r3, r3, #21
100072b8:	d400      	bmi.n	100072bc <_ftoa+0x88>
100072ba:	e0b6      	b.n	1000742a <_ftoa+0x1f6>
100072bc:	2400      	movs	r4, #0
100072be:	e058      	b.n	10007372 <_ftoa+0x13e>
100072c0:	9b22      	ldr	r3, [sp, #136]	; 0x88
100072c2:	9303      	str	r3, [sp, #12]
100072c4:	9b21      	ldr	r3, [sp, #132]	; 0x84
100072c6:	9302      	str	r3, [sp, #8]
100072c8:	2303      	movs	r3, #3
100072ca:	9301      	str	r3, [sp, #4]
100072cc:	4ba8      	ldr	r3, [pc, #672]	; (10007570 <_ftoa+0x33c>)
100072ce:	9300      	str	r3, [sp, #0]
100072d0:	464b      	mov	r3, r9
100072d2:	465a      	mov	r2, fp
100072d4:	9907      	ldr	r1, [sp, #28]
100072d6:	9806      	ldr	r0, [sp, #24]
100072d8:	f7ff fbf3 	bl	10006ac2 <_out_rev>
100072dc:	e10e      	b.n	100074fc <_ftoa+0x2c8>
100072de:	9b22      	ldr	r3, [sp, #136]	; 0x88
100072e0:	9303      	str	r3, [sp, #12]
100072e2:	9b21      	ldr	r3, [sp, #132]	; 0x84
100072e4:	9302      	str	r3, [sp, #8]
100072e6:	2304      	movs	r3, #4
100072e8:	9301      	str	r3, [sp, #4]
100072ea:	4ba2      	ldr	r3, [pc, #648]	; (10007574 <_ftoa+0x340>)
100072ec:	9300      	str	r3, [sp, #0]
100072ee:	464b      	mov	r3, r9
100072f0:	465a      	mov	r2, fp
100072f2:	9907      	ldr	r1, [sp, #28]
100072f4:	9806      	ldr	r0, [sp, #24]
100072f6:	f7ff fbe4 	bl	10006ac2 <_out_rev>
100072fa:	e0ff      	b.n	100074fc <_ftoa+0x2c8>
100072fc:	2304      	movs	r3, #4
100072fe:	9a22      	ldr	r2, [sp, #136]	; 0x88
10007300:	401a      	ands	r2, r3
10007302:	9922      	ldr	r1, [sp, #136]	; 0x88
10007304:	420b      	tst	r3, r1
10007306:	d010      	beq.n	1000732a <_ftoa+0xf6>
10007308:	4b9b      	ldr	r3, [pc, #620]	; (10007578 <_ftoa+0x344>)
1000730a:	2a00      	cmp	r2, #0
1000730c:	d00f      	beq.n	1000732e <_ftoa+0xfa>
1000730e:	2204      	movs	r2, #4
10007310:	9922      	ldr	r1, [sp, #136]	; 0x88
10007312:	9103      	str	r1, [sp, #12]
10007314:	9921      	ldr	r1, [sp, #132]	; 0x84
10007316:	9102      	str	r1, [sp, #8]
10007318:	9201      	str	r2, [sp, #4]
1000731a:	9300      	str	r3, [sp, #0]
1000731c:	464b      	mov	r3, r9
1000731e:	465a      	mov	r2, fp
10007320:	9907      	ldr	r1, [sp, #28]
10007322:	9806      	ldr	r0, [sp, #24]
10007324:	f7ff fbcd 	bl	10006ac2 <_out_rev>
10007328:	e0e8      	b.n	100074fc <_ftoa+0x2c8>
1000732a:	4b94      	ldr	r3, [pc, #592]	; (1000757c <_ftoa+0x348>)
1000732c:	e7ed      	b.n	1000730a <_ftoa+0xd6>
1000732e:	2203      	movs	r2, #3
10007330:	e7ee      	b.n	10007310 <_ftoa+0xdc>
10007332:	9b22      	ldr	r3, [sp, #136]	; 0x88
10007334:	9304      	str	r3, [sp, #16]
10007336:	9b21      	ldr	r3, [sp, #132]	; 0x84
10007338:	9303      	str	r3, [sp, #12]
1000733a:	9702      	str	r7, [sp, #8]
1000733c:	9b1e      	ldr	r3, [sp, #120]	; 0x78
1000733e:	9c1f      	ldr	r4, [sp, #124]	; 0x7c
10007340:	9300      	str	r3, [sp, #0]
10007342:	9401      	str	r4, [sp, #4]
10007344:	464b      	mov	r3, r9
10007346:	465a      	mov	r2, fp
10007348:	9907      	ldr	r1, [sp, #28]
1000734a:	9806      	ldr	r0, [sp, #24]
1000734c:	f7ff fd68 	bl	10006e20 <_etoa>
10007350:	e0d4      	b.n	100074fc <_ftoa+0x2c8>
10007352:	9a1e      	ldr	r2, [sp, #120]	; 0x78
10007354:	9b1f      	ldr	r3, [sp, #124]	; 0x7c
10007356:	2000      	movs	r0, #0
10007358:	2100      	movs	r1, #0
1000735a:	f000 fedc 	bl	10008116 <__wrap___aeabi_dsub>
1000735e:	901e      	str	r0, [sp, #120]	; 0x78
10007360:	911f      	str	r1, [sp, #124]	; 0x7c
10007362:	2301      	movs	r3, #1
10007364:	4698      	mov	r8, r3
10007366:	e7a5      	b.n	100072b4 <_ftoa+0x80>
10007368:	ab0c      	add	r3, sp, #48	; 0x30
1000736a:	2230      	movs	r2, #48	; 0x30
1000736c:	551a      	strb	r2, [r3, r4]
1000736e:	3f01      	subs	r7, #1
10007370:	3401      	adds	r4, #1
10007372:	2c1f      	cmp	r4, #31
10007374:	d801      	bhi.n	1000737a <_ftoa+0x146>
10007376:	2f09      	cmp	r7, #9
10007378:	d8f6      	bhi.n	10007368 <_ftoa+0x134>
1000737a:	981e      	ldr	r0, [sp, #120]	; 0x78
1000737c:	991f      	ldr	r1, [sp, #124]	; 0x7c
1000737e:	f000 ff6d 	bl	1000825c <__wrap___aeabi_d2iz>
10007382:	0005      	movs	r5, r0
10007384:	f000 ff52 	bl	1000822c <__wrap___aeabi_i2d>
10007388:	0002      	movs	r2, r0
1000738a:	000b      	movs	r3, r1
1000738c:	981e      	ldr	r0, [sp, #120]	; 0x78
1000738e:	991f      	ldr	r1, [sp, #124]	; 0x7c
10007390:	f000 fec1 	bl	10008116 <__wrap___aeabi_dsub>
10007394:	00fa      	lsls	r2, r7, #3
10007396:	4b7a      	ldr	r3, [pc, #488]	; (10007580 <_ftoa+0x34c>)
10007398:	189b      	adds	r3, r3, r2
1000739a:	681a      	ldr	r2, [r3, #0]
1000739c:	685b      	ldr	r3, [r3, #4]
1000739e:	920a      	str	r2, [sp, #40]	; 0x28
100073a0:	930b      	str	r3, [sp, #44]	; 0x2c
100073a2:	f000 fed3 	bl	1000814c <__wrap___aeabi_dmul>
100073a6:	9008      	str	r0, [sp, #32]
100073a8:	9109      	str	r1, [sp, #36]	; 0x24
100073aa:	f000 ff7b 	bl	100082a4 <__wrap___aeabi_d2uiz>
100073ae:	0006      	movs	r6, r0
100073b0:	f000 ff38 	bl	10008224 <__wrap___aeabi_ui2d>
100073b4:	0002      	movs	r2, r0
100073b6:	000b      	movs	r3, r1
100073b8:	9808      	ldr	r0, [sp, #32]
100073ba:	9909      	ldr	r1, [sp, #36]	; 0x24
100073bc:	f000 feab 	bl	10008116 <__wrap___aeabi_dsub>
100073c0:	9008      	str	r0, [sp, #32]
100073c2:	9109      	str	r1, [sp, #36]	; 0x24
100073c4:	2200      	movs	r2, #0
100073c6:	4b6f      	ldr	r3, [pc, #444]	; (10007584 <_ftoa+0x350>)
100073c8:	f000 ff18 	bl	100081fc <__wrap___aeabi_dcmpgt>
100073cc:	2800      	cmp	r0, #0
100073ce:	d02e      	beq.n	1000742e <_ftoa+0x1fa>
100073d0:	3601      	adds	r6, #1
100073d2:	0030      	movs	r0, r6
100073d4:	f000 ff26 	bl	10008224 <__wrap___aeabi_ui2d>
100073d8:	0002      	movs	r2, r0
100073da:	000b      	movs	r3, r1
100073dc:	980a      	ldr	r0, [sp, #40]	; 0x28
100073de:	990b      	ldr	r1, [sp, #44]	; 0x2c
100073e0:	f000 fefc 	bl	100081dc <__wrap___aeabi_dcmple>
100073e4:	2800      	cmp	r0, #0
100073e6:	d001      	beq.n	100073ec <_ftoa+0x1b8>
100073e8:	3501      	adds	r5, #1
100073ea:	2600      	movs	r6, #0
100073ec:	2f00      	cmp	r7, #0
100073ee:	d12c      	bne.n	1000744a <_ftoa+0x216>
100073f0:	0028      	movs	r0, r5
100073f2:	f000 ff1b 	bl	1000822c <__wrap___aeabi_i2d>
100073f6:	0002      	movs	r2, r0
100073f8:	000b      	movs	r3, r1
100073fa:	981e      	ldr	r0, [sp, #120]	; 0x78
100073fc:	991f      	ldr	r1, [sp, #124]	; 0x7c
100073fe:	f000 fe8a 	bl	10008116 <__wrap___aeabi_dsub>
10007402:	0006      	movs	r6, r0
10007404:	000f      	movs	r7, r1
10007406:	2200      	movs	r2, #0
10007408:	4b5e      	ldr	r3, [pc, #376]	; (10007584 <_ftoa+0x350>)
1000740a:	f000 fee1 	bl	100081d0 <__wrap___aeabi_dcmplt>
1000740e:	2800      	cmp	r0, #0
10007410:	d146      	bne.n	100074a0 <_ftoa+0x26c>
10007412:	2200      	movs	r2, #0
10007414:	4b5b      	ldr	r3, [pc, #364]	; (10007584 <_ftoa+0x350>)
10007416:	0030      	movs	r0, r6
10007418:	0039      	movs	r1, r7
1000741a:	f000 feef 	bl	100081fc <__wrap___aeabi_dcmpgt>
1000741e:	2800      	cmp	r0, #0
10007420:	d13e      	bne.n	100074a0 <_ftoa+0x26c>
10007422:	07eb      	lsls	r3, r5, #31
10007424:	d53c      	bpl.n	100074a0 <_ftoa+0x26c>
10007426:	3501      	adds	r5, #1
10007428:	e03a      	b.n	100074a0 <_ftoa+0x26c>
1000742a:	2706      	movs	r7, #6
1000742c:	e746      	b.n	100072bc <_ftoa+0x88>
1000742e:	2200      	movs	r2, #0
10007430:	4b54      	ldr	r3, [pc, #336]	; (10007584 <_ftoa+0x350>)
10007432:	9808      	ldr	r0, [sp, #32]
10007434:	9909      	ldr	r1, [sp, #36]	; 0x24
10007436:	f000 fecb 	bl	100081d0 <__wrap___aeabi_dcmplt>
1000743a:	2800      	cmp	r0, #0
1000743c:	d1d6      	bne.n	100073ec <_ftoa+0x1b8>
1000743e:	2e00      	cmp	r6, #0
10007440:	d001      	beq.n	10007446 <_ftoa+0x212>
10007442:	07f3      	lsls	r3, r6, #31
10007444:	d5d2      	bpl.n	100073ec <_ftoa+0x1b8>
10007446:	3601      	adds	r6, #1
10007448:	e7d0      	b.n	100073ec <_ftoa+0x1b8>
1000744a:	46aa      	mov	sl, r5
1000744c:	2c1f      	cmp	r4, #31
1000744e:	d811      	bhi.n	10007474 <_ftoa+0x240>
10007450:	3f01      	subs	r7, #1
10007452:	210a      	movs	r1, #10
10007454:	0030      	movs	r0, r6
10007456:	f000 fc19 	bl	10007c8c <__wrap___aeabi_uidiv>
1000745a:	1c65      	adds	r5, r4, #1
1000745c:	3130      	adds	r1, #48	; 0x30
1000745e:	ab0c      	add	r3, sp, #48	; 0x30
10007460:	5519      	strb	r1, [r3, r4]
10007462:	210a      	movs	r1, #10
10007464:	0030      	movs	r0, r6
10007466:	f000 fc11 	bl	10007c8c <__wrap___aeabi_uidiv>
1000746a:	2e09      	cmp	r6, #9
1000746c:	d90e      	bls.n	1000748c <_ftoa+0x258>
1000746e:	0006      	movs	r6, r0
10007470:	002c      	movs	r4, r5
10007472:	e7eb      	b.n	1000744c <_ftoa+0x218>
10007474:	4655      	mov	r5, sl
10007476:	2c1f      	cmp	r4, #31
10007478:	d80c      	bhi.n	10007494 <_ftoa+0x260>
1000747a:	1e7b      	subs	r3, r7, #1
1000747c:	2f00      	cmp	r7, #0
1000747e:	d009      	beq.n	10007494 <_ftoa+0x260>
10007480:	aa0c      	add	r2, sp, #48	; 0x30
10007482:	2130      	movs	r1, #48	; 0x30
10007484:	5511      	strb	r1, [r2, r4]
10007486:	001f      	movs	r7, r3
10007488:	3401      	adds	r4, #1
1000748a:	e7f4      	b.n	10007476 <_ftoa+0x242>
1000748c:	002b      	movs	r3, r5
1000748e:	4655      	mov	r5, sl
10007490:	001c      	movs	r4, r3
10007492:	e7f0      	b.n	10007476 <_ftoa+0x242>
10007494:	2c1f      	cmp	r4, #31
10007496:	d803      	bhi.n	100074a0 <_ftoa+0x26c>
10007498:	ab0c      	add	r3, sp, #48	; 0x30
1000749a:	222e      	movs	r2, #46	; 0x2e
1000749c:	551a      	strb	r2, [r3, r4]
1000749e:	3401      	adds	r4, #1
100074a0:	2c1f      	cmp	r4, #31
100074a2:	d810      	bhi.n	100074c6 <_ftoa+0x292>
100074a4:	210a      	movs	r1, #10
100074a6:	0028      	movs	r0, r5
100074a8:	f000 fbc4 	bl	10007c34 <__wrap___aeabi_idiv>
100074ac:	1c66      	adds	r6, r4, #1
100074ae:	3130      	adds	r1, #48	; 0x30
100074b0:	ab0c      	add	r3, sp, #48	; 0x30
100074b2:	5519      	strb	r1, [r3, r4]
100074b4:	210a      	movs	r1, #10
100074b6:	0028      	movs	r0, r5
100074b8:	f000 fbbc 	bl	10007c34 <__wrap___aeabi_idiv>
100074bc:	1e05      	subs	r5, r0, #0
100074be:	d001      	beq.n	100074c4 <_ftoa+0x290>
100074c0:	0034      	movs	r4, r6
100074c2:	e7ed      	b.n	100074a0 <_ftoa+0x26c>
100074c4:	0034      	movs	r4, r6
100074c6:	2303      	movs	r3, #3
100074c8:	9a22      	ldr	r2, [sp, #136]	; 0x88
100074ca:	4013      	ands	r3, r2
100074cc:	2b01      	cmp	r3, #1
100074ce:	d01c      	beq.n	1000750a <_ftoa+0x2d6>
100074d0:	2c1f      	cmp	r4, #31
100074d2:	d806      	bhi.n	100074e2 <_ftoa+0x2ae>
100074d4:	4643      	mov	r3, r8
100074d6:	2b00      	cmp	r3, #0
100074d8:	d032      	beq.n	10007540 <_ftoa+0x30c>
100074da:	ab0c      	add	r3, sp, #48	; 0x30
100074dc:	222d      	movs	r2, #45	; 0x2d
100074de:	551a      	strb	r2, [r3, r4]
100074e0:	3401      	adds	r4, #1
100074e2:	9b22      	ldr	r3, [sp, #136]	; 0x88
100074e4:	9303      	str	r3, [sp, #12]
100074e6:	9b21      	ldr	r3, [sp, #132]	; 0x84
100074e8:	9302      	str	r3, [sp, #8]
100074ea:	9401      	str	r4, [sp, #4]
100074ec:	ab0c      	add	r3, sp, #48	; 0x30
100074ee:	9300      	str	r3, [sp, #0]
100074f0:	464b      	mov	r3, r9
100074f2:	465a      	mov	r2, fp
100074f4:	9907      	ldr	r1, [sp, #28]
100074f6:	9806      	ldr	r0, [sp, #24]
100074f8:	f7ff fae3 	bl	10006ac2 <_out_rev>
100074fc:	b015      	add	sp, #84	; 0x54
100074fe:	bcf0      	pop	{r4, r5, r6, r7}
10007500:	46bb      	mov	fp, r7
10007502:	46b2      	mov	sl, r6
10007504:	46a9      	mov	r9, r5
10007506:	46a0      	mov	r8, r4
10007508:	bdf0      	pop	{r4, r5, r6, r7, pc}
1000750a:	9b21      	ldr	r3, [sp, #132]	; 0x84
1000750c:	2b00      	cmp	r3, #0
1000750e:	d013      	beq.n	10007538 <_ftoa+0x304>
10007510:	4643      	mov	r3, r8
10007512:	2b00      	cmp	r3, #0
10007514:	d102      	bne.n	1000751c <_ftoa+0x2e8>
10007516:	330c      	adds	r3, #12
10007518:	4213      	tst	r3, r2
1000751a:	d00f      	beq.n	1000753c <_ftoa+0x308>
1000751c:	9b21      	ldr	r3, [sp, #132]	; 0x84
1000751e:	3b01      	subs	r3, #1
10007520:	9321      	str	r3, [sp, #132]	; 0x84
10007522:	0019      	movs	r1, r3
10007524:	e003      	b.n	1000752e <_ftoa+0x2fa>
10007526:	ab0c      	add	r3, sp, #48	; 0x30
10007528:	2230      	movs	r2, #48	; 0x30
1000752a:	551a      	strb	r2, [r3, r4]
1000752c:	3401      	adds	r4, #1
1000752e:	428c      	cmp	r4, r1
10007530:	d2ce      	bcs.n	100074d0 <_ftoa+0x29c>
10007532:	2c1f      	cmp	r4, #31
10007534:	d9f7      	bls.n	10007526 <_ftoa+0x2f2>
10007536:	e7cb      	b.n	100074d0 <_ftoa+0x29c>
10007538:	9921      	ldr	r1, [sp, #132]	; 0x84
1000753a:	e7f8      	b.n	1000752e <_ftoa+0x2fa>
1000753c:	9921      	ldr	r1, [sp, #132]	; 0x84
1000753e:	e7f6      	b.n	1000752e <_ftoa+0x2fa>
10007540:	9b22      	ldr	r3, [sp, #136]	; 0x88
10007542:	075b      	lsls	r3, r3, #29
10007544:	d504      	bpl.n	10007550 <_ftoa+0x31c>
10007546:	ab0c      	add	r3, sp, #48	; 0x30
10007548:	222b      	movs	r2, #43	; 0x2b
1000754a:	551a      	strb	r2, [r3, r4]
1000754c:	3401      	adds	r4, #1
1000754e:	e7c8      	b.n	100074e2 <_ftoa+0x2ae>
10007550:	9b22      	ldr	r3, [sp, #136]	; 0x88
10007552:	071b      	lsls	r3, r3, #28
10007554:	d5c5      	bpl.n	100074e2 <_ftoa+0x2ae>
10007556:	ab0c      	add	r3, sp, #48	; 0x30
10007558:	2220      	movs	r2, #32
1000755a:	551a      	strb	r2, [r3, r4]
1000755c:	3401      	adds	r4, #1
1000755e:	e7c0      	b.n	100074e2 <_ftoa+0x2ae>
10007560:	ffefffff 	.word	0xffefffff
10007564:	7fefffff 	.word	0x7fefffff
10007568:	41cdcd65 	.word	0x41cdcd65
1000756c:	c1cdcd65 	.word	0xc1cdcd65
10007570:	1000d4e0 	.word	0x1000d4e0
10007574:	1000d4e4 	.word	0x1000d4e4
10007578:	1000d4d8 	.word	0x1000d4d8
1000757c:	1000d4d4 	.word	0x1000d4d4
10007580:	1000d6d0 	.word	0x1000d6d0
10007584:	3fe00000 	.word	0x3fe00000

10007588 <_vsnprintf>:
10007588:	b5f0      	push	{r4, r5, r6, r7, lr}
1000758a:	46de      	mov	lr, fp
1000758c:	4657      	mov	r7, sl
1000758e:	464e      	mov	r6, r9
10007590:	4645      	mov	r5, r8
10007592:	b5e0      	push	{r5, r6, r7, lr}
10007594:	b093      	sub	sp, #76	; 0x4c
10007596:	4682      	mov	sl, r0
10007598:	468b      	mov	fp, r1
1000759a:	4690      	mov	r8, r2
1000759c:	9311      	str	r3, [sp, #68]	; 0x44
1000759e:	2900      	cmp	r1, #0
100075a0:	d100      	bne.n	100075a4 <_vsnprintf+0x1c>
100075a2:	e2eb      	b.n	10007b7c <_vsnprintf+0x5f4>
100075a4:	2700      	movs	r7, #0
100075a6:	4655      	mov	r5, sl
100075a8:	9b11      	ldr	r3, [sp, #68]	; 0x44
100075aa:	7818      	ldrb	r0, [r3, #0]
100075ac:	2800      	cmp	r0, #0
100075ae:	d100      	bne.n	100075b2 <_vsnprintf+0x2a>
100075b0:	e2e7      	b.n	10007b82 <_vsnprintf+0x5fa>
100075b2:	2825      	cmp	r0, #37	; 0x25
100075b4:	d009      	beq.n	100075ca <_vsnprintf+0x42>
100075b6:	1c7c      	adds	r4, r7, #1
100075b8:	4643      	mov	r3, r8
100075ba:	003a      	movs	r2, r7
100075bc:	4659      	mov	r1, fp
100075be:	47a8      	blx	r5
100075c0:	9b11      	ldr	r3, [sp, #68]	; 0x44
100075c2:	3301      	adds	r3, #1
100075c4:	9311      	str	r3, [sp, #68]	; 0x44
100075c6:	0027      	movs	r7, r4
100075c8:	e7ee      	b.n	100075a8 <_vsnprintf+0x20>
100075ca:	3301      	adds	r3, #1
100075cc:	9311      	str	r3, [sp, #68]	; 0x44
100075ce:	2400      	movs	r4, #0
100075d0:	9a11      	ldr	r2, [sp, #68]	; 0x44
100075d2:	7811      	ldrb	r1, [r2, #0]
100075d4:	000b      	movs	r3, r1
100075d6:	3b20      	subs	r3, #32
100075d8:	b2d8      	uxtb	r0, r3
100075da:	2810      	cmp	r0, #16
100075dc:	d803      	bhi.n	100075e6 <_vsnprintf+0x5e>
100075de:	0083      	lsls	r3, r0, #2
100075e0:	48d0      	ldr	r0, [pc, #832]	; (10007924 <_vsnprintf+0x39c>)
100075e2:	58c3      	ldr	r3, [r0, r3]
100075e4:	469f      	mov	pc, r3
100075e6:	000b      	movs	r3, r1
100075e8:	3b30      	subs	r3, #48	; 0x30
100075ea:	b2db      	uxtb	r3, r3
100075ec:	2b09      	cmp	r3, #9
100075ee:	d92c      	bls.n	1000764a <_vsnprintf+0xc2>
100075f0:	292a      	cmp	r1, #42	; 0x2a
100075f2:	d02f      	beq.n	10007654 <_vsnprintf+0xcc>
100075f4:	2300      	movs	r3, #0
100075f6:	930a      	str	r3, [sp, #40]	; 0x28
100075f8:	9b11      	ldr	r3, [sp, #68]	; 0x44
100075fa:	781a      	ldrb	r2, [r3, #0]
100075fc:	2a2e      	cmp	r2, #46	; 0x2e
100075fe:	d039      	beq.n	10007674 <_vsnprintf+0xec>
10007600:	2300      	movs	r3, #0
10007602:	469a      	mov	sl, r3
10007604:	9a11      	ldr	r2, [sp, #68]	; 0x44
10007606:	7813      	ldrb	r3, [r2, #0]
10007608:	3b68      	subs	r3, #104	; 0x68
1000760a:	b2d9      	uxtb	r1, r3
1000760c:	2912      	cmp	r1, #18
1000760e:	d876      	bhi.n	100076fe <_vsnprintf+0x176>
10007610:	008b      	lsls	r3, r1, #2
10007612:	49c5      	ldr	r1, [pc, #788]	; (10007928 <_vsnprintf+0x3a0>)
10007614:	58cb      	ldr	r3, [r1, r3]
10007616:	469f      	mov	pc, r3
10007618:	2301      	movs	r3, #1
1000761a:	431c      	orrs	r4, r3
1000761c:	3201      	adds	r2, #1
1000761e:	9211      	str	r2, [sp, #68]	; 0x44
10007620:	e7d6      	b.n	100075d0 <_vsnprintf+0x48>
10007622:	2302      	movs	r3, #2
10007624:	431c      	orrs	r4, r3
10007626:	3201      	adds	r2, #1
10007628:	9211      	str	r2, [sp, #68]	; 0x44
1000762a:	e7d1      	b.n	100075d0 <_vsnprintf+0x48>
1000762c:	2304      	movs	r3, #4
1000762e:	431c      	orrs	r4, r3
10007630:	3201      	adds	r2, #1
10007632:	9211      	str	r2, [sp, #68]	; 0x44
10007634:	e7cc      	b.n	100075d0 <_vsnprintf+0x48>
10007636:	2308      	movs	r3, #8
10007638:	431c      	orrs	r4, r3
1000763a:	3201      	adds	r2, #1
1000763c:	9211      	str	r2, [sp, #68]	; 0x44
1000763e:	e7c7      	b.n	100075d0 <_vsnprintf+0x48>
10007640:	2310      	movs	r3, #16
10007642:	431c      	orrs	r4, r3
10007644:	3201      	adds	r2, #1
10007646:	9211      	str	r2, [sp, #68]	; 0x44
10007648:	e7c2      	b.n	100075d0 <_vsnprintf+0x48>
1000764a:	a811      	add	r0, sp, #68	; 0x44
1000764c:	f7ff fa27 	bl	10006a9e <_atoi>
10007650:	900a      	str	r0, [sp, #40]	; 0x28
10007652:	e7d1      	b.n	100075f8 <_vsnprintf+0x70>
10007654:	9b1c      	ldr	r3, [sp, #112]	; 0x70
10007656:	1d1a      	adds	r2, r3, #4
10007658:	921c      	str	r2, [sp, #112]	; 0x70
1000765a:	6818      	ldr	r0, [r3, #0]
1000765c:	2800      	cmp	r0, #0
1000765e:	db04      	blt.n	1000766a <_vsnprintf+0xe2>
10007660:	900a      	str	r0, [sp, #40]	; 0x28
10007662:	9b11      	ldr	r3, [sp, #68]	; 0x44
10007664:	3301      	adds	r3, #1
10007666:	9311      	str	r3, [sp, #68]	; 0x44
10007668:	e7c6      	b.n	100075f8 <_vsnprintf+0x70>
1000766a:	2302      	movs	r3, #2
1000766c:	431c      	orrs	r4, r3
1000766e:	4243      	negs	r3, r0
10007670:	930a      	str	r3, [sp, #40]	; 0x28
10007672:	e7f6      	b.n	10007662 <_vsnprintf+0xda>
10007674:	2280      	movs	r2, #128	; 0x80
10007676:	00d2      	lsls	r2, r2, #3
10007678:	4314      	orrs	r4, r2
1000767a:	1c5a      	adds	r2, r3, #1
1000767c:	9211      	str	r2, [sp, #68]	; 0x44
1000767e:	785a      	ldrb	r2, [r3, #1]
10007680:	0013      	movs	r3, r2
10007682:	3b30      	subs	r3, #48	; 0x30
10007684:	b2db      	uxtb	r3, r3
10007686:	2b09      	cmp	r3, #9
10007688:	d904      	bls.n	10007694 <_vsnprintf+0x10c>
1000768a:	2a2a      	cmp	r2, #42	; 0x2a
1000768c:	d007      	beq.n	1000769e <_vsnprintf+0x116>
1000768e:	2300      	movs	r3, #0
10007690:	469a      	mov	sl, r3
10007692:	e7b7      	b.n	10007604 <_vsnprintf+0x7c>
10007694:	a811      	add	r0, sp, #68	; 0x44
10007696:	f7ff fa02 	bl	10006a9e <_atoi>
1000769a:	4682      	mov	sl, r0
1000769c:	e7b2      	b.n	10007604 <_vsnprintf+0x7c>
1000769e:	9b1c      	ldr	r3, [sp, #112]	; 0x70
100076a0:	1d1a      	adds	r2, r3, #4
100076a2:	921c      	str	r2, [sp, #112]	; 0x70
100076a4:	6818      	ldr	r0, [r3, #0]
100076a6:	2800      	cmp	r0, #0
100076a8:	db04      	blt.n	100076b4 <_vsnprintf+0x12c>
100076aa:	4682      	mov	sl, r0
100076ac:	9b11      	ldr	r3, [sp, #68]	; 0x44
100076ae:	3301      	adds	r3, #1
100076b0:	9311      	str	r3, [sp, #68]	; 0x44
100076b2:	e7a7      	b.n	10007604 <_vsnprintf+0x7c>
100076b4:	2000      	movs	r0, #0
100076b6:	e7f8      	b.n	100076aa <_vsnprintf+0x122>
100076b8:	2380      	movs	r3, #128	; 0x80
100076ba:	005b      	lsls	r3, r3, #1
100076bc:	4323      	orrs	r3, r4
100076be:	1c51      	adds	r1, r2, #1
100076c0:	9111      	str	r1, [sp, #68]	; 0x44
100076c2:	7852      	ldrb	r2, [r2, #1]
100076c4:	2a6c      	cmp	r2, #108	; 0x6c
100076c6:	d001      	beq.n	100076cc <_vsnprintf+0x144>
100076c8:	001c      	movs	r4, r3
100076ca:	e018      	b.n	100076fe <_vsnprintf+0x176>
100076cc:	23c0      	movs	r3, #192	; 0xc0
100076ce:	009b      	lsls	r3, r3, #2
100076d0:	431c      	orrs	r4, r3
100076d2:	3101      	adds	r1, #1
100076d4:	9111      	str	r1, [sp, #68]	; 0x44
100076d6:	e012      	b.n	100076fe <_vsnprintf+0x176>
100076d8:	2380      	movs	r3, #128	; 0x80
100076da:	4323      	orrs	r3, r4
100076dc:	1c51      	adds	r1, r2, #1
100076de:	9111      	str	r1, [sp, #68]	; 0x44
100076e0:	7852      	ldrb	r2, [r2, #1]
100076e2:	2a68      	cmp	r2, #104	; 0x68
100076e4:	d001      	beq.n	100076ea <_vsnprintf+0x162>
100076e6:	001c      	movs	r4, r3
100076e8:	e009      	b.n	100076fe <_vsnprintf+0x176>
100076ea:	23c0      	movs	r3, #192	; 0xc0
100076ec:	431c      	orrs	r4, r3
100076ee:	3101      	adds	r1, #1
100076f0:	9111      	str	r1, [sp, #68]	; 0x44
100076f2:	e004      	b.n	100076fe <_vsnprintf+0x176>
100076f4:	2380      	movs	r3, #128	; 0x80
100076f6:	005b      	lsls	r3, r3, #1
100076f8:	431c      	orrs	r4, r3
100076fa:	3201      	adds	r2, #1
100076fc:	9211      	str	r2, [sp, #68]	; 0x44
100076fe:	9b11      	ldr	r3, [sp, #68]	; 0x44
10007700:	7818      	ldrb	r0, [r3, #0]
10007702:	0003      	movs	r3, r0
10007704:	3b25      	subs	r3, #37	; 0x25
10007706:	b2da      	uxtb	r2, r3
10007708:	2a53      	cmp	r2, #83	; 0x53
1000770a:	d900      	bls.n	1000770e <_vsnprintf+0x186>
1000770c:	e22c      	b.n	10007b68 <_vsnprintf+0x5e0>
1000770e:	0093      	lsls	r3, r2, #2
10007710:	4a86      	ldr	r2, [pc, #536]	; (1000792c <_vsnprintf+0x3a4>)
10007712:	58d3      	ldr	r3, [r2, r3]
10007714:	469f      	mov	pc, r3
10007716:	2380      	movs	r3, #128	; 0x80
10007718:	009b      	lsls	r3, r3, #2
1000771a:	431c      	orrs	r4, r3
1000771c:	3201      	adds	r2, #1
1000771e:	9211      	str	r2, [sp, #68]	; 0x44
10007720:	e7ed      	b.n	100076fe <_vsnprintf+0x176>
10007722:	2380      	movs	r3, #128	; 0x80
10007724:	005b      	lsls	r3, r3, #1
10007726:	431c      	orrs	r4, r3
10007728:	3201      	adds	r2, #1
1000772a:	9211      	str	r2, [sp, #68]	; 0x44
1000772c:	e7e7      	b.n	100076fe <_vsnprintf+0x176>
1000772e:	2878      	cmp	r0, #120	; 0x78
10007730:	d009      	beq.n	10007746 <_vsnprintf+0x1be>
10007732:	2858      	cmp	r0, #88	; 0x58
10007734:	d038      	beq.n	100077a8 <_vsnprintf+0x220>
10007736:	286f      	cmp	r0, #111	; 0x6f
10007738:	d038      	beq.n	100077ac <_vsnprintf+0x224>
1000773a:	2862      	cmp	r0, #98	; 0x62
1000773c:	d038      	beq.n	100077b0 <_vsnprintf+0x228>
1000773e:	2310      	movs	r3, #16
10007740:	439c      	bics	r4, r3
10007742:	260a      	movs	r6, #10
10007744:	e000      	b.n	10007748 <_vsnprintf+0x1c0>
10007746:	2610      	movs	r6, #16
10007748:	2858      	cmp	r0, #88	; 0x58
1000774a:	d033      	beq.n	100077b4 <_vsnprintf+0x22c>
1000774c:	2869      	cmp	r0, #105	; 0x69
1000774e:	d003      	beq.n	10007758 <_vsnprintf+0x1d0>
10007750:	2864      	cmp	r0, #100	; 0x64
10007752:	d001      	beq.n	10007758 <_vsnprintf+0x1d0>
10007754:	220c      	movs	r2, #12
10007756:	4394      	bics	r4, r2
10007758:	0563      	lsls	r3, r4, #21
1000775a:	d501      	bpl.n	10007760 <_vsnprintf+0x1d8>
1000775c:	2201      	movs	r2, #1
1000775e:	4394      	bics	r4, r2
10007760:	2869      	cmp	r0, #105	; 0x69
10007762:	d02a      	beq.n	100077ba <_vsnprintf+0x232>
10007764:	2864      	cmp	r0, #100	; 0x64
10007766:	d028      	beq.n	100077ba <_vsnprintf+0x232>
10007768:	05a3      	lsls	r3, r4, #22
1000776a:	d500      	bpl.n	1000776e <_vsnprintf+0x1e6>
1000776c:	e09f      	b.n	100078ae <_vsnprintf+0x326>
1000776e:	05e3      	lsls	r3, r4, #23
10007770:	d500      	bpl.n	10007774 <_vsnprintf+0x1ec>
10007772:	e0b8      	b.n	100078e6 <_vsnprintf+0x35e>
10007774:	0663      	lsls	r3, r4, #25
10007776:	d400      	bmi.n	1000777a <_vsnprintf+0x1f2>
10007778:	e0ca      	b.n	10007910 <_vsnprintf+0x388>
1000777a:	9a1c      	ldr	r2, [sp, #112]	; 0x70
1000777c:	1d11      	adds	r1, r2, #4
1000777e:	911c      	str	r1, [sp, #112]	; 0x70
10007780:	6811      	ldr	r1, [r2, #0]
10007782:	22ff      	movs	r2, #255	; 0xff
10007784:	400a      	ands	r2, r1
10007786:	9405      	str	r4, [sp, #20]
10007788:	9b0a      	ldr	r3, [sp, #40]	; 0x28
1000778a:	9304      	str	r3, [sp, #16]
1000778c:	4653      	mov	r3, sl
1000778e:	9303      	str	r3, [sp, #12]
10007790:	9602      	str	r6, [sp, #8]
10007792:	2300      	movs	r3, #0
10007794:	9301      	str	r3, [sp, #4]
10007796:	9200      	str	r2, [sp, #0]
10007798:	4643      	mov	r3, r8
1000779a:	003a      	movs	r2, r7
1000779c:	4659      	mov	r1, fp
1000779e:	0028      	movs	r0, r5
100077a0:	f7ff fa6f 	bl	10006c82 <_ntoa_long>
100077a4:	0007      	movs	r7, r0
100077a6:	e027      	b.n	100077f8 <_vsnprintf+0x270>
100077a8:	2610      	movs	r6, #16
100077aa:	e7cd      	b.n	10007748 <_vsnprintf+0x1c0>
100077ac:	2608      	movs	r6, #8
100077ae:	e7cb      	b.n	10007748 <_vsnprintf+0x1c0>
100077b0:	2602      	movs	r6, #2
100077b2:	e7c9      	b.n	10007748 <_vsnprintf+0x1c0>
100077b4:	2220      	movs	r2, #32
100077b6:	4314      	orrs	r4, r2
100077b8:	e7c8      	b.n	1000774c <_vsnprintf+0x1c4>
100077ba:	05a3      	lsls	r3, r4, #22
100077bc:	d420      	bmi.n	10007800 <_vsnprintf+0x278>
100077be:	05e3      	lsls	r3, r4, #23
100077c0:	d450      	bmi.n	10007864 <_vsnprintf+0x2dc>
100077c2:	0663      	lsls	r3, r4, #25
100077c4:	d566      	bpl.n	10007894 <_vsnprintf+0x30c>
100077c6:	9a1c      	ldr	r2, [sp, #112]	; 0x70
100077c8:	1d11      	adds	r1, r2, #4
100077ca:	911c      	str	r1, [sp, #112]	; 0x70
100077cc:	6811      	ldr	r1, [r2, #0]
100077ce:	22ff      	movs	r2, #255	; 0xff
100077d0:	400a      	ands	r2, r1
100077d2:	17d3      	asrs	r3, r2, #31
100077d4:	18d1      	adds	r1, r2, r3
100077d6:	4059      	eors	r1, r3
100077d8:	9405      	str	r4, [sp, #20]
100077da:	9b0a      	ldr	r3, [sp, #40]	; 0x28
100077dc:	9304      	str	r3, [sp, #16]
100077de:	4653      	mov	r3, sl
100077e0:	9303      	str	r3, [sp, #12]
100077e2:	9602      	str	r6, [sp, #8]
100077e4:	0fd2      	lsrs	r2, r2, #31
100077e6:	9201      	str	r2, [sp, #4]
100077e8:	9100      	str	r1, [sp, #0]
100077ea:	4643      	mov	r3, r8
100077ec:	003a      	movs	r2, r7
100077ee:	4659      	mov	r1, fp
100077f0:	0028      	movs	r0, r5
100077f2:	f7ff fa46 	bl	10006c82 <_ntoa_long>
100077f6:	0007      	movs	r7, r0
100077f8:	9b11      	ldr	r3, [sp, #68]	; 0x44
100077fa:	3301      	adds	r3, #1
100077fc:	9311      	str	r3, [sp, #68]	; 0x44
100077fe:	e6d3      	b.n	100075a8 <_vsnprintf+0x20>
10007800:	9b1c      	ldr	r3, [sp, #112]	; 0x70
10007802:	1dda      	adds	r2, r3, #7
10007804:	2107      	movs	r1, #7
10007806:	438a      	bics	r2, r1
10007808:	0011      	movs	r1, r2
1000780a:	3108      	adds	r1, #8
1000780c:	911c      	str	r1, [sp, #112]	; 0x70
1000780e:	6811      	ldr	r1, [r2, #0]
10007810:	6853      	ldr	r3, [r2, #4]
10007812:	469c      	mov	ip, r3
10007814:	17db      	asrs	r3, r3, #31
10007816:	930c      	str	r3, [sp, #48]	; 0x30
10007818:	930d      	str	r3, [sp, #52]	; 0x34
1000781a:	9a0c      	ldr	r2, [sp, #48]	; 0x30
1000781c:	9b0d      	ldr	r3, [sp, #52]	; 0x34
1000781e:	0010      	movs	r0, r2
10007820:	4048      	eors	r0, r1
10007822:	900e      	str	r0, [sp, #56]	; 0x38
10007824:	4662      	mov	r2, ip
10007826:	4053      	eors	r3, r2
10007828:	930f      	str	r3, [sp, #60]	; 0x3c
1000782a:	980e      	ldr	r0, [sp, #56]	; 0x38
1000782c:	990f      	ldr	r1, [sp, #60]	; 0x3c
1000782e:	9a0c      	ldr	r2, [sp, #48]	; 0x30
10007830:	9b0d      	ldr	r3, [sp, #52]	; 0x34
10007832:	1a80      	subs	r0, r0, r2
10007834:	4199      	sbcs	r1, r3
10007836:	900e      	str	r0, [sp, #56]	; 0x38
10007838:	910f      	str	r1, [sp, #60]	; 0x3c
1000783a:	9408      	str	r4, [sp, #32]
1000783c:	9b0a      	ldr	r3, [sp, #40]	; 0x28
1000783e:	9307      	str	r3, [sp, #28]
10007840:	4653      	mov	r3, sl
10007842:	9306      	str	r3, [sp, #24]
10007844:	9604      	str	r6, [sp, #16]
10007846:	2300      	movs	r3, #0
10007848:	9305      	str	r3, [sp, #20]
1000784a:	4663      	mov	r3, ip
1000784c:	0fda      	lsrs	r2, r3, #31
1000784e:	9202      	str	r2, [sp, #8]
10007850:	9000      	str	r0, [sp, #0]
10007852:	9101      	str	r1, [sp, #4]
10007854:	4643      	mov	r3, r8
10007856:	003a      	movs	r2, r7
10007858:	4659      	mov	r1, fp
1000785a:	0028      	movs	r0, r5
1000785c:	f7ff fa6f 	bl	10006d3e <_ntoa_long_long>
10007860:	0007      	movs	r7, r0
10007862:	e7c9      	b.n	100077f8 <_vsnprintf+0x270>
10007864:	9a1c      	ldr	r2, [sp, #112]	; 0x70
10007866:	1d11      	adds	r1, r2, #4
10007868:	911c      	str	r1, [sp, #112]	; 0x70
1000786a:	6812      	ldr	r2, [r2, #0]
1000786c:	17d3      	asrs	r3, r2, #31
1000786e:	18d1      	adds	r1, r2, r3
10007870:	4059      	eors	r1, r3
10007872:	9405      	str	r4, [sp, #20]
10007874:	9b0a      	ldr	r3, [sp, #40]	; 0x28
10007876:	9304      	str	r3, [sp, #16]
10007878:	4653      	mov	r3, sl
1000787a:	9303      	str	r3, [sp, #12]
1000787c:	9602      	str	r6, [sp, #8]
1000787e:	0fd2      	lsrs	r2, r2, #31
10007880:	9201      	str	r2, [sp, #4]
10007882:	9100      	str	r1, [sp, #0]
10007884:	4643      	mov	r3, r8
10007886:	003a      	movs	r2, r7
10007888:	4659      	mov	r1, fp
1000788a:	0028      	movs	r0, r5
1000788c:	f7ff f9f9 	bl	10006c82 <_ntoa_long>
10007890:	0007      	movs	r7, r0
10007892:	e7b1      	b.n	100077f8 <_vsnprintf+0x270>
10007894:	0623      	lsls	r3, r4, #24
10007896:	d505      	bpl.n	100078a4 <_vsnprintf+0x31c>
10007898:	9a1c      	ldr	r2, [sp, #112]	; 0x70
1000789a:	1d11      	adds	r1, r2, #4
1000789c:	911c      	str	r1, [sp, #112]	; 0x70
1000789e:	2300      	movs	r3, #0
100078a0:	5ed2      	ldrsh	r2, [r2, r3]
100078a2:	e796      	b.n	100077d2 <_vsnprintf+0x24a>
100078a4:	9a1c      	ldr	r2, [sp, #112]	; 0x70
100078a6:	1d11      	adds	r1, r2, #4
100078a8:	911c      	str	r1, [sp, #112]	; 0x70
100078aa:	6812      	ldr	r2, [r2, #0]
100078ac:	e791      	b.n	100077d2 <_vsnprintf+0x24a>
100078ae:	9b1c      	ldr	r3, [sp, #112]	; 0x70
100078b0:	1dda      	adds	r2, r3, #7
100078b2:	2107      	movs	r1, #7
100078b4:	438a      	bics	r2, r1
100078b6:	0011      	movs	r1, r2
100078b8:	3108      	adds	r1, #8
100078ba:	911c      	str	r1, [sp, #112]	; 0x70
100078bc:	9408      	str	r4, [sp, #32]
100078be:	9b0a      	ldr	r3, [sp, #40]	; 0x28
100078c0:	9307      	str	r3, [sp, #28]
100078c2:	4653      	mov	r3, sl
100078c4:	9306      	str	r3, [sp, #24]
100078c6:	9604      	str	r6, [sp, #16]
100078c8:	2300      	movs	r3, #0
100078ca:	9305      	str	r3, [sp, #20]
100078cc:	9302      	str	r3, [sp, #8]
100078ce:	6813      	ldr	r3, [r2, #0]
100078d0:	6854      	ldr	r4, [r2, #4]
100078d2:	9300      	str	r3, [sp, #0]
100078d4:	9401      	str	r4, [sp, #4]
100078d6:	4643      	mov	r3, r8
100078d8:	003a      	movs	r2, r7
100078da:	4659      	mov	r1, fp
100078dc:	0028      	movs	r0, r5
100078de:	f7ff fa2e 	bl	10006d3e <_ntoa_long_long>
100078e2:	0007      	movs	r7, r0
100078e4:	e788      	b.n	100077f8 <_vsnprintf+0x270>
100078e6:	9a1c      	ldr	r2, [sp, #112]	; 0x70
100078e8:	1d11      	adds	r1, r2, #4
100078ea:	911c      	str	r1, [sp, #112]	; 0x70
100078ec:	9405      	str	r4, [sp, #20]
100078ee:	9b0a      	ldr	r3, [sp, #40]	; 0x28
100078f0:	9304      	str	r3, [sp, #16]
100078f2:	4653      	mov	r3, sl
100078f4:	9303      	str	r3, [sp, #12]
100078f6:	9602      	str	r6, [sp, #8]
100078f8:	2300      	movs	r3, #0
100078fa:	9301      	str	r3, [sp, #4]
100078fc:	6813      	ldr	r3, [r2, #0]
100078fe:	9300      	str	r3, [sp, #0]
10007900:	4643      	mov	r3, r8
10007902:	003a      	movs	r2, r7
10007904:	4659      	mov	r1, fp
10007906:	0028      	movs	r0, r5
10007908:	f7ff f9bb 	bl	10006c82 <_ntoa_long>
1000790c:	0007      	movs	r7, r0
1000790e:	e773      	b.n	100077f8 <_vsnprintf+0x270>
10007910:	0623      	lsls	r3, r4, #24
10007912:	d50d      	bpl.n	10007930 <_vsnprintf+0x3a8>
10007914:	9a1c      	ldr	r2, [sp, #112]	; 0x70
10007916:	1d11      	adds	r1, r2, #4
10007918:	911c      	str	r1, [sp, #112]	; 0x70
1000791a:	6812      	ldr	r2, [r2, #0]
1000791c:	0412      	lsls	r2, r2, #16
1000791e:	0c12      	lsrs	r2, r2, #16
10007920:	e731      	b.n	10007786 <_vsnprintf+0x1fe>
10007922:	46c0      	nop			; (mov r8, r8)
10007924:	1000d4ec 	.word	0x1000d4ec
10007928:	1000d530 	.word	0x1000d530
1000792c:	1000d57c 	.word	0x1000d57c
10007930:	9a1c      	ldr	r2, [sp, #112]	; 0x70
10007932:	1d11      	adds	r1, r2, #4
10007934:	911c      	str	r1, [sp, #112]	; 0x70
10007936:	6812      	ldr	r2, [r2, #0]
10007938:	e725      	b.n	10007786 <_vsnprintf+0x1fe>
1000793a:	2846      	cmp	r0, #70	; 0x46
1000793c:	d01a      	beq.n	10007974 <_vsnprintf+0x3ec>
1000793e:	9b1c      	ldr	r3, [sp, #112]	; 0x70
10007940:	3307      	adds	r3, #7
10007942:	2207      	movs	r2, #7
10007944:	4393      	bics	r3, r2
10007946:	001a      	movs	r2, r3
10007948:	3208      	adds	r2, #8
1000794a:	921c      	str	r2, [sp, #112]	; 0x70
1000794c:	9404      	str	r4, [sp, #16]
1000794e:	9a0a      	ldr	r2, [sp, #40]	; 0x28
10007950:	9203      	str	r2, [sp, #12]
10007952:	4652      	mov	r2, sl
10007954:	9202      	str	r2, [sp, #8]
10007956:	685c      	ldr	r4, [r3, #4]
10007958:	681b      	ldr	r3, [r3, #0]
1000795a:	9300      	str	r3, [sp, #0]
1000795c:	9401      	str	r4, [sp, #4]
1000795e:	4643      	mov	r3, r8
10007960:	003a      	movs	r2, r7
10007962:	4659      	mov	r1, fp
10007964:	0028      	movs	r0, r5
10007966:	f7ff fc65 	bl	10007234 <_ftoa>
1000796a:	0007      	movs	r7, r0
1000796c:	9b11      	ldr	r3, [sp, #68]	; 0x44
1000796e:	3301      	adds	r3, #1
10007970:	9311      	str	r3, [sp, #68]	; 0x44
10007972:	e619      	b.n	100075a8 <_vsnprintf+0x20>
10007974:	2320      	movs	r3, #32
10007976:	431c      	orrs	r4, r3
10007978:	e7e1      	b.n	1000793e <_vsnprintf+0x3b6>
1000797a:	2867      	cmp	r0, #103	; 0x67
1000797c:	d001      	beq.n	10007982 <_vsnprintf+0x3fa>
1000797e:	2847      	cmp	r0, #71	; 0x47
10007980:	d102      	bne.n	10007988 <_vsnprintf+0x400>
10007982:	2380      	movs	r3, #128	; 0x80
10007984:	011b      	lsls	r3, r3, #4
10007986:	431c      	orrs	r4, r3
10007988:	2845      	cmp	r0, #69	; 0x45
1000798a:	d001      	beq.n	10007990 <_vsnprintf+0x408>
1000798c:	2847      	cmp	r0, #71	; 0x47
1000798e:	d101      	bne.n	10007994 <_vsnprintf+0x40c>
10007990:	2320      	movs	r3, #32
10007992:	431c      	orrs	r4, r3
10007994:	9b1c      	ldr	r3, [sp, #112]	; 0x70
10007996:	3307      	adds	r3, #7
10007998:	2207      	movs	r2, #7
1000799a:	4393      	bics	r3, r2
1000799c:	001a      	movs	r2, r3
1000799e:	3208      	adds	r2, #8
100079a0:	921c      	str	r2, [sp, #112]	; 0x70
100079a2:	9404      	str	r4, [sp, #16]
100079a4:	9a0a      	ldr	r2, [sp, #40]	; 0x28
100079a6:	9203      	str	r2, [sp, #12]
100079a8:	4652      	mov	r2, sl
100079aa:	9202      	str	r2, [sp, #8]
100079ac:	685c      	ldr	r4, [r3, #4]
100079ae:	681b      	ldr	r3, [r3, #0]
100079b0:	9300      	str	r3, [sp, #0]
100079b2:	9401      	str	r4, [sp, #4]
100079b4:	4643      	mov	r3, r8
100079b6:	003a      	movs	r2, r7
100079b8:	4659      	mov	r1, fp
100079ba:	0028      	movs	r0, r5
100079bc:	f7ff fa30 	bl	10006e20 <_etoa>
100079c0:	0007      	movs	r7, r0
100079c2:	9b11      	ldr	r3, [sp, #68]	; 0x44
100079c4:	3301      	adds	r3, #1
100079c6:	9311      	str	r3, [sp, #68]	; 0x44
100079c8:	e5ee      	b.n	100075a8 <_vsnprintf+0x20>
100079ca:	2302      	movs	r3, #2
100079cc:	001a      	movs	r2, r3
100079ce:	4022      	ands	r2, r4
100079d0:	4692      	mov	sl, r2
100079d2:	4223      	tst	r3, r4
100079d4:	d01f      	beq.n	10007a16 <_vsnprintf+0x48e>
100079d6:	2401      	movs	r4, #1
100079d8:	9b1c      	ldr	r3, [sp, #112]	; 0x70
100079da:	1d1a      	adds	r2, r3, #4
100079dc:	921c      	str	r2, [sp, #112]	; 0x70
100079de:	1c7a      	adds	r2, r7, #1
100079e0:	4691      	mov	r9, r2
100079e2:	7818      	ldrb	r0, [r3, #0]
100079e4:	4643      	mov	r3, r8
100079e6:	003a      	movs	r2, r7
100079e8:	4659      	mov	r1, fp
100079ea:	47a8      	blx	r5
100079ec:	4653      	mov	r3, sl
100079ee:	2b00      	cmp	r3, #0
100079f0:	d116      	bne.n	10007a20 <_vsnprintf+0x498>
100079f2:	9b11      	ldr	r3, [sp, #68]	; 0x44
100079f4:	3301      	adds	r3, #1
100079f6:	9311      	str	r3, [sp, #68]	; 0x44
100079f8:	464f      	mov	r7, r9
100079fa:	e5d5      	b.n	100075a8 <_vsnprintf+0x20>
100079fc:	1c56      	adds	r6, r2, #1
100079fe:	4643      	mov	r3, r8
10007a00:	4659      	mov	r1, fp
10007a02:	2020      	movs	r0, #32
10007a04:	47b8      	blx	r7
10007a06:	0023      	movs	r3, r4
10007a08:	0032      	movs	r2, r6
10007a0a:	1c5c      	adds	r4, r3, #1
10007a0c:	429d      	cmp	r5, r3
10007a0e:	d8f5      	bhi.n	100079fc <_vsnprintf+0x474>
10007a10:	003d      	movs	r5, r7
10007a12:	0017      	movs	r7, r2
10007a14:	e7e0      	b.n	100079d8 <_vsnprintf+0x450>
10007a16:	2301      	movs	r3, #1
10007a18:	003a      	movs	r2, r7
10007a1a:	002f      	movs	r7, r5
10007a1c:	9d0a      	ldr	r5, [sp, #40]	; 0x28
10007a1e:	e7f4      	b.n	10007a0a <_vsnprintf+0x482>
10007a20:	464a      	mov	r2, r9
10007a22:	46a9      	mov	r9, r5
10007a24:	9d0a      	ldr	r5, [sp, #40]	; 0x28
10007a26:	e006      	b.n	10007a36 <_vsnprintf+0x4ae>
10007a28:	1c57      	adds	r7, r2, #1
10007a2a:	4643      	mov	r3, r8
10007a2c:	4659      	mov	r1, fp
10007a2e:	2020      	movs	r0, #32
10007a30:	47c8      	blx	r9
10007a32:	0034      	movs	r4, r6
10007a34:	003a      	movs	r2, r7
10007a36:	1c66      	adds	r6, r4, #1
10007a38:	42a5      	cmp	r5, r4
10007a3a:	d8f5      	bhi.n	10007a28 <_vsnprintf+0x4a0>
10007a3c:	464d      	mov	r5, r9
10007a3e:	4691      	mov	r9, r2
10007a40:	e7d7      	b.n	100079f2 <_vsnprintf+0x46a>
10007a42:	9b1c      	ldr	r3, [sp, #112]	; 0x70
10007a44:	1d1a      	adds	r2, r3, #4
10007a46:	921c      	str	r2, [sp, #112]	; 0x70
10007a48:	681b      	ldr	r3, [r3, #0]
10007a4a:	4699      	mov	r9, r3
10007a4c:	4653      	mov	r3, sl
10007a4e:	2b00      	cmp	r3, #0
10007a50:	d100      	bne.n	10007a54 <_vsnprintf+0x4cc>
10007a52:	3b01      	subs	r3, #1
10007a54:	464e      	mov	r6, r9
10007a56:	e001      	b.n	10007a5c <_vsnprintf+0x4d4>
10007a58:	3601      	adds	r6, #1
10007a5a:	0013      	movs	r3, r2
10007a5c:	7832      	ldrb	r2, [r6, #0]
10007a5e:	2a00      	cmp	r2, #0
10007a60:	d002      	beq.n	10007a68 <_vsnprintf+0x4e0>
10007a62:	1e5a      	subs	r2, r3, #1
10007a64:	2b00      	cmp	r3, #0
10007a66:	d1f7      	bne.n	10007a58 <_vsnprintf+0x4d0>
10007a68:	464b      	mov	r3, r9
10007a6a:	1af2      	subs	r2, r6, r3
10007a6c:	9210      	str	r2, [sp, #64]	; 0x40
10007a6e:	2380      	movs	r3, #128	; 0x80
10007a70:	00db      	lsls	r3, r3, #3
10007a72:	0026      	movs	r6, r4
10007a74:	401e      	ands	r6, r3
10007a76:	421c      	tst	r4, r3
10007a78:	d003      	beq.n	10007a82 <_vsnprintf+0x4fa>
10007a7a:	4552      	cmp	r2, sl
10007a7c:	d901      	bls.n	10007a82 <_vsnprintf+0x4fa>
10007a7e:	4653      	mov	r3, sl
10007a80:	9310      	str	r3, [sp, #64]	; 0x40
10007a82:	2302      	movs	r3, #2
10007a84:	001a      	movs	r2, r3
10007a86:	4022      	ands	r2, r4
10007a88:	920b      	str	r2, [sp, #44]	; 0x2c
10007a8a:	4223      	tst	r3, r4
10007a8c:	d005      	beq.n	10007a9a <_vsnprintf+0x512>
10007a8e:	003a      	movs	r2, r7
10007a90:	0037      	movs	r7, r6
10007a92:	464c      	mov	r4, r9
10007a94:	46a9      	mov	r9, r5
10007a96:	4655      	mov	r5, sl
10007a98:	e020      	b.n	10007adc <_vsnprintf+0x554>
10007a9a:	003a      	movs	r2, r7
10007a9c:	9b10      	ldr	r3, [sp, #64]	; 0x40
10007a9e:	465f      	mov	r7, fp
10007aa0:	46b3      	mov	fp, r6
10007aa2:	002e      	movs	r6, r5
10007aa4:	e006      	b.n	10007ab4 <_vsnprintf+0x52c>
10007aa6:	1c55      	adds	r5, r2, #1
10007aa8:	4643      	mov	r3, r8
10007aaa:	0039      	movs	r1, r7
10007aac:	2020      	movs	r0, #32
10007aae:	47b0      	blx	r6
10007ab0:	0023      	movs	r3, r4
10007ab2:	002a      	movs	r2, r5
10007ab4:	1c5c      	adds	r4, r3, #1
10007ab6:	990a      	ldr	r1, [sp, #40]	; 0x28
10007ab8:	4299      	cmp	r1, r3
10007aba:	d8f4      	bhi.n	10007aa6 <_vsnprintf+0x51e>
10007abc:	0035      	movs	r5, r6
10007abe:	465e      	mov	r6, fp
10007ac0:	46bb      	mov	fp, r7
10007ac2:	9410      	str	r4, [sp, #64]	; 0x40
10007ac4:	0037      	movs	r7, r6
10007ac6:	464c      	mov	r4, r9
10007ac8:	46a9      	mov	r9, r5
10007aca:	4655      	mov	r5, sl
10007acc:	e006      	b.n	10007adc <_vsnprintf+0x554>
10007ace:	001d      	movs	r5, r3
10007ad0:	3401      	adds	r4, #1
10007ad2:	1c56      	adds	r6, r2, #1
10007ad4:	4643      	mov	r3, r8
10007ad6:	4659      	mov	r1, fp
10007ad8:	47c8      	blx	r9
10007ada:	0032      	movs	r2, r6
10007adc:	7820      	ldrb	r0, [r4, #0]
10007ade:	2800      	cmp	r0, #0
10007ae0:	d004      	beq.n	10007aec <_vsnprintf+0x564>
10007ae2:	2f00      	cmp	r7, #0
10007ae4:	d0f4      	beq.n	10007ad0 <_vsnprintf+0x548>
10007ae6:	1e6b      	subs	r3, r5, #1
10007ae8:	2d00      	cmp	r5, #0
10007aea:	d1f0      	bne.n	10007ace <_vsnprintf+0x546>
10007aec:	0017      	movs	r7, r2
10007aee:	464d      	mov	r5, r9
10007af0:	9b0b      	ldr	r3, [sp, #44]	; 0x2c
10007af2:	2b00      	cmp	r3, #0
10007af4:	d103      	bne.n	10007afe <_vsnprintf+0x576>
10007af6:	9b11      	ldr	r3, [sp, #68]	; 0x44
10007af8:	3301      	adds	r3, #1
10007afa:	9311      	str	r3, [sp, #68]	; 0x44
10007afc:	e554      	b.n	100075a8 <_vsnprintf+0x20>
10007afe:	9f0a      	ldr	r7, [sp, #40]	; 0x28
10007b00:	9b10      	ldr	r3, [sp, #64]	; 0x40
10007b02:	e006      	b.n	10007b12 <_vsnprintf+0x58a>
10007b04:	1c56      	adds	r6, r2, #1
10007b06:	4643      	mov	r3, r8
10007b08:	4659      	mov	r1, fp
10007b0a:	2020      	movs	r0, #32
10007b0c:	47a8      	blx	r5
10007b0e:	0023      	movs	r3, r4
10007b10:	0032      	movs	r2, r6
10007b12:	1c5c      	adds	r4, r3, #1
10007b14:	429f      	cmp	r7, r3
10007b16:	d8f5      	bhi.n	10007b04 <_vsnprintf+0x57c>
10007b18:	0017      	movs	r7, r2
10007b1a:	e7ec      	b.n	10007af6 <_vsnprintf+0x56e>
10007b1c:	2321      	movs	r3, #33	; 0x21
10007b1e:	431c      	orrs	r4, r3
10007b20:	9b1c      	ldr	r3, [sp, #112]	; 0x70
10007b22:	1d1a      	adds	r2, r3, #4
10007b24:	921c      	str	r2, [sp, #112]	; 0x70
10007b26:	681b      	ldr	r3, [r3, #0]
10007b28:	9300      	str	r3, [sp, #0]
10007b2a:	9405      	str	r4, [sp, #20]
10007b2c:	2308      	movs	r3, #8
10007b2e:	9304      	str	r3, [sp, #16]
10007b30:	4653      	mov	r3, sl
10007b32:	9303      	str	r3, [sp, #12]
10007b34:	2310      	movs	r3, #16
10007b36:	9302      	str	r3, [sp, #8]
10007b38:	2300      	movs	r3, #0
10007b3a:	9301      	str	r3, [sp, #4]
10007b3c:	4643      	mov	r3, r8
10007b3e:	003a      	movs	r2, r7
10007b40:	4659      	mov	r1, fp
10007b42:	0028      	movs	r0, r5
10007b44:	f7ff f89d 	bl	10006c82 <_ntoa_long>
10007b48:	0007      	movs	r7, r0
10007b4a:	9b11      	ldr	r3, [sp, #68]	; 0x44
10007b4c:	3301      	adds	r3, #1
10007b4e:	9311      	str	r3, [sp, #68]	; 0x44
10007b50:	e52a      	b.n	100075a8 <_vsnprintf+0x20>
10007b52:	1c7c      	adds	r4, r7, #1
10007b54:	4643      	mov	r3, r8
10007b56:	003a      	movs	r2, r7
10007b58:	4659      	mov	r1, fp
10007b5a:	2025      	movs	r0, #37	; 0x25
10007b5c:	47a8      	blx	r5
10007b5e:	9b11      	ldr	r3, [sp, #68]	; 0x44
10007b60:	3301      	adds	r3, #1
10007b62:	9311      	str	r3, [sp, #68]	; 0x44
10007b64:	0027      	movs	r7, r4
10007b66:	e51f      	b.n	100075a8 <_vsnprintf+0x20>
10007b68:	1c7c      	adds	r4, r7, #1
10007b6a:	4643      	mov	r3, r8
10007b6c:	003a      	movs	r2, r7
10007b6e:	4659      	mov	r1, fp
10007b70:	47a8      	blx	r5
10007b72:	9b11      	ldr	r3, [sp, #68]	; 0x44
10007b74:	3301      	adds	r3, #1
10007b76:	9311      	str	r3, [sp, #68]	; 0x44
10007b78:	0027      	movs	r7, r4
10007b7a:	e515      	b.n	100075a8 <_vsnprintf+0x20>
10007b7c:	4b0a      	ldr	r3, [pc, #40]	; (10007ba8 <_vsnprintf+0x620>)
10007b7e:	469a      	mov	sl, r3
10007b80:	e510      	b.n	100075a4 <_vsnprintf+0x1c>
10007b82:	46aa      	mov	sl, r5
10007b84:	4547      	cmp	r7, r8
10007b86:	d302      	bcc.n	10007b8e <_vsnprintf+0x606>
10007b88:	4643      	mov	r3, r8
10007b8a:	1e5a      	subs	r2, r3, #1
10007b8c:	e000      	b.n	10007b90 <_vsnprintf+0x608>
10007b8e:	003a      	movs	r2, r7
10007b90:	4643      	mov	r3, r8
10007b92:	4659      	mov	r1, fp
10007b94:	2000      	movs	r0, #0
10007b96:	47d0      	blx	sl
10007b98:	0038      	movs	r0, r7
10007b9a:	b013      	add	sp, #76	; 0x4c
10007b9c:	bcf0      	pop	{r4, r5, r6, r7}
10007b9e:	46bb      	mov	fp, r7
10007ba0:	46b2      	mov	sl, r6
10007ba2:	46a9      	mov	r9, r5
10007ba4:	46a0      	mov	r8, r4
10007ba6:	bdf0      	pop	{r4, r5, r6, r7, pc}
10007ba8:	10006a8f 	.word	0x10006a8f

10007bac <vfctprintf>:
10007bac:	b500      	push	{lr}
10007bae:	b085      	sub	sp, #20
10007bb0:	9002      	str	r0, [sp, #8]
10007bb2:	9103      	str	r1, [sp, #12]
10007bb4:	2101      	movs	r1, #1
10007bb6:	9300      	str	r3, [sp, #0]
10007bb8:	0013      	movs	r3, r2
10007bba:	424a      	negs	r2, r1
10007bbc:	a902      	add	r1, sp, #8
10007bbe:	4802      	ldr	r0, [pc, #8]	; (10007bc8 <vfctprintf+0x1c>)
10007bc0:	f7ff fce2 	bl	10007588 <_vsnprintf>
10007bc4:	b005      	add	sp, #20
10007bc6:	bd00      	pop	{pc}
10007bc8:	10006a91 	.word	0x10006a91

10007bcc <__aeabi_bits_init>:
10007bcc:	4801      	ldr	r0, [pc, #4]	; (10007bd4 <__aeabi_bits_init+0x8>)
10007bce:	2104      	movs	r1, #4
10007bd0:	4b01      	ldr	r3, [pc, #4]	; (10007bd8 <__aeabi_bits_init+0xc>)
10007bd2:	4718      	bx	r3
10007bd4:	20000b20 	.word	0x20000b20
10007bd8:	10007bfd 	.word	0x10007bfd

10007bdc <rom_func_lookup>:
10007bdc:	b510      	push	{r4, lr}
10007bde:	0001      	movs	r1, r0
10007be0:	2318      	movs	r3, #24
10007be2:	881b      	ldrh	r3, [r3, #0]
10007be4:	2214      	movs	r2, #20
10007be6:	8810      	ldrh	r0, [r2, #0]
10007be8:	4798      	blx	r3
10007bea:	bd10      	pop	{r4, pc}

10007bec <rom_data_lookup>:
10007bec:	b510      	push	{r4, lr}
10007bee:	0001      	movs	r1, r0
10007bf0:	2318      	movs	r3, #24
10007bf2:	881b      	ldrh	r3, [r3, #0]
10007bf4:	2216      	movs	r2, #22
10007bf6:	8810      	ldrh	r0, [r2, #0]
10007bf8:	4798      	blx	r3
10007bfa:	bd10      	pop	{r4, pc}

10007bfc <rom_funcs_lookup>:
10007bfc:	b5f0      	push	{r4, r5, r6, r7, lr}
10007bfe:	46c6      	mov	lr, r8
10007c00:	b500      	push	{lr}
10007c02:	0007      	movs	r7, r0
10007c04:	000e      	movs	r6, r1
10007c06:	2500      	movs	r5, #0
10007c08:	2301      	movs	r3, #1
10007c0a:	4698      	mov	r8, r3
10007c0c:	e000      	b.n	10007c10 <rom_funcs_lookup+0x14>
10007c0e:	3501      	adds	r5, #1
10007c10:	42b5      	cmp	r5, r6
10007c12:	d20a      	bcs.n	10007c2a <rom_funcs_lookup+0x2e>
10007c14:	00ac      	lsls	r4, r5, #2
10007c16:	193c      	adds	r4, r7, r4
10007c18:	6820      	ldr	r0, [r4, #0]
10007c1a:	f7ff ffdf 	bl	10007bdc <rom_func_lookup>
10007c1e:	6020      	str	r0, [r4, #0]
10007c20:	2800      	cmp	r0, #0
10007c22:	d1f4      	bne.n	10007c0e <rom_funcs_lookup+0x12>
10007c24:	2300      	movs	r3, #0
10007c26:	4698      	mov	r8, r3
10007c28:	e7f1      	b.n	10007c0e <rom_funcs_lookup+0x12>
10007c2a:	4640      	mov	r0, r8
10007c2c:	bc80      	pop	{r7}
10007c2e:	46b8      	mov	r8, r7
10007c30:	bdf0      	pop	{r4, r5, r6, r7, pc}
	...

10007c34 <__wrap___aeabi_idiv>:
10007c34:	4a14      	ldr	r2, [pc, #80]	; (10007c88 <divmod_s32s32_savestate+0x20>)
10007c36:	6f93      	ldr	r3, [r2, #120]	; 0x78
10007c38:	089b      	lsrs	r3, r3, #2
10007c3a:	d215      	bcs.n	10007c68 <divmod_s32s32_savestate>

10007c3c <divmod_s32s32_unsafe>:
10007c3c:	6690      	str	r0, [r2, #104]	; 0x68
10007c3e:	66d1      	str	r1, [r2, #108]	; 0x6c
10007c40:	2900      	cmp	r1, #0
10007c42:	d005      	beq.n	10007c50 <divmod_s32s32_unsafe+0x14>
10007c44:	e7ff      	b.n	10007c46 <divmod_s32s32_unsafe+0xa>
10007c46:	e7ff      	b.n	10007c48 <divmod_s32s32_unsafe+0xc>
10007c48:	e7ff      	b.n	10007c4a <divmod_s32s32_unsafe+0xe>
10007c4a:	6f51      	ldr	r1, [r2, #116]	; 0x74
10007c4c:	6f10      	ldr	r0, [r2, #112]	; 0x70
10007c4e:	4770      	bx	lr
10007c50:	b504      	push	{r2, lr}
10007c52:	2180      	movs	r1, #128	; 0x80
10007c54:	0609      	lsls	r1, r1, #24
10007c56:	17c2      	asrs	r2, r0, #31
10007c58:	4051      	eors	r1, r2
10007c5a:	2800      	cmp	r0, #0
10007c5c:	d000      	beq.n	10007c60 <divmod_s32s32_unsafe+0x24>
10007c5e:	43c8      	mvns	r0, r1
10007c60:	f003 ff16 	bl	1000ba90 <____aeabi_idiv0_veneer>
10007c64:	2100      	movs	r1, #0
10007c66:	bd04      	pop	{r2, pc}

10007c68 <divmod_s32s32_savestate>:
10007c68:	6f93      	ldr	r3, [r2, #120]	; 0x78
10007c6a:	085b      	lsrs	r3, r3, #1
10007c6c:	d3fd      	bcc.n	10007c6a <divmod_s32s32_savestate+0x2>
10007c6e:	b5f0      	push	{r4, r5, r6, r7, lr}
10007c70:	6e94      	ldr	r4, [r2, #104]	; 0x68
10007c72:	6ed5      	ldr	r5, [r2, #108]	; 0x6c
10007c74:	6f57      	ldr	r7, [r2, #116]	; 0x74
10007c76:	6f16      	ldr	r6, [r2, #112]	; 0x70
10007c78:	f7ff ffe0 	bl	10007c3c <divmod_s32s32_unsafe>
10007c7c:	6694      	str	r4, [r2, #104]	; 0x68
10007c7e:	66d5      	str	r5, [r2, #108]	; 0x6c
10007c80:	6757      	str	r7, [r2, #116]	; 0x74
10007c82:	6716      	str	r6, [r2, #112]	; 0x70
10007c84:	bdf0      	pop	{r4, r5, r6, r7, pc}
10007c86:	0000      	.short	0x0000
10007c88:	d0000000 	.word	0xd0000000

10007c8c <__wrap___aeabi_uidiv>:
10007c8c:	4a13      	ldr	r2, [pc, #76]	; (10007cdc <divmod_u32u32_savestate+0x20>)
10007c8e:	6f93      	ldr	r3, [r2, #120]	; 0x78
10007c90:	089b      	lsrs	r3, r3, #2
10007c92:	d213      	bcs.n	10007cbc <divmod_u32u32_savestate>

10007c94 <divmod_u32u32_unsafe>:
10007c94:	6610      	str	r0, [r2, #96]	; 0x60
10007c96:	6651      	str	r1, [r2, #100]	; 0x64
10007c98:	2900      	cmp	r1, #0
10007c9a:	d005      	beq.n	10007ca8 <divmod_u32u32_unsafe+0x14>
10007c9c:	e7ff      	b.n	10007c9e <divmod_u32u32_unsafe+0xa>
10007c9e:	e7ff      	b.n	10007ca0 <divmod_u32u32_unsafe+0xc>
10007ca0:	e7ff      	b.n	10007ca2 <divmod_u32u32_unsafe+0xe>
10007ca2:	6f51      	ldr	r1, [r2, #116]	; 0x74
10007ca4:	6f10      	ldr	r0, [r2, #112]	; 0x70
10007ca6:	4770      	bx	lr
10007ca8:	b504      	push	{r2, lr}
10007caa:	2800      	cmp	r0, #0
10007cac:	d001      	beq.n	10007cb2 <divmod_u32u32_unsafe+0x1e>
10007cae:	2000      	movs	r0, #0
10007cb0:	43c0      	mvns	r0, r0
10007cb2:	f003 feed 	bl	1000ba90 <____aeabi_idiv0_veneer>
10007cb6:	2100      	movs	r1, #0
10007cb8:	bd04      	pop	{r2, pc}
10007cba:	46c0      	nop			; (mov r8, r8)

10007cbc <divmod_u32u32_savestate>:
10007cbc:	6f93      	ldr	r3, [r2, #120]	; 0x78
10007cbe:	085b      	lsrs	r3, r3, #1
10007cc0:	d3fd      	bcc.n	10007cbe <divmod_u32u32_savestate+0x2>
10007cc2:	b5f0      	push	{r4, r5, r6, r7, lr}
10007cc4:	6e94      	ldr	r4, [r2, #104]	; 0x68
10007cc6:	6ed5      	ldr	r5, [r2, #108]	; 0x6c
10007cc8:	6f57      	ldr	r7, [r2, #116]	; 0x74
10007cca:	6f16      	ldr	r6, [r2, #112]	; 0x70
10007ccc:	f7ff ffe2 	bl	10007c94 <divmod_u32u32_unsafe>
10007cd0:	6694      	str	r4, [r2, #104]	; 0x68
10007cd2:	66d5      	str	r5, [r2, #108]	; 0x6c
10007cd4:	6757      	str	r7, [r2, #116]	; 0x74
10007cd6:	6716      	str	r6, [r2, #112]	; 0x70
10007cd8:	bdf0      	pop	{r4, r5, r6, r7, pc}
10007cda:	0000      	.short	0x0000
10007cdc:	d0000000 	.word	0xd0000000

10007ce0 <__wrap___aeabi_ldivmod>:
10007ce0:	4694      	mov	ip, r2
10007ce2:	4a4e      	ldr	r2, [pc, #312]	; (10007e1c <udiv0+0x1a>)
10007ce4:	6f92      	ldr	r2, [r2, #120]	; 0x78
10007ce6:	0892      	lsrs	r2, r2, #2
10007ce8:	4662      	mov	r2, ip
10007cea:	d201      	bcs.n	10007cf0 <divmod_s64s64_savestate>
10007cec:	e030      	b.n	10007d50 <divmod_s64s64_unsafe>
10007cee:	46c0      	nop			; (mov r8, r8)

10007cf0 <divmod_s64s64_savestate>:
10007cf0:	b5f0      	push	{r4, r5, r6, r7, lr}
10007cf2:	4e4a      	ldr	r6, [pc, #296]	; (10007e1c <udiv0+0x1a>)
10007cf4:	6fb5      	ldr	r5, [r6, #120]	; 0x78
10007cf6:	086d      	lsrs	r5, r5, #1
10007cf8:	d3fc      	bcc.n	10007cf4 <divmod_s64s64_savestate+0x4>
10007cfa:	6e34      	ldr	r4, [r6, #96]	; 0x60
10007cfc:	6e75      	ldr	r5, [r6, #100]	; 0x64
10007cfe:	6f77      	ldr	r7, [r6, #116]	; 0x74
10007d00:	6f36      	ldr	r6, [r6, #112]	; 0x70
10007d02:	f000 f825 	bl	10007d50 <divmod_s64s64_unsafe>
10007d06:	4694      	mov	ip, r2
10007d08:	4a44      	ldr	r2, [pc, #272]	; (10007e1c <udiv0+0x1a>)
10007d0a:	6614      	str	r4, [r2, #96]	; 0x60
10007d0c:	6655      	str	r5, [r2, #100]	; 0x64
10007d0e:	6757      	str	r7, [r2, #116]	; 0x74
10007d10:	6716      	str	r6, [r2, #112]	; 0x70
10007d12:	4662      	mov	r2, ip
10007d14:	bdf0      	pop	{r4, r5, r6, r7, pc}
10007d16:	46c0      	nop			; (mov r8, r8)

10007d18 <__wrap___aeabi_uldivmod>:
10007d18:	4694      	mov	ip, r2
10007d1a:	4a40      	ldr	r2, [pc, #256]	; (10007e1c <udiv0+0x1a>)
10007d1c:	6f92      	ldr	r2, [r2, #120]	; 0x78
10007d1e:	0892      	lsrs	r2, r2, #2
10007d20:	4662      	mov	r2, ip
10007d22:	d201      	bcs.n	10007d28 <divmod_u64u64_savestate>
10007d24:	e058      	b.n	10007dd8 <divmod_u64u64_unsafe>
10007d26:	46c0      	nop			; (mov r8, r8)

10007d28 <divmod_u64u64_savestate>:
10007d28:	b5f0      	push	{r4, r5, r6, r7, lr}
10007d2a:	4e3c      	ldr	r6, [pc, #240]	; (10007e1c <udiv0+0x1a>)
10007d2c:	6fb5      	ldr	r5, [r6, #120]	; 0x78
10007d2e:	086d      	lsrs	r5, r5, #1
10007d30:	d3fc      	bcc.n	10007d2c <divmod_u64u64_savestate+0x4>
10007d32:	6e34      	ldr	r4, [r6, #96]	; 0x60
10007d34:	6e75      	ldr	r5, [r6, #100]	; 0x64
10007d36:	6f77      	ldr	r7, [r6, #116]	; 0x74
10007d38:	6f36      	ldr	r6, [r6, #112]	; 0x70
10007d3a:	f000 f84d 	bl	10007dd8 <divmod_u64u64_unsafe>
10007d3e:	4694      	mov	ip, r2
10007d40:	4a36      	ldr	r2, [pc, #216]	; (10007e1c <udiv0+0x1a>)
10007d42:	6614      	str	r4, [r2, #96]	; 0x60
10007d44:	6655      	str	r5, [r2, #100]	; 0x64
10007d46:	6757      	str	r7, [r2, #116]	; 0x74
10007d48:	6716      	str	r6, [r2, #112]	; 0x70
10007d4a:	4662      	mov	r2, ip
10007d4c:	bdf0      	pop	{r4, r5, r6, r7, pc}
10007d4e:	46c0      	nop			; (mov r8, r8)

10007d50 <divmod_s64s64_unsafe>:
10007d50:	2b00      	cmp	r3, #0
10007d52:	db24      	blt.n	10007d9e <l41_1+0x26>
10007d54:	d011      	beq.n	10007d7a <l41_1+0x2>
10007d56:	2900      	cmp	r1, #0
10007d58:	da3e      	bge.n	10007dd8 <divmod_u64u64_unsafe>
10007d5a:	b500      	push	{lr}
10007d5c:	43c9      	mvns	r1, r1
10007d5e:	4240      	negs	r0, r0
10007d60:	d100      	bne.n	10007d64 <l39_1>
10007d62:	3101      	adds	r1, #1

10007d64 <l39_1>:
10007d64:	f000 f838 	bl	10007dd8 <divmod_u64u64_unsafe>
10007d68:	43c9      	mvns	r1, r1
10007d6a:	4240      	negs	r0, r0
10007d6c:	d100      	bne.n	10007d70 <l40_1>
10007d6e:	3101      	adds	r1, #1

10007d70 <l40_1>:
10007d70:	43db      	mvns	r3, r3
10007d72:	4252      	negs	r2, r2
10007d74:	d100      	bne.n	10007d78 <l41_1>
10007d76:	3301      	adds	r3, #1

10007d78 <l41_1>:
10007d78:	bd00      	pop	{pc}
10007d7a:	2a00      	cmp	r2, #0
10007d7c:	d1eb      	bne.n	10007d56 <divmod_s64s64_unsafe+0x6>
10007d7e:	2800      	cmp	r0, #0
10007d80:	d101      	bne.n	10007d86 <l41_1+0xe>
10007d82:	2900      	cmp	r1, #0
10007d84:	d005      	beq.n	10007d92 <l41_1+0x1a>
10007d86:	2000      	movs	r0, #0
10007d88:	0fc9      	lsrs	r1, r1, #31
10007d8a:	07c9      	lsls	r1, r1, #31
10007d8c:	d101      	bne.n	10007d92 <l41_1+0x1a>
10007d8e:	43c0      	mvns	r0, r0
10007d90:	0841      	lsrs	r1, r0, #1
10007d92:	b500      	push	{lr}
10007d94:	f003 fe6c 	bl	1000ba70 <____aeabi_ldiv0_veneer>
10007d98:	2200      	movs	r2, #0
10007d9a:	2300      	movs	r3, #0
10007d9c:	bd00      	pop	{pc}
10007d9e:	b500      	push	{lr}
10007da0:	2900      	cmp	r1, #0
10007da2:	db0a      	blt.n	10007dba <l43_1+0x2>
10007da4:	43db      	mvns	r3, r3
10007da6:	4252      	negs	r2, r2
10007da8:	d100      	bne.n	10007dac <l42_1>
10007daa:	3301      	adds	r3, #1

10007dac <l42_1>:
10007dac:	f000 f814 	bl	10007dd8 <divmod_u64u64_unsafe>
10007db0:	43c9      	mvns	r1, r1
10007db2:	4240      	negs	r0, r0
10007db4:	d100      	bne.n	10007db8 <l43_1>
10007db6:	3101      	adds	r1, #1

10007db8 <l43_1>:
10007db8:	bd00      	pop	{pc}
10007dba:	43c9      	mvns	r1, r1
10007dbc:	4240      	negs	r0, r0
10007dbe:	d100      	bne.n	10007dc2 <l44_1>
10007dc0:	3101      	adds	r1, #1

10007dc2 <l44_1>:
10007dc2:	43db      	mvns	r3, r3
10007dc4:	4252      	negs	r2, r2
10007dc6:	d100      	bne.n	10007dca <l45_1>
10007dc8:	3301      	adds	r3, #1

10007dca <l45_1>:
10007dca:	f000 f805 	bl	10007dd8 <divmod_u64u64_unsafe>
10007dce:	43db      	mvns	r3, r3
10007dd0:	4252      	negs	r2, r2
10007dd2:	d100      	bne.n	10007dd6 <l46_1>
10007dd4:	3301      	adds	r3, #1

10007dd6 <l46_1>:
10007dd6:	bd00      	pop	{pc}

10007dd8 <divmod_u64u64_unsafe>:
10007dd8:	2900      	cmp	r1, #0
10007dda:	d123      	bne.n	10007e24 <y64>
10007ddc:	2b00      	cmp	r3, #0
10007dde:	d118      	bne.n	10007e12 <udiv0+0x10>
10007de0:	2a00      	cmp	r2, #0
10007de2:	d00c      	beq.n	10007dfe <divmod_u64u64_unsafe+0x26>
10007de4:	46bc      	mov	ip, r7
10007de6:	4f0d      	ldr	r7, [pc, #52]	; (10007e1c <udiv0+0x1a>)
10007de8:	6638      	str	r0, [r7, #96]	; 0x60
10007dea:	667a      	str	r2, [r7, #100]	; 0x64
10007dec:	2100      	movs	r1, #0
10007dee:	2300      	movs	r3, #0
10007df0:	e7ff      	b.n	10007df2 <divmod_u64u64_unsafe+0x1a>
10007df2:	e7ff      	b.n	10007df4 <divmod_u64u64_unsafe+0x1c>
10007df4:	e7ff      	b.n	10007df6 <divmod_u64u64_unsafe+0x1e>
10007df6:	6f7a      	ldr	r2, [r7, #116]	; 0x74
10007df8:	6f38      	ldr	r0, [r7, #112]	; 0x70
10007dfa:	4667      	mov	r7, ip
10007dfc:	4770      	bx	lr
10007dfe:	2800      	cmp	r0, #0
10007e00:	d001      	beq.n	10007e06 <udiv0+0x4>

10007e02 <udiv0>:
10007e02:	4807      	ldr	r0, [pc, #28]	; (10007e20 <udiv0+0x1e>)
10007e04:	0001      	movs	r1, r0
10007e06:	b500      	push	{lr}
10007e08:	f003 fe32 	bl	1000ba70 <____aeabi_ldiv0_veneer>
10007e0c:	2200      	movs	r2, #0
10007e0e:	2300      	movs	r3, #0
10007e10:	bd00      	pop	{pc}
10007e12:	0002      	movs	r2, r0
10007e14:	000b      	movs	r3, r1
10007e16:	2000      	movs	r0, #0
10007e18:	2100      	movs	r1, #0
10007e1a:	4770      	bx	lr
10007e1c:	d0000000 	.word	0xd0000000
10007e20:	ffffffff 	.word	0xffffffff

10007e24 <y64>:
10007e24:	2b00      	cmp	r3, #0
10007e26:	d000      	beq.n	10007e2a <y64+0x6>
10007e28:	e0bd      	b.n	10007fa6 <y64_x48>
10007e2a:	0c13      	lsrs	r3, r2, #16
10007e2c:	d126      	bne.n	10007e7c <y64_x32>
10007e2e:	2a00      	cmp	r2, #0
10007e30:	d0e7      	beq.n	10007e02 <udiv0>
10007e32:	b480      	push	{r7}
10007e34:	4f10      	ldr	r7, [pc, #64]	; (10007e78 <y64+0x54>)
10007e36:	6639      	str	r1, [r7, #96]	; 0x60
10007e38:	667a      	str	r2, [r7, #100]	; 0x64
10007e3a:	e7ff      	b.n	10007e3c <y64+0x18>
10007e3c:	e7ff      	b.n	10007e3e <y64+0x1a>
10007e3e:	b430      	push	{r4, r5}
10007e40:	0c04      	lsrs	r4, r0, #16
10007e42:	6f7b      	ldr	r3, [r7, #116]	; 0x74
10007e44:	6f39      	ldr	r1, [r7, #112]	; 0x70
10007e46:	041b      	lsls	r3, r3, #16
10007e48:	4323      	orrs	r3, r4
10007e4a:	663b      	str	r3, [r7, #96]	; 0x60
10007e4c:	e7ff      	b.n	10007e4e <y64+0x2a>
10007e4e:	e7ff      	b.n	10007e50 <y64+0x2c>
10007e50:	e7ff      	b.n	10007e52 <y64+0x2e>
10007e52:	46c0      	nop			; (mov r8, r8)
10007e54:	b284      	uxth	r4, r0
10007e56:	6f7b      	ldr	r3, [r7, #116]	; 0x74
10007e58:	6f3d      	ldr	r5, [r7, #112]	; 0x70
10007e5a:	041b      	lsls	r3, r3, #16
10007e5c:	4323      	orrs	r3, r4
10007e5e:	663b      	str	r3, [r7, #96]	; 0x60
10007e60:	e7ff      	b.n	10007e62 <y64+0x3e>
10007e62:	e7ff      	b.n	10007e64 <y64+0x40>
10007e64:	46c0      	nop			; (mov r8, r8)
10007e66:	2300      	movs	r3, #0
10007e68:	042c      	lsls	r4, r5, #16
10007e6a:	0c2d      	lsrs	r5, r5, #16
10007e6c:	6f7a      	ldr	r2, [r7, #116]	; 0x74
10007e6e:	6f38      	ldr	r0, [r7, #112]	; 0x70
10007e70:	1900      	adds	r0, r0, r4
10007e72:	4169      	adcs	r1, r5
10007e74:	bcb0      	pop	{r4, r5, r7}
10007e76:	4770      	bx	lr
10007e78:	d0000000 	.word	0xd0000000

10007e7c <y64_x32>:
10007e7c:	b5f0      	push	{r4, r5, r6, r7, lr}
10007e7e:	4694      	mov	ip, r2
10007e80:	2500      	movs	r5, #0
10007e82:	0e14      	lsrs	r4, r2, #24
10007e84:	d101      	bne.n	10007e8a <y64_x32+0xe>
10007e86:	0212      	lsls	r2, r2, #8
10007e88:	3508      	adds	r5, #8
10007e8a:	0f14      	lsrs	r4, r2, #28
10007e8c:	d101      	bne.n	10007e92 <y64_x32+0x16>
10007e8e:	0112      	lsls	r2, r2, #4
10007e90:	3504      	adds	r5, #4
10007e92:	0f94      	lsrs	r4, r2, #30
10007e94:	d101      	bne.n	10007e9a <y64_x32+0x1e>
10007e96:	0092      	lsls	r2, r2, #2
10007e98:	3502      	adds	r5, #2
10007e9a:	0fd4      	lsrs	r4, r2, #31
10007e9c:	d101      	bne.n	10007ea2 <y64_x32+0x26>
10007e9e:	0052      	lsls	r2, r2, #1
10007ea0:	3501      	adds	r5, #1
10007ea2:	0bd4      	lsrs	r4, r2, #15
10007ea4:	3401      	adds	r4, #1
10007ea6:	4f25      	ldr	r7, [pc, #148]	; (10007f3c <y64_x32+0xc0>)
10007ea8:	667c      	str	r4, [r7, #100]	; 0x64
10007eaa:	4c25      	ldr	r4, [pc, #148]	; (10007f40 <y64_x32+0xc4>)
10007eac:	663c      	str	r4, [r7, #96]	; 0x60
10007eae:	0c0e      	lsrs	r6, r1, #16
10007eb0:	b293      	uxth	r3, r2
10007eb2:	e7ff      	b.n	10007eb4 <y64_x32+0x38>
10007eb4:	e7ff      	b.n	10007eb6 <y64_x32+0x3a>
10007eb6:	e7ff      	b.n	10007eb8 <y64_x32+0x3c>
10007eb8:	6f3c      	ldr	r4, [r7, #112]	; 0x70
10007eba:	4366      	muls	r6, r4
10007ebc:	0c36      	lsrs	r6, r6, #16
10007ebe:	0377      	lsls	r7, r6, #13
10007ec0:	46be      	mov	lr, r7
10007ec2:	4373      	muls	r3, r6
10007ec4:	0bdf      	lsrs	r7, r3, #15
10007ec6:	045b      	lsls	r3, r3, #17
10007ec8:	1ac0      	subs	r0, r0, r3
10007eca:	41b9      	sbcs	r1, r7
10007ecc:	0c13      	lsrs	r3, r2, #16
10007ece:	4373      	muls	r3, r6
10007ed0:	18db      	adds	r3, r3, r3
10007ed2:	1ac9      	subs	r1, r1, r3
10007ed4:	08ce      	lsrs	r6, r1, #3
10007ed6:	4366      	muls	r6, r4
10007ed8:	0c36      	lsrs	r6, r6, #16
10007eda:	44b6      	add	lr, r6
10007edc:	b293      	uxth	r3, r2
10007ede:	4373      	muls	r3, r6
10007ee0:	0f1f      	lsrs	r7, r3, #28
10007ee2:	011b      	lsls	r3, r3, #4
10007ee4:	1ac0      	subs	r0, r0, r3
10007ee6:	41b9      	sbcs	r1, r7
10007ee8:	0c13      	lsrs	r3, r2, #16
10007eea:	4373      	muls	r3, r6
10007eec:	0b1f      	lsrs	r7, r3, #12
10007eee:	051b      	lsls	r3, r3, #20
10007ef0:	1ac0      	subs	r0, r0, r3
10007ef2:	41b9      	sbcs	r1, r7
10007ef4:	0d86      	lsrs	r6, r0, #22
10007ef6:	028f      	lsls	r7, r1, #10
10007ef8:	433e      	orrs	r6, r7
10007efa:	4366      	muls	r6, r4
10007efc:	0c36      	lsrs	r6, r6, #16
10007efe:	2d09      	cmp	r5, #9
10007f00:	db24      	blt.n	10007f4c <last0>
10007f02:	0a52      	lsrs	r2, r2, #9
10007f04:	4372      	muls	r2, r6
10007f06:	1a80      	subs	r0, r0, r2
10007f08:	0377      	lsls	r7, r6, #13
10007f0a:	0a46      	lsrs	r6, r0, #9
10007f0c:	4366      	muls	r6, r4
10007f0e:	0c36      	lsrs	r6, r6, #16
10007f10:	2316      	movs	r3, #22
10007f12:	1b5b      	subs	r3, r3, r5
10007f14:	40de      	lsrs	r6, r3
10007f16:	40df      	lsrs	r7, r3
10007f18:	19bf      	adds	r7, r7, r6
10007f1a:	4664      	mov	r4, ip
10007f1c:	4366      	muls	r6, r4
10007f1e:	1b82      	subs	r2, r0, r6
10007f20:	4670      	mov	r0, lr
10007f22:	3504      	adds	r5, #4
10007f24:	3306      	adds	r3, #6
10007f26:	0001      	movs	r1, r0
10007f28:	40d9      	lsrs	r1, r3
10007f2a:	40a8      	lsls	r0, r5
10007f2c:	19c0      	adds	r0, r0, r7
10007f2e:	d300      	bcc.n	10007f32 <y64_x32+0xb6>
10007f30:	3101      	adds	r1, #1
10007f32:	42a2      	cmp	r2, r4
10007f34:	d206      	bcs.n	10007f44 <y64_x32+0xc8>
10007f36:	2300      	movs	r3, #0
10007f38:	bdf0      	pop	{r4, r5, r6, r7, pc}
10007f3a:	0000      	.short	0x0000
10007f3c:	d0000000 	.word	0xd0000000
10007f40:	ffffffff 	.word	0xffffffff
10007f44:	1b12      	subs	r2, r2, r4
10007f46:	3001      	adds	r0, #1
10007f48:	d3f3      	bcc.n	10007f32 <y64_x32+0xb6>
10007f4a:	e7f1      	b.n	10007f30 <y64_x32+0xb4>

10007f4c <last0>:
10007f4c:	2709      	movs	r7, #9
10007f4e:	1b7f      	subs	r7, r7, r5
10007f50:	40fe      	lsrs	r6, r7
10007f52:	4664      	mov	r4, ip
10007f54:	b2a2      	uxth	r2, r4
10007f56:	4372      	muls	r2, r6
10007f58:	1a80      	subs	r0, r0, r2
10007f5a:	d200      	bcs.n	10007f5e <last0+0x12>
10007f5c:	3901      	subs	r1, #1
10007f5e:	0c22      	lsrs	r2, r4, #16
10007f60:	4372      	muls	r2, r6
10007f62:	0c13      	lsrs	r3, r2, #16
10007f64:	0412      	lsls	r2, r2, #16
10007f66:	1a82      	subs	r2, r0, r2
10007f68:	4199      	sbcs	r1, r3
10007f6a:	000b      	movs	r3, r1
10007f6c:	4670      	mov	r0, lr
10007f6e:	3504      	adds	r5, #4
10007f70:	3713      	adds	r7, #19
10007f72:	0001      	movs	r1, r0
10007f74:	40f9      	lsrs	r1, r7
10007f76:	40a8      	lsls	r0, r5
10007f78:	1980      	adds	r0, r0, r6
10007f7a:	d300      	bcc.n	10007f7e <last0+0x32>
10007f7c:	3101      	adds	r1, #1
10007f7e:	2b00      	cmp	r3, #0
10007f80:	d102      	bne.n	10007f88 <last0+0x3c>
10007f82:	42a2      	cmp	r2, r4
10007f84:	d20a      	bcs.n	10007f9c <last0+0x50>
10007f86:	bdf0      	pop	{r4, r5, r6, r7, pc}
10007f88:	3001      	adds	r0, #1
10007f8a:	d300      	bcc.n	10007f8e <last0+0x42>
10007f8c:	3101      	adds	r1, #1
10007f8e:	1b12      	subs	r2, r2, r4
10007f90:	d2fa      	bcs.n	10007f88 <last0+0x3c>
10007f92:	3b01      	subs	r3, #1
10007f94:	d1f8      	bne.n	10007f88 <last0+0x3c>
10007f96:	42a2      	cmp	r2, r4
10007f98:	d200      	bcs.n	10007f9c <last0+0x50>
10007f9a:	bdf0      	pop	{r4, r5, r6, r7, pc}
10007f9c:	3001      	adds	r0, #1
10007f9e:	d300      	bcc.n	10007fa2 <last0+0x56>
10007fa0:	3101      	adds	r1, #1
10007fa2:	1b12      	subs	r2, r2, r4
10007fa4:	e7f7      	b.n	10007f96 <last0+0x4a>

10007fa6 <y64_x48>:
10007fa6:	b5f0      	push	{r4, r5, r6, r7, lr}
10007fa8:	0c1c      	lsrs	r4, r3, #16
10007faa:	d000      	beq.n	10007fae <y64_x48+0x8>
10007fac:	e080      	b.n	100080b0 <y64_x64>
10007fae:	b40c      	push	{r2, r3}
10007fb0:	2500      	movs	r5, #0
10007fb2:	0a1c      	lsrs	r4, r3, #8
10007fb4:	d104      	bne.n	10007fc0 <y64_x48+0x1a>
10007fb6:	021b      	lsls	r3, r3, #8
10007fb8:	0e16      	lsrs	r6, r2, #24
10007fba:	4333      	orrs	r3, r6
10007fbc:	0212      	lsls	r2, r2, #8
10007fbe:	3508      	adds	r5, #8
10007fc0:	0b1c      	lsrs	r4, r3, #12
10007fc2:	d104      	bne.n	10007fce <y64_x48+0x28>
10007fc4:	011b      	lsls	r3, r3, #4
10007fc6:	0f16      	lsrs	r6, r2, #28
10007fc8:	4333      	orrs	r3, r6
10007fca:	0112      	lsls	r2, r2, #4
10007fcc:	3504      	adds	r5, #4
10007fce:	0b9c      	lsrs	r4, r3, #14
10007fd0:	d104      	bne.n	10007fdc <y64_x48+0x36>
10007fd2:	009b      	lsls	r3, r3, #2
10007fd4:	0f96      	lsrs	r6, r2, #30
10007fd6:	4333      	orrs	r3, r6
10007fd8:	0092      	lsls	r2, r2, #2
10007fda:	3502      	adds	r5, #2
10007fdc:	0bdc      	lsrs	r4, r3, #15
10007fde:	d102      	bne.n	10007fe6 <y64_x48+0x40>
10007fe0:	1892      	adds	r2, r2, r2
10007fe2:	415b      	adcs	r3, r3
10007fe4:	3501      	adds	r5, #1
10007fe6:	001c      	movs	r4, r3
10007fe8:	1897      	adds	r7, r2, r2
10007fea:	4164      	adcs	r4, r4
10007fec:	3401      	adds	r4, #1
10007fee:	4f46      	ldr	r7, [pc, #280]	; (10008108 <y64_x64+0x58>)
10007ff0:	667c      	str	r4, [r7, #100]	; 0x64
10007ff2:	4c46      	ldr	r4, [pc, #280]	; (1000810c <y64_x64+0x5c>)
10007ff4:	663c      	str	r4, [r7, #96]	; 0x60
10007ff6:	0c0e      	lsrs	r6, r1, #16
10007ff8:	e7ff      	b.n	10007ffa <y64_x48+0x54>
10007ffa:	e7ff      	b.n	10007ffc <y64_x48+0x56>
10007ffc:	e7ff      	b.n	10007ffe <y64_x48+0x58>
10007ffe:	46c0      	nop			; (mov r8, r8)
10008000:	6f3c      	ldr	r4, [r7, #112]	; 0x70
10008002:	4366      	muls	r6, r4
10008004:	0c36      	lsrs	r6, r6, #16
10008006:	0377      	lsls	r7, r6, #13
10008008:	46be      	mov	lr, r7
1000800a:	b297      	uxth	r7, r2
1000800c:	4377      	muls	r7, r6
1000800e:	1bc0      	subs	r0, r0, r7
10008010:	d200      	bcs.n	10008014 <y64_x48+0x6e>
10008012:	3901      	subs	r1, #1
10008014:	1bc0      	subs	r0, r0, r7
10008016:	d200      	bcs.n	1000801a <y64_x48+0x74>
10008018:	3901      	subs	r1, #1
1000801a:	b29f      	uxth	r7, r3
1000801c:	4377      	muls	r7, r6
1000801e:	1bc9      	subs	r1, r1, r7
10008020:	1bc9      	subs	r1, r1, r7
10008022:	0c17      	lsrs	r7, r2, #16
10008024:	4377      	muls	r7, r6
10008026:	047e      	lsls	r6, r7, #17
10008028:	0bff      	lsrs	r7, r7, #15
1000802a:	1b80      	subs	r0, r0, r6
1000802c:	41b9      	sbcs	r1, r7
1000802e:	08ce      	lsrs	r6, r1, #3
10008030:	4366      	muls	r6, r4
10008032:	0c36      	lsrs	r6, r6, #16
10008034:	2d0c      	cmp	r5, #12
10008036:	db33      	blt.n	100080a0 <last1>
10008038:	44b6      	add	lr, r6
1000803a:	0b12      	lsrs	r2, r2, #12
1000803c:	051f      	lsls	r7, r3, #20
1000803e:	433a      	orrs	r2, r7
10008040:	0b1b      	lsrs	r3, r3, #12
10008042:	b297      	uxth	r7, r2
10008044:	4377      	muls	r7, r6
10008046:	1bc0      	subs	r0, r0, r7
10008048:	d200      	bcs.n	1000804c <y64_x48+0xa6>
1000804a:	3901      	subs	r1, #1
1000804c:	b29f      	uxth	r7, r3
1000804e:	4377      	muls	r7, r6
10008050:	1bc9      	subs	r1, r1, r7
10008052:	0c17      	lsrs	r7, r2, #16
10008054:	4377      	muls	r7, r6
10008056:	043e      	lsls	r6, r7, #16
10008058:	0c3f      	lsrs	r7, r7, #16
1000805a:	1b80      	subs	r0, r0, r6
1000805c:	41b9      	sbcs	r1, r7
1000805e:	0d86      	lsrs	r6, r0, #22
10008060:	028f      	lsls	r7, r1, #10
10008062:	433e      	orrs	r6, r7
10008064:	4366      	muls	r6, r4
10008066:	2729      	movs	r7, #41	; 0x29
10008068:	1b7f      	subs	r7, r7, r5
1000806a:	40fe      	lsrs	r6, r7
1000806c:	3d0c      	subs	r5, #12
1000806e:	4677      	mov	r7, lr
10008070:	40af      	lsls	r7, r5
10008072:	19bf      	adds	r7, r7, r6
10008074:	bc30      	pop	{r4, r5}
10008076:	b2a2      	uxth	r2, r4
10008078:	b2ab      	uxth	r3, r5
1000807a:	4372      	muls	r2, r6
1000807c:	4373      	muls	r3, r6
1000807e:	1a80      	subs	r0, r0, r2
10008080:	4199      	sbcs	r1, r3
10008082:	0c22      	lsrs	r2, r4, #16
10008084:	4372      	muls	r2, r6
10008086:	0c13      	lsrs	r3, r2, #16
10008088:	0412      	lsls	r2, r2, #16
1000808a:	1a80      	subs	r0, r0, r2
1000808c:	4199      	sbcs	r1, r3
1000808e:	0002      	movs	r2, r0
10008090:	000b      	movs	r3, r1
10008092:	3701      	adds	r7, #1
10008094:	1b00      	subs	r0, r0, r4
10008096:	41a9      	sbcs	r1, r5
10008098:	d2f9      	bcs.n	1000808e <y64_x48+0xe8>
1000809a:	1e78      	subs	r0, r7, #1
1000809c:	2100      	movs	r1, #0
1000809e:	bdf0      	pop	{r4, r5, r6, r7, pc}

100080a0 <last1>:
100080a0:	270c      	movs	r7, #12
100080a2:	1b7f      	subs	r7, r7, r5
100080a4:	40fe      	lsrs	r6, r7
100080a6:	4677      	mov	r7, lr
100080a8:	0b7f      	lsrs	r7, r7, #13
100080aa:	40af      	lsls	r7, r5
100080ac:	19ff      	adds	r7, r7, r7
100080ae:	e7e0      	b.n	10008072 <y64_x48+0xcc>

100080b0 <y64_x64>:
100080b0:	2400      	movs	r4, #0
100080b2:	1c5d      	adds	r5, r3, #1
100080b4:	d007      	beq.n	100080c6 <y64_x64+0x16>
100080b6:	4f14      	ldr	r7, [pc, #80]	; (10008108 <y64_x64+0x58>)
100080b8:	667d      	str	r5, [r7, #100]	; 0x64
100080ba:	6639      	str	r1, [r7, #96]	; 0x60
100080bc:	e7ff      	b.n	100080be <y64_x64+0xe>
100080be:	e7ff      	b.n	100080c0 <y64_x64+0x10>
100080c0:	e7ff      	b.n	100080c2 <y64_x64+0x12>
100080c2:	e7ff      	b.n	100080c4 <y64_x64+0x14>
100080c4:	6f3c      	ldr	r4, [r7, #112]	; 0x70
100080c6:	b295      	uxth	r5, r2
100080c8:	b29e      	uxth	r6, r3
100080ca:	4365      	muls	r5, r4
100080cc:	4366      	muls	r6, r4
100080ce:	1b40      	subs	r0, r0, r5
100080d0:	41b1      	sbcs	r1, r6
100080d2:	0c15      	lsrs	r5, r2, #16
100080d4:	0c1e      	lsrs	r6, r3, #16
100080d6:	4365      	muls	r5, r4
100080d8:	4366      	muls	r6, r4
100080da:	0436      	lsls	r6, r6, #16
100080dc:	0c2f      	lsrs	r7, r5, #16
100080de:	433e      	orrs	r6, r7
100080e0:	042d      	lsls	r5, r5, #16
100080e2:	1b40      	subs	r0, r0, r5
100080e4:	41b1      	sbcs	r1, r6
100080e6:	4299      	cmp	r1, r3
100080e8:	d204      	bcs.n	100080f4 <y64_x64+0x44>
100080ea:	0002      	movs	r2, r0
100080ec:	000b      	movs	r3, r1
100080ee:	0020      	movs	r0, r4
100080f0:	2100      	movs	r1, #0
100080f2:	bdf0      	pop	{r4, r5, r6, r7, pc}
100080f4:	d101      	bne.n	100080fa <y64_x64+0x4a>
100080f6:	4290      	cmp	r0, r2
100080f8:	d3f7      	bcc.n	100080ea <y64_x64+0x3a>
100080fa:	1a80      	subs	r0, r0, r2
100080fc:	4199      	sbcs	r1, r3
100080fe:	3401      	adds	r4, #1
10008100:	4299      	cmp	r1, r3
10008102:	d3f2      	bcc.n	100080ea <y64_x64+0x3a>
10008104:	e7f6      	b.n	100080f4 <y64_x64+0x44>
10008106:	0000      	.short	0x0000
10008108:	d0000000 	.word	0xd0000000
1000810c:	ffffffff 	.word	0xffffffff

10008110 <__wrap___aeabi_drsub>:
10008110:	4048      	eors	r0, r1
10008112:	4041      	eors	r1, r0
10008114:	4048      	eors	r0, r1

10008116 <__wrap___aeabi_dsub>:
10008116:	b418      	push	{r3, r4}
10008118:	4b11      	ldr	r3, [pc, #68]	; (10008160 <__wrap___aeabi_dmul+0x14>)
1000811a:	685b      	ldr	r3, [r3, #4]
1000811c:	46fc      	mov	ip, pc
1000811e:	9301      	str	r3, [sp, #4]
10008120:	bd08      	pop	{r3, pc}
10008122:	df04      	.short	0xdf04
10008124:	100083af 	.word	0x100083af

10008128 <__wrap___aeabi_dadd>:
10008128:	b418      	push	{r3, r4}
1000812a:	4b0d      	ldr	r3, [pc, #52]	; (10008160 <__wrap___aeabi_dmul+0x14>)
1000812c:	681b      	ldr	r3, [r3, #0]
1000812e:	46fc      	mov	ip, pc
10008130:	9301      	str	r3, [sp, #4]
10008132:	bd08      	pop	{r3, pc}
10008134:	83b9df00 	.word	0x83b9df00
10008138:	1000      	.short	0x1000

1000813a <__wrap___aeabi_ddiv>:
1000813a:	b418      	push	{r3, r4}
1000813c:	4b08      	ldr	r3, [pc, #32]	; (10008160 <__wrap___aeabi_dmul+0x14>)
1000813e:	68db      	ldr	r3, [r3, #12]
10008140:	46fc      	mov	ip, pc
10008142:	9301      	str	r3, [sp, #4]
10008144:	bd08      	pop	{r3, pc}
10008146:	df0c      	.short	0xdf0c
10008148:	10008671 	.word	0x10008671

1000814c <__wrap___aeabi_dmul>:
1000814c:	b418      	push	{r3, r4}
1000814e:	4b04      	ldr	r3, [pc, #16]	; (10008160 <__wrap___aeabi_dmul+0x14>)
10008150:	689b      	ldr	r3, [r3, #8]
10008152:	46fc      	mov	ip, pc
10008154:	9301      	str	r3, [sp, #4]
10008156:	bd08      	pop	{r3, pc}
10008158:	8515df08 	.word	0x8515df08
1000815c:	00001000 	.word	0x00001000
10008160:	200023ac 	.word	0x200023ac

10008164 <__wrap___aeabi_cdrcmple>:
10008164:	b5ff      	push	{r0, r1, r2, r3, r4, r5, r6, r7, lr}
10008166:	4050      	eors	r0, r2
10008168:	4042      	eors	r2, r0
1000816a:	4050      	eors	r0, r2
1000816c:	4059      	eors	r1, r3
1000816e:	404b      	eors	r3, r1
10008170:	4059      	eors	r1, r3
10008172:	e000      	b.n	10008176 <__aeabi_dfcmple_guts>

10008174 <__wrap___aeabi_cdcmpeq>:
10008174:	b5ff      	push	{r0, r1, r2, r3, r4, r5, r6, r7, lr}

10008176 <__aeabi_dfcmple_guts>:
10008176:	4f15      	ldr	r7, [pc, #84]	; (100081cc <__aeabi_dfcmple_guts+0x56>)
10008178:	004c      	lsls	r4, r1, #1
1000817a:	0d64      	lsrs	r4, r4, #21
1000817c:	d003      	beq.n	10008186 <__aeabi_dfcmple_guts+0x10>
1000817e:	42bc      	cmp	r4, r7
10008180:	d104      	bne.n	1000818c <__aeabi_dfcmple_guts+0x16>
10008182:	030c      	lsls	r4, r1, #12
10008184:	d814      	bhi.n	100081b0 <__aeabi_dfcmple_guts+0x3a>
10008186:	2000      	movs	r0, #0
10008188:	0d09      	lsrs	r1, r1, #20
1000818a:	0509      	lsls	r1, r1, #20
1000818c:	005c      	lsls	r4, r3, #1
1000818e:	0d64      	lsrs	r4, r4, #21
10008190:	d003      	beq.n	1000819a <__aeabi_dfcmple_guts+0x24>
10008192:	42bc      	cmp	r4, r7
10008194:	d104      	bne.n	100081a0 <__aeabi_dfcmple_guts+0x2a>
10008196:	031c      	lsls	r4, r3, #12
10008198:	d80a      	bhi.n	100081b0 <__aeabi_dfcmple_guts+0x3a>
1000819a:	2200      	movs	r2, #0
1000819c:	0d1b      	lsrs	r3, r3, #20
1000819e:	051b      	lsls	r3, r3, #20
100081a0:	2601      	movs	r6, #1
100081a2:	404b      	eors	r3, r1
100081a4:	d409      	bmi.n	100081ba <__aeabi_dfcmple_guts+0x44>
100081a6:	404b      	eors	r3, r1
100081a8:	d503      	bpl.n	100081b2 <__aeabi_dfcmple_guts+0x3c>
100081aa:	428b      	cmp	r3, r1
100081ac:	d100      	bne.n	100081b0 <__aeabi_dfcmple_guts+0x3a>
100081ae:	4282      	cmp	r2, r0
100081b0:	bdff      	pop	{r0, r1, r2, r3, r4, r5, r6, r7, pc}
100081b2:	4299      	cmp	r1, r3
100081b4:	d1fc      	bne.n	100081b0 <__aeabi_dfcmple_guts+0x3a>
100081b6:	4290      	cmp	r0, r2
100081b8:	bdff      	pop	{r0, r1, r2, r3, r4, r5, r6, r7, pc}
100081ba:	430b      	orrs	r3, r1
100081bc:	18db      	adds	r3, r3, r3
100081be:	4303      	orrs	r3, r0
100081c0:	4313      	orrs	r3, r2
100081c2:	d0f5      	beq.n	100081b0 <__aeabi_dfcmple_guts+0x3a>
100081c4:	43c9      	mvns	r1, r1
100081c6:	1849      	adds	r1, r1, r1
100081c8:	bdff      	pop	{r0, r1, r2, r3, r4, r5, r6, r7, pc}
100081ca:	0000      	.short	0x0000
100081cc:	000007ff 	.word	0x000007ff

100081d0 <__wrap___aeabi_dcmplt>:
100081d0:	b500      	push	{lr}
100081d2:	f7ff ffcf 	bl	10008174 <__wrap___aeabi_cdcmpeq>
100081d6:	4180      	sbcs	r0, r0
100081d8:	bd00      	pop	{pc}
100081da:	46c0      	nop			; (mov r8, r8)

100081dc <__wrap___aeabi_dcmple>:
100081dc:	b500      	push	{lr}
100081de:	f7ff ffc9 	bl	10008174 <__wrap___aeabi_cdcmpeq>
100081e2:	d901      	bls.n	100081e8 <__wrap___aeabi_dcmple+0xc>
100081e4:	2000      	movs	r0, #0
100081e6:	bd00      	pop	{pc}
100081e8:	2001      	movs	r0, #1
100081ea:	bd00      	pop	{pc}

100081ec <__wrap___aeabi_dcmpge>:
100081ec:	b500      	push	{lr}
100081ee:	f7ff ffb9 	bl	10008164 <__wrap___aeabi_cdrcmple>
100081f2:	d901      	bls.n	100081f8 <__wrap___aeabi_dcmpge+0xc>
100081f4:	2000      	movs	r0, #0
100081f6:	bd00      	pop	{pc}
100081f8:	2001      	movs	r0, #1
100081fa:	bd00      	pop	{pc}

100081fc <__wrap___aeabi_dcmpgt>:
100081fc:	b500      	push	{lr}
100081fe:	f7ff ffb1 	bl	10008164 <__wrap___aeabi_cdrcmple>
10008202:	4180      	sbcs	r0, r0
10008204:	bd00      	pop	{pc}

10008206 <__wrap___aeabi_dcmpun>:
10008206:	2001      	movs	r0, #1
10008208:	0540      	lsls	r0, r0, #21
1000820a:	004a      	lsls	r2, r1, #1
1000820c:	1812      	adds	r2, r2, r0
1000820e:	d804      	bhi.n	1000821a <__wrap___aeabi_dcmpun+0x14>
10008210:	005a      	lsls	r2, r3, #1
10008212:	1812      	adds	r2, r2, r0
10008214:	d801      	bhi.n	1000821a <__wrap___aeabi_dcmpun+0x14>
10008216:	2000      	movs	r0, #0
10008218:	4770      	bx	lr
1000821a:	2001      	movs	r0, #1
1000821c:	4770      	bx	lr
1000821e:	2000      	movs	r0, #0
10008220:	4770      	bx	lr
	...

10008224 <__wrap___aeabi_ui2d>:
10008224:	2100      	movs	r1, #0
10008226:	2800      	cmp	r0, #0
10008228:	d105      	bne.n	10008236 <__wrap___aeabi_i2d+0xa>
1000822a:	4770      	bx	lr

1000822c <__wrap___aeabi_i2d>:
1000822c:	17c1      	asrs	r1, r0, #31
1000822e:	4048      	eors	r0, r1
10008230:	1a40      	subs	r0, r0, r1
10008232:	d0fa      	beq.n	1000822a <__wrap___aeabi_ui2d+0x6>
10008234:	07c9      	lsls	r1, r1, #31
10008236:	b513      	push	{r0, r1, r4, lr}
10008238:	4b06      	ldr	r3, [pc, #24]	; (10008254 <__wrap___aeabi_i2d+0x28>)
1000823a:	681b      	ldr	r3, [r3, #0]
1000823c:	4798      	blx	r3
1000823e:	bc0c      	pop	{r2, r3}
10008240:	1c44      	adds	r4, r0, #1
10008242:	40a2      	lsls	r2, r4
10008244:	0510      	lsls	r0, r2, #20
10008246:	0b12      	lsrs	r2, r2, #12
10008248:	4903      	ldr	r1, [pc, #12]	; (10008258 <__wrap___aeabi_i2d+0x2c>)
1000824a:	1b09      	subs	r1, r1, r4
1000824c:	0509      	lsls	r1, r1, #20
1000824e:	4319      	orrs	r1, r3
10008250:	4311      	orrs	r1, r2
10008252:	bd10      	pop	{r4, pc}
10008254:	200024c0 	.word	0x200024c0
10008258:	0000041f 	.word	0x0000041f

1000825c <__wrap___aeabi_d2iz>:
1000825c:	b510      	push	{r4, lr}
1000825e:	004c      	lsls	r4, r1, #1
10008260:	0d62      	lsrs	r2, r4, #21
10008262:	2380      	movs	r3, #128	; 0x80
10008264:	18d2      	adds	r2, r2, r3
10008266:	00db      	lsls	r3, r3, #3
10008268:	1ad2      	subs	r2, r2, r3
1000826a:	055b      	lsls	r3, r3, #21
1000826c:	2a7e      	cmp	r2, #126	; 0x7e
1000826e:	dd10      	ble.n	10008292 <__wrap___aeabi_d2iz+0x36>
10008270:	3a9e      	subs	r2, #158	; 0x9e
10008272:	da13      	bge.n	1000829c <__wrap___aeabi_d2iz+0x40>
10008274:	17cc      	asrs	r4, r1, #31
10008276:	0309      	lsls	r1, r1, #12
10008278:	0849      	lsrs	r1, r1, #1
1000827a:	4319      	orrs	r1, r3
1000827c:	4252      	negs	r2, r2
1000827e:	40d1      	lsrs	r1, r2
10008280:	0064      	lsls	r4, r4, #1
10008282:	3401      	adds	r4, #1
10008284:	3215      	adds	r2, #21
10008286:	2a20      	cmp	r2, #32
10008288:	da05      	bge.n	10008296 <__wrap___aeabi_d2iz+0x3a>
1000828a:	40d0      	lsrs	r0, r2
1000828c:	4308      	orrs	r0, r1
1000828e:	4360      	muls	r0, r4
10008290:	bd10      	pop	{r4, pc}
10008292:	2000      	movs	r0, #0
10008294:	bd10      	pop	{r4, pc}
10008296:	4608      	mov	r0, r1
10008298:	4360      	muls	r0, r4
1000829a:	bd10      	pop	{r4, pc}
1000829c:	0fc8      	lsrs	r0, r1, #31
1000829e:	18c0      	adds	r0, r0, r3
100082a0:	3801      	subs	r0, #1
100082a2:	bd10      	pop	{r4, pc}

100082a4 <__wrap___aeabi_d2uiz>:
100082a4:	b418      	push	{r3, r4}
100082a6:	4b04      	ldr	r3, [pc, #16]	; (100082b8 <__wrap___aeabi_d2uiz+0x14>)
100082a8:	6a5b      	ldr	r3, [r3, #36]	; 0x24
100082aa:	46fc      	mov	ip, pc
100082ac:	9301      	str	r3, [sp, #4]
100082ae:	bd08      	pop	{r3, pc}
100082b0:	889ddf24 	.word	0x889ddf24
100082b4:	00001000 	.word	0x00001000
100082b8:	200023ac 	.word	0x200023ac

100082bc <__aeabi_double_init>:
100082bc:	b570      	push	{r4, r5, r6, lr}
100082be:	2313      	movs	r3, #19
100082c0:	781c      	ldrb	r4, [r3, #0]
100082c2:	2c01      	cmp	r4, #1
100082c4:	d00f      	beq.n	100082e6 <__aeabi_double_init+0x2a>
100082c6:	2c01      	cmp	r4, #1
100082c8:	dc0f      	bgt.n	100082ea <__aeabi_double_init+0x2e>
100082ca:	2c02      	cmp	r4, #2
100082cc:	dc02      	bgt.n	100082d4 <__aeabi_double_init+0x18>
100082ce:	4a1d      	ldr	r2, [pc, #116]	; (10008344 <__aeabi_double_init+0x88>)
100082d0:	4b1d      	ldr	r3, [pc, #116]	; (10008348 <__aeabi_double_init+0x8c>)
100082d2:	649a      	str	r2, [r3, #72]	; 0x48
100082d4:	bd70      	pop	{r4, r5, r6, pc}
100082d6:	0099      	lsls	r1, r3, #2
100082d8:	481a      	ldr	r0, [pc, #104]	; (10008344 <__aeabi_double_init+0x88>)
100082da:	4a1b      	ldr	r2, [pc, #108]	; (10008348 <__aeabi_double_init+0x8c>)
100082dc:	5088      	str	r0, [r1, r2]
100082de:	3301      	adds	r3, #1
100082e0:	2b1f      	cmp	r3, #31
100082e2:	d9f8      	bls.n	100082d6 <__aeabi_double_init+0x1a>
100082e4:	e7ef      	b.n	100082c6 <__aeabi_double_init+0xa>
100082e6:	2300      	movs	r3, #0
100082e8:	e7fa      	b.n	100082e0 <__aeabi_double_init+0x24>
100082ea:	4818      	ldr	r0, [pc, #96]	; (1000834c <__aeabi_double_init+0x90>)
100082ec:	f7ff fc7e 	bl	10007bec <rom_data_lookup>
100082f0:	0005      	movs	r5, r0
100082f2:	4817      	ldr	r0, [pc, #92]	; (10008350 <__aeabi_double_init+0x94>)
100082f4:	f7ff fc7a 	bl	10007bec <rom_data_lookup>
100082f8:	3802      	subs	r0, #2
100082fa:	7803      	ldrb	r3, [r0, #0]
100082fc:	009b      	lsls	r3, r3, #2
100082fe:	2b7f      	cmp	r3, #127	; 0x7f
10008300:	dd19      	ble.n	10008336 <__aeabi_double_init+0x7a>
10008302:	2280      	movs	r2, #128	; 0x80
10008304:	0029      	movs	r1, r5
10008306:	4810      	ldr	r0, [pc, #64]	; (10008348 <__aeabi_double_init+0x8c>)
10008308:	f000 fbe4 	bl	10008ad4 <__wrap___aeabi_memcpy>
1000830c:	2c02      	cmp	r4, #2
1000830e:	d1dc      	bne.n	100082ca <__aeabi_double_init+0xe>
10008310:	4b10      	ldr	r3, [pc, #64]	; (10008354 <__aeabi_double_init+0x98>)
10008312:	881a      	ldrh	r2, [r3, #0]
10008314:	23b5      	movs	r3, #181	; 0xb5
10008316:	021b      	lsls	r3, r3, #8
10008318:	429a      	cmp	r2, r3
1000831a:	d109      	bne.n	10008330 <__aeabi_double_init+0x74>
1000831c:	4b0e      	ldr	r3, [pc, #56]	; (10008358 <__aeabi_double_init+0x9c>)
1000831e:	881a      	ldrh	r2, [r3, #0]
10008320:	4b0e      	ldr	r3, [pc, #56]	; (1000835c <__aeabi_double_init+0xa0>)
10008322:	429a      	cmp	r2, r3
10008324:	d104      	bne.n	10008330 <__aeabi_double_init+0x74>
10008326:	4b0e      	ldr	r3, [pc, #56]	; (10008360 <__aeabi_double_init+0xa4>)
10008328:	881a      	ldrh	r2, [r3, #0]
1000832a:	4b0e      	ldr	r3, [pc, #56]	; (10008364 <__aeabi_double_init+0xa8>)
1000832c:	429a      	cmp	r2, r3
1000832e:	d0cc      	beq.n	100082ca <__aeabi_double_init+0xe>
10008330:	2000      	movs	r0, #0
10008332:	f7fd ff95 	bl	10006260 <panic>
10008336:	4b0c      	ldr	r3, [pc, #48]	; (10008368 <__aeabi_double_init+0xac>)
10008338:	4a0c      	ldr	r2, [pc, #48]	; (1000836c <__aeabi_double_init+0xb0>)
1000833a:	2130      	movs	r1, #48	; 0x30
1000833c:	480c      	ldr	r0, [pc, #48]	; (10008370 <__aeabi_double_init+0xb4>)
1000833e:	f7fd ff71 	bl	10006224 <__assert_func>
10008342:	46c0      	nop			; (mov r8, r8)
10008344:	10008375 	.word	0x10008375
10008348:	200023ac 	.word	0x200023ac
1000834c:	00004453 	.word	0x00004453
10008350:	00004653 	.word	0x00004653
10008354:	00003854 	.word	0x00003854
10008358:	000038d8 	.word	0x000038d8
1000835c:	00004649 	.word	0x00004649
10008360:	0000389c 	.word	0x0000389c
10008364:	00004659 	.word	0x00004659
10008368:	1000d720 	.word	0x1000d720
1000836c:	1000d7dc 	.word	0x1000d7dc
10008370:	1000d780 	.word	0x1000d780

10008374 <double_table_shim_on_use_helper>:
10008374:	b507      	push	{r0, r1, r2, lr}
10008376:	4660      	mov	r0, ip
10008378:	2800      	cmp	r0, #0
1000837a:	d100      	bne.n	1000837e <double_table_shim_on_use_helper+0xa>
1000837c:	be00      	bkpt	0x0000
1000837e:	8801      	ldrh	r1, [r0, #0]
10008380:	0a0a      	lsrs	r2, r1, #8
10008382:	3002      	adds	r0, #2
10008384:	2adf      	cmp	r2, #223	; 0xdf
10008386:	d1fa      	bne.n	1000837e <double_table_shim_on_use_helper+0xa>
10008388:	b2c9      	uxtb	r1, r1
1000838a:	0882      	lsrs	r2, r0, #2
1000838c:	d304      	bcc.n	10008398 <double_table_shim_on_use_helper+0x24>
1000838e:	8802      	ldrh	r2, [r0, #0]
10008390:	8840      	ldrh	r0, [r0, #2]
10008392:	0400      	lsls	r0, r0, #16
10008394:	4310      	orrs	r0, r2
10008396:	e000      	b.n	1000839a <double_table_shim_on_use_helper+0x26>
10008398:	6800      	ldr	r0, [r0, #0]
1000839a:	4a02      	ldr	r2, [pc, #8]	; (100083a4 <double_table_shim_on_use_helper+0x30>)
1000839c:	5050      	str	r0, [r2, r1]
1000839e:	9003      	str	r0, [sp, #12]
100083a0:	bd07      	pop	{r0, r1, r2, pc}
100083a2:	0000      	.short	0x0000
100083a4:	200023ac 	.word	0x200023ac

100083a8 <drsub_shim>:
100083a8:	b40f      	push	{r0, r1, r2, r3}
100083aa:	bc03      	pop	{r0, r1}
100083ac:	bc0c      	pop	{r2, r3}

100083ae <dsub_shim>:
100083ae:	b5f0      	push	{r4, r5, r6, r7, lr}
100083b0:	2401      	movs	r4, #1
100083b2:	07e4      	lsls	r4, r4, #31
100083b4:	4063      	eors	r3, r4
100083b6:	e000      	b.n	100083ba <da_entry>

100083b8 <dadd_shim>:
100083b8:	b5f0      	push	{r4, r5, r6, r7, lr}

100083ba <da_entry>:
100083ba:	0d0c      	lsrs	r4, r1, #20
100083bc:	0fcf      	lsrs	r7, r1, #31
100083be:	1e66      	subs	r6, r4, #1
100083c0:	0536      	lsls	r6, r6, #20
100083c2:	1b89      	subs	r1, r1, r6
100083c4:	0564      	lsls	r4, r4, #21
100083c6:	d303      	bcc.n	100083d0 <l7_1>
100083c8:	43c9      	mvns	r1, r1
100083ca:	4240      	negs	r0, r0
100083cc:	d300      	bcc.n	100083d0 <l7_1>
100083ce:	3101      	adds	r1, #1

100083d0 <l7_1>:
100083d0:	0d64      	lsrs	r4, r4, #21
100083d2:	d003      	beq.n	100083dc <l7_2>
100083d4:	1c66      	adds	r6, r4, #1
100083d6:	0af6      	lsrs	r6, r6, #11
100083d8:	d007      	beq.n	100083ea <l7_3>
100083da:	1be4      	subs	r4, r4, r7

100083dc <l7_2>:
100083dc:	2000      	movs	r0, #0
100083de:	007f      	lsls	r7, r7, #1
100083e0:	1c79      	adds	r1, r7, #1
100083e2:	0789      	lsls	r1, r1, #30
100083e4:	1289      	asrs	r1, r1, #10
100083e6:	3c80      	subs	r4, #128	; 0x80
100083e8:	0324      	lsls	r4, r4, #12

100083ea <l7_3>:
100083ea:	0d1d      	lsrs	r5, r3, #20
100083ec:	0fdf      	lsrs	r7, r3, #31
100083ee:	1e6e      	subs	r6, r5, #1
100083f0:	0536      	lsls	r6, r6, #20
100083f2:	1b9b      	subs	r3, r3, r6
100083f4:	056d      	lsls	r5, r5, #21
100083f6:	d303      	bcc.n	10008400 <l8_1>
100083f8:	43db      	mvns	r3, r3
100083fa:	4252      	negs	r2, r2
100083fc:	d300      	bcc.n	10008400 <l8_1>
100083fe:	3301      	adds	r3, #1

10008400 <l8_1>:
10008400:	0d6d      	lsrs	r5, r5, #21
10008402:	d003      	beq.n	1000840c <l8_2>
10008404:	1c6e      	adds	r6, r5, #1
10008406:	0af6      	lsrs	r6, r6, #11
10008408:	d007      	beq.n	1000841a <l8_3>
1000840a:	1bed      	subs	r5, r5, r7

1000840c <l8_2>:
1000840c:	2200      	movs	r2, #0
1000840e:	007f      	lsls	r7, r7, #1
10008410:	1c7b      	adds	r3, r7, #1
10008412:	079b      	lsls	r3, r3, #30
10008414:	129b      	asrs	r3, r3, #10
10008416:	3d80      	subs	r5, #128	; 0x80
10008418:	032d      	lsls	r5, r5, #12

1000841a <l8_3>:
1000841a:	1b2f      	subs	r7, r5, r4
1000841c:	1b66      	subs	r6, r4, r5
1000841e:	d458      	bmi.n	100084d2 <da_ygtx>
10008420:	46a4      	mov	ip, r4
10008422:	2e20      	cmp	r6, #32
10008424:	da46      	bge.n	100084b4 <da_xrgty>
10008426:	3720      	adds	r7, #32
10008428:	0014      	movs	r4, r2
1000842a:	40bc      	lsls	r4, r7

1000842c <da_xgty0>:
1000842c:	001d      	movs	r5, r3
1000842e:	40bd      	lsls	r5, r7
10008430:	40f2      	lsrs	r2, r6
10008432:	4133      	asrs	r3, r6
10008434:	432a      	orrs	r2, r5

10008436 <da_add>:
10008436:	1880      	adds	r0, r0, r2
10008438:	4159      	adcs	r1, r3

1000843a <da_pack>:
1000843a:	0fcb      	lsrs	r3, r1, #31
1000843c:	d005      	beq.n	1000844a <da_pack+0x10>
1000843e:	43c9      	mvns	r1, r1
10008440:	43c0      	mvns	r0, r0
10008442:	2200      	movs	r2, #0
10008444:	4264      	negs	r4, r4
10008446:	4150      	adcs	r0, r2
10008448:	4151      	adcs	r1, r2
1000844a:	4662      	mov	r2, ip
1000844c:	0d4d      	lsrs	r5, r1, #21
1000844e:	d128      	bne.n	100084a2 <da_0>
10008450:	0d0d      	lsrs	r5, r1, #20
10008452:	d107      	bne.n	10008464 <da_1>
10008454:	2800      	cmp	r0, #0
10008456:	d01f      	beq.n	10008498 <da_5>

10008458 <da_2>:
10008458:	1924      	adds	r4, r4, r4
1000845a:	4140      	adcs	r0, r0
1000845c:	4149      	adcs	r1, r1
1000845e:	3a01      	subs	r2, #1
10008460:	0d0d      	lsrs	r5, r1, #20
10008462:	d0f9      	beq.n	10008458 <da_2>

10008464 <da_1>:
10008464:	0064      	lsls	r4, r4, #1
10008466:	d306      	bcc.n	10008476 <da_3>

10008468 <da_4>:
10008468:	3001      	adds	r0, #1
1000846a:	d300      	bcc.n	1000846e <da_4+0x6>
1000846c:	3101      	adds	r1, #1
1000846e:	2c00      	cmp	r4, #0
10008470:	d101      	bne.n	10008476 <da_3>
10008472:	0840      	lsrs	r0, r0, #1
10008474:	0040      	lsls	r0, r0, #1

10008476 <da_3>:
10008476:	3a01      	subs	r2, #1
10008478:	d40b      	bmi.n	10008492 <da_6>
1000847a:	1c94      	adds	r4, r2, #2
1000847c:	0ae4      	lsrs	r4, r4, #11
1000847e:	d104      	bne.n	1000848a <da_7>
10008480:	0512      	lsls	r2, r2, #20
10008482:	4411      	add	r1, r2
10008484:	07db      	lsls	r3, r3, #31
10008486:	4419      	add	r1, r3
10008488:	bdf0      	pop	{r4, r5, r6, r7, pc}

1000848a <da_7>:
1000848a:	07d9      	lsls	r1, r3, #31
1000848c:	4b20      	ldr	r3, [pc, #128]	; (10008510 <da_xmgty+0x4>)
1000848e:	4319      	orrs	r1, r3
10008490:	e000      	b.n	10008494 <da_6+0x2>

10008492 <da_6>:
10008492:	07d9      	lsls	r1, r3, #31
10008494:	2000      	movs	r0, #0
10008496:	bdf0      	pop	{r4, r5, r6, r7, pc}

10008498 <da_5>:
10008498:	2900      	cmp	r1, #0
1000849a:	d1dd      	bne.n	10008458 <da_2>
1000849c:	2c00      	cmp	r4, #0
1000849e:	d1db      	bne.n	10008458 <da_2>
100084a0:	bdf0      	pop	{r4, r5, r6, r7, pc}

100084a2 <da_0>:
100084a2:	3201      	adds	r2, #1
100084a4:	07c6      	lsls	r6, r0, #31
100084a6:	0840      	lsrs	r0, r0, #1
100084a8:	07cd      	lsls	r5, r1, #31
100084aa:	4328      	orrs	r0, r5
100084ac:	0849      	lsrs	r1, r1, #1
100084ae:	2e00      	cmp	r6, #0
100084b0:	d0e1      	beq.n	10008476 <da_3>
100084b2:	e7d9      	b.n	10008468 <da_4>

100084b4 <da_xrgty>:
100084b4:	2e3c      	cmp	r6, #60	; 0x3c
100084b6:	da29      	bge.n	1000850c <da_xmgty>
100084b8:	3e20      	subs	r6, #32
100084ba:	3740      	adds	r7, #64	; 0x40
100084bc:	0014      	movs	r4, r2
100084be:	40bc      	lsls	r4, r7
100084c0:	d000      	beq.n	100084c4 <da_xrgty+0x10>
100084c2:	2401      	movs	r4, #1
100084c4:	40f2      	lsrs	r2, r6
100084c6:	4314      	orrs	r4, r2
100084c8:	001a      	movs	r2, r3
100084ca:	40bb      	lsls	r3, r7
100084cc:	431c      	orrs	r4, r3
100084ce:	17d3      	asrs	r3, r2, #31
100084d0:	e7ac      	b.n	1000842c <da_xgty0>

100084d2 <da_ygtx>:
100084d2:	46ac      	mov	ip, r5
100084d4:	2f20      	cmp	r7, #32
100084d6:	da08      	bge.n	100084ea <da_yrgtx>
100084d8:	3620      	adds	r6, #32
100084da:	0004      	movs	r4, r0
100084dc:	40b4      	lsls	r4, r6

100084de <da_ygtx0>:
100084de:	000d      	movs	r5, r1
100084e0:	40b5      	lsls	r5, r6
100084e2:	40f8      	lsrs	r0, r7
100084e4:	4139      	asrs	r1, r7
100084e6:	4328      	orrs	r0, r5
100084e8:	e7a5      	b.n	10008436 <da_add>

100084ea <da_yrgtx>:
100084ea:	2f3c      	cmp	r7, #60	; 0x3c
100084ec:	da0c      	bge.n	10008508 <da_ymgtx>
100084ee:	3f20      	subs	r7, #32
100084f0:	3640      	adds	r6, #64	; 0x40
100084f2:	0004      	movs	r4, r0
100084f4:	40b4      	lsls	r4, r6
100084f6:	d000      	beq.n	100084fa <da_yrgtx+0x10>
100084f8:	2401      	movs	r4, #1
100084fa:	40f8      	lsrs	r0, r7
100084fc:	4304      	orrs	r4, r0
100084fe:	0008      	movs	r0, r1
10008500:	40b1      	lsls	r1, r6
10008502:	430c      	orrs	r4, r1
10008504:	17c1      	asrs	r1, r0, #31
10008506:	e7ea      	b.n	100084de <da_ygtx0>

10008508 <da_ymgtx>:
10008508:	0010      	movs	r0, r2
1000850a:	0019      	movs	r1, r3

1000850c <da_xmgty>:
1000850c:	2400      	movs	r4, #0
1000850e:	e794      	b.n	1000843a <da_pack>
10008510:	7ff00000 	.word	0x7ff00000

10008514 <dmul_shim>:
10008514:	b5f0      	push	{r4, r5, r6, r7, lr}
10008516:	0d0c      	lsrs	r4, r1, #20
10008518:	1e66      	subs	r6, r4, #1
1000851a:	0536      	lsls	r6, r6, #20
1000851c:	1b89      	subs	r1, r1, r6
1000851e:	0ae6      	lsrs	r6, r4, #11
10008520:	0564      	lsls	r4, r4, #21
10008522:	0d64      	lsrs	r4, r4, #21
10008524:	d002      	beq.n	1000852c <l11_1>
10008526:	1c65      	adds	r5, r4, #1
10008528:	0aed      	lsrs	r5, r5, #11
1000852a:	d004      	beq.n	10008536 <l11_2>

1000852c <l11_1>:
1000852c:	2000      	movs	r0, #0
1000852e:	2101      	movs	r1, #1
10008530:	0509      	lsls	r1, r1, #20
10008532:	3c80      	subs	r4, #128	; 0x80
10008534:	0324      	lsls	r4, r4, #12

10008536 <l11_2>:
10008536:	46a4      	mov	ip, r4
10008538:	0d1c      	lsrs	r4, r3, #20
1000853a:	1e67      	subs	r7, r4, #1
1000853c:	053f      	lsls	r7, r7, #20
1000853e:	1bdb      	subs	r3, r3, r7
10008540:	0ae7      	lsrs	r7, r4, #11
10008542:	0564      	lsls	r4, r4, #21
10008544:	0d64      	lsrs	r4, r4, #21
10008546:	d002      	beq.n	1000854e <l12_1>
10008548:	1c65      	adds	r5, r4, #1
1000854a:	0aed      	lsrs	r5, r5, #11
1000854c:	d004      	beq.n	10008558 <l12_2>

1000854e <l12_1>:
1000854e:	2200      	movs	r2, #0
10008550:	2301      	movs	r3, #1
10008552:	051b      	lsls	r3, r3, #20
10008554:	3c80      	subs	r4, #128	; 0x80
10008556:	0324      	lsls	r4, r4, #12

10008558 <l12_2>:
10008558:	4077      	eors	r7, r6
1000855a:	4464      	add	r4, ip
1000855c:	b497      	push	{r0, r1, r2, r4, r7}
1000855e:	b284      	uxth	r4, r0
10008560:	b296      	uxth	r6, r2
10008562:	4374      	muls	r4, r6
10008564:	0c07      	lsrs	r7, r0, #16
10008566:	437e      	muls	r6, r7
10008568:	0c15      	lsrs	r5, r2, #16
1000856a:	436f      	muls	r7, r5
1000856c:	b280      	uxth	r0, r0
1000856e:	4368      	muls	r0, r5
10008570:	1836      	adds	r6, r6, r0
10008572:	d302      	bcc.n	1000857a <l13_1>
10008574:	2001      	movs	r0, #1
10008576:	0400      	lsls	r0, r0, #16
10008578:	183f      	adds	r7, r7, r0

1000857a <l13_1>:
1000857a:	0430      	lsls	r0, r6, #16
1000857c:	0c35      	lsrs	r5, r6, #16
1000857e:	1900      	adds	r0, r0, r4
10008580:	417d      	adcs	r5, r7
10008582:	4684      	mov	ip, r0
10008584:	b288      	uxth	r0, r1
10008586:	b29a      	uxth	r2, r3
10008588:	4350      	muls	r0, r2
1000858a:	0c0c      	lsrs	r4, r1, #16
1000858c:	4362      	muls	r2, r4
1000858e:	0c1f      	lsrs	r7, r3, #16
10008590:	437c      	muls	r4, r7
10008592:	b28e      	uxth	r6, r1
10008594:	437e      	muls	r6, r7
10008596:	1992      	adds	r2, r2, r6
10008598:	d302      	bcc.n	100085a0 <l14_1>
1000859a:	2601      	movs	r6, #1
1000859c:	0436      	lsls	r6, r6, #16
1000859e:	19a4      	adds	r4, r4, r6

100085a0 <l14_1>:
100085a0:	0416      	lsls	r6, r2, #16
100085a2:	0c17      	lsrs	r7, r2, #16
100085a4:	1836      	adds	r6, r6, r0
100085a6:	4167      	adcs	r7, r4
100085a8:	bc01      	pop	{r0}
100085aa:	b281      	uxth	r1, r0
100085ac:	b29a      	uxth	r2, r3
100085ae:	4351      	muls	r1, r2
100085b0:	0c04      	lsrs	r4, r0, #16
100085b2:	4362      	muls	r2, r4
100085b4:	0c1b      	lsrs	r3, r3, #16
100085b6:	435c      	muls	r4, r3
100085b8:	b280      	uxth	r0, r0
100085ba:	4358      	muls	r0, r3
100085bc:	1812      	adds	r2, r2, r0
100085be:	d302      	bcc.n	100085c6 <l15_1>
100085c0:	2001      	movs	r0, #1
100085c2:	0400      	lsls	r0, r0, #16
100085c4:	1824      	adds	r4, r4, r0

100085c6 <l15_1>:
100085c6:	0410      	lsls	r0, r2, #16
100085c8:	0c13      	lsrs	r3, r2, #16
100085ca:	1840      	adds	r0, r0, r1
100085cc:	4163      	adcs	r3, r4
100085ce:	182d      	adds	r5, r5, r0
100085d0:	415e      	adcs	r6, r3
100085d2:	2000      	movs	r0, #0
100085d4:	4147      	adcs	r7, r0
100085d6:	bc06      	pop	{r1, r2}
100085d8:	b288      	uxth	r0, r1
100085da:	b293      	uxth	r3, r2
100085dc:	4358      	muls	r0, r3
100085de:	0c0c      	lsrs	r4, r1, #16
100085e0:	4363      	muls	r3, r4
100085e2:	0c12      	lsrs	r2, r2, #16
100085e4:	4354      	muls	r4, r2
100085e6:	b289      	uxth	r1, r1
100085e8:	4351      	muls	r1, r2
100085ea:	185b      	adds	r3, r3, r1
100085ec:	d302      	bcc.n	100085f4 <l16_1>
100085ee:	2101      	movs	r1, #1
100085f0:	0409      	lsls	r1, r1, #16
100085f2:	1864      	adds	r4, r4, r1

100085f4 <l16_1>:
100085f4:	0419      	lsls	r1, r3, #16
100085f6:	0c1a      	lsrs	r2, r3, #16
100085f8:	1809      	adds	r1, r1, r0
100085fa:	4162      	adcs	r2, r4
100085fc:	186d      	adds	r5, r5, r1
100085fe:	4156      	adcs	r6, r2
10008600:	2000      	movs	r0, #0
10008602:	4147      	adcs	r7, r0
10008604:	bc18      	pop	{r3, r4}
10008606:	02f9      	lsls	r1, r7, #11
10008608:	0d72      	lsrs	r2, r6, #21
1000860a:	4311      	orrs	r1, r2
1000860c:	02f0      	lsls	r0, r6, #11
1000860e:	0d6a      	lsrs	r2, r5, #21
10008610:	4310      	orrs	r0, r2
10008612:	02ed      	lsls	r5, r5, #11
10008614:	0d0a      	lsrs	r2, r1, #20
10008616:	d103      	bne.n	10008620 <l16_1+0x2c>
10008618:	196d      	adds	r5, r5, r5
1000861a:	4140      	adcs	r0, r0
1000861c:	4149      	adcs	r1, r1
1000861e:	3b01      	subs	r3, #1
10008620:	4e12      	ldr	r6, [pc, #72]	; (1000866c <dm_1+0xa>)
10008622:	1b9b      	subs	r3, r3, r6
10008624:	0076      	lsls	r6, r6, #1
10008626:	42b3      	cmp	r3, r6
10008628:	d20e      	bcs.n	10008648 <dm_0>
1000862a:	006d      	lsls	r5, r5, #1
1000862c:	d307      	bcc.n	1000863e <l16_1+0x4a>
1000862e:	3001      	adds	r0, #1
10008630:	2600      	movs	r6, #0
10008632:	4171      	adcs	r1, r6
10008634:	4666      	mov	r6, ip
10008636:	4335      	orrs	r5, r6
10008638:	d101      	bne.n	1000863e <l16_1+0x4a>
1000863a:	0840      	lsrs	r0, r0, #1
1000863c:	0040      	lsls	r0, r0, #1
1000863e:	051b      	lsls	r3, r3, #20
10008640:	18c9      	adds	r1, r1, r3

10008642 <dm_2>:
10008642:	07e4      	lsls	r4, r4, #31
10008644:	4421      	add	r1, r4
10008646:	bdf0      	pop	{r4, r5, r6, r7, pc}

10008648 <dm_0>:
10008648:	da0b      	bge.n	10008662 <dm_1>
1000864a:	3301      	adds	r3, #1
1000864c:	d106      	bne.n	1000865c <dm_0+0x14>
1000864e:	3001      	adds	r0, #1
10008650:	d104      	bne.n	1000865c <dm_0+0x14>
10008652:	3101      	adds	r1, #1
10008654:	0d4f      	lsrs	r7, r1, #21
10008656:	d001      	beq.n	1000865c <dm_0+0x14>
10008658:	0849      	lsrs	r1, r1, #1
1000865a:	e7f2      	b.n	10008642 <dm_2>
1000865c:	07e1      	lsls	r1, r4, #31
1000865e:	2000      	movs	r0, #0
10008660:	bdf0      	pop	{r4, r5, r6, r7, pc}

10008662 <dm_1>:
10008662:	3601      	adds	r6, #1
10008664:	0531      	lsls	r1, r6, #20
10008666:	2000      	movs	r0, #0
10008668:	e7eb      	b.n	10008642 <dm_2>
1000866a:	0000      	.short	0x0000
1000866c:	000003ff 	.word	0x000003ff

10008670 <ddiv_shim>:
10008670:	b5f0      	push	{r4, r5, r6, r7, lr}

10008672 <ddiv0>:
10008672:	0d1c      	lsrs	r4, r3, #20
10008674:	1e67      	subs	r7, r4, #1
10008676:	053f      	lsls	r7, r7, #20
10008678:	1bdb      	subs	r3, r3, r7
1000867a:	0ae7      	lsrs	r7, r4, #11
1000867c:	0564      	lsls	r4, r4, #21
1000867e:	0d64      	lsrs	r4, r4, #21
10008680:	d002      	beq.n	10008688 <l19_1>
10008682:	1c66      	adds	r6, r4, #1
10008684:	0af6      	lsrs	r6, r6, #11
10008686:	d004      	beq.n	10008692 <l19_2>

10008688 <l19_1>:
10008688:	2200      	movs	r2, #0
1000868a:	2301      	movs	r3, #1
1000868c:	051b      	lsls	r3, r3, #20
1000868e:	3c80      	subs	r4, #128	; 0x80
10008690:	0324      	lsls	r4, r4, #12

10008692 <l19_2>:
10008692:	25d0      	movs	r5, #208	; 0xd0
10008694:	062d      	lsls	r5, r5, #24
10008696:	2600      	movs	r6, #0
10008698:	43f6      	mvns	r6, r6
1000869a:	662e      	str	r6, [r5, #96]	; 0x60
1000869c:	091e      	lsrs	r6, r3, #4
1000869e:	666e      	str	r6, [r5, #100]	; 0x64
100086a0:	0fce      	lsrs	r6, r1, #31
100086a2:	19f6      	adds	r6, r6, r7
100086a4:	46b4      	mov	ip, r6
100086a6:	0049      	lsls	r1, r1, #1
100086a8:	0d4f      	lsrs	r7, r1, #21
100086aa:	d002      	beq.n	100086b2 <l19_2+0x20>
100086ac:	1c7e      	adds	r6, r7, #1
100086ae:	0af6      	lsrs	r6, r6, #11
100086b0:	d003      	beq.n	100086ba <l19_2+0x28>
100086b2:	2000      	movs	r0, #0
100086b4:	2100      	movs	r1, #0
100086b6:	3f40      	subs	r7, #64	; 0x40
100086b8:	033f      	lsls	r7, r7, #12
100086ba:	1b3e      	subs	r6, r7, r4
100086bc:	00b6      	lsls	r6, r6, #2
100086be:	44b4      	add	ip, r6
100086c0:	3f01      	subs	r7, #1
100086c2:	057f      	lsls	r7, r7, #21
100086c4:	1bc9      	subs	r1, r1, r7
100086c6:	0849      	lsrs	r1, r1, #1
100086c8:	6f2e      	ldr	r6, [r5, #112]	; 0x70
100086ca:	3601      	adds	r6, #1
100086cc:	0876      	lsrs	r6, r6, #1
100086ce:	029c      	lsls	r4, r3, #10
100086d0:	0d95      	lsrs	r5, r2, #22
100086d2:	4325      	orrs	r5, r4
100086d4:	4375      	muls	r5, r6
100086d6:	13ed      	asrs	r5, r5, #15
100086d8:	4375      	muls	r5, r6
100086da:	13ad      	asrs	r5, r5, #14
100086dc:	3501      	adds	r5, #1
100086de:	106d      	asrs	r5, r5, #1
100086e0:	03f6      	lsls	r6, r6, #15
100086e2:	1b76      	subs	r6, r6, r5
100086e4:	b40c      	push	{r2, r3}
100086e6:	02cc      	lsls	r4, r1, #11
100086e8:	0d45      	lsrs	r5, r0, #21
100086ea:	432c      	orrs	r4, r5
100086ec:	b2a2      	uxth	r2, r4
100086ee:	b2b3      	uxth	r3, r6
100086f0:	435a      	muls	r2, r3
100086f2:	0c27      	lsrs	r7, r4, #16
100086f4:	437b      	muls	r3, r7
100086f6:	0c35      	lsrs	r5, r6, #16
100086f8:	436f      	muls	r7, r5
100086fa:	b2a4      	uxth	r4, r4
100086fc:	436c      	muls	r4, r5
100086fe:	191b      	adds	r3, r3, r4
10008700:	d302      	bcc.n	10008708 <l20_1>
10008702:	2401      	movs	r4, #1
10008704:	0424      	lsls	r4, r4, #16
10008706:	193f      	adds	r7, r7, r4

10008708 <l20_1>:
10008708:	041c      	lsls	r4, r3, #16
1000870a:	0c1d      	lsrs	r5, r3, #16
1000870c:	18a4      	adds	r4, r4, r2
1000870e:	417d      	adcs	r5, r7
10008710:	1924      	adds	r4, r4, r4
10008712:	416d      	adcs	r5, r5
10008714:	9a00      	ldr	r2, [sp, #0]
10008716:	b291      	uxth	r1, r2
10008718:	b2ac      	uxth	r4, r5
1000871a:	4361      	muls	r1, r4
1000871c:	0c17      	lsrs	r7, r2, #16
1000871e:	437c      	muls	r4, r7
10008720:	0c2b      	lsrs	r3, r5, #16
10008722:	435f      	muls	r7, r3
10008724:	b292      	uxth	r2, r2
10008726:	435a      	muls	r2, r3
10008728:	18a4      	adds	r4, r4, r2
1000872a:	d302      	bcc.n	10008732 <l21_1>
1000872c:	2201      	movs	r2, #1
1000872e:	0412      	lsls	r2, r2, #16
10008730:	18bf      	adds	r7, r7, r2

10008732 <l21_1>:
10008732:	0422      	lsls	r2, r4, #16
10008734:	0c23      	lsrs	r3, r4, #16
10008736:	1852      	adds	r2, r2, r1
10008738:	417b      	adcs	r3, r7
1000873a:	9c01      	ldr	r4, [sp, #4]
1000873c:	436c      	muls	r4, r5
1000873e:	191b      	adds	r3, r3, r4
10008740:	0e52      	lsrs	r2, r2, #25
10008742:	01d9      	lsls	r1, r3, #7
10008744:	430a      	orrs	r2, r1
10008746:	0144      	lsls	r4, r0, #5
10008748:	1aa0      	subs	r0, r4, r2
1000874a:	b281      	uxth	r1, r0
1000874c:	b2b2      	uxth	r2, r6
1000874e:	4351      	muls	r1, r2
10008750:	1403      	asrs	r3, r0, #16
10008752:	435a      	muls	r2, r3
10008754:	0c36      	lsrs	r6, r6, #16
10008756:	4373      	muls	r3, r6
10008758:	b287      	uxth	r7, r0
1000875a:	4377      	muls	r7, r6
1000875c:	17d6      	asrs	r6, r2, #31
1000875e:	19d2      	adds	r2, r2, r7
10008760:	2700      	movs	r7, #0
10008762:	417e      	adcs	r6, r7
10008764:	0436      	lsls	r6, r6, #16
10008766:	199b      	adds	r3, r3, r6
10008768:	0417      	lsls	r7, r2, #16
1000876a:	0c16      	lsrs	r6, r2, #16
1000876c:	187f      	adds	r7, r7, r1
1000876e:	415e      	adcs	r6, r3
10008770:	1673      	asrs	r3, r6, #25
10008772:	18ed      	adds	r5, r5, r3
10008774:	01f3      	lsls	r3, r6, #7
10008776:	2600      	movs	r6, #0
10008778:	3380      	adds	r3, #128	; 0x80
1000877a:	4175      	adcs	r5, r6
1000877c:	0fa9      	lsrs	r1, r5, #30
1000877e:	d106      	bne.n	1000878e <dd_0>
10008780:	0064      	lsls	r4, r4, #1
10008782:	0a69      	lsrs	r1, r5, #9
10008784:	05e8      	lsls	r0, r5, #23
10008786:	0a5b      	lsrs	r3, r3, #9
10008788:	4318      	orrs	r0, r3
1000878a:	d209      	bcs.n	100087a0 <dd_1>
1000878c:	e02f      	b.n	100087ee <dd_2>

1000878e <dd_0>:
1000878e:	2204      	movs	r2, #4
10008790:	4494      	add	ip, r2
10008792:	3380      	adds	r3, #128	; 0x80
10008794:	4175      	adcs	r5, r6
10008796:	0aa9      	lsrs	r1, r5, #10
10008798:	05a8      	lsls	r0, r5, #22
1000879a:	0a9b      	lsrs	r3, r3, #10
1000879c:	4318      	orrs	r0, r3
1000879e:	d326      	bcc.n	100087ee <dd_2>

100087a0 <dd_1>:
100087a0:	4140      	adcs	r0, r0
100087a2:	4149      	adcs	r1, r1
100087a4:	0424      	lsls	r4, r4, #16
100087a6:	9a00      	ldr	r2, [sp, #0]
100087a8:	9b01      	ldr	r3, [sp, #4]
100087aa:	000d      	movs	r5, r1
100087ac:	4355      	muls	r5, r2
100087ae:	1b64      	subs	r4, r4, r5
100087b0:	4343      	muls	r3, r0
100087b2:	1ae4      	subs	r4, r4, r3
100087b4:	b295      	uxth	r5, r2
100087b6:	b286      	uxth	r6, r0
100087b8:	4375      	muls	r5, r6
100087ba:	0c17      	lsrs	r7, r2, #16
100087bc:	437e      	muls	r6, r7
100087be:	0c03      	lsrs	r3, r0, #16
100087c0:	435f      	muls	r7, r3
100087c2:	b292      	uxth	r2, r2
100087c4:	435a      	muls	r2, r3
100087c6:	18b6      	adds	r6, r6, r2
100087c8:	d302      	bcc.n	100087d0 <l23_1>
100087ca:	2201      	movs	r2, #1
100087cc:	0412      	lsls	r2, r2, #16
100087ce:	18bf      	adds	r7, r7, r2

100087d0 <l23_1>:
100087d0:	0432      	lsls	r2, r6, #16
100087d2:	0c33      	lsrs	r3, r6, #16
100087d4:	1952      	adds	r2, r2, r5
100087d6:	417b      	adcs	r3, r7
100087d8:	4252      	negs	r2, r2
100087da:	419c      	sbcs	r4, r3
100087dc:	2c00      	cmp	r4, #0
100087de:	d402      	bmi.n	100087e6 <l23_1+0x16>
100087e0:	2200      	movs	r2, #0
100087e2:	3001      	adds	r0, #1
100087e4:	4151      	adcs	r1, r2
100087e6:	0840      	lsrs	r0, r0, #1
100087e8:	07ca      	lsls	r2, r1, #31
100087ea:	4310      	orrs	r0, r2
100087ec:	0849      	lsrs	r1, r1, #1

100087ee <dd_2>:
100087ee:	b002      	add	sp, #8
100087f0:	4662      	mov	r2, ip
100087f2:	07d7      	lsls	r7, r2, #31
100087f4:	1092      	asrs	r2, r2, #2
100087f6:	4b08      	ldr	r3, [pc, #32]	; (10008818 <dd_4+0x6>)
100087f8:	18d2      	adds	r2, r2, r3
100087fa:	4b08      	ldr	r3, [pc, #32]	; (1000881c <dd_4+0xa>)
100087fc:	429a      	cmp	r2, r3
100087fe:	d203      	bcs.n	10008808 <dd_3>
10008800:	0512      	lsls	r2, r2, #20
10008802:	1889      	adds	r1, r1, r2

10008804 <dd_5>:
10008804:	19c9      	adds	r1, r1, r7
10008806:	bdf0      	pop	{r4, r5, r6, r7, pc}

10008808 <dd_3>:
10008808:	2000      	movs	r0, #0
1000880a:	2a00      	cmp	r2, #0
1000880c:	dc01      	bgt.n	10008812 <dd_4>
1000880e:	0039      	movs	r1, r7
10008810:	bdf0      	pop	{r4, r5, r6, r7, pc}

10008812 <dd_4>:
10008812:	3301      	adds	r3, #1
10008814:	0519      	lsls	r1, r3, #20
10008816:	e7f5      	b.n	10008804 <dd_5>
10008818:	000003fd 	.word	0x000003fd
1000881c:	000007fe 	.word	0x000007fe

10008820 <dcordic_rot_step>:
10008820:	4662      	mov	r2, ip
10008822:	ca18      	ldmia	r2!, {r3, r4}
10008824:	4694      	mov	ip, r2
10008826:	2900      	cmp	r1, #0
10008828:	da1a      	bge.n	10008860 <dcordic_rot_step+0x40>
1000882a:	18c0      	adds	r0, r0, r3
1000882c:	4161      	adcs	r1, r4
1000882e:	465b      	mov	r3, fp
10008830:	413b      	asrs	r3, r7
10008832:	465c      	mov	r4, fp
10008834:	40b4      	lsls	r4, r6
10008836:	4652      	mov	r2, sl
10008838:	40fa      	lsrs	r2, r7
1000883a:	4322      	orrs	r2, r4
1000883c:	4644      	mov	r4, r8
1000883e:	464d      	mov	r5, r9
10008840:	4162      	adcs	r2, r4
10008842:	416b      	adcs	r3, r5
10008844:	4690      	mov	r8, r2
10008846:	4699      	mov	r9, r3
10008848:	462b      	mov	r3, r5
1000884a:	40b3      	lsls	r3, r6
1000884c:	413d      	asrs	r5, r7
1000884e:	40fc      	lsrs	r4, r7
10008850:	431c      	orrs	r4, r3
10008852:	4652      	mov	r2, sl
10008854:	465b      	mov	r3, fp
10008856:	41a2      	sbcs	r2, r4
10008858:	41ab      	sbcs	r3, r5
1000885a:	4692      	mov	sl, r2
1000885c:	469b      	mov	fp, r3
1000885e:	4770      	bx	lr
10008860:	1ac0      	subs	r0, r0, r3
10008862:	41a1      	sbcs	r1, r4
10008864:	464b      	mov	r3, r9
10008866:	413b      	asrs	r3, r7
10008868:	464c      	mov	r4, r9
1000886a:	40b4      	lsls	r4, r6
1000886c:	4642      	mov	r2, r8
1000886e:	40fa      	lsrs	r2, r7
10008870:	4322      	orrs	r2, r4
10008872:	4654      	mov	r4, sl
10008874:	465d      	mov	r5, fp
10008876:	4162      	adcs	r2, r4
10008878:	416b      	adcs	r3, r5
1000887a:	4692      	mov	sl, r2
1000887c:	469b      	mov	fp, r3
1000887e:	462b      	mov	r3, r5
10008880:	40b3      	lsls	r3, r6
10008882:	413d      	asrs	r5, r7
10008884:	40fc      	lsrs	r4, r7
10008886:	431c      	orrs	r4, r3
10008888:	4642      	mov	r2, r8
1000888a:	464b      	mov	r3, r9
1000888c:	41a2      	sbcs	r2, r4
1000888e:	41ab      	sbcs	r3, r5
10008890:	4690      	mov	r8, r2
10008892:	4699      	mov	r9, r3
10008894:	4770      	bx	lr

10008896 <ret_dzero>:
10008896:	2000      	movs	r0, #0
10008898:	2100      	movs	r1, #0
1000889a:	4770      	bx	lr

1000889c <double2uint_shim>:
1000889c:	2200      	movs	r2, #0

1000889e <double2ufix_shim>:
1000889e:	b500      	push	{lr}
100088a0:	3220      	adds	r2, #32
100088a2:	f000 f804 	bl	100088ae <double2ufix64_shim>
100088a6:	0008      	movs	r0, r1
100088a8:	bd00      	pop	{pc}
	...

100088ac <double2uint64_shim>:
100088ac:	2200      	movs	r2, #0

100088ae <double2ufix64_shim>:
100088ae:	150b      	asrs	r3, r1, #20
100088b0:	d4f1      	bmi.n	10008896 <ret_dzero>

100088b2 <d2fix>:
100088b2:	b510      	push	{r4, lr}
100088b4:	4694      	mov	ip, r2
100088b6:	f000 f82f 	bl	10008918 <dunpacks>
100088ba:	1414      	asrs	r4, r2, #16
100088bc:	3401      	adds	r4, #1
100088be:	da00      	bge.n	100088c2 <d2fix+0x10>
100088c0:	2100      	movs	r1, #0
100088c2:	17cb      	asrs	r3, r1, #31
100088c4:	4c13      	ldr	r4, [pc, #76]	; (10008914 <d2fix_a+0x4c>)
100088c6:	4720      	bx	r4

100088c8 <d2fix_a>:
100088c8:	4462      	add	r2, ip
100088ca:	3a34      	subs	r2, #52	; 0x34
100088cc:	d40c      	bmi.n	100088e8 <d2fix_a+0x20>
100088ce:	2a0c      	cmp	r2, #12
100088d0:	da07      	bge.n	100088e2 <d2fix_a+0x1a>
100088d2:	0004      	movs	r4, r0
100088d4:	4091      	lsls	r1, r2
100088d6:	4090      	lsls	r0, r2
100088d8:	4252      	negs	r2, r2
100088da:	3220      	adds	r2, #32
100088dc:	40d4      	lsrs	r4, r2
100088de:	4321      	orrs	r1, r4
100088e0:	bd10      	pop	{r4, pc}
100088e2:	43d8      	mvns	r0, r3
100088e4:	43d9      	mvns	r1, r3
100088e6:	bd10      	pop	{r4, pc}
100088e8:	3220      	adds	r2, #32
100088ea:	d407      	bmi.n	100088fc <d2fix_a+0x34>
100088ec:	460c      	mov	r4, r1
100088ee:	4094      	lsls	r4, r2
100088f0:	4252      	negs	r2, r2
100088f2:	3220      	adds	r2, #32
100088f4:	4111      	asrs	r1, r2
100088f6:	40d0      	lsrs	r0, r2
100088f8:	4320      	orrs	r0, r4
100088fa:	bd10      	pop	{r4, pc}
100088fc:	0008      	movs	r0, r1
100088fe:	17c9      	asrs	r1, r1, #31
10008900:	3220      	adds	r2, #32
10008902:	d403      	bmi.n	1000890c <d2fix_a+0x44>
10008904:	4252      	negs	r2, r2
10008906:	3220      	adds	r2, #32
10008908:	4110      	asrs	r0, r2
1000890a:	bd10      	pop	{r4, pc}
1000890c:	0018      	movs	r0, r3
1000890e:	0019      	movs	r1, r3
10008910:	bd10      	pop	{r4, pc}
10008912:	0000      	.short	0x0000
10008914:	100088c9 	.word	0x100088c9

10008918 <dunpacks>:
10008918:	0d0a      	lsrs	r2, r1, #20
1000891a:	0fcc      	lsrs	r4, r1, #31
1000891c:	1e53      	subs	r3, r2, #1
1000891e:	051b      	lsls	r3, r3, #20
10008920:	1ac9      	subs	r1, r1, r3
10008922:	0552      	lsls	r2, r2, #21
10008924:	d303      	bcc.n	1000892e <l60_1>
10008926:	43c9      	mvns	r1, r1
10008928:	4240      	negs	r0, r0
1000892a:	d300      	bcc.n	1000892e <l60_1>
1000892c:	3101      	adds	r1, #1

1000892e <l60_1>:
1000892e:	0d52      	lsrs	r2, r2, #21
10008930:	d003      	beq.n	1000893a <l60_2>
10008932:	1c53      	adds	r3, r2, #1
10008934:	0adb      	lsrs	r3, r3, #11
10008936:	d007      	beq.n	10008948 <l60_3>
10008938:	1b12      	subs	r2, r2, r4

1000893a <l60_2>:
1000893a:	2000      	movs	r0, #0
1000893c:	0064      	lsls	r4, r4, #1
1000893e:	1c61      	adds	r1, r4, #1
10008940:	0789      	lsls	r1, r1, #30
10008942:	1289      	asrs	r1, r1, #10
10008944:	3a80      	subs	r2, #128	; 0x80
10008946:	0312      	lsls	r2, r2, #12

10008948 <l60_3>:
10008948:	4b01      	ldr	r3, [pc, #4]	; (10008950 <l60_3+0x8>)
1000894a:	1ad2      	subs	r2, r2, r3
1000894c:	4770      	bx	lr
1000894e:	0000      	.short	0x0000
10008950:	000003ff 	.word	0x000003ff

10008954 <__wrap___aeabi_lmul>:
10008954:	4351      	muls	r1, r2
10008956:	4343      	muls	r3, r0
10008958:	18c9      	adds	r1, r1, r3
1000895a:	468c      	mov	ip, r1
1000895c:	0c11      	lsrs	r1, r2, #16
1000895e:	b283      	uxth	r3, r0
10008960:	434b      	muls	r3, r1
10008962:	b410      	push	{r4}
10008964:	0c04      	lsrs	r4, r0, #16
10008966:	4361      	muls	r1, r4
10008968:	b292      	uxth	r2, r2
1000896a:	b280      	uxth	r0, r0
1000896c:	4350      	muls	r0, r2
1000896e:	4362      	muls	r2, r4
10008970:	041c      	lsls	r4, r3, #16
10008972:	0c1b      	lsrs	r3, r3, #16
10008974:	1900      	adds	r0, r0, r4
10008976:	bc10      	pop	{r4}
10008978:	4159      	adcs	r1, r3
1000897a:	0413      	lsls	r3, r2, #16
1000897c:	0c12      	lsrs	r2, r2, #16
1000897e:	18c0      	adds	r0, r0, r3
10008980:	4151      	adcs	r1, r2
10008982:	4461      	add	r1, ip
10008984:	4770      	bx	lr
	...

10008988 <__aeabi_float_init>:
10008988:	b570      	push	{r4, r5, r6, lr}
1000898a:	2313      	movs	r3, #19
1000898c:	781d      	ldrb	r5, [r3, #0]
1000898e:	482a      	ldr	r0, [pc, #168]	; (10008a38 <__aeabi_float_init+0xb0>)
10008990:	f7ff f92c 	bl	10007bec <rom_data_lookup>
10008994:	0004      	movs	r4, r0
10008996:	2d01      	cmp	r5, #1
10008998:	d011      	beq.n	100089be <__aeabi_float_init+0x36>
1000899a:	2d01      	cmp	r5, #1
1000899c:	dd09      	ble.n	100089b2 <__aeabi_float_init+0x2a>
1000899e:	1ea3      	subs	r3, r4, #2
100089a0:	781b      	ldrb	r3, [r3, #0]
100089a2:	009b      	lsls	r3, r3, #2
100089a4:	2b7f      	cmp	r3, #127	; 0x7f
100089a6:	dd40      	ble.n	10008a2a <__aeabi_float_init+0xa2>
100089a8:	2280      	movs	r2, #128	; 0x80
100089aa:	0021      	movs	r1, r4
100089ac:	4823      	ldr	r0, [pc, #140]	; (10008a3c <__aeabi_float_init+0xb4>)
100089ae:	f000 f891 	bl	10008ad4 <__wrap___aeabi_memcpy>
100089b2:	4823      	ldr	r0, [pc, #140]	; (10008a40 <__aeabi_float_init+0xb8>)
100089b4:	f7ff f912 	bl	10007bdc <rom_func_lookup>
100089b8:	4b22      	ldr	r3, [pc, #136]	; (10008a44 <__aeabi_float_init+0xbc>)
100089ba:	6018      	str	r0, [r3, #0]
100089bc:	bd70      	pop	{r4, r5, r6, pc}
100089be:	2254      	movs	r2, #84	; 0x54
100089c0:	0001      	movs	r1, r0
100089c2:	481e      	ldr	r0, [pc, #120]	; (10008a3c <__aeabi_float_init+0xb4>)
100089c4:	f000 f886 	bl	10008ad4 <__wrap___aeabi_memcpy>
100089c8:	4b1f      	ldr	r3, [pc, #124]	; (10008a48 <__aeabi_float_init+0xc0>)
100089ca:	881a      	ldrh	r2, [r3, #0]
100089cc:	4b1f      	ldr	r3, [pc, #124]	; (10008a4c <__aeabi_float_init+0xc4>)
100089ce:	429a      	cmp	r2, r3
100089d0:	d11c      	bne.n	10008a0c <__aeabi_float_init+0x84>
100089d2:	23a7      	movs	r3, #167	; 0xa7
100089d4:	019b      	lsls	r3, r3, #6
100089d6:	881a      	ldrh	r2, [r3, #0]
100089d8:	4b1d      	ldr	r3, [pc, #116]	; (10008a50 <__aeabi_float_init+0xc8>)
100089da:	429a      	cmp	r2, r3
100089dc:	d116      	bne.n	10008a0c <__aeabi_float_init+0x84>
100089de:	4b1d      	ldr	r3, [pc, #116]	; (10008a54 <__aeabi_float_init+0xcc>)
100089e0:	881a      	ldrh	r2, [r3, #0]
100089e2:	4b1d      	ldr	r3, [pc, #116]	; (10008a58 <__aeabi_float_init+0xd0>)
100089e4:	429a      	cmp	r2, r3
100089e6:	d111      	bne.n	10008a0c <__aeabi_float_init+0x84>
100089e8:	4b1c      	ldr	r3, [pc, #112]	; (10008a5c <__aeabi_float_init+0xd4>)
100089ea:	881a      	ldrh	r2, [r3, #0]
100089ec:	2394      	movs	r3, #148	; 0x94
100089ee:	019b      	lsls	r3, r3, #6
100089f0:	429a      	cmp	r2, r3
100089f2:	d10b      	bne.n	10008a0c <__aeabi_float_init+0x84>
100089f4:	4b1a      	ldr	r3, [pc, #104]	; (10008a60 <__aeabi_float_init+0xd8>)
100089f6:	881a      	ldrh	r2, [r3, #0]
100089f8:	4b1a      	ldr	r3, [pc, #104]	; (10008a64 <__aeabi_float_init+0xdc>)
100089fa:	429a      	cmp	r2, r3
100089fc:	d106      	bne.n	10008a0c <__aeabi_float_init+0x84>
100089fe:	4b1a      	ldr	r3, [pc, #104]	; (10008a68 <__aeabi_float_init+0xe0>)
10008a00:	681a      	ldr	r2, [r3, #0]
10008a02:	4b1a      	ldr	r3, [pc, #104]	; (10008a6c <__aeabi_float_init+0xe4>)
10008a04:	429a      	cmp	r2, r3
10008a06:	d101      	bne.n	10008a0c <__aeabi_float_init+0x84>
10008a08:	2315      	movs	r3, #21
10008a0a:	e007      	b.n	10008a1c <__aeabi_float_init+0x94>
10008a0c:	4818      	ldr	r0, [pc, #96]	; (10008a70 <__aeabi_float_init+0xe8>)
10008a0e:	f7fd fc27 	bl	10006260 <panic>
10008a12:	0099      	lsls	r1, r3, #2
10008a14:	4817      	ldr	r0, [pc, #92]	; (10008a74 <__aeabi_float_init+0xec>)
10008a16:	4a09      	ldr	r2, [pc, #36]	; (10008a3c <__aeabi_float_init+0xb4>)
10008a18:	5088      	str	r0, [r1, r2]
10008a1a:	3301      	adds	r3, #1
10008a1c:	2b1f      	cmp	r3, #31
10008a1e:	d9f8      	bls.n	10008a12 <__aeabi_float_init+0x8a>
10008a20:	4a14      	ldr	r2, [pc, #80]	; (10008a74 <__aeabi_float_init+0xec>)
10008a22:	4b06      	ldr	r3, [pc, #24]	; (10008a3c <__aeabi_float_init+0xb4>)
10008a24:	621a      	str	r2, [r3, #32]
10008a26:	61da      	str	r2, [r3, #28]
10008a28:	e7b7      	b.n	1000899a <__aeabi_float_init+0x12>
10008a2a:	4b13      	ldr	r3, [pc, #76]	; (10008a78 <__aeabi_float_init+0xf0>)
10008a2c:	4a13      	ldr	r2, [pc, #76]	; (10008a7c <__aeabi_float_init+0xf4>)
10008a2e:	2142      	movs	r1, #66	; 0x42
10008a30:	4813      	ldr	r0, [pc, #76]	; (10008a80 <__aeabi_float_init+0xf8>)
10008a32:	f7fd fbf7 	bl	10006224 <__assert_func>
10008a36:	46c0      	nop			; (mov r8, r8)
10008a38:	00004653 	.word	0x00004653
10008a3c:	200024c4 	.word	0x200024c4
10008a40:	0000334c 	.word	0x0000334c
10008a44:	200024c0 	.word	0x200024c0
10008a48:	000029ee 	.word	0x000029ee
10008a4c:	00000fc4 	.word	0x00000fc4
10008a50:	00000dc2 	.word	0x00000dc2
10008a54:	00002b96 	.word	0x00002b96
10008a58:	0000b5c0 	.word	0x0000b5c0
10008a5c:	00002b18 	.word	0x00002b18
10008a60:	00002acc 	.word	0x00002acc
10008a64:	0000b510 	.word	0x0000b510
10008a68:	00002cfc 	.word	0x00002cfc
10008a6c:	6487ed51 	.word	0x6487ed51
10008a70:	1000c9f4 	.word	0x1000c9f4
10008a74:	10008a85 	.word	0x10008a85
10008a78:	1000d7f0 	.word	0x1000d7f0
10008a7c:	1000d880 	.word	0x1000d880
10008a80:	1000d824 	.word	0x1000d824

10008a84 <float_table_shim_on_use_helper>:
10008a84:	b507      	push	{r0, r1, r2, lr}
10008a86:	4660      	mov	r0, ip
10008a88:	2800      	cmp	r0, #0
10008a8a:	d100      	bne.n	10008a8e <float_table_shim_on_use_helper+0xa>
10008a8c:	be00      	bkpt	0x0000
10008a8e:	8801      	ldrh	r1, [r0, #0]
10008a90:	0a0a      	lsrs	r2, r1, #8
10008a92:	3002      	adds	r0, #2
10008a94:	2adf      	cmp	r2, #223	; 0xdf
10008a96:	d1fa      	bne.n	10008a8e <float_table_shim_on_use_helper+0xa>
10008a98:	b2c9      	uxtb	r1, r1
10008a9a:	0882      	lsrs	r2, r0, #2
10008a9c:	d304      	bcc.n	10008aa8 <float_table_shim_on_use_helper+0x24>
10008a9e:	8802      	ldrh	r2, [r0, #0]
10008aa0:	8840      	ldrh	r0, [r0, #2]
10008aa2:	0400      	lsls	r0, r0, #16
10008aa4:	4310      	orrs	r0, r2
10008aa6:	e000      	b.n	10008aaa <float_table_shim_on_use_helper+0x26>
10008aa8:	6800      	ldr	r0, [r0, #0]
10008aaa:	4a02      	ldr	r2, [pc, #8]	; (10008ab4 <float_table_shim_on_use_helper+0x30>)
10008aac:	5050      	str	r0, [r2, r1]
10008aae:	9003      	str	r0, [sp, #12]
10008ab0:	bd07      	pop	{r0, r1, r2, pc}
10008ab2:	0000      	.short	0x0000
10008ab4:	200024c4 	.word	0x200024c4

10008ab8 <__aeabi_mem_init>:
10008ab8:	4801      	ldr	r0, [pc, #4]	; (10008ac0 <__aeabi_mem_init+0x8>)
10008aba:	2104      	movs	r1, #4
10008abc:	4b01      	ldr	r3, [pc, #4]	; (10008ac4 <__aeabi_mem_init+0xc>)
10008abe:	4718      	bx	r3
10008ac0:	20000b30 	.word	0x20000b30
10008ac4:	10007bfd 	.word	0x10007bfd

10008ac8 <__wrap_memset>:
10008ac8:	4b01      	ldr	r3, [pc, #4]	; (10008ad0 <__wrap_memset+0x8>)
10008aca:	681b      	ldr	r3, [r3, #0]
10008acc:	4718      	bx	r3
10008ace:	0000      	.short	0x0000
10008ad0:	20000b30 	.word	0x20000b30

10008ad4 <__wrap___aeabi_memcpy>:
10008ad4:	4b01      	ldr	r3, [pc, #4]	; (10008adc <__wrap___aeabi_memcpy+0x8>)
10008ad6:	685b      	ldr	r3, [r3, #4]
10008ad8:	4718      	bx	r3
10008ada:	0000      	.short	0x0000
10008adc:	20000b30 	.word	0x20000b30

10008ae0 <stdio_out_chars_crlf>:
10008ae0:	b5f8      	push	{r3, r4, r5, r6, r7, lr}
10008ae2:	0007      	movs	r7, r0
10008ae4:	000d      	movs	r5, r1
10008ae6:	0016      	movs	r6, r2
10008ae8:	7c43      	ldrb	r3, [r0, #17]
10008aea:	2b00      	cmp	r3, #0
10008aec:	d002      	beq.n	10008af4 <stdio_out_chars_crlf+0x14>
10008aee:	2400      	movs	r4, #0
10008af0:	2000      	movs	r0, #0
10008af2:	e00c      	b.n	10008b0e <stdio_out_chars_crlf+0x2e>
10008af4:	6803      	ldr	r3, [r0, #0]
10008af6:	0011      	movs	r1, r2
10008af8:	0028      	movs	r0, r5
10008afa:	4798      	blx	r3
10008afc:	e02d      	b.n	10008b5a <stdio_out_chars_crlf+0x7a>
10008afe:	7c3b      	ldrb	r3, [r7, #16]
10008b00:	e010      	b.n	10008b24 <stdio_out_chars_crlf+0x44>
10008b02:	2102      	movs	r1, #2
10008b04:	4815      	ldr	r0, [pc, #84]	; (10008b5c <stdio_out_chars_crlf+0x7c>)
10008b06:	683b      	ldr	r3, [r7, #0]
10008b08:	4798      	blx	r3
10008b0a:	1c60      	adds	r0, r4, #1
10008b0c:	3401      	adds	r4, #1
10008b0e:	42b4      	cmp	r4, r6
10008b10:	da14      	bge.n	10008b3c <stdio_out_chars_crlf+0x5c>
10008b12:	2c00      	cmp	r4, #0
10008b14:	ddf3      	ble.n	10008afe <stdio_out_chars_crlf+0x1e>
10008b16:	192b      	adds	r3, r5, r4
10008b18:	3b01      	subs	r3, #1
10008b1a:	781b      	ldrb	r3, [r3, #0]
10008b1c:	3b0d      	subs	r3, #13
10008b1e:	425a      	negs	r2, r3
10008b20:	4153      	adcs	r3, r2
10008b22:	b2db      	uxtb	r3, r3
10008b24:	5d2a      	ldrb	r2, [r5, r4]
10008b26:	2a0a      	cmp	r2, #10
10008b28:	d1f0      	bne.n	10008b0c <stdio_out_chars_crlf+0x2c>
10008b2a:	2b00      	cmp	r3, #0
10008b2c:	d1ee      	bne.n	10008b0c <stdio_out_chars_crlf+0x2c>
10008b2e:	42a0      	cmp	r0, r4
10008b30:	dae7      	bge.n	10008b02 <stdio_out_chars_crlf+0x22>
10008b32:	1a21      	subs	r1, r4, r0
10008b34:	1828      	adds	r0, r5, r0
10008b36:	683b      	ldr	r3, [r7, #0]
10008b38:	4798      	blx	r3
10008b3a:	e7e2      	b.n	10008b02 <stdio_out_chars_crlf+0x22>
10008b3c:	42b0      	cmp	r0, r6
10008b3e:	da03      	bge.n	10008b48 <stdio_out_chars_crlf+0x68>
10008b40:	1a31      	subs	r1, r6, r0
10008b42:	1828      	adds	r0, r5, r0
10008b44:	683b      	ldr	r3, [r7, #0]
10008b46:	4798      	blx	r3
10008b48:	2e00      	cmp	r6, #0
10008b4a:	dd06      	ble.n	10008b5a <stdio_out_chars_crlf+0x7a>
10008b4c:	19ad      	adds	r5, r5, r6
10008b4e:	3d01      	subs	r5, #1
10008b50:	782b      	ldrb	r3, [r5, #0]
10008b52:	3b0d      	subs	r3, #13
10008b54:	425a      	negs	r2, r3
10008b56:	4153      	adcs	r3, r2
10008b58:	743b      	strb	r3, [r7, #16]
10008b5a:	bdf8      	pop	{r3, r4, r5, r6, r7, pc}
10008b5c:	1000d908 	.word	0x1000d908

10008b60 <stdio_stack_buffer_flush>:
10008b60:	b570      	push	{r4, r5, r6, lr}
10008b62:	0005      	movs	r5, r0
10008b64:	6803      	ldr	r3, [r0, #0]
10008b66:	2b00      	cmp	r3, #0
10008b68:	d016      	beq.n	10008b98 <stdio_stack_buffer_flush+0x38>
10008b6a:	4b0c      	ldr	r3, [pc, #48]	; (10008b9c <stdio_stack_buffer_flush+0x3c>)
10008b6c:	681c      	ldr	r4, [r3, #0]
10008b6e:	e005      	b.n	10008b7c <stdio_stack_buffer_flush+0x1c>
10008b70:	0029      	movs	r1, r5
10008b72:	c904      	ldmia	r1!, {r2}
10008b74:	0020      	movs	r0, r4
10008b76:	f7ff ffb3 	bl	10008ae0 <stdio_out_chars_crlf>
10008b7a:	68e4      	ldr	r4, [r4, #12]
10008b7c:	2c00      	cmp	r4, #0
10008b7e:	d009      	beq.n	10008b94 <stdio_stack_buffer_flush+0x34>
10008b80:	6823      	ldr	r3, [r4, #0]
10008b82:	2b00      	cmp	r3, #0
10008b84:	d0f9      	beq.n	10008b7a <stdio_stack_buffer_flush+0x1a>
10008b86:	4b06      	ldr	r3, [pc, #24]	; (10008ba0 <stdio_stack_buffer_flush+0x40>)
10008b88:	681b      	ldr	r3, [r3, #0]
10008b8a:	2b00      	cmp	r3, #0
10008b8c:	d0f0      	beq.n	10008b70 <stdio_stack_buffer_flush+0x10>
10008b8e:	42a3      	cmp	r3, r4
10008b90:	d1f3      	bne.n	10008b7a <stdio_stack_buffer_flush+0x1a>
10008b92:	e7ed      	b.n	10008b70 <stdio_stack_buffer_flush+0x10>
10008b94:	2300      	movs	r3, #0
10008b96:	602b      	str	r3, [r5, #0]
10008b98:	bd70      	pop	{r4, r5, r6, pc}
10008b9a:	46c0      	nop			; (mov r8, r8)
10008b9c:	200017a8 	.word	0x200017a8
10008ba0:	200017b8 	.word	0x200017b8

10008ba4 <stdio_buffered_printer>:
10008ba4:	b570      	push	{r4, r5, r6, lr}
10008ba6:	0005      	movs	r5, r0
10008ba8:	000c      	movs	r4, r1
10008baa:	680b      	ldr	r3, [r1, #0]
10008bac:	2b80      	cmp	r3, #128	; 0x80
10008bae:	d005      	beq.n	10008bbc <stdio_buffered_printer+0x18>
10008bb0:	6821      	ldr	r1, [r4, #0]
10008bb2:	1c4b      	adds	r3, r1, #1
10008bb4:	6023      	str	r3, [r4, #0]
10008bb6:	1864      	adds	r4, r4, r1
10008bb8:	7125      	strb	r5, [r4, #4]
10008bba:	bd70      	pop	{r4, r5, r6, pc}
10008bbc:	0008      	movs	r0, r1
10008bbe:	f7ff ffcf 	bl	10008b60 <stdio_stack_buffer_flush>
10008bc2:	e7f5      	b.n	10008bb0 <stdio_buffered_printer+0xc>

10008bc4 <stdout_serialize_begin>:
10008bc4:	b510      	push	{r4, lr}
10008bc6:	b082      	sub	sp, #8
10008bc8:	23d0      	movs	r3, #208	; 0xd0
10008bca:	061b      	lsls	r3, r3, #24
10008bcc:	681c      	ldr	r4, [r3, #0]
10008bce:	a901      	add	r1, sp, #4
10008bd0:	4806      	ldr	r0, [pc, #24]	; (10008bec <stdout_serialize_begin+0x28>)
10008bd2:	f002 ff65 	bl	1000baa0 <__mutex_try_enter_veneer>
10008bd6:	2800      	cmp	r0, #0
10008bd8:	d106      	bne.n	10008be8 <stdout_serialize_begin+0x24>
10008bda:	9b01      	ldr	r3, [sp, #4]
10008bdc:	42a3      	cmp	r3, r4
10008bde:	d003      	beq.n	10008be8 <stdout_serialize_begin+0x24>
10008be0:	4802      	ldr	r0, [pc, #8]	; (10008bec <stdout_serialize_begin+0x28>)
10008be2:	f002 ff85 	bl	1000baf0 <__mutex_enter_blocking_veneer>
10008be6:	2001      	movs	r0, #1
10008be8:	b002      	add	sp, #8
10008bea:	bd10      	pop	{r4, pc}
10008bec:	20000fbc 	.word	0x20000fbc

10008bf0 <stdout_serialize_end>:
10008bf0:	b510      	push	{r4, lr}
10008bf2:	4802      	ldr	r0, [pc, #8]	; (10008bfc <stdout_serialize_end+0xc>)
10008bf4:	f002 ff34 	bl	1000ba60 <__mutex_exit_veneer>
10008bf8:	bd10      	pop	{r4, pc}
10008bfa:	46c0      	nop			; (mov r8, r8)
10008bfc:	20000fbc 	.word	0x20000fbc

10008c00 <stdio_put_string>:
10008c00:	b5f0      	push	{r4, r5, r6, r7, lr}
10008c02:	46c6      	mov	lr, r8
10008c04:	b500      	push	{lr}
10008c06:	b082      	sub	sp, #8
10008c08:	0006      	movs	r6, r0
10008c0a:	000d      	movs	r5, r1
10008c0c:	0017      	movs	r7, r2
10008c0e:	f7ff ffd9 	bl	10008bc4 <stdout_serialize_begin>
10008c12:	4680      	mov	r8, r0
10008c14:	1c6b      	adds	r3, r5, #1
10008c16:	d002      	beq.n	10008c1e <stdio_put_string+0x1e>
10008c18:	4b18      	ldr	r3, [pc, #96]	; (10008c7c <stdio_put_string+0x7c>)
10008c1a:	681c      	ldr	r4, [r3, #0]
10008c1c:	e005      	b.n	10008c2a <stdio_put_string+0x2a>
10008c1e:	0030      	movs	r0, r6
10008c20:	f002 fe7e 	bl	1000b920 <strlen>
10008c24:	0005      	movs	r5, r0
10008c26:	e7f7      	b.n	10008c18 <stdio_put_string+0x18>
10008c28:	68e4      	ldr	r4, [r4, #12]
10008c2a:	2c00      	cmp	r4, #0
10008c2c:	d018      	beq.n	10008c60 <stdio_put_string+0x60>
10008c2e:	6823      	ldr	r3, [r4, #0]
10008c30:	2b00      	cmp	r3, #0
10008c32:	d0f9      	beq.n	10008c28 <stdio_put_string+0x28>
10008c34:	4b12      	ldr	r3, [pc, #72]	; (10008c80 <stdio_put_string+0x80>)
10008c36:	681b      	ldr	r3, [r3, #0]
10008c38:	2b00      	cmp	r3, #0
10008c3a:	d001      	beq.n	10008c40 <stdio_put_string+0x40>
10008c3c:	42a3      	cmp	r3, r4
10008c3e:	d1f3      	bne.n	10008c28 <stdio_put_string+0x28>
10008c40:	002a      	movs	r2, r5
10008c42:	0031      	movs	r1, r6
10008c44:	0020      	movs	r0, r4
10008c46:	f7ff ff4b 	bl	10008ae0 <stdio_out_chars_crlf>
10008c4a:	2f00      	cmp	r7, #0
10008c4c:	d0ec      	beq.n	10008c28 <stdio_put_string+0x28>
10008c4e:	466b      	mov	r3, sp
10008c50:	1dd9      	adds	r1, r3, #7
10008c52:	230a      	movs	r3, #10
10008c54:	700b      	strb	r3, [r1, #0]
10008c56:	2201      	movs	r2, #1
10008c58:	0020      	movs	r0, r4
10008c5a:	f7ff ff41 	bl	10008ae0 <stdio_out_chars_crlf>
10008c5e:	e7e3      	b.n	10008c28 <stdio_put_string+0x28>
10008c60:	4643      	mov	r3, r8
10008c62:	2b00      	cmp	r3, #0
10008c64:	d106      	bne.n	10008c74 <stdio_put_string+0x74>
10008c66:	1e6b      	subs	r3, r5, #1
10008c68:	419d      	sbcs	r5, r3
10008c6a:	b2e8      	uxtb	r0, r5
10008c6c:	b002      	add	sp, #8
10008c6e:	bc80      	pop	{r7}
10008c70:	46b8      	mov	r8, r7
10008c72:	bdf0      	pop	{r4, r5, r6, r7, pc}
10008c74:	f7ff ffbc 	bl	10008bf0 <stdout_serialize_end>
10008c78:	e7f5      	b.n	10008c66 <stdio_put_string+0x66>
10008c7a:	46c0      	nop			; (mov r8, r8)
10008c7c:	200017a8 	.word	0x200017a8
10008c80:	200017b8 	.word	0x200017b8

10008c84 <stdio_set_driver_enabled>:
10008c84:	4b0c      	ldr	r3, [pc, #48]	; (10008cb8 <stdio_set_driver_enabled+0x34>)
10008c86:	681a      	ldr	r2, [r3, #0]
10008c88:	0013      	movs	r3, r2
10008c8a:	e001      	b.n	10008c90 <stdio_set_driver_enabled+0xc>
10008c8c:	001a      	movs	r2, r3
10008c8e:	68db      	ldr	r3, [r3, #12]
10008c90:	2b00      	cmp	r3, #0
10008c92:	d008      	beq.n	10008ca6 <stdio_set_driver_enabled+0x22>
10008c94:	4283      	cmp	r3, r0
10008c96:	d1f9      	bne.n	10008c8c <stdio_set_driver_enabled+0x8>
10008c98:	2900      	cmp	r1, #0
10008c9a:	d103      	bne.n	10008ca4 <stdio_set_driver_enabled+0x20>
10008c9c:	68db      	ldr	r3, [r3, #12]
10008c9e:	60d3      	str	r3, [r2, #12]
10008ca0:	2300      	movs	r3, #0
10008ca2:	60c3      	str	r3, [r0, #12]
10008ca4:	4770      	bx	lr
10008ca6:	2900      	cmp	r1, #0
10008ca8:	d0fc      	beq.n	10008ca4 <stdio_set_driver_enabled+0x20>
10008caa:	2a00      	cmp	r2, #0
10008cac:	d001      	beq.n	10008cb2 <stdio_set_driver_enabled+0x2e>
10008cae:	60d0      	str	r0, [r2, #12]
10008cb0:	e7f8      	b.n	10008ca4 <stdio_set_driver_enabled+0x20>
10008cb2:	4b01      	ldr	r3, [pc, #4]	; (10008cb8 <stdio_set_driver_enabled+0x34>)
10008cb4:	6018      	str	r0, [r3, #0]
10008cb6:	e7f5      	b.n	10008ca4 <stdio_set_driver_enabled+0x20>
10008cb8:	200017a8 	.word	0x200017a8

10008cbc <stdio_flush>:
10008cbc:	b510      	push	{r4, lr}
10008cbe:	4b06      	ldr	r3, [pc, #24]	; (10008cd8 <stdio_flush+0x1c>)
10008cc0:	681c      	ldr	r4, [r3, #0]
10008cc2:	e001      	b.n	10008cc8 <stdio_flush+0xc>
10008cc4:	4798      	blx	r3
10008cc6:	68e4      	ldr	r4, [r4, #12]
10008cc8:	2c00      	cmp	r4, #0
10008cca:	d003      	beq.n	10008cd4 <stdio_flush+0x18>
10008ccc:	6863      	ldr	r3, [r4, #4]
10008cce:	2b00      	cmp	r3, #0
10008cd0:	d1f8      	bne.n	10008cc4 <stdio_flush+0x8>
10008cd2:	e7f8      	b.n	10008cc6 <stdio_flush+0xa>
10008cd4:	bd10      	pop	{r4, pc}
10008cd6:	46c0      	nop			; (mov r8, r8)
10008cd8:	200017a8 	.word	0x200017a8

10008cdc <__wrap_puts>:
10008cdc:	b570      	push	{r4, r5, r6, lr}
10008cde:	0005      	movs	r5, r0
10008ce0:	f002 fe1e 	bl	1000b920 <strlen>
10008ce4:	0004      	movs	r4, r0
10008ce6:	2201      	movs	r2, #1
10008ce8:	0001      	movs	r1, r0
10008cea:	0028      	movs	r0, r5
10008cec:	f7ff ff88 	bl	10008c00 <stdio_put_string>
10008cf0:	f7ff ffe4 	bl	10008cbc <stdio_flush>
10008cf4:	0020      	movs	r0, r4
10008cf6:	bd70      	pop	{r4, r5, r6, pc}

10008cf8 <__wrap_vprintf>:
10008cf8:	b570      	push	{r4, r5, r6, lr}
10008cfa:	b0a2      	sub	sp, #136	; 0x88
10008cfc:	0004      	movs	r4, r0
10008cfe:	000e      	movs	r6, r1
10008d00:	f7ff ff60 	bl	10008bc4 <stdout_serialize_begin>
10008d04:	0005      	movs	r5, r0
10008d06:	2284      	movs	r2, #132	; 0x84
10008d08:	2100      	movs	r1, #0
10008d0a:	a801      	add	r0, sp, #4
10008d0c:	f7ff fedc 	bl	10008ac8 <__wrap_memset>
10008d10:	0033      	movs	r3, r6
10008d12:	0022      	movs	r2, r4
10008d14:	a901      	add	r1, sp, #4
10008d16:	4808      	ldr	r0, [pc, #32]	; (10008d38 <__wrap_vprintf+0x40>)
10008d18:	f7fe ff48 	bl	10007bac <vfctprintf>
10008d1c:	0004      	movs	r4, r0
10008d1e:	a801      	add	r0, sp, #4
10008d20:	f7ff ff1e 	bl	10008b60 <stdio_stack_buffer_flush>
10008d24:	f7ff ffca 	bl	10008cbc <stdio_flush>
10008d28:	2d00      	cmp	r5, #0
10008d2a:	d102      	bne.n	10008d32 <__wrap_vprintf+0x3a>
10008d2c:	0020      	movs	r0, r4
10008d2e:	b022      	add	sp, #136	; 0x88
10008d30:	bd70      	pop	{r4, r5, r6, pc}
10008d32:	f7ff ff5d 	bl	10008bf0 <stdout_serialize_end>
10008d36:	e7f9      	b.n	10008d2c <__wrap_vprintf+0x34>
10008d38:	10008ba5 	.word	0x10008ba5

10008d3c <__wrap_printf>:
10008d3c:	b40f      	push	{r0, r1, r2, r3}
10008d3e:	b500      	push	{lr}
10008d40:	b083      	sub	sp, #12
10008d42:	a904      	add	r1, sp, #16
10008d44:	c901      	ldmia	r1!, {r0}
10008d46:	9101      	str	r1, [sp, #4]
10008d48:	f7ff ffd6 	bl	10008cf8 <__wrap_vprintf>
10008d4c:	b003      	add	sp, #12
10008d4e:	bc08      	pop	{r3}
10008d50:	b004      	add	sp, #16
10008d52:	4718      	bx	r3

10008d54 <stdio_uart_out_chars>:
10008d54:	b5f0      	push	{r4, r5, r6, r7, lr}
10008d56:	b083      	sub	sp, #12
10008d58:	0005      	movs	r5, r0
10008d5a:	000e      	movs	r6, r1
10008d5c:	2400      	movs	r4, #0
10008d5e:	e00f      	b.n	10008d80 <stdio_uart_out_chars+0x2c>
10008d60:	466b      	mov	r3, sp
10008d62:	1dd9      	adds	r1, r3, #7
10008d64:	230d      	movs	r3, #13
10008d66:	700b      	strb	r3, [r1, #0]
10008d68:	2000      	movs	r0, #0
10008d6a:	2800      	cmp	r0, #0
10008d6c:	d116      	bne.n	10008d9c <stdio_uart_out_chars+0x48>
10008d6e:	6993      	ldr	r3, [r2, #24]
10008d70:	069b      	lsls	r3, r3, #26
10008d72:	d4fc      	bmi.n	10008d6e <stdio_uart_out_chars+0x1a>
10008d74:	780b      	ldrb	r3, [r1, #0]
10008d76:	6013      	str	r3, [r2, #0]
10008d78:	3001      	adds	r0, #1
10008d7a:	3101      	adds	r1, #1
10008d7c:	e7f5      	b.n	10008d6a <stdio_uart_out_chars+0x16>
10008d7e:	3401      	adds	r4, #1
10008d80:	42b4      	cmp	r4, r6
10008d82:	da19      	bge.n	10008db8 <stdio_uart_out_chars+0x64>
10008d84:	4b0d      	ldr	r3, [pc, #52]	; (10008dbc <stdio_uart_out_chars+0x68>)
10008d86:	681a      	ldr	r2, [r3, #0]
10008d88:	5d2f      	ldrb	r7, [r5, r4]
10008d8a:	4b0d      	ldr	r3, [pc, #52]	; (10008dc0 <stdio_uart_out_chars+0x6c>)
10008d8c:	18d3      	adds	r3, r2, r3
10008d8e:	4259      	negs	r1, r3
10008d90:	414b      	adcs	r3, r1
10008d92:	005b      	lsls	r3, r3, #1
10008d94:	490b      	ldr	r1, [pc, #44]	; (10008dc4 <stdio_uart_out_chars+0x70>)
10008d96:	5e5b      	ldrsh	r3, [r3, r1]
10008d98:	42bb      	cmp	r3, r7
10008d9a:	d0e1      	beq.n	10008d60 <stdio_uart_out_chars+0xc>
10008d9c:	466b      	mov	r3, sp
10008d9e:	1dd9      	adds	r1, r3, #7
10008da0:	700f      	strb	r7, [r1, #0]
10008da2:	2000      	movs	r0, #0
10008da4:	2800      	cmp	r0, #0
10008da6:	d1ea      	bne.n	10008d7e <stdio_uart_out_chars+0x2a>
10008da8:	6993      	ldr	r3, [r2, #24]
10008daa:	069b      	lsls	r3, r3, #26
10008dac:	d4fc      	bmi.n	10008da8 <stdio_uart_out_chars+0x54>
10008dae:	780b      	ldrb	r3, [r1, #0]
10008db0:	6013      	str	r3, [r2, #0]
10008db2:	3001      	adds	r0, #1
10008db4:	3101      	adds	r1, #1
10008db6:	e7f5      	b.n	10008da4 <stdio_uart_out_chars+0x50>
10008db8:	b003      	add	sp, #12
10008dba:	bdf0      	pop	{r4, r5, r6, r7, pc}
10008dbc:	200025ec 	.word	0x200025ec
10008dc0:	bffc8000 	.word	0xbffc8000
10008dc4:	200025e8 	.word	0x200025e8

10008dc8 <stdio_uart_in_chars>:
10008dc8:	b5f0      	push	{r4, r5, r6, r7, lr}
10008dca:	b083      	sub	sp, #12
10008dcc:	0006      	movs	r6, r0
10008dce:	000f      	movs	r7, r1
10008dd0:	2000      	movs	r0, #0
10008dd2:	e004      	b.n	10008dde <stdio_uart_in_chars+0x16>
10008dd4:	466b      	mov	r3, sp
10008dd6:	3307      	adds	r3, #7
10008dd8:	781b      	ldrb	r3, [r3, #0]
10008dda:	7023      	strb	r3, [r4, #0]
10008ddc:	0028      	movs	r0, r5
10008dde:	42b8      	cmp	r0, r7
10008de0:	da15      	bge.n	10008e0e <stdio_uart_in_chars+0x46>
10008de2:	4b0e      	ldr	r3, [pc, #56]	; (10008e1c <stdio_uart_in_chars+0x54>)
10008de4:	681a      	ldr	r2, [r3, #0]
10008de6:	6993      	ldr	r3, [r2, #24]
10008de8:	2410      	movs	r4, #16
10008dea:	0021      	movs	r1, r4
10008dec:	4019      	ands	r1, r3
10008dee:	421c      	tst	r4, r3
10008df0:	d10d      	bne.n	10008e0e <stdio_uart_in_chars+0x46>
10008df2:	1c45      	adds	r5, r0, #1
10008df4:	1834      	adds	r4, r6, r0
10008df6:	466b      	mov	r3, sp
10008df8:	1dd8      	adds	r0, r3, #7
10008dfa:	2900      	cmp	r1, #0
10008dfc:	d1ea      	bne.n	10008dd4 <stdio_uart_in_chars+0xc>
10008dfe:	6993      	ldr	r3, [r2, #24]
10008e00:	06db      	lsls	r3, r3, #27
10008e02:	d4fc      	bmi.n	10008dfe <stdio_uart_in_chars+0x36>
10008e04:	6813      	ldr	r3, [r2, #0]
10008e06:	7003      	strb	r3, [r0, #0]
10008e08:	3101      	adds	r1, #1
10008e0a:	3001      	adds	r0, #1
10008e0c:	e7f5      	b.n	10008dfa <stdio_uart_in_chars+0x32>
10008e0e:	2800      	cmp	r0, #0
10008e10:	d001      	beq.n	10008e16 <stdio_uart_in_chars+0x4e>
10008e12:	b003      	add	sp, #12
10008e14:	bdf0      	pop	{r4, r5, r6, r7, pc}
10008e16:	3803      	subs	r0, #3
10008e18:	e7fb      	b.n	10008e12 <stdio_uart_in_chars+0x4a>
10008e1a:	46c0      	nop			; (mov r8, r8)
10008e1c:	200025ec 	.word	0x200025ec

10008e20 <stdio_uart_init_full>:
10008e20:	b570      	push	{r4, r5, r6, lr}
10008e22:	0015      	movs	r5, r2
10008e24:	001c      	movs	r4, r3
10008e26:	4b0b      	ldr	r3, [pc, #44]	; (10008e54 <stdio_uart_init_full+0x34>)
10008e28:	6018      	str	r0, [r3, #0]
10008e2a:	f7fc f86f 	bl	10004f0c <uart_init>
10008e2e:	2d00      	cmp	r5, #0
10008e30:	da06      	bge.n	10008e40 <stdio_uart_init_full+0x20>
10008e32:	2c00      	cmp	r4, #0
10008e34:	da09      	bge.n	10008e4a <stdio_uart_init_full+0x2a>
10008e36:	2101      	movs	r1, #1
10008e38:	4807      	ldr	r0, [pc, #28]	; (10008e58 <stdio_uart_init_full+0x38>)
10008e3a:	f7ff ff23 	bl	10008c84 <stdio_set_driver_enabled>
10008e3e:	bd70      	pop	{r4, r5, r6, pc}
10008e40:	2102      	movs	r1, #2
10008e42:	0028      	movs	r0, r5
10008e44:	f7fb fe8a 	bl	10004b5c <gpio_set_function>
10008e48:	e7f3      	b.n	10008e32 <stdio_uart_init_full+0x12>
10008e4a:	2102      	movs	r1, #2
10008e4c:	0020      	movs	r0, r4
10008e4e:	f7fb fe85 	bl	10004b5c <gpio_set_function>
10008e52:	e7f0      	b.n	10008e36 <stdio_uart_init_full+0x16>
10008e54:	200025ec 	.word	0x200025ec
10008e58:	20000b40 	.word	0x20000b40

10008e5c <stdio_uart_init>:
10008e5c:	b510      	push	{r4, lr}
10008e5e:	4b06      	ldr	r3, [pc, #24]	; (10008e78 <stdio_uart_init+0x1c>)
10008e60:	781b      	ldrb	r3, [r3, #0]
10008e62:	4b06      	ldr	r3, [pc, #24]	; (10008e7c <stdio_uart_init+0x20>)
10008e64:	781b      	ldrb	r3, [r3, #0]
10008e66:	21e1      	movs	r1, #225	; 0xe1
10008e68:	2301      	movs	r3, #1
10008e6a:	2200      	movs	r2, #0
10008e6c:	0249      	lsls	r1, r1, #9
10008e6e:	4804      	ldr	r0, [pc, #16]	; (10008e80 <stdio_uart_init+0x24>)
10008e70:	f7ff ffd6 	bl	10008e20 <stdio_uart_init_full>
10008e74:	bd10      	pop	{r4, pc}
10008e76:	46c0      	nop			; (mov r8, r8)
10008e78:	1000e1ac 	.word	0x1000e1ac
10008e7c:	1000e1b0 	.word	0x1000e1b0
10008e80:	40034000 	.word	0x40034000

10008e84 <i2c_write_blocking_internal>:
10008e84:	b5f0      	push	{r4, r5, r6, r7, lr}
10008e86:	46de      	mov	lr, fp
10008e88:	4657      	mov	r7, sl
10008e8a:	464e      	mov	r6, r9
10008e8c:	4645      	mov	r5, r8
10008e8e:	b5e0      	push	{r5, r6, r7, lr}
10008e90:	b083      	sub	sp, #12
10008e92:	0005      	movs	r5, r0
10008e94:	0010      	movs	r0, r2
10008e96:	469a      	mov	sl, r3
10008e98:	ab0c      	add	r3, sp, #48	; 0x30
10008e9a:	781b      	ldrb	r3, [r3, #0]
10008e9c:	9301      	str	r3, [sp, #4]
10008e9e:	9e0d      	ldr	r6, [sp, #52]	; 0x34
10008ea0:	9b0e      	ldr	r3, [sp, #56]	; 0x38
10008ea2:	4698      	mov	r8, r3
10008ea4:	682b      	ldr	r3, [r5, #0]
10008ea6:	2200      	movs	r2, #0
10008ea8:	66da      	str	r2, [r3, #108]	; 0x6c
10008eaa:	682b      	ldr	r3, [r5, #0]
10008eac:	6059      	str	r1, [r3, #4]
10008eae:	682b      	ldr	r3, [r5, #0]
10008eb0:	3201      	adds	r2, #1
10008eb2:	66da      	str	r2, [r3, #108]	; 0x6c
10008eb4:	46d3      	mov	fp, sl
10008eb6:	2300      	movs	r3, #0
10008eb8:	4699      	mov	r9, r3
10008eba:	2400      	movs	r4, #0
10008ebc:	e026      	b.n	10008f0c <i2c_write_blocking_internal+0x88>
10008ebe:	792a      	ldrb	r2, [r5, #4]
10008ec0:	2a00      	cmp	r2, #0
10008ec2:	d02b      	beq.n	10008f1c <i2c_write_blocking_internal+0x98>
10008ec4:	2201      	movs	r2, #1
10008ec6:	e029      	b.n	10008f1c <i2c_write_blocking_internal+0x98>
10008ec8:	9901      	ldr	r1, [sp, #4]
10008eca:	2900      	cmp	r1, #0
10008ecc:	d001      	beq.n	10008ed2 <i2c_write_blocking_internal+0x4e>
10008ece:	2100      	movs	r1, #0
10008ed0:	e028      	b.n	10008f24 <i2c_write_blocking_internal+0xa0>
10008ed2:	2101      	movs	r1, #1
10008ed4:	e026      	b.n	10008f24 <i2c_write_blocking_internal+0xa0>
10008ed6:	4640      	mov	r0, r8
10008ed8:	47b0      	blx	r6
10008eda:	0003      	movs	r3, r0
10008edc:	4304      	orrs	r4, r0
10008ede:	b2e4      	uxtb	r4, r4
10008ee0:	2c00      	cmp	r4, #0
10008ee2:	d10d      	bne.n	10008f00 <i2c_write_blocking_internal+0x7c>
10008ee4:	682a      	ldr	r2, [r5, #0]
10008ee6:	6f12      	ldr	r2, [r2, #112]	; 0x70
10008ee8:	0752      	lsls	r2, r2, #29
10008eea:	d409      	bmi.n	10008f00 <i2c_write_blocking_internal+0x7c>
10008eec:	682a      	ldr	r2, [r5, #0]
10008eee:	2180      	movs	r1, #128	; 0x80
10008ef0:	5857      	ldr	r7, [r2, r1]
10008ef2:	6d54      	ldr	r4, [r2, #84]	; 0x54
10008ef4:	1e62      	subs	r2, r4, #1
10008ef6:	4194      	sbcs	r4, r2
10008ef8:	b2e4      	uxtb	r4, r4
10008efa:	2e00      	cmp	r6, #0
10008efc:	d1eb      	bne.n	10008ed6 <i2c_write_blocking_internal+0x52>
10008efe:	e7ef      	b.n	10008ee0 <i2c_write_blocking_internal+0x5c>
10008f00:	2c00      	cmp	r4, #0
10008f02:	d118      	bne.n	10008f36 <i2c_write_blocking_internal+0xb2>
10008f04:	2201      	movs	r2, #1
10008f06:	4694      	mov	ip, r2
10008f08:	44e1      	add	r9, ip
10008f0a:	9800      	ldr	r0, [sp, #0]
10008f0c:	45d9      	cmp	r9, fp
10008f0e:	da12      	bge.n	10008f36 <i2c_write_blocking_internal+0xb2>
10008f10:	4652      	mov	r2, sl
10008f12:	1e51      	subs	r1, r2, #1
10008f14:	464a      	mov	r2, r9
10008f16:	2a00      	cmp	r2, #0
10008f18:	d0d1      	beq.n	10008ebe <i2c_write_blocking_internal+0x3a>
10008f1a:	2200      	movs	r2, #0
10008f1c:	0292      	lsls	r2, r2, #10
10008f1e:	4549      	cmp	r1, r9
10008f20:	d0d2      	beq.n	10008ec8 <i2c_write_blocking_internal+0x44>
10008f22:	2100      	movs	r1, #0
10008f24:	0249      	lsls	r1, r1, #9
10008f26:	430a      	orrs	r2, r1
10008f28:	1c41      	adds	r1, r0, #1
10008f2a:	9100      	str	r1, [sp, #0]
10008f2c:	7800      	ldrb	r0, [r0, #0]
10008f2e:	6829      	ldr	r1, [r5, #0]
10008f30:	4302      	orrs	r2, r0
10008f32:	610a      	str	r2, [r1, #16]
10008f34:	e7da      	b.n	10008eec <i2c_write_blocking_internal+0x68>
10008f36:	2c00      	cmp	r4, #0
10008f38:	d007      	beq.n	10008f4a <i2c_write_blocking_internal+0xc6>
10008f3a:	2b00      	cmp	r3, #0
10008f3c:	d113      	bne.n	10008f66 <i2c_write_blocking_internal+0xe2>
10008f3e:	2f00      	cmp	r7, #0
10008f40:	d015      	beq.n	10008f6e <i2c_write_blocking_internal+0xea>
10008f42:	07fb      	lsls	r3, r7, #31
10008f44:	d417      	bmi.n	10008f76 <i2c_write_blocking_internal+0xf2>
10008f46:	073b      	lsls	r3, r7, #28
10008f48:	d509      	bpl.n	10008f5e <i2c_write_blocking_internal+0xda>
10008f4a:	9b01      	ldr	r3, [sp, #4]
10008f4c:	712b      	strb	r3, [r5, #4]
10008f4e:	4648      	mov	r0, r9
10008f50:	b003      	add	sp, #12
10008f52:	bcf0      	pop	{r4, r5, r6, r7}
10008f54:	46bb      	mov	fp, r7
10008f56:	46b2      	mov	sl, r6
10008f58:	46a9      	mov	r9, r5
10008f5a:	46a0      	mov	r8, r4
10008f5c:	bdf0      	pop	{r4, r5, r6, r7, pc}
10008f5e:	2302      	movs	r3, #2
10008f60:	425b      	negs	r3, r3
10008f62:	4699      	mov	r9, r3
10008f64:	e7f1      	b.n	10008f4a <i2c_write_blocking_internal+0xc6>
10008f66:	2301      	movs	r3, #1
10008f68:	425b      	negs	r3, r3
10008f6a:	4699      	mov	r9, r3
10008f6c:	e7ed      	b.n	10008f4a <i2c_write_blocking_internal+0xc6>
10008f6e:	2302      	movs	r3, #2
10008f70:	425b      	negs	r3, r3
10008f72:	4699      	mov	r9, r3
10008f74:	e7e9      	b.n	10008f4a <i2c_write_blocking_internal+0xc6>
10008f76:	2302      	movs	r3, #2
10008f78:	425b      	negs	r3, r3
10008f7a:	4699      	mov	r9, r3
10008f7c:	e7e5      	b.n	10008f4a <i2c_write_blocking_internal+0xc6>

10008f7e <i2c_read_blocking_internal>:
10008f7e:	b5f0      	push	{r4, r5, r6, r7, lr}
10008f80:	46de      	mov	lr, fp
10008f82:	4657      	mov	r7, sl
10008f84:	464e      	mov	r6, r9
10008f86:	4645      	mov	r5, r8
10008f88:	b5e0      	push	{r5, r6, r7, lr}
10008f8a:	b083      	sub	sp, #12
10008f8c:	0005      	movs	r5, r0
10008f8e:	4691      	mov	r9, r2
10008f90:	469a      	mov	sl, r3
10008f92:	ab0c      	add	r3, sp, #48	; 0x30
10008f94:	781b      	ldrb	r3, [r3, #0]
10008f96:	9301      	str	r3, [sp, #4]
10008f98:	9e0d      	ldr	r6, [sp, #52]	; 0x34
10008f9a:	9f0e      	ldr	r7, [sp, #56]	; 0x38
10008f9c:	6803      	ldr	r3, [r0, #0]
10008f9e:	2200      	movs	r2, #0
10008fa0:	66da      	str	r2, [r3, #108]	; 0x6c
10008fa2:	6803      	ldr	r3, [r0, #0]
10008fa4:	6059      	str	r1, [r3, #4]
10008fa6:	6803      	ldr	r3, [r0, #0]
10008fa8:	3201      	adds	r2, #1
10008faa:	66da      	str	r2, [r3, #108]	; 0x6c
10008fac:	46d3      	mov	fp, sl
10008fae:	2300      	movs	r3, #0
10008fb0:	4698      	mov	r8, r3
10008fb2:	2400      	movs	r4, #0
10008fb4:	e02a      	b.n	1000900c <i2c_read_blocking_internal+0x8e>
10008fb6:	7929      	ldrb	r1, [r5, #4]
10008fb8:	2900      	cmp	r1, #0
10008fba:	d033      	beq.n	10009024 <i2c_read_blocking_internal+0xa6>
10008fbc:	2101      	movs	r1, #1
10008fbe:	e031      	b.n	10009024 <i2c_read_blocking_internal+0xa6>
10008fc0:	9801      	ldr	r0, [sp, #4]
10008fc2:	2800      	cmp	r0, #0
10008fc4:	d001      	beq.n	10008fca <i2c_read_blocking_internal+0x4c>
10008fc6:	2000      	movs	r0, #0
10008fc8:	e030      	b.n	1000902c <i2c_read_blocking_internal+0xae>
10008fca:	2001      	movs	r0, #1
10008fcc:	e02e      	b.n	1000902c <i2c_read_blocking_internal+0xae>
10008fce:	0038      	movs	r0, r7
10008fd0:	47b0      	blx	r6
10008fd2:	0003      	movs	r3, r0
10008fd4:	4304      	orrs	r4, r0
10008fd6:	b2e4      	uxtb	r4, r4
10008fd8:	2c00      	cmp	r4, #0
10008fda:	d10d      	bne.n	10008ff8 <i2c_read_blocking_internal+0x7a>
10008fdc:	682a      	ldr	r2, [r5, #0]
10008fde:	6f92      	ldr	r2, [r2, #120]	; 0x78
10008fe0:	2a00      	cmp	r2, #0
10008fe2:	d109      	bne.n	10008ff8 <i2c_read_blocking_internal+0x7a>
10008fe4:	682a      	ldr	r2, [r5, #0]
10008fe6:	2180      	movs	r1, #128	; 0x80
10008fe8:	5851      	ldr	r1, [r2, r1]
10008fea:	6d54      	ldr	r4, [r2, #84]	; 0x54
10008fec:	1e62      	subs	r2, r4, #1
10008fee:	4194      	sbcs	r4, r2
10008ff0:	b2e4      	uxtb	r4, r4
10008ff2:	2e00      	cmp	r6, #0
10008ff4:	d1eb      	bne.n	10008fce <i2c_read_blocking_internal+0x50>
10008ff6:	e7ef      	b.n	10008fd8 <i2c_read_blocking_internal+0x5a>
10008ff8:	2c00      	cmp	r4, #0
10008ffa:	d11e      	bne.n	1000903a <i2c_read_blocking_internal+0xbc>
10008ffc:	682a      	ldr	r2, [r5, #0]
10008ffe:	6912      	ldr	r2, [r2, #16]
10009000:	4649      	mov	r1, r9
10009002:	700a      	strb	r2, [r1, #0]
10009004:	2201      	movs	r2, #1
10009006:	4694      	mov	ip, r2
10009008:	44e0      	add	r8, ip
1000900a:	44e1      	add	r9, ip
1000900c:	45d8      	cmp	r8, fp
1000900e:	da14      	bge.n	1000903a <i2c_read_blocking_internal+0xbc>
10009010:	4652      	mov	r2, sl
10009012:	1e54      	subs	r4, r2, #1
10009014:	682a      	ldr	r2, [r5, #0]
10009016:	6f51      	ldr	r1, [r2, #116]	; 0x74
10009018:	2920      	cmp	r1, #32
1000901a:	d0fb      	beq.n	10009014 <i2c_read_blocking_internal+0x96>
1000901c:	4641      	mov	r1, r8
1000901e:	2900      	cmp	r1, #0
10009020:	d0c9      	beq.n	10008fb6 <i2c_read_blocking_internal+0x38>
10009022:	2100      	movs	r1, #0
10009024:	0289      	lsls	r1, r1, #10
10009026:	4544      	cmp	r4, r8
10009028:	d0ca      	beq.n	10008fc0 <i2c_read_blocking_internal+0x42>
1000902a:	2000      	movs	r0, #0
1000902c:	0240      	lsls	r0, r0, #9
1000902e:	4308      	orrs	r0, r1
10009030:	2180      	movs	r1, #128	; 0x80
10009032:	0049      	lsls	r1, r1, #1
10009034:	4301      	orrs	r1, r0
10009036:	6111      	str	r1, [r2, #16]
10009038:	e7d4      	b.n	10008fe4 <i2c_read_blocking_internal+0x66>
1000903a:	2c00      	cmp	r4, #0
1000903c:	d004      	beq.n	10009048 <i2c_read_blocking_internal+0xca>
1000903e:	2b00      	cmp	r3, #0
10009040:	d00c      	beq.n	1000905c <i2c_read_blocking_internal+0xde>
10009042:	2301      	movs	r3, #1
10009044:	425b      	negs	r3, r3
10009046:	4698      	mov	r8, r3
10009048:	9b01      	ldr	r3, [sp, #4]
1000904a:	712b      	strb	r3, [r5, #4]
1000904c:	4640      	mov	r0, r8
1000904e:	b003      	add	sp, #12
10009050:	bcf0      	pop	{r4, r5, r6, r7}
10009052:	46bb      	mov	fp, r7
10009054:	46b2      	mov	sl, r6
10009056:	46a9      	mov	r9, r5
10009058:	46a0      	mov	r8, r4
1000905a:	bdf0      	pop	{r4, r5, r6, r7, pc}
1000905c:	2302      	movs	r3, #2
1000905e:	425b      	negs	r3, r3
10009060:	4698      	mov	r8, r3
10009062:	e7f1      	b.n	10009048 <i2c_read_blocking_internal+0xca>

10009064 <i2c_set_baudrate>:
10009064:	b5f0      	push	{r4, r5, r6, r7, lr}
10009066:	46d6      	mov	lr, sl
10009068:	464f      	mov	r7, r9
1000906a:	4646      	mov	r6, r8
1000906c:	b5c0      	push	{r6, r7, lr}
1000906e:	0005      	movs	r5, r0
10009070:	000c      	movs	r4, r1
10009072:	2005      	movs	r0, #5
10009074:	f7fd fa00 	bl	10006478 <clock_get_hz>
10009078:	0006      	movs	r6, r0
1000907a:	0860      	lsrs	r0, r4, #1
1000907c:	1980      	adds	r0, r0, r6
1000907e:	0021      	movs	r1, r4
10009080:	f7fe fe04 	bl	10007c8c <__wrap___aeabi_uidiv>
10009084:	0007      	movs	r7, r0
10009086:	0043      	lsls	r3, r0, #1
10009088:	4699      	mov	r9, r3
1000908a:	4481      	add	r9, r0
1000908c:	2105      	movs	r1, #5
1000908e:	4648      	mov	r0, r9
10009090:	f7fe fdfc 	bl	10007c8c <__wrap___aeabi_uidiv>
10009094:	4680      	mov	r8, r0
10009096:	1a3b      	subs	r3, r7, r0
10009098:	469a      	mov	sl, r3
1000909a:	4b28      	ldr	r3, [pc, #160]	; (1000913c <i2c_set_baudrate+0xd8>)
1000909c:	429c      	cmp	r4, r3
1000909e:	d824      	bhi.n	100090ea <i2c_set_baudrate+0x86>
100090a0:	0070      	lsls	r0, r6, #1
100090a2:	1980      	adds	r0, r0, r6
100090a4:	4926      	ldr	r1, [pc, #152]	; (10009140 <i2c_set_baudrate+0xdc>)
100090a6:	f7fe fdf1 	bl	10007c8c <__wrap___aeabi_uidiv>
100090aa:	1c44      	adds	r4, r0, #1
100090ac:	4643      	mov	r3, r8
100090ae:	3b02      	subs	r3, #2
100090b0:	42a3      	cmp	r3, r4
100090b2:	d321      	bcc.n	100090f8 <i2c_set_baudrate+0x94>
100090b4:	682b      	ldr	r3, [r5, #0]
100090b6:	2200      	movs	r2, #0
100090b8:	66da      	str	r2, [r3, #108]	; 0x6c
100090ba:	6829      	ldr	r1, [r5, #0]
100090bc:	680a      	ldr	r2, [r1, #0]
100090be:	2304      	movs	r3, #4
100090c0:	4053      	eors	r3, r2
100090c2:	2206      	movs	r2, #6
100090c4:	401a      	ands	r2, r3
100090c6:	2380      	movs	r3, #128	; 0x80
100090c8:	015b      	lsls	r3, r3, #5
100090ca:	430b      	orrs	r3, r1
100090cc:	601a      	str	r2, [r3, #0]
100090ce:	682b      	ldr	r3, [r5, #0]
100090d0:	4652      	mov	r2, sl
100090d2:	61da      	str	r2, [r3, #28]
100090d4:	682b      	ldr	r3, [r5, #0]
100090d6:	4642      	mov	r2, r8
100090d8:	621a      	str	r2, [r3, #32]
100090da:	464b      	mov	r3, r9
100090dc:	2b4f      	cmp	r3, #79	; 0x4f
100090de:	d911      	bls.n	10009104 <i2c_set_baudrate+0xa0>
100090e0:	2150      	movs	r1, #80	; 0x50
100090e2:	4648      	mov	r0, r9
100090e4:	f7fe fdd2 	bl	10007c8c <__wrap___aeabi_uidiv>
100090e8:	e00d      	b.n	10009106 <i2c_set_baudrate+0xa2>
100090ea:	0070      	lsls	r0, r6, #1
100090ec:	1980      	adds	r0, r0, r6
100090ee:	4915      	ldr	r1, [pc, #84]	; (10009144 <i2c_set_baudrate+0xe0>)
100090f0:	f7fe fdcc 	bl	10007c8c <__wrap___aeabi_uidiv>
100090f4:	1c44      	adds	r4, r0, #1
100090f6:	e7d9      	b.n	100090ac <i2c_set_baudrate+0x48>
100090f8:	4b13      	ldr	r3, [pc, #76]	; (10009148 <i2c_set_baudrate+0xe4>)
100090fa:	4a14      	ldr	r2, [pc, #80]	; (1000914c <i2c_set_baudrate+0xe8>)
100090fc:	215e      	movs	r1, #94	; 0x5e
100090fe:	4814      	ldr	r0, [pc, #80]	; (10009150 <i2c_set_baudrate+0xec>)
10009100:	f7fd f890 	bl	10006224 <__assert_func>
10009104:	2001      	movs	r0, #1
10009106:	23a0      	movs	r3, #160	; 0xa0
10009108:	682a      	ldr	r2, [r5, #0]
1000910a:	50d0      	str	r0, [r2, r3]
1000910c:	682a      	ldr	r2, [r5, #0]
1000910e:	0011      	movs	r1, r2
10009110:	317c      	adds	r1, #124	; 0x7c
10009112:	6fd0      	ldr	r0, [r2, #124]	; 0x7c
10009114:	4044      	eors	r4, r0
10009116:	0424      	lsls	r4, r4, #16
10009118:	0c24      	lsrs	r4, r4, #16
1000911a:	2380      	movs	r3, #128	; 0x80
1000911c:	015b      	lsls	r3, r3, #5
1000911e:	430b      	orrs	r3, r1
10009120:	601c      	str	r4, [r3, #0]
10009122:	682b      	ldr	r3, [r5, #0]
10009124:	2201      	movs	r2, #1
10009126:	66da      	str	r2, [r3, #108]	; 0x6c
10009128:	0039      	movs	r1, r7
1000912a:	0030      	movs	r0, r6
1000912c:	f7fe fdae 	bl	10007c8c <__wrap___aeabi_uidiv>
10009130:	bce0      	pop	{r5, r6, r7}
10009132:	46ba      	mov	sl, r7
10009134:	46b1      	mov	r9, r6
10009136:	46a8      	mov	r8, r5
10009138:	bdf0      	pop	{r4, r5, r6, r7, pc}
1000913a:	46c0      	nop			; (mov r8, r8)
1000913c:	000f423f 	.word	0x000f423f
10009140:	00989680 	.word	0x00989680
10009144:	017d7840 	.word	0x017d7840
10009148:	1000d94c 	.word	0x1000d94c
1000914c:	1000d9c0 	.word	0x1000d9c0
10009150:	1000d96c 	.word	0x1000d96c

10009154 <i2c_init>:
10009154:	b510      	push	{r4, lr}
10009156:	4b10      	ldr	r3, [pc, #64]	; (10009198 <i2c_init+0x44>)
10009158:	4298      	cmp	r0, r3
1000915a:	d01b      	beq.n	10009194 <i2c_init+0x40>
1000915c:	2210      	movs	r2, #16
1000915e:	4b0f      	ldr	r3, [pc, #60]	; (1000919c <i2c_init+0x48>)
10009160:	601a      	str	r2, [r3, #0]
10009162:	4b0f      	ldr	r3, [pc, #60]	; (100091a0 <i2c_init+0x4c>)
10009164:	601a      	str	r2, [r3, #0]
10009166:	4b0f      	ldr	r3, [pc, #60]	; (100091a4 <i2c_init+0x50>)
10009168:	689b      	ldr	r3, [r3, #8]
1000916a:	0014      	movs	r4, r2
1000916c:	439c      	bics	r4, r3
1000916e:	1e23      	subs	r3, r4, #0
10009170:	d1f9      	bne.n	10009166 <i2c_init+0x12>
10009172:	7104      	strb	r4, [r0, #4]
10009174:	6802      	ldr	r2, [r0, #0]
10009176:	66d4      	str	r4, [r2, #108]	; 0x6c
10009178:	6802      	ldr	r2, [r0, #0]
1000917a:	2465      	movs	r4, #101	; 0x65
1000917c:	6014      	str	r4, [r2, #0]
1000917e:	6802      	ldr	r2, [r0, #0]
10009180:	63d3      	str	r3, [r2, #60]	; 0x3c
10009182:	6802      	ldr	r2, [r0, #0]
10009184:	6393      	str	r3, [r2, #56]	; 0x38
10009186:	3388      	adds	r3, #136	; 0x88
10009188:	2203      	movs	r2, #3
1000918a:	6804      	ldr	r4, [r0, #0]
1000918c:	50e2      	str	r2, [r4, r3]
1000918e:	f7ff ff69 	bl	10009064 <i2c_set_baudrate>
10009192:	bd10      	pop	{r4, pc}
10009194:	2208      	movs	r2, #8
10009196:	e7e2      	b.n	1000915e <i2c_init+0xa>
10009198:	20000b54 	.word	0x20000b54
1000919c:	4000e000 	.word	0x4000e000
100091a0:	4000f000 	.word	0x4000f000
100091a4:	4000c000 	.word	0x4000c000

100091a8 <i2c_write_blocking>:
100091a8:	b530      	push	{r4, r5, lr}
100091aa:	b085      	sub	sp, #20
100091ac:	ac08      	add	r4, sp, #32
100091ae:	7825      	ldrb	r5, [r4, #0]
100091b0:	2400      	movs	r4, #0
100091b2:	9402      	str	r4, [sp, #8]
100091b4:	9401      	str	r4, [sp, #4]
100091b6:	9500      	str	r5, [sp, #0]
100091b8:	f7ff fe64 	bl	10008e84 <i2c_write_blocking_internal>
100091bc:	b005      	add	sp, #20
100091be:	bd30      	pop	{r4, r5, pc}

100091c0 <i2c_read_blocking>:
100091c0:	b530      	push	{r4, r5, lr}
100091c2:	b085      	sub	sp, #20
100091c4:	ac08      	add	r4, sp, #32
100091c6:	7825      	ldrb	r5, [r4, #0]
100091c8:	2400      	movs	r4, #0
100091ca:	9402      	str	r4, [sp, #8]
100091cc:	9401      	str	r4, [sp, #4]
100091ce:	9500      	str	r5, [sp, #0]
100091d0:	f7ff fed5 	bl	10008f7e <i2c_read_blocking_internal>
100091d4:	b005      	add	sp, #20
100091d6:	bd30      	pop	{r4, r5, pc}

100091d8 <spi_set_baudrate>:
100091d8:	b5f0      	push	{r4, r5, r6, r7, lr}
100091da:	46d6      	mov	lr, sl
100091dc:	4647      	mov	r7, r8
100091de:	b580      	push	{r7, lr}
100091e0:	b083      	sub	sp, #12
100091e2:	4682      	mov	sl, r0
100091e4:	4688      	mov	r8, r1
100091e6:	2006      	movs	r0, #6
100091e8:	f7fd f946 	bl	10006478 <clock_get_hz>
100091ec:	0007      	movs	r7, r0
100091ee:	2402      	movs	r4, #2
100091f0:	e000      	b.n	100091f4 <spi_set_baudrate+0x1c>
100091f2:	002c      	movs	r4, r5
100091f4:	2cfe      	cmp	r4, #254	; 0xfe
100091f6:	d81c      	bhi.n	10009232 <spi_set_baudrate+0x5a>
100091f8:	9701      	str	r7, [sp, #4]
100091fa:	2600      	movs	r6, #0
100091fc:	1ca5      	adds	r5, r4, #2
100091fe:	0228      	lsls	r0, r5, #8
10009200:	4642      	mov	r2, r8
10009202:	2300      	movs	r3, #0
10009204:	2100      	movs	r1, #0
10009206:	f7ff fba5 	bl	10008954 <__wrap___aeabi_lmul>
1000920a:	2900      	cmp	r1, #0
1000920c:	d103      	bne.n	10009216 <spi_set_baudrate+0x3e>
1000920e:	42b1      	cmp	r1, r6
10009210:	d1ef      	bne.n	100091f2 <spi_set_baudrate+0x1a>
10009212:	42b8      	cmp	r0, r7
10009214:	d9ed      	bls.n	100091f2 <spi_set_baudrate+0x1a>
10009216:	2580      	movs	r5, #128	; 0x80
10009218:	006d      	lsls	r5, r5, #1
1000921a:	2d01      	cmp	r5, #1
1000921c:	d90c      	bls.n	10009238 <spi_set_baudrate+0x60>
1000921e:	1e6e      	subs	r6, r5, #1
10009220:	0021      	movs	r1, r4
10009222:	4371      	muls	r1, r6
10009224:	0038      	movs	r0, r7
10009226:	f7fe fd31 	bl	10007c8c <__wrap___aeabi_uidiv>
1000922a:	4540      	cmp	r0, r8
1000922c:	d804      	bhi.n	10009238 <spi_set_baudrate+0x60>
1000922e:	0035      	movs	r5, r6
10009230:	e7f3      	b.n	1000921a <spi_set_baudrate+0x42>
10009232:	2580      	movs	r5, #128	; 0x80
10009234:	006d      	lsls	r5, r5, #1
10009236:	e7f0      	b.n	1000921a <spi_set_baudrate+0x42>
10009238:	4653      	mov	r3, sl
1000923a:	611c      	str	r4, [r3, #16]
1000923c:	1e6b      	subs	r3, r5, #1
1000923e:	021b      	lsls	r3, r3, #8
10009240:	4652      	mov	r2, sl
10009242:	6812      	ldr	r2, [r2, #0]
10009244:	4053      	eors	r3, r2
10009246:	22ff      	movs	r2, #255	; 0xff
10009248:	0212      	lsls	r2, r2, #8
1000924a:	4013      	ands	r3, r2
1000924c:	2080      	movs	r0, #128	; 0x80
1000924e:	0140      	lsls	r0, r0, #5
10009250:	4652      	mov	r2, sl
10009252:	4310      	orrs	r0, r2
10009254:	6003      	str	r3, [r0, #0]
10009256:	0029      	movs	r1, r5
10009258:	4361      	muls	r1, r4
1000925a:	0038      	movs	r0, r7
1000925c:	f7fe fd16 	bl	10007c8c <__wrap___aeabi_uidiv>
10009260:	b003      	add	sp, #12
10009262:	bcc0      	pop	{r6, r7}
10009264:	46ba      	mov	sl, r7
10009266:	46b0      	mov	r8, r6
10009268:	bdf0      	pop	{r4, r5, r6, r7, pc}
	...

1000926c <spi_init>:
1000926c:	b570      	push	{r4, r5, r6, lr}
1000926e:	0004      	movs	r4, r0
10009270:	4b15      	ldr	r3, [pc, #84]	; (100092c8 <spi_init+0x5c>)
10009272:	4298      	cmp	r0, r3
10009274:	d025      	beq.n	100092c2 <spi_init+0x56>
10009276:	2280      	movs	r2, #128	; 0x80
10009278:	0292      	lsls	r2, r2, #10
1000927a:	4b14      	ldr	r3, [pc, #80]	; (100092cc <spi_init+0x60>)
1000927c:	601a      	str	r2, [r3, #0]
1000927e:	4b14      	ldr	r3, [pc, #80]	; (100092d0 <spi_init+0x64>)
10009280:	601a      	str	r2, [r3, #0]
10009282:	4b14      	ldr	r3, [pc, #80]	; (100092d4 <spi_init+0x68>)
10009284:	689b      	ldr	r3, [r3, #8]
10009286:	0010      	movs	r0, r2
10009288:	4398      	bics	r0, r3
1000928a:	d1fa      	bne.n	10009282 <spi_init+0x16>
1000928c:	0020      	movs	r0, r4
1000928e:	f7ff ffa3 	bl	100091d8 <spi_set_baudrate>
10009292:	6823      	ldr	r3, [r4, #0]
10009294:	2607      	movs	r6, #7
10009296:	4073      	eors	r3, r6
10009298:	21cf      	movs	r1, #207	; 0xcf
1000929a:	400b      	ands	r3, r1
1000929c:	2280      	movs	r2, #128	; 0x80
1000929e:	0152      	lsls	r2, r2, #5
100092a0:	4322      	orrs	r2, r4
100092a2:	6013      	str	r3, [r2, #0]
100092a4:	0025      	movs	r5, r4
100092a6:	3524      	adds	r5, #36	; 0x24
100092a8:	2080      	movs	r0, #128	; 0x80
100092aa:	0180      	lsls	r0, r0, #6
100092ac:	4305      	orrs	r5, r0
100092ae:	2303      	movs	r3, #3
100092b0:	602b      	str	r3, [r5, #0]
100092b2:	cc08      	ldmia	r4!, {r3}
100092b4:	4073      	eors	r3, r6
100092b6:	4019      	ands	r1, r3
100092b8:	6011      	str	r1, [r2, #0]
100092ba:	4304      	orrs	r4, r0
100092bc:	2302      	movs	r3, #2
100092be:	6023      	str	r3, [r4, #0]
100092c0:	bd70      	pop	{r4, r5, r6, pc}
100092c2:	2280      	movs	r2, #128	; 0x80
100092c4:	0252      	lsls	r2, r2, #9
100092c6:	e7d8      	b.n	1000927a <spi_init+0xe>
100092c8:	4003c000 	.word	0x4003c000
100092cc:	4000e000 	.word	0x4000e000
100092d0:	4000f000 	.word	0x4000f000
100092d4:	4000c000 	.word	0x4000c000

100092d8 <adc_init>:
100092d8:	2301      	movs	r3, #1
100092da:	4a08      	ldr	r2, [pc, #32]	; (100092fc <adc_init+0x24>)
100092dc:	6013      	str	r3, [r2, #0]
100092de:	4a08      	ldr	r2, [pc, #32]	; (10009300 <adc_init+0x28>)
100092e0:	6013      	str	r3, [r2, #0]
100092e2:	4b08      	ldr	r3, [pc, #32]	; (10009304 <adc_init+0x2c>)
100092e4:	689a      	ldr	r2, [r3, #8]
100092e6:	2301      	movs	r3, #1
100092e8:	4393      	bics	r3, r2
100092ea:	d1fa      	bne.n	100092e2 <adc_init+0xa>
100092ec:	4b06      	ldr	r3, [pc, #24]	; (10009308 <adc_init+0x30>)
100092ee:	2201      	movs	r2, #1
100092f0:	601a      	str	r2, [r3, #0]
100092f2:	4b05      	ldr	r3, [pc, #20]	; (10009308 <adc_init+0x30>)
100092f4:	681b      	ldr	r3, [r3, #0]
100092f6:	05db      	lsls	r3, r3, #23
100092f8:	d5fb      	bpl.n	100092f2 <adc_init+0x1a>
100092fa:	4770      	bx	lr
100092fc:	4000e000 	.word	0x4000e000
10009300:	4000f000 	.word	0x4000f000
10009304:	4000c000 	.word	0x4000c000
10009308:	4004c000 	.word	0x4004c000

1000930c <flash_get_unique_id>:
1000930c:	b570      	push	{r4, r5, r6, lr}
1000930e:	b088      	sub	sp, #32
10009310:	0004      	movs	r4, r0
10009312:	ad04      	add	r5, sp, #16
10009314:	2600      	movs	r6, #0
10009316:	9604      	str	r6, [sp, #16]
10009318:	2209      	movs	r2, #9
1000931a:	2100      	movs	r1, #0
1000931c:	a805      	add	r0, sp, #20
1000931e:	f7ff fbd3 	bl	10008ac8 <__wrap_memset>
10009322:	9600      	str	r6, [sp, #0]
10009324:	2209      	movs	r2, #9
10009326:	2100      	movs	r1, #0
10009328:	a801      	add	r0, sp, #4
1000932a:	f7ff fbcd 	bl	10008ac8 <__wrap_memset>
1000932e:	234b      	movs	r3, #75	; 0x4b
10009330:	702b      	strb	r3, [r5, #0]
10009332:	220d      	movs	r2, #13
10009334:	4669      	mov	r1, sp
10009336:	0028      	movs	r0, r5
10009338:	f002 fb8a 	bl	1000ba50 <__flash_do_cmd_veneer>
1000933c:	2300      	movs	r3, #0
1000933e:	e004      	b.n	1000934a <flash_get_unique_id+0x3e>
10009340:	1d5a      	adds	r2, r3, #5
10009342:	4669      	mov	r1, sp
10009344:	5c8a      	ldrb	r2, [r1, r2]
10009346:	54e2      	strb	r2, [r4, r3]
10009348:	3301      	adds	r3, #1
1000934a:	2b07      	cmp	r3, #7
1000934c:	ddf8      	ble.n	10009340 <flash_get_unique_id+0x34>
1000934e:	b008      	add	sp, #32
10009350:	bd70      	pop	{r4, r5, r6, pc}
	...

10009354 <_retrieve_unique_id_on_boot>:
10009354:	b510      	push	{r4, lr}
10009356:	4802      	ldr	r0, [pc, #8]	; (10009360 <_retrieve_unique_id_on_boot+0xc>)
10009358:	f7ff ffd8 	bl	1000930c <flash_get_unique_id>
1000935c:	bd10      	pop	{r4, pc}
1000935e:	46c0      	nop			; (mov r8, r8)
10009360:	20002374 	.word	0x20002374

10009364 <pico_get_unique_board_id>:
10009364:	b510      	push	{r4, lr}
10009366:	2208      	movs	r2, #8
10009368:	4901      	ldr	r1, [pc, #4]	; (10009370 <pico_get_unique_board_id+0xc>)
1000936a:	f7ff fbb3 	bl	10008ad4 <__wrap___aeabi_memcpy>
1000936e:	bd10      	pop	{r4, pc}
10009370:	20002374 	.word	0x20002374

10009374 <hw_endpoint_get_by_addr>:
10009374:	227f      	movs	r2, #127	; 0x7f
10009376:	4002      	ands	r2, r0
10009378:	09c3      	lsrs	r3, r0, #7
1000937a:	2034      	movs	r0, #52	; 0x34
1000937c:	4358      	muls	r0, r3
1000937e:	2368      	movs	r3, #104	; 0x68
10009380:	4353      	muls	r3, r2
10009382:	18c0      	adds	r0, r0, r3
10009384:	4b01      	ldr	r3, [pc, #4]	; (1000938c <hw_endpoint_get_by_addr+0x18>)
10009386:	18c0      	adds	r0, r0, r3
10009388:	4770      	bx	lr
1000938a:	46c0      	nop			; (mov r8, r8)
1000938c:	200017bc 	.word	0x200017bc

10009390 <reset_ep0>:
10009390:	b510      	push	{r4, lr}
10009392:	b082      	sub	sp, #8
10009394:	ab01      	add	r3, sp, #4
10009396:	4a08      	ldr	r2, [pc, #32]	; (100093b8 <reset_ep0+0x28>)
10009398:	801a      	strh	r2, [r3, #0]
1000939a:	2400      	movs	r4, #0
1000939c:	e008      	b.n	100093b0 <reset_ep0+0x20>
1000939e:	ab01      	add	r3, sp, #4
100093a0:	5d18      	ldrb	r0, [r3, r4]
100093a2:	f7ff ffe7 	bl	10009374 <hw_endpoint_get_by_addr>
100093a6:	2301      	movs	r3, #1
100093a8:	7143      	strb	r3, [r0, #5]
100093aa:	2300      	movs	r3, #0
100093ac:	7503      	strb	r3, [r0, #20]
100093ae:	3401      	adds	r4, #1
100093b0:	2c01      	cmp	r4, #1
100093b2:	d9f4      	bls.n	1000939e <reset_ep0+0xe>
100093b4:	b002      	add	sp, #8
100093b6:	bd10      	pop	{r4, pc}
100093b8:	ffff8000 	.word	0xffff8000

100093bc <_hw_endpoint_alloc>:
100093bc:	b510      	push	{r4, lr}
100093be:	6ac3      	ldr	r3, [r0, #44]	; 0x2c
100093c0:	2b40      	cmp	r3, #64	; 0x40
100093c2:	d800      	bhi.n	100093c6 <_hw_endpoint_alloc+0xa>
100093c4:	2340      	movs	r3, #64	; 0x40
100093c6:	4916      	ldr	r1, [pc, #88]	; (10009420 <_hw_endpoint_alloc+0x64>)
100093c8:	680a      	ldr	r2, [r1, #0]
100093ca:	6102      	str	r2, [r0, #16]
100093cc:	18d3      	adds	r3, r2, r3
100093ce:	600b      	str	r3, [r1, #0]
100093d0:	0699      	lsls	r1, r3, #26
100093d2:	d004      	beq.n	100093de <_hw_endpoint_alloc+0x22>
100093d4:	213f      	movs	r1, #63	; 0x3f
100093d6:	438b      	bics	r3, r1
100093d8:	3340      	adds	r3, #64	; 0x40
100093da:	4911      	ldr	r1, [pc, #68]	; (10009420 <_hw_endpoint_alloc+0x64>)
100093dc:	600b      	str	r3, [r1, #0]
100093de:	4b10      	ldr	r3, [pc, #64]	; (10009420 <_hw_endpoint_alloc+0x64>)
100093e0:	6819      	ldr	r1, [r3, #0]
100093e2:	068b      	lsls	r3, r1, #26
100093e4:	d110      	bne.n	10009408 <_hw_endpoint_alloc+0x4c>
100093e6:	4b0f      	ldr	r3, [pc, #60]	; (10009424 <_hw_endpoint_alloc+0x68>)
100093e8:	405a      	eors	r2, r3
100093ea:	404b      	eors	r3, r1
100093ec:	2180      	movs	r1, #128	; 0x80
100093ee:	0149      	lsls	r1, r1, #5
100093f0:	428b      	cmp	r3, r1
100093f2:	d80f      	bhi.n	10009414 <_hw_endpoint_alloc+0x58>
100093f4:	2330      	movs	r3, #48	; 0x30
100093f6:	5cc3      	ldrb	r3, [r0, r3]
100093f8:	069b      	lsls	r3, r3, #26
100093fa:	431a      	orrs	r2, r3
100093fc:	23a0      	movs	r3, #160	; 0xa0
100093fe:	061b      	lsls	r3, r3, #24
10009400:	431a      	orrs	r2, r3
10009402:	6883      	ldr	r3, [r0, #8]
10009404:	601a      	str	r2, [r3, #0]
10009406:	bd10      	pop	{r4, pc}
10009408:	4b07      	ldr	r3, [pc, #28]	; (10009428 <_hw_endpoint_alloc+0x6c>)
1000940a:	4a08      	ldr	r2, [pc, #32]	; (1000942c <_hw_endpoint_alloc+0x70>)
1000940c:	2159      	movs	r1, #89	; 0x59
1000940e:	4808      	ldr	r0, [pc, #32]	; (10009430 <_hw_endpoint_alloc+0x74>)
10009410:	f7fc ff08 	bl	10006224 <__assert_func>
10009414:	4b07      	ldr	r3, [pc, #28]	; (10009434 <_hw_endpoint_alloc+0x78>)
10009416:	4a05      	ldr	r2, [pc, #20]	; (1000942c <_hw_endpoint_alloc+0x70>)
10009418:	215b      	movs	r1, #91	; 0x5b
1000941a:	4805      	ldr	r0, [pc, #20]	; (10009430 <_hw_endpoint_alloc+0x74>)
1000941c:	f7fc ff02 	bl	10006224 <__assert_func>
10009420:	200021e4 	.word	0x200021e4
10009424:	50100000 	.word	0x50100000
10009428:	1000db7c 	.word	0x1000db7c
1000942c:	1000dd00 	.word	0x1000dd00
10009430:	1000dbac 	.word	0x1000dbac
10009434:	1000dc14 	.word	0x1000dc14

10009438 <_hw_endpoint_init>:
10009438:	b570      	push	{r4, r5, r6, lr}
1000943a:	0004      	movs	r4, r0
1000943c:	207f      	movs	r0, #127	; 0x7f
1000943e:	4008      	ands	r0, r1
10009440:	b24e      	sxtb	r6, r1
10009442:	09cd      	lsrs	r5, r1, #7
10009444:	7121      	strb	r1, [r4, #4]
10009446:	7065      	strb	r5, [r4, #1]
10009448:	43f1      	mvns	r1, r6
1000944a:	0fc9      	lsrs	r1, r1, #31
1000944c:	70e1      	strb	r1, [r4, #3]
1000944e:	70a0      	strb	r0, [r4, #2]
10009450:	2800      	cmp	r0, #0
10009452:	d11b      	bne.n	1000948c <_hw_endpoint_init+0x54>
10009454:	2101      	movs	r1, #1
10009456:	7161      	strb	r1, [r4, #5]
10009458:	2b01      	cmp	r3, #1
1000945a:	d019      	beq.n	10009490 <_hw_endpoint_init+0x58>
1000945c:	2a40      	cmp	r2, #64	; 0x40
1000945e:	d81f      	bhi.n	100094a0 <_hw_endpoint_init+0x68>
10009460:	62e2      	str	r2, [r4, #44]	; 0x2c
10009462:	2230      	movs	r2, #48	; 0x30
10009464:	54a3      	strb	r3, [r4, r2]
10009466:	2d00      	cmp	r5, #0
10009468:	d01e      	beq.n	100094a8 <_hw_endpoint_init+0x70>
1000946a:	00c3      	lsls	r3, r0, #3
1000946c:	4a1b      	ldr	r2, [pc, #108]	; (100094dc <_hw_endpoint_init+0xa4>)
1000946e:	4694      	mov	ip, r2
10009470:	4463      	add	r3, ip
10009472:	60e3      	str	r3, [r4, #12]
10009474:	68e3      	ldr	r3, [r4, #12]
10009476:	2200      	movs	r2, #0
10009478:	601a      	str	r2, [r3, #0]
1000947a:	78a3      	ldrb	r3, [r4, #2]
1000947c:	2b00      	cmp	r3, #0
1000947e:	d119      	bne.n	100094b4 <_hw_endpoint_init+0x7c>
10009480:	60a3      	str	r3, [r4, #8]
10009482:	4b17      	ldr	r3, [pc, #92]	; (100094e0 <_hw_endpoint_init+0xa8>)
10009484:	6123      	str	r3, [r4, #16]
10009486:	2301      	movs	r3, #1
10009488:	7023      	strb	r3, [r4, #0]
1000948a:	bd70      	pop	{r4, r5, r6, pc}
1000948c:	2100      	movs	r1, #0
1000948e:	e7e2      	b.n	10009456 <_hw_endpoint_init+0x1e>
10009490:	2180      	movs	r1, #128	; 0x80
10009492:	00c9      	lsls	r1, r1, #3
10009494:	428a      	cmp	r2, r1
10009496:	d3e3      	bcc.n	10009460 <_hw_endpoint_init+0x28>
10009498:	0011      	movs	r1, r2
1000949a:	4812      	ldr	r0, [pc, #72]	; (100094e4 <_hw_endpoint_init+0xac>)
1000949c:	f7fc fee0 	bl	10006260 <panic>
100094a0:	0011      	movs	r1, r2
100094a2:	4810      	ldr	r0, [pc, #64]	; (100094e4 <_hw_endpoint_init+0xac>)
100094a4:	f7fc fedc 	bl	10006260 <panic>
100094a8:	00c3      	lsls	r3, r0, #3
100094aa:	4a0f      	ldr	r2, [pc, #60]	; (100094e8 <_hw_endpoint_init+0xb0>)
100094ac:	4694      	mov	ip, r2
100094ae:	4463      	add	r3, ip
100094b0:	60e3      	str	r3, [r4, #12]
100094b2:	e7df      	b.n	10009474 <_hw_endpoint_init+0x3c>
100094b4:	2e00      	cmp	r6, #0
100094b6:	db09      	blt.n	100094cc <_hw_endpoint_init+0x94>
100094b8:	3801      	subs	r0, #1
100094ba:	00c0      	lsls	r0, r0, #3
100094bc:	4b0b      	ldr	r3, [pc, #44]	; (100094ec <_hw_endpoint_init+0xb4>)
100094be:	469c      	mov	ip, r3
100094c0:	4460      	add	r0, ip
100094c2:	60a0      	str	r0, [r4, #8]
100094c4:	0020      	movs	r0, r4
100094c6:	f7ff ff79 	bl	100093bc <_hw_endpoint_alloc>
100094ca:	e7dc      	b.n	10009486 <_hw_endpoint_init+0x4e>
100094cc:	3801      	subs	r0, #1
100094ce:	00c0      	lsls	r0, r0, #3
100094d0:	4b07      	ldr	r3, [pc, #28]	; (100094f0 <_hw_endpoint_init+0xb8>)
100094d2:	469c      	mov	ip, r3
100094d4:	4460      	add	r0, ip
100094d6:	60a0      	str	r0, [r4, #8]
100094d8:	e7f4      	b.n	100094c4 <_hw_endpoint_init+0x8c>
100094da:	46c0      	nop			; (mov r8, r8)
100094dc:	50100080 	.word	0x50100080
100094e0:	50100100 	.word	0x50100100
100094e4:	1000dc48 	.word	0x1000dc48
100094e8:	50100084 	.word	0x50100084
100094ec:	5010000c 	.word	0x5010000c
100094f0:	50100008 	.word	0x50100008

100094f4 <hw_endpoint_init>:
100094f4:	b570      	push	{r4, r5, r6, lr}
100094f6:	0004      	movs	r4, r0
100094f8:	000d      	movs	r5, r1
100094fa:	0016      	movs	r6, r2
100094fc:	f7ff ff3a 	bl	10009374 <hw_endpoint_get_by_addr>
10009500:	0033      	movs	r3, r6
10009502:	002a      	movs	r2, r5
10009504:	0021      	movs	r1, r4
10009506:	f7ff ff97 	bl	10009438 <_hw_endpoint_init>
1000950a:	bd70      	pop	{r4, r5, r6, pc}

1000950c <hw_handle_buff_status>:
1000950c:	b5f0      	push	{r4, r5, r6, r7, lr}
1000950e:	46ce      	mov	lr, r9
10009510:	4647      	mov	r7, r8
10009512:	b580      	push	{r7, lr}
10009514:	b083      	sub	sp, #12
10009516:	4b25      	ldr	r3, [pc, #148]	; (100095ac <hw_handle_buff_status+0xa0>)
10009518:	6d9f      	ldr	r7, [r3, #88]	; 0x58
1000951a:	2600      	movs	r6, #0
1000951c:	2501      	movs	r5, #1
1000951e:	e008      	b.n	10009532 <hw_handle_buff_status+0x26>
10009520:	4b23      	ldr	r3, [pc, #140]	; (100095b0 <hw_handle_buff_status+0xa4>)
10009522:	4a24      	ldr	r2, [pc, #144]	; (100095b4 <hw_handle_buff_status+0xa8>)
10009524:	21df      	movs	r1, #223	; 0xdf
10009526:	4824      	ldr	r0, [pc, #144]	; (100095b8 <hw_handle_buff_status+0xac>)
10009528:	f7fc fe7c 	bl	10006224 <__assert_func>
1000952c:	43af      	bics	r7, r5
1000952e:	006d      	lsls	r5, r5, #1
10009530:	3601      	adds	r6, #1
10009532:	2f00      	cmp	r7, #0
10009534:	d034      	beq.n	100095a0 <hw_handle_buff_status+0x94>
10009536:	2e1f      	cmp	r6, #31
10009538:	d832      	bhi.n	100095a0 <hw_handle_buff_status+0x94>
1000953a:	423d      	tst	r5, r7
1000953c:	d0f7      	beq.n	1000952e <hw_handle_buff_status+0x22>
1000953e:	4b1b      	ldr	r3, [pc, #108]	; (100095ac <hw_handle_buff_status+0xa0>)
10009540:	6ddb      	ldr	r3, [r3, #92]	; 0x5c
10009542:	421d      	tst	r5, r3
10009544:	d1ec      	bne.n	10009520 <hw_handle_buff_status+0x14>
10009546:	4b1d      	ldr	r3, [pc, #116]	; (100095bc <hw_handle_buff_status+0xb0>)
10009548:	659d      	str	r5, [r3, #88]	; 0x58
1000954a:	0872      	lsrs	r2, r6, #1
1000954c:	2301      	movs	r3, #1
1000954e:	4033      	ands	r3, r6
10009550:	4259      	negs	r1, r3
10009552:	414b      	adcs	r3, r1
10009554:	b2d9      	uxtb	r1, r3
10009556:	4689      	mov	r9, r1
10009558:	21ff      	movs	r1, #255	; 0xff
1000955a:	4011      	ands	r1, r2
1000955c:	4688      	mov	r8, r1
1000955e:	2434      	movs	r4, #52	; 0x34
10009560:	4363      	muls	r3, r4
10009562:	3434      	adds	r4, #52	; 0x34
10009564:	434c      	muls	r4, r1
10009566:	191c      	adds	r4, r3, r4
10009568:	4b15      	ldr	r3, [pc, #84]	; (100095c0 <hw_handle_buff_status+0xb4>)
1000956a:	18e4      	adds	r4, r4, r3
1000956c:	0020      	movs	r0, r4
1000956e:	f000 fad5 	bl	10009b1c <_hw_endpoint_xfer_continue>
10009572:	2800      	cmp	r0, #0
10009574:	d0da      	beq.n	1000952c <hw_handle_buff_status+0x20>
10009576:	2334      	movs	r3, #52	; 0x34
10009578:	464a      	mov	r2, r9
1000957a:	4353      	muls	r3, r2
1000957c:	2268      	movs	r2, #104	; 0x68
1000957e:	4641      	mov	r1, r8
10009580:	434a      	muls	r2, r1
10009582:	189b      	adds	r3, r3, r2
10009584:	4a0e      	ldr	r2, [pc, #56]	; (100095c0 <hw_handle_buff_status+0xb4>)
10009586:	18d3      	adds	r3, r2, r3
10009588:	69da      	ldr	r2, [r3, #28]
1000958a:	7919      	ldrb	r1, [r3, #4]
1000958c:	2301      	movs	r3, #1
1000958e:	9300      	str	r3, [sp, #0]
10009590:	2300      	movs	r3, #0
10009592:	2000      	movs	r0, #0
10009594:	f000 fe6b 	bl	1000a26e <dcd_event_xfer_complete>
10009598:	0020      	movs	r0, r4
1000959a:	f000 fa01 	bl	100099a0 <hw_endpoint_reset_transfer>
1000959e:	e7c5      	b.n	1000952c <hw_handle_buff_status+0x20>
100095a0:	b003      	add	sp, #12
100095a2:	bcc0      	pop	{r6, r7}
100095a4:	46b9      	mov	r9, r7
100095a6:	46b0      	mov	r8, r6
100095a8:	bdf0      	pop	{r4, r5, r6, r7, pc}
100095aa:	46c0      	nop			; (mov r8, r8)
100095ac:	50110000 	.word	0x50110000
100095b0:	1000dc70 	.word	0x1000dc70
100095b4:	1000dd14 	.word	0x1000dd14
100095b8:	1000dbac 	.word	0x1000dbac
100095bc:	50113000 	.word	0x50113000
100095c0:	200017bc 	.word	0x200017bc

100095c4 <dcd_rp2040_irq>:
100095c4:	b570      	push	{r4, r5, r6, lr}
100095c6:	4a1d      	ldr	r2, [pc, #116]	; (1000963c <dcd_rp2040_irq+0x78>)
100095c8:	2398      	movs	r3, #152	; 0x98
100095ca:	58d4      	ldr	r4, [r2, r3]
100095cc:	2380      	movs	r3, #128	; 0x80
100095ce:	025b      	lsls	r3, r3, #9
100095d0:	0025      	movs	r5, r4
100095d2:	401d      	ands	r5, r3
100095d4:	421c      	tst	r4, r3
100095d6:	d106      	bne.n	100095e6 <dcd_rp2040_irq+0x22>
100095d8:	06e3      	lsls	r3, r4, #27
100095da:	d412      	bmi.n	10009602 <dcd_rp2040_irq+0x3e>
100095dc:	04e3      	lsls	r3, r4, #19
100095de:	d415      	bmi.n	1000960c <dcd_rp2040_irq+0x48>
100095e0:	42a5      	cmp	r5, r4
100095e2:	d125      	bne.n	10009630 <dcd_rp2040_irq+0x6c>
100095e4:	bd70      	pop	{r4, r5, r6, pc}
100095e6:	f7ff fed3 	bl	10009390 <reset_ep0>
100095ea:	2201      	movs	r2, #1
100095ec:	4914      	ldr	r1, [pc, #80]	; (10009640 <dcd_rp2040_irq+0x7c>)
100095ee:	2000      	movs	r0, #0
100095f0:	f000 fe23 	bl	1000a23a <dcd_event_setup_received>
100095f4:	4b13      	ldr	r3, [pc, #76]	; (10009644 <dcd_rp2040_irq+0x80>)
100095f6:	2280      	movs	r2, #128	; 0x80
100095f8:	0292      	lsls	r2, r2, #10
100095fa:	651a      	str	r2, [r3, #80]	; 0x50
100095fc:	2580      	movs	r5, #128	; 0x80
100095fe:	026d      	lsls	r5, r5, #9
10009600:	e7ea      	b.n	100095d8 <dcd_rp2040_irq+0x14>
10009602:	2310      	movs	r3, #16
10009604:	431d      	orrs	r5, r3
10009606:	f7ff ff81 	bl	1000950c <hw_handle_buff_status>
1000960a:	e7e7      	b.n	100095dc <dcd_rp2040_irq+0x18>
1000960c:	2300      	movs	r3, #0
1000960e:	4a0e      	ldr	r2, [pc, #56]	; (10009648 <dcd_rp2040_irq+0x84>)
10009610:	7013      	strb	r3, [r2, #0]
10009612:	4a0a      	ldr	r2, [pc, #40]	; (1000963c <dcd_rp2040_irq+0x78>)
10009614:	6013      	str	r3, [r2, #0]
10009616:	2380      	movs	r3, #128	; 0x80
10009618:	015b      	lsls	r3, r3, #5
1000961a:	431d      	orrs	r5, r3
1000961c:	2201      	movs	r2, #1
1000961e:	2101      	movs	r1, #1
10009620:	2000      	movs	r0, #0
10009622:	f000 fdf7 	bl	1000a214 <dcd_event_bus_signal>
10009626:	4b07      	ldr	r3, [pc, #28]	; (10009644 <dcd_rp2040_irq+0x80>)
10009628:	2280      	movs	r2, #128	; 0x80
1000962a:	0312      	lsls	r2, r2, #12
1000962c:	651a      	str	r2, [r3, #80]	; 0x50
1000962e:	e7d7      	b.n	100095e0 <dcd_rp2040_irq+0x1c>
10009630:	0029      	movs	r1, r5
10009632:	4061      	eors	r1, r4
10009634:	4805      	ldr	r0, [pc, #20]	; (1000964c <dcd_rp2040_irq+0x88>)
10009636:	f7fc fe13 	bl	10006260 <panic>
1000963a:	46c0      	nop			; (mov r8, r8)
1000963c:	50110000 	.word	0x50110000
10009640:	50100000 	.word	0x50100000
10009644:	50113000 	.word	0x50113000
10009648:	2000260a 	.word	0x2000260a
1000964c:	1000dc7c 	.word	0x1000dc7c

10009650 <hw_endpoint_xfer>:
10009650:	b570      	push	{r4, r5, r6, lr}
10009652:	000c      	movs	r4, r1
10009654:	0015      	movs	r5, r2
10009656:	001e      	movs	r6, r3
10009658:	f7ff fe8c 	bl	10009374 <hw_endpoint_get_by_addr>
1000965c:	0033      	movs	r3, r6
1000965e:	002a      	movs	r2, r5
10009660:	0021      	movs	r1, r4
10009662:	f000 fa87 	bl	10009b74 <_hw_endpoint_xfer>
10009666:	bd70      	pop	{r4, r5, r6, pc}

10009668 <ep0_0len_status>:
10009668:	b510      	push	{r4, lr}
1000966a:	f7ff fe91 	bl	10009390 <reset_ep0>
1000966e:	2301      	movs	r3, #1
10009670:	2200      	movs	r2, #0
10009672:	2100      	movs	r1, #0
10009674:	2080      	movs	r0, #128	; 0x80
10009676:	f7ff ffeb 	bl	10009650 <hw_endpoint_xfer>
1000967a:	bd10      	pop	{r4, pc}

1000967c <_hw_endpoint_stall>:
1000967c:	b510      	push	{r4, lr}
1000967e:	0004      	movs	r4, r0
10009680:	7d03      	ldrb	r3, [r0, #20]
10009682:	2b00      	cmp	r3, #0
10009684:	d111      	bne.n	100096aa <_hw_endpoint_stall+0x2e>
10009686:	7883      	ldrb	r3, [r0, #2]
10009688:	2b00      	cmp	r3, #0
1000968a:	d105      	bne.n	10009698 <_hw_endpoint_stall+0x1c>
1000968c:	7843      	ldrb	r3, [r0, #1]
1000968e:	2b00      	cmp	r3, #0
10009690:	d012      	beq.n	100096b8 <_hw_endpoint_stall+0x3c>
10009692:	2201      	movs	r2, #1
10009694:	4b09      	ldr	r3, [pc, #36]	; (100096bc <_hw_endpoint_stall+0x40>)
10009696:	669a      	str	r2, [r3, #104]	; 0x68
10009698:	2280      	movs	r2, #128	; 0x80
1000969a:	0112      	lsls	r2, r2, #4
1000969c:	4908      	ldr	r1, [pc, #32]	; (100096c0 <_hw_endpoint_stall+0x44>)
1000969e:	0020      	movs	r0, r4
100096a0:	f000 f988 	bl	100099b4 <_hw_endpoint_buffer_control_update32>
100096a4:	2301      	movs	r3, #1
100096a6:	7523      	strb	r3, [r4, #20]
100096a8:	bd10      	pop	{r4, pc}
100096aa:	2184      	movs	r1, #132	; 0x84
100096ac:	4b05      	ldr	r3, [pc, #20]	; (100096c4 <_hw_endpoint_stall+0x48>)
100096ae:	4a06      	ldr	r2, [pc, #24]	; (100096c8 <_hw_endpoint_stall+0x4c>)
100096b0:	0049      	lsls	r1, r1, #1
100096b2:	4806      	ldr	r0, [pc, #24]	; (100096cc <_hw_endpoint_stall+0x50>)
100096b4:	f7fc fdb6 	bl	10006224 <__assert_func>
100096b8:	2202      	movs	r2, #2
100096ba:	e7eb      	b.n	10009694 <_hw_endpoint_stall+0x18>
100096bc:	50112000 	.word	0x50112000
100096c0:	fffff7ff 	.word	0xfffff7ff
100096c4:	1000dc90 	.word	0x1000dc90
100096c8:	1000dcdc 	.word	0x1000dcdc
100096cc:	1000dbac 	.word	0x1000dbac

100096d0 <hw_endpoint_stall>:
100096d0:	b510      	push	{r4, lr}
100096d2:	f7ff fe4f 	bl	10009374 <hw_endpoint_get_by_addr>
100096d6:	f7ff ffd1 	bl	1000967c <_hw_endpoint_stall>
100096da:	bd10      	pop	{r4, pc}

100096dc <_hw_endpoint_clear_stall>:
100096dc:	b510      	push	{r4, lr}
100096de:	0004      	movs	r4, r0
100096e0:	7883      	ldrb	r3, [r0, #2]
100096e2:	2b00      	cmp	r3, #0
100096e4:	d105      	bne.n	100096f2 <_hw_endpoint_clear_stall+0x16>
100096e6:	7843      	ldrb	r3, [r0, #1]
100096e8:	2b00      	cmp	r3, #0
100096ea:	d00a      	beq.n	10009702 <_hw_endpoint_clear_stall+0x26>
100096ec:	2201      	movs	r2, #1
100096ee:	4b06      	ldr	r3, [pc, #24]	; (10009708 <_hw_endpoint_clear_stall+0x2c>)
100096f0:	669a      	str	r2, [r3, #104]	; 0x68
100096f2:	2200      	movs	r2, #0
100096f4:	4905      	ldr	r1, [pc, #20]	; (1000970c <_hw_endpoint_clear_stall+0x30>)
100096f6:	0020      	movs	r0, r4
100096f8:	f000 f95c 	bl	100099b4 <_hw_endpoint_buffer_control_update32>
100096fc:	2300      	movs	r3, #0
100096fe:	7523      	strb	r3, [r4, #20]
10009700:	bd10      	pop	{r4, pc}
10009702:	2202      	movs	r2, #2
10009704:	e7f3      	b.n	100096ee <_hw_endpoint_clear_stall+0x12>
10009706:	46c0      	nop			; (mov r8, r8)
10009708:	50113000 	.word	0x50113000
1000970c:	fffff7ff 	.word	0xfffff7ff

10009710 <hw_endpoint_clear_stall>:
10009710:	b510      	push	{r4, lr}
10009712:	f7ff fe2f 	bl	10009374 <hw_endpoint_get_by_addr>
10009716:	f7ff ffe1 	bl	100096dc <_hw_endpoint_clear_stall>
1000971a:	bd10      	pop	{r4, pc}

1000971c <dcd_int_enable>:
1000971c:	b510      	push	{r4, lr}
1000971e:	2800      	cmp	r0, #0
10009720:	d104      	bne.n	1000972c <dcd_int_enable+0x10>
10009722:	2101      	movs	r1, #1
10009724:	2005      	movs	r0, #5
10009726:	f7fd f80b 	bl	10006740 <irq_set_enabled>
1000972a:	bd10      	pop	{r4, pc}
1000972c:	217e      	movs	r1, #126	; 0x7e
1000972e:	4b03      	ldr	r3, [pc, #12]	; (1000973c <dcd_int_enable+0x20>)
10009730:	4a03      	ldr	r2, [pc, #12]	; (10009740 <dcd_int_enable+0x24>)
10009732:	31ff      	adds	r1, #255	; 0xff
10009734:	4803      	ldr	r0, [pc, #12]	; (10009744 <dcd_int_enable+0x28>)
10009736:	f7fc fd75 	bl	10006224 <__assert_func>
1000973a:	46c0      	nop			; (mov r8, r8)
1000973c:	1000dca0 	.word	0x1000dca0
10009740:	1000dcf0 	.word	0x1000dcf0
10009744:	1000dbac 	.word	0x1000dbac

10009748 <dcd_set_address>:
10009748:	b510      	push	{r4, lr}
1000974a:	2800      	cmp	r0, #0
1000974c:	d104      	bne.n	10009758 <dcd_set_address+0x10>
1000974e:	4b06      	ldr	r3, [pc, #24]	; (10009768 <dcd_set_address+0x20>)
10009750:	7019      	strb	r1, [r3, #0]
10009752:	f7ff ff89 	bl	10009668 <ep0_0len_status>
10009756:	bd10      	pop	{r4, pc}
10009758:	21c5      	movs	r1, #197	; 0xc5
1000975a:	4b04      	ldr	r3, [pc, #16]	; (1000976c <dcd_set_address+0x24>)
1000975c:	4a04      	ldr	r2, [pc, #16]	; (10009770 <dcd_set_address+0x28>)
1000975e:	0049      	lsls	r1, r1, #1
10009760:	4804      	ldr	r0, [pc, #16]	; (10009774 <dcd_set_address+0x2c>)
10009762:	f7fc fd5f 	bl	10006224 <__assert_func>
10009766:	46c0      	nop			; (mov r8, r8)
10009768:	2000260a 	.word	0x2000260a
1000976c:	1000dca0 	.word	0x1000dca0
10009770:	1000dd90 	.word	0x1000dd90
10009774:	1000dbac 	.word	0x1000dbac

10009778 <dcd_remote_wakeup>:
10009778:	b510      	push	{r4, lr}
1000977a:	0001      	movs	r1, r0
1000977c:	4801      	ldr	r0, [pc, #4]	; (10009784 <dcd_remote_wakeup+0xc>)
1000977e:	f7fc fd6f 	bl	10006260 <panic>
10009782:	46c0      	nop			; (mov r8, r8)
10009784:	1000dcac 	.word	0x1000dcac

10009788 <dcd_connect>:
10009788:	b510      	push	{r4, lr}
1000978a:	2800      	cmp	r0, #0
1000978c:	d104      	bne.n	10009798 <dcd_connect+0x10>
1000978e:	4b06      	ldr	r3, [pc, #24]	; (100097a8 <dcd_connect+0x20>)
10009790:	2280      	movs	r2, #128	; 0x80
10009792:	0252      	lsls	r2, r2, #9
10009794:	64da      	str	r2, [r3, #76]	; 0x4c
10009796:	bd10      	pop	{r4, pc}
10009798:	21d2      	movs	r1, #210	; 0xd2
1000979a:	4b04      	ldr	r3, [pc, #16]	; (100097ac <dcd_connect+0x24>)
1000979c:	4a04      	ldr	r2, [pc, #16]	; (100097b0 <dcd_connect+0x28>)
1000979e:	0049      	lsls	r1, r1, #1
100097a0:	4804      	ldr	r0, [pc, #16]	; (100097b4 <dcd_connect+0x2c>)
100097a2:	f7fc fd3f 	bl	10006224 <__assert_func>
100097a6:	46c0      	nop			; (mov r8, r8)
100097a8:	50112000 	.word	0x50112000
100097ac:	1000dca0 	.word	0x1000dca0
100097b0:	1000dd84 	.word	0x1000dd84
100097b4:	1000dbac 	.word	0x1000dbac

100097b8 <dcd_init>:
100097b8:	b510      	push	{r4, lr}
100097ba:	1e04      	subs	r4, r0, #0
100097bc:	d128      	bne.n	10009810 <dcd_init+0x58>
100097be:	f000 f8c7 	bl	10009950 <rp2040_usb_init>
100097c2:	4917      	ldr	r1, [pc, #92]	; (10009820 <dcd_init+0x68>)
100097c4:	2005      	movs	r0, #5
100097c6:	f7fc ffcb 	bl	10006760 <irq_set_exclusive_handler>
100097ca:	22d0      	movs	r2, #208	; 0xd0
100097cc:	00d2      	lsls	r2, r2, #3
100097ce:	2100      	movs	r1, #0
100097d0:	4814      	ldr	r0, [pc, #80]	; (10009824 <dcd_init+0x6c>)
100097d2:	f7ff f979 	bl	10008ac8 <__wrap_memset>
100097d6:	4b14      	ldr	r3, [pc, #80]	; (10009828 <dcd_init+0x70>)
100097d8:	2200      	movs	r2, #0
100097da:	701a      	strb	r2, [r3, #0]
100097dc:	4b13      	ldr	r3, [pc, #76]	; (1000982c <dcd_init+0x74>)
100097de:	4a14      	ldr	r2, [pc, #80]	; (10009830 <dcd_init+0x78>)
100097e0:	601a      	str	r2, [r3, #0]
100097e2:	2200      	movs	r2, #0
100097e4:	2140      	movs	r1, #64	; 0x40
100097e6:	2000      	movs	r0, #0
100097e8:	f7ff fe84 	bl	100094f4 <hw_endpoint_init>
100097ec:	2200      	movs	r2, #0
100097ee:	2140      	movs	r1, #64	; 0x40
100097f0:	2080      	movs	r0, #128	; 0x80
100097f2:	f7ff fe7f 	bl	100094f4 <hw_endpoint_init>
100097f6:	4b0f      	ldr	r3, [pc, #60]	; (10009834 <dcd_init+0x7c>)
100097f8:	2201      	movs	r2, #1
100097fa:	641a      	str	r2, [r3, #64]	; 0x40
100097fc:	2280      	movs	r2, #128	; 0x80
100097fe:	0592      	lsls	r2, r2, #22
10009800:	64da      	str	r2, [r3, #76]	; 0x4c
10009802:	2290      	movs	r2, #144	; 0x90
10009804:	490c      	ldr	r1, [pc, #48]	; (10009838 <dcd_init+0x80>)
10009806:	5099      	str	r1, [r3, r2]
10009808:	0020      	movs	r0, r4
1000980a:	f7ff ffbd 	bl	10009788 <dcd_connect>
1000980e:	bd10      	pop	{r4, pc}
10009810:	2160      	movs	r1, #96	; 0x60
10009812:	4b0a      	ldr	r3, [pc, #40]	; (1000983c <dcd_init+0x84>)
10009814:	4a0a      	ldr	r2, [pc, #40]	; (10009840 <dcd_init+0x88>)
10009816:	31ff      	adds	r1, #255	; 0xff
10009818:	480a      	ldr	r0, [pc, #40]	; (10009844 <dcd_init+0x8c>)
1000981a:	f7fc fd03 	bl	10006224 <__assert_func>
1000981e:	46c0      	nop			; (mov r8, r8)
10009820:	100095c5 	.word	0x100095c5
10009824:	200017bc 	.word	0x200017bc
10009828:	2000260a 	.word	0x2000260a
1000982c:	200021e4 	.word	0x200021e4
10009830:	50100180 	.word	0x50100180
10009834:	50110000 	.word	0x50110000
10009838:	00011010 	.word	0x00011010
1000983c:	1000dca0 	.word	0x1000dca0
10009840:	1000dd2c 	.word	0x1000dd2c
10009844:	1000dbac 	.word	0x1000dbac

10009848 <dcd_edpt0_status_complete>:
10009848:	b510      	push	{r4, lr}
1000984a:	2800      	cmp	r0, #0
1000984c:	d108      	bne.n	10009860 <dcd_edpt0_status_complete+0x18>
1000984e:	780b      	ldrb	r3, [r1, #0]
10009850:	065b      	lsls	r3, r3, #25
10009852:	d102      	bne.n	1000985a <dcd_edpt0_status_complete+0x12>
10009854:	784b      	ldrb	r3, [r1, #1]
10009856:	2b05      	cmp	r3, #5
10009858:	d009      	beq.n	1000986e <dcd_edpt0_status_complete+0x26>
1000985a:	f7ff fd99 	bl	10009390 <reset_ep0>
1000985e:	bd10      	pop	{r4, pc}
10009860:	21b0      	movs	r1, #176	; 0xb0
10009862:	4b05      	ldr	r3, [pc, #20]	; (10009878 <dcd_edpt0_status_complete+0x30>)
10009864:	4a05      	ldr	r2, [pc, #20]	; (1000987c <dcd_edpt0_status_complete+0x34>)
10009866:	31ff      	adds	r1, #255	; 0xff
10009868:	4805      	ldr	r0, [pc, #20]	; (10009880 <dcd_edpt0_status_complete+0x38>)
1000986a:	f7fc fcdb 	bl	10006224 <__assert_func>
1000986e:	4b05      	ldr	r3, [pc, #20]	; (10009884 <dcd_edpt0_status_complete+0x3c>)
10009870:	781a      	ldrb	r2, [r3, #0]
10009872:	4b05      	ldr	r3, [pc, #20]	; (10009888 <dcd_edpt0_status_complete+0x40>)
10009874:	601a      	str	r2, [r3, #0]
10009876:	e7f0      	b.n	1000985a <dcd_edpt0_status_complete+0x12>
10009878:	1000dca0 	.word	0x1000dca0
1000987c:	1000dd68 	.word	0x1000dd68
10009880:	1000dbac 	.word	0x1000dbac
10009884:	2000260a 	.word	0x2000260a
10009888:	50110000 	.word	0x50110000

1000988c <dcd_edpt_open>:
1000988c:	b510      	push	{r4, lr}
1000988e:	000c      	movs	r4, r1
10009890:	2800      	cmp	r0, #0
10009892:	d10d      	bne.n	100098b0 <dcd_edpt_open+0x24>
10009894:	790a      	ldrb	r2, [r1, #4]
10009896:	794b      	ldrb	r3, [r1, #5]
10009898:	2107      	movs	r1, #7
1000989a:	4019      	ands	r1, r3
1000989c:	0209      	lsls	r1, r1, #8
1000989e:	4311      	orrs	r1, r2
100098a0:	78e2      	ldrb	r2, [r4, #3]
100098a2:	0792      	lsls	r2, r2, #30
100098a4:	0f92      	lsrs	r2, r2, #30
100098a6:	78a0      	ldrb	r0, [r4, #2]
100098a8:	f7ff fe24 	bl	100094f4 <hw_endpoint_init>
100098ac:	2001      	movs	r0, #1
100098ae:	bd10      	pop	{r4, pc}
100098b0:	21c0      	movs	r1, #192	; 0xc0
100098b2:	4b03      	ldr	r3, [pc, #12]	; (100098c0 <dcd_edpt_open+0x34>)
100098b4:	4a03      	ldr	r2, [pc, #12]	; (100098c4 <dcd_edpt_open+0x38>)
100098b6:	31ff      	adds	r1, #255	; 0xff
100098b8:	4803      	ldr	r0, [pc, #12]	; (100098c8 <dcd_edpt_open+0x3c>)
100098ba:	f7fc fcb3 	bl	10006224 <__assert_func>
100098be:	46c0      	nop			; (mov r8, r8)
100098c0:	1000dca0 	.word	0x1000dca0
100098c4:	1000dd58 	.word	0x1000dd58
100098c8:	1000dbac 	.word	0x1000dbac

100098cc <dcd_edpt_xfer>:
100098cc:	b510      	push	{r4, lr}
100098ce:	0004      	movs	r4, r0
100098d0:	0008      	movs	r0, r1
100098d2:	0011      	movs	r1, r2
100098d4:	001a      	movs	r2, r3
100098d6:	2c00      	cmp	r4, #0
100098d8:	d104      	bne.n	100098e4 <dcd_edpt_xfer+0x18>
100098da:	2301      	movs	r3, #1
100098dc:	f7ff feb8 	bl	10009650 <hw_endpoint_xfer>
100098e0:	2001      	movs	r0, #1
100098e2:	bd10      	pop	{r4, pc}
100098e4:	21e3      	movs	r1, #227	; 0xe3
100098e6:	4b03      	ldr	r3, [pc, #12]	; (100098f4 <dcd_edpt_xfer+0x28>)
100098e8:	4a03      	ldr	r2, [pc, #12]	; (100098f8 <dcd_edpt_xfer+0x2c>)
100098ea:	0049      	lsls	r1, r1, #1
100098ec:	4803      	ldr	r0, [pc, #12]	; (100098fc <dcd_edpt_xfer+0x30>)
100098ee:	f7fc fc99 	bl	10006224 <__assert_func>
100098f2:	46c0      	nop			; (mov r8, r8)
100098f4:	1000dca0 	.word	0x1000dca0
100098f8:	1000dd48 	.word	0x1000dd48
100098fc:	1000dbac 	.word	0x1000dbac

10009900 <dcd_edpt_stall>:
10009900:	b510      	push	{r4, lr}
10009902:	2800      	cmp	r0, #0
10009904:	d103      	bne.n	1000990e <dcd_edpt_stall+0xe>
10009906:	0008      	movs	r0, r1
10009908:	f7ff fee2 	bl	100096d0 <hw_endpoint_stall>
1000990c:	bd10      	pop	{r4, pc}
1000990e:	21d0      	movs	r1, #208	; 0xd0
10009910:	4b02      	ldr	r3, [pc, #8]	; (1000991c <dcd_edpt_stall+0x1c>)
10009912:	4a03      	ldr	r2, [pc, #12]	; (10009920 <dcd_edpt_stall+0x20>)
10009914:	31ff      	adds	r1, #255	; 0xff
10009916:	4803      	ldr	r0, [pc, #12]	; (10009924 <dcd_edpt_stall+0x24>)
10009918:	f7fc fc84 	bl	10006224 <__assert_func>
1000991c:	1000dca0 	.word	0x1000dca0
10009920:	1000dd38 	.word	0x1000dd38
10009924:	1000dbac 	.word	0x1000dbac

10009928 <dcd_edpt_clear_stall>:
10009928:	b510      	push	{r4, lr}
1000992a:	2800      	cmp	r0, #0
1000992c:	d103      	bne.n	10009936 <dcd_edpt_clear_stall+0xe>
1000992e:	0008      	movs	r0, r1
10009930:	f7ff feee 	bl	10009710 <hw_endpoint_clear_stall>
10009934:	bd10      	pop	{r4, pc}
10009936:	21eb      	movs	r1, #235	; 0xeb
10009938:	4b02      	ldr	r3, [pc, #8]	; (10009944 <dcd_edpt_clear_stall+0x1c>)
1000993a:	4a03      	ldr	r2, [pc, #12]	; (10009948 <dcd_edpt_clear_stall+0x20>)
1000993c:	0049      	lsls	r1, r1, #1
1000993e:	4803      	ldr	r0, [pc, #12]	; (1000994c <dcd_edpt_clear_stall+0x24>)
10009940:	f7fc fc70 	bl	10006224 <__assert_func>
10009944:	1000dca0 	.word	0x1000dca0
10009948:	1000dcc4 	.word	0x1000dcc4
1000994c:	1000dbac 	.word	0x1000dbac

10009950 <rp2040_usb_init>:
10009950:	b510      	push	{r4, lr}
10009952:	2380      	movs	r3, #128	; 0x80
10009954:	045b      	lsls	r3, r3, #17
10009956:	4a0d      	ldr	r2, [pc, #52]	; (1000998c <rp2040_usb_init+0x3c>)
10009958:	6013      	str	r3, [r2, #0]
1000995a:	4a0d      	ldr	r2, [pc, #52]	; (10009990 <rp2040_usb_init+0x40>)
1000995c:	6013      	str	r3, [r2, #0]
1000995e:	4b0d      	ldr	r3, [pc, #52]	; (10009994 <rp2040_usb_init+0x44>)
10009960:	689a      	ldr	r2, [r3, #8]
10009962:	2380      	movs	r3, #128	; 0x80
10009964:	045b      	lsls	r3, r3, #17
10009966:	4393      	bics	r3, r2
10009968:	d1f9      	bne.n	1000995e <rp2040_usb_init+0xe>
1000996a:	4c0b      	ldr	r4, [pc, #44]	; (10009998 <rp2040_usb_init+0x48>)
1000996c:	229c      	movs	r2, #156	; 0x9c
1000996e:	2100      	movs	r1, #0
10009970:	0020      	movs	r0, r4
10009972:	f7ff f8a9 	bl	10008ac8 <__wrap_memset>
10009976:	2280      	movs	r2, #128	; 0x80
10009978:	0152      	lsls	r2, r2, #5
1000997a:	2100      	movs	r1, #0
1000997c:	4807      	ldr	r0, [pc, #28]	; (1000999c <rp2040_usb_init+0x4c>)
1000997e:	f7ff f8a3 	bl	10008ac8 <__wrap_memset>
10009982:	2309      	movs	r3, #9
10009984:	6763      	str	r3, [r4, #116]	; 0x74
10009986:	3303      	adds	r3, #3
10009988:	67a3      	str	r3, [r4, #120]	; 0x78
1000998a:	bd10      	pop	{r4, pc}
1000998c:	4000e000 	.word	0x4000e000
10009990:	4000f000 	.word	0x4000f000
10009994:	4000c000 	.word	0x4000c000
10009998:	50110000 	.word	0x50110000
1000999c:	50100000 	.word	0x50100000

100099a0 <hw_endpoint_reset_transfer>:
100099a0:	2300      	movs	r3, #0
100099a2:	7503      	strb	r3, [r0, #20]
100099a4:	7543      	strb	r3, [r0, #21]
100099a6:	2232      	movs	r2, #50	; 0x32
100099a8:	5483      	strb	r3, [r0, r2]
100099aa:	6183      	str	r3, [r0, #24]
100099ac:	61c3      	str	r3, [r0, #28]
100099ae:	6203      	str	r3, [r0, #32]
100099b0:	6283      	str	r3, [r0, #40]	; 0x28
100099b2:	4770      	bx	lr

100099b4 <_hw_endpoint_buffer_control_update32>:
100099b4:	b510      	push	{r4, lr}
100099b6:	2900      	cmp	r1, #0
100099b8:	d002      	beq.n	100099c0 <_hw_endpoint_buffer_control_update32+0xc>
100099ba:	68c3      	ldr	r3, [r0, #12]
100099bc:	681b      	ldr	r3, [r3, #0]
100099be:	4019      	ands	r1, r3
100099c0:	2a00      	cmp	r2, #0
100099c2:	d00f      	beq.n	100099e4 <_hw_endpoint_buffer_control_update32+0x30>
100099c4:	4311      	orrs	r1, r2
100099c6:	0553      	lsls	r3, r2, #21
100099c8:	d50c      	bpl.n	100099e4 <_hw_endpoint_buffer_control_update32+0x30>
100099ca:	68c2      	ldr	r2, [r0, #12]
100099cc:	6813      	ldr	r3, [r2, #0]
100099ce:	055b      	lsls	r3, r3, #21
100099d0:	d40b      	bmi.n	100099ea <_hw_endpoint_buffer_control_update32+0x36>
100099d2:	4b0a      	ldr	r3, [pc, #40]	; (100099fc <_hw_endpoint_buffer_control_update32+0x48>)
100099d4:	400b      	ands	r3, r1
100099d6:	6013      	str	r3, [r2, #0]
100099d8:	e7ff      	b.n	100099da <_hw_endpoint_buffer_control_update32+0x26>
100099da:	e7ff      	b.n	100099dc <_hw_endpoint_buffer_control_update32+0x28>
100099dc:	e7ff      	b.n	100099de <_hw_endpoint_buffer_control_update32+0x2a>
100099de:	e7ff      	b.n	100099e0 <_hw_endpoint_buffer_control_update32+0x2c>
100099e0:	e7ff      	b.n	100099e2 <_hw_endpoint_buffer_control_update32+0x2e>
100099e2:	e7ff      	b.n	100099e4 <_hw_endpoint_buffer_control_update32+0x30>
100099e4:	68c3      	ldr	r3, [r0, #12]
100099e6:	6019      	str	r1, [r3, #0]
100099e8:	bd10      	pop	{r4, pc}
100099ea:	7881      	ldrb	r1, [r0, #2]
100099ec:	7843      	ldrb	r3, [r0, #1]
100099ee:	009b      	lsls	r3, r3, #2
100099f0:	4a03      	ldr	r2, [pc, #12]	; (10009a00 <_hw_endpoint_buffer_control_update32+0x4c>)
100099f2:	589a      	ldr	r2, [r3, r2]
100099f4:	4803      	ldr	r0, [pc, #12]	; (10009a04 <_hw_endpoint_buffer_control_update32+0x50>)
100099f6:	f7fc fc33 	bl	10006260 <panic>
100099fa:	46c0      	nop			; (mov r8, r8)
100099fc:	fffffbff 	.word	0xfffffbff
10009a00:	20000b64 	.word	0x20000b64
10009a04:	1000dda0 	.word	0x1000dda0

10009a08 <_hw_endpoint_start_next_buffer>:
10009a08:	b570      	push	{r4, r5, r6, lr}
10009a0a:	0004      	movs	r4, r0
10009a0c:	6a05      	ldr	r5, [r0, #32]
10009a0e:	2280      	movs	r2, #128	; 0x80
10009a10:	00d2      	lsls	r2, r2, #3
10009a12:	432a      	orrs	r2, r5
10009a14:	78c3      	ldrb	r3, [r0, #3]
10009a16:	2b00      	cmp	r3, #0
10009a18:	d014      	beq.n	10009a44 <_hw_endpoint_start_next_buffer+0x3c>
10009a1a:	7963      	ldrb	r3, [r4, #5]
10009a1c:	2b00      	cmp	r3, #0
10009a1e:	d01e      	beq.n	10009a5e <_hw_endpoint_start_next_buffer+0x56>
10009a20:	2180      	movs	r1, #128	; 0x80
10009a22:	0189      	lsls	r1, r1, #6
10009a24:	430a      	orrs	r2, r1
10009a26:	2101      	movs	r1, #1
10009a28:	404b      	eors	r3, r1
10009a2a:	7163      	strb	r3, [r4, #5]
10009a2c:	2324      	movs	r3, #36	; 0x24
10009a2e:	5ce3      	ldrb	r3, [r4, r3]
10009a30:	2b00      	cmp	r3, #0
10009a32:	d002      	beq.n	10009a3a <_hw_endpoint_start_next_buffer+0x32>
10009a34:	2380      	movs	r3, #128	; 0x80
10009a36:	01db      	lsls	r3, r3, #7
10009a38:	431a      	orrs	r2, r3
10009a3a:	2100      	movs	r1, #0
10009a3c:	0020      	movs	r0, r4
10009a3e:	f7ff ffb9 	bl	100099b4 <_hw_endpoint_buffer_control_update32>
10009a42:	bd70      	pop	{r4, r5, r6, pc}
10009a44:	6a83      	ldr	r3, [r0, #40]	; 0x28
10009a46:	69c2      	ldr	r2, [r0, #28]
10009a48:	4694      	mov	ip, r2
10009a4a:	4463      	add	r3, ip
10009a4c:	0019      	movs	r1, r3
10009a4e:	002a      	movs	r2, r5
10009a50:	6900      	ldr	r0, [r0, #16]
10009a52:	f7ff f83f 	bl	10008ad4 <__wrap___aeabi_memcpy>
10009a56:	2284      	movs	r2, #132	; 0x84
10009a58:	0212      	lsls	r2, r2, #8
10009a5a:	432a      	orrs	r2, r5
10009a5c:	e7dd      	b.n	10009a1a <_hw_endpoint_start_next_buffer+0x12>
10009a5e:	2100      	movs	r1, #0
10009a60:	e7e0      	b.n	10009a24 <_hw_endpoint_start_next_buffer+0x1c>

10009a62 <_hw_endpoint_xfer_start>:
10009a62:	b570      	push	{r4, r5, r6, lr}
10009a64:	0004      	movs	r4, r0
10009a66:	000e      	movs	r6, r1
10009a68:	0015      	movs	r5, r2
10009a6a:	7d43      	ldrb	r3, [r0, #21]
10009a6c:	2b00      	cmp	r3, #0
10009a6e:	d118      	bne.n	10009aa2 <_hw_endpoint_xfer_start+0x40>
10009a70:	61a5      	str	r5, [r4, #24]
10009a72:	2300      	movs	r3, #0
10009a74:	61e3      	str	r3, [r4, #28]
10009a76:	1c2a      	adds	r2, r5, #0
10009a78:	b2ab      	uxth	r3, r5
10009a7a:	2b40      	cmp	r3, #64	; 0x40
10009a7c:	d900      	bls.n	10009a80 <_hw_endpoint_xfer_start+0x1e>
10009a7e:	2240      	movs	r2, #64	; 0x40
10009a80:	b292      	uxth	r2, r2
10009a82:	6222      	str	r2, [r4, #32]
10009a84:	2301      	movs	r3, #1
10009a86:	7563      	strb	r3, [r4, #21]
10009a88:	62a6      	str	r6, [r4, #40]	; 0x28
10009a8a:	1aad      	subs	r5, r5, r2
10009a8c:	426b      	negs	r3, r5
10009a8e:	415d      	adcs	r5, r3
10009a90:	2324      	movs	r3, #36	; 0x24
10009a92:	54e5      	strb	r5, [r4, r3]
10009a94:	3301      	adds	r3, #1
10009a96:	2200      	movs	r2, #0
10009a98:	54e2      	strb	r2, [r4, r3]
10009a9a:	0020      	movs	r0, r4
10009a9c:	f7ff ffb4 	bl	10009a08 <_hw_endpoint_start_next_buffer>
10009aa0:	bd70      	pop	{r4, r5, r6, pc}
10009aa2:	f7ff ff7d 	bl	100099a0 <hw_endpoint_reset_transfer>
10009aa6:	e7e3      	b.n	10009a70 <_hw_endpoint_xfer_start+0xe>

10009aa8 <_hw_endpoint_xfer_sync>:
10009aa8:	b570      	push	{r4, r5, r6, lr}
10009aaa:	0004      	movs	r4, r0
10009aac:	68c3      	ldr	r3, [r0, #12]
10009aae:	681b      	ldr	r3, [r3, #0]
10009ab0:	059d      	lsls	r5, r3, #22
10009ab2:	0dad      	lsrs	r5, r5, #22
10009ab4:	78c2      	ldrb	r2, [r0, #3]
10009ab6:	2a00      	cmp	r2, #0
10009ab8:	d113      	bne.n	10009ae2 <_hw_endpoint_xfer_sync+0x3a>
10009aba:	041b      	lsls	r3, r3, #16
10009abc:	d40b      	bmi.n	10009ad6 <_hw_endpoint_xfer_sync+0x2e>
10009abe:	69c3      	ldr	r3, [r0, #28]
10009ac0:	195b      	adds	r3, r3, r5
10009ac2:	61c3      	str	r3, [r0, #28]
10009ac4:	78e3      	ldrb	r3, [r4, #3]
10009ac6:	2b00      	cmp	r3, #0
10009ac8:	d004      	beq.n	10009ad4 <_hw_endpoint_xfer_sync+0x2c>
10009aca:	6a23      	ldr	r3, [r4, #32]
10009acc:	42ab      	cmp	r3, r5
10009ace:	d901      	bls.n	10009ad4 <_hw_endpoint_xfer_sync+0x2c>
10009ad0:	69e3      	ldr	r3, [r4, #28]
10009ad2:	61a3      	str	r3, [r4, #24]
10009ad4:	bd70      	pop	{r4, r5, r6, pc}
10009ad6:	4b0d      	ldr	r3, [pc, #52]	; (10009b0c <_hw_endpoint_xfer_sync+0x64>)
10009ad8:	4a0d      	ldr	r2, [pc, #52]	; (10009b10 <_hw_endpoint_xfer_sync+0x68>)
10009ada:	21bf      	movs	r1, #191	; 0xbf
10009adc:	480d      	ldr	r0, [pc, #52]	; (10009b14 <_hw_endpoint_xfer_sync+0x6c>)
10009ade:	f7fc fba1 	bl	10006224 <__assert_func>
10009ae2:	041b      	lsls	r3, r3, #16
10009ae4:	d50c      	bpl.n	10009b00 <_hw_endpoint_xfer_sync+0x58>
10009ae6:	6a83      	ldr	r3, [r0, #40]	; 0x28
10009ae8:	69c2      	ldr	r2, [r0, #28]
10009aea:	4694      	mov	ip, r2
10009aec:	4463      	add	r3, ip
10009aee:	0018      	movs	r0, r3
10009af0:	002a      	movs	r2, r5
10009af2:	6921      	ldr	r1, [r4, #16]
10009af4:	f7fe ffee 	bl	10008ad4 <__wrap___aeabi_memcpy>
10009af8:	69e3      	ldr	r3, [r4, #28]
10009afa:	195b      	adds	r3, r3, r5
10009afc:	61e3      	str	r3, [r4, #28]
10009afe:	e7e1      	b.n	10009ac4 <_hw_endpoint_xfer_sync+0x1c>
10009b00:	4b05      	ldr	r3, [pc, #20]	; (10009b18 <_hw_endpoint_xfer_sync+0x70>)
10009b02:	4a03      	ldr	r2, [pc, #12]	; (10009b10 <_hw_endpoint_xfer_sync+0x68>)
10009b04:	21c9      	movs	r1, #201	; 0xc9
10009b06:	4803      	ldr	r0, [pc, #12]	; (10009b14 <_hw_endpoint_xfer_sync+0x6c>)
10009b08:	f7fc fb8c 	bl	10006224 <__assert_func>
10009b0c:	1000ddc0 	.word	0x1000ddc0
10009b10:	1000dedc 	.word	0x1000dedc
10009b14:	1000dde0 	.word	0x1000dde0
10009b18:	1000de48 	.word	0x1000de48

10009b1c <_hw_endpoint_xfer_continue>:
10009b1c:	b570      	push	{r4, r5, r6, lr}
10009b1e:	0004      	movs	r4, r0
10009b20:	7d45      	ldrb	r5, [r0, #21]
10009b22:	2d00      	cmp	r5, #0
10009b24:	d017      	beq.n	10009b56 <_hw_endpoint_xfer_continue+0x3a>
10009b26:	f7ff ffbf 	bl	10009aa8 <_hw_endpoint_xfer_sync>
10009b2a:	69a1      	ldr	r1, [r4, #24]
10009b2c:	69e2      	ldr	r2, [r4, #28]
10009b2e:	1a8b      	subs	r3, r1, r2
10009b30:	2b40      	cmp	r3, #64	; 0x40
10009b32:	d900      	bls.n	10009b36 <_hw_endpoint_xfer_continue+0x1a>
10009b34:	2340      	movs	r3, #64	; 0x40
10009b36:	6223      	str	r3, [r4, #32]
10009b38:	18d3      	adds	r3, r2, r3
10009b3a:	1acb      	subs	r3, r1, r3
10009b3c:	4258      	negs	r0, r3
10009b3e:	4143      	adcs	r3, r0
10009b40:	2024      	movs	r0, #36	; 0x24
10009b42:	5423      	strb	r3, [r4, r0]
10009b44:	4291      	cmp	r1, r2
10009b46:	d30b      	bcc.n	10009b60 <_hw_endpoint_xfer_continue+0x44>
10009b48:	d003      	beq.n	10009b52 <_hw_endpoint_xfer_continue+0x36>
10009b4a:	0020      	movs	r0, r4
10009b4c:	f7ff ff5c 	bl	10009a08 <_hw_endpoint_start_next_buffer>
10009b50:	2500      	movs	r5, #0
10009b52:	0028      	movs	r0, r5
10009b54:	bd70      	pop	{r4, r5, r6, pc}
10009b56:	7881      	ldrb	r1, [r0, #2]
10009b58:	4a03      	ldr	r2, [pc, #12]	; (10009b68 <_hw_endpoint_xfer_continue+0x4c>)
10009b5a:	4804      	ldr	r0, [pc, #16]	; (10009b6c <_hw_endpoint_xfer_continue+0x50>)
10009b5c:	f7fc fb80 	bl	10006260 <panic>
10009b60:	4803      	ldr	r0, [pc, #12]	; (10009b70 <_hw_endpoint_xfer_continue+0x54>)
10009b62:	f7fc fb7d 	bl	10006260 <panic>
10009b66:	46c0      	nop			; (mov r8, r8)
10009b68:	20000b64 	.word	0x20000b64
10009b6c:	1000de68 	.word	0x1000de68
10009b70:	1000de94 	.word	0x1000de94

10009b74 <_hw_endpoint_xfer>:
10009b74:	b510      	push	{r4, lr}
10009b76:	7804      	ldrb	r4, [r0, #0]
10009b78:	2c00      	cmp	r4, #0
10009b7a:	d004      	beq.n	10009b86 <_hw_endpoint_xfer+0x12>
10009b7c:	2b00      	cmp	r3, #0
10009b7e:	d009      	beq.n	10009b94 <_hw_endpoint_xfer+0x20>
10009b80:	f7ff ff6f 	bl	10009a62 <_hw_endpoint_xfer_start>
10009b84:	bd10      	pop	{r4, pc}
10009b86:	210c      	movs	r1, #12
10009b88:	4b04      	ldr	r3, [pc, #16]	; (10009b9c <_hw_endpoint_xfer+0x28>)
10009b8a:	4a05      	ldr	r2, [pc, #20]	; (10009ba0 <_hw_endpoint_xfer+0x2c>)
10009b8c:	31ff      	adds	r1, #255	; 0xff
10009b8e:	4805      	ldr	r0, [pc, #20]	; (10009ba4 <_hw_endpoint_xfer+0x30>)
10009b90:	f7fc fb48 	bl	10006224 <__assert_func>
10009b94:	f7ff ffc2 	bl	10009b1c <_hw_endpoint_xfer_continue>
10009b98:	e7f4      	b.n	10009b84 <_hw_endpoint_xfer+0x10>
10009b9a:	46c0      	nop			; (mov r8, r8)
10009b9c:	1000deb8 	.word	0x1000deb8
10009ba0:	1000dec8 	.word	0x1000dec8
10009ba4:	1000dde0 	.word	0x1000dde0

10009ba8 <mark_interface_endpoint>:
10009ba8:	b570      	push	{r4, r5, r6, lr}
10009baa:	2500      	movs	r5, #0
10009bac:	e003      	b.n	10009bb6 <mark_interface_endpoint+0xe>
10009bae:	780e      	ldrb	r6, [r1, #0]
10009bb0:	1975      	adds	r5, r6, r5
10009bb2:	b2ad      	uxth	r5, r5
10009bb4:	1989      	adds	r1, r1, r6
10009bb6:	4295      	cmp	r5, r2
10009bb8:	d20a      	bcs.n	10009bd0 <mark_interface_endpoint+0x28>
10009bba:	784c      	ldrb	r4, [r1, #1]
10009bbc:	2c05      	cmp	r4, #5
10009bbe:	d1f6      	bne.n	10009bae <mark_interface_endpoint+0x6>
10009bc0:	788e      	ldrb	r6, [r1, #2]
10009bc2:	347a      	adds	r4, #122	; 0x7a
10009bc4:	4034      	ands	r4, r6
10009bc6:	0064      	lsls	r4, r4, #1
10009bc8:	1904      	adds	r4, r0, r4
10009bca:	09f6      	lsrs	r6, r6, #7
10009bcc:	55a3      	strb	r3, [r4, r6]
10009bce:	e7ee      	b.n	10009bae <mark_interface_endpoint+0x6>
10009bd0:	bd70      	pop	{r4, r5, r6, pc}
	...

10009bd4 <usbd_reset>:
10009bd4:	b570      	push	{r4, r5, r6, lr}
10009bd6:	0005      	movs	r5, r0
10009bd8:	4c1c      	ldr	r4, [pc, #112]	; (10009c4c <usbd_reset+0x78>)
10009bda:	2237      	movs	r2, #55	; 0x37
10009bdc:	2100      	movs	r1, #0
10009bde:	0020      	movs	r0, r4
10009be0:	f7fe ff72 	bl	10008ac8 <__wrap_memset>
10009be4:	1ce0      	adds	r0, r4, #3
10009be6:	2210      	movs	r2, #16
10009be8:	21ff      	movs	r1, #255	; 0xff
10009bea:	f7fe ff6d 	bl	10008ac8 <__wrap_memset>
10009bee:	0020      	movs	r0, r4
10009bf0:	3013      	adds	r0, #19
10009bf2:	2212      	movs	r2, #18
10009bf4:	21ff      	movs	r1, #255	; 0xff
10009bf6:	f7fe ff67 	bl	10008ac8 <__wrap_memset>
10009bfa:	f001 f801 	bl	1000ac00 <usbd_control_reset>
10009bfe:	2400      	movs	r4, #0
10009c00:	e012      	b.n	10009c28 <usbd_reset+0x54>
10009c02:	00e3      	lsls	r3, r4, #3
10009c04:	1b1b      	subs	r3, r3, r4
10009c06:	009a      	lsls	r2, r3, #2
10009c08:	4b11      	ldr	r3, [pc, #68]	; (10009c50 <usbd_reset+0x7c>)
10009c0a:	681b      	ldr	r3, [r3, #0]
10009c0c:	189b      	adds	r3, r3, r2
10009c0e:	e006      	b.n	10009c1e <usbd_reset+0x4a>
10009c10:	0023      	movs	r3, r4
10009c12:	e015      	b.n	10009c40 <usbd_reset+0x6c>
10009c14:	00da      	lsls	r2, r3, #3
10009c16:	1ad2      	subs	r2, r2, r3
10009c18:	0092      	lsls	r2, r2, #2
10009c1a:	4b0e      	ldr	r3, [pc, #56]	; (10009c54 <usbd_reset+0x80>)
10009c1c:	189b      	adds	r3, r3, r2
10009c1e:	685b      	ldr	r3, [r3, #4]
10009c20:	0028      	movs	r0, r5
10009c22:	4798      	blx	r3
10009c24:	3401      	adds	r4, #1
10009c26:	b2e4      	uxtb	r4, r4
10009c28:	4b0b      	ldr	r3, [pc, #44]	; (10009c58 <usbd_reset+0x84>)
10009c2a:	781b      	ldrb	r3, [r3, #0]
10009c2c:	1c5a      	adds	r2, r3, #1
10009c2e:	42a2      	cmp	r2, r4
10009c30:	db0a      	blt.n	10009c48 <usbd_reset+0x74>
10009c32:	4a0a      	ldr	r2, [pc, #40]	; (10009c5c <usbd_reset+0x88>)
10009c34:	2a00      	cmp	r2, #0
10009c36:	d0eb      	beq.n	10009c10 <usbd_reset+0x3c>
10009c38:	42a3      	cmp	r3, r4
10009c3a:	d8e2      	bhi.n	10009c02 <usbd_reset+0x2e>
10009c3c:	1ae3      	subs	r3, r4, r3
10009c3e:	b2db      	uxtb	r3, r3
10009c40:	2b01      	cmp	r3, #1
10009c42:	d9e7      	bls.n	10009c14 <usbd_reset+0x40>
10009c44:	2300      	movs	r3, #0
10009c46:	e7ea      	b.n	10009c1e <usbd_reset+0x4a>
10009c48:	bd70      	pop	{r4, r5, r6, pc}
10009c4a:	46c0      	nop			; (mov r8, r8)
10009c4c:	200012e8 	.word	0x200012e8
10009c50:	200010e4 	.word	0x200010e4
10009c54:	1000e078 	.word	0x1000e078
10009c58:	20002608 	.word	0x20002608
10009c5c:	1000076d 	.word	0x1000076d

10009c60 <invoke_class_control>:
10009c60:	b570      	push	{r4, r5, r6, lr}
10009c62:	0005      	movs	r5, r0
10009c64:	000c      	movs	r4, r1
10009c66:	0016      	movs	r6, r2
10009c68:	6908      	ldr	r0, [r1, #16]
10009c6a:	f000 ffd3 	bl	1000ac14 <usbd_control_set_complete_callback>
10009c6e:	68e3      	ldr	r3, [r4, #12]
10009c70:	0031      	movs	r1, r6
10009c72:	0028      	movs	r0, r5
10009c74:	4798      	blx	r3
10009c76:	bd70      	pop	{r4, r5, r6, pc}

10009c78 <process_set_config>:
10009c78:	b5f0      	push	{r4, r5, r6, r7, lr}
10009c7a:	46de      	mov	lr, fp
10009c7c:	4657      	mov	r7, sl
10009c7e:	4646      	mov	r6, r8
10009c80:	b5c0      	push	{r6, r7, lr}
10009c82:	b082      	sub	sp, #8
10009c84:	0007      	movs	r7, r0
10009c86:	3901      	subs	r1, #1
10009c88:	b2c8      	uxtb	r0, r1
10009c8a:	f7f6 fc33 	bl	100004f4 <tud_descriptor_configuration_cb>
10009c8e:	2800      	cmp	r0, #0
10009c90:	d002      	beq.n	10009c98 <process_set_config+0x20>
10009c92:	7843      	ldrb	r3, [r0, #1]
10009c94:	2b02      	cmp	r3, #2
10009c96:	d00b      	beq.n	10009cb0 <process_set_config+0x38>
10009c98:	4a63      	ldr	r2, [pc, #396]	; (10009e28 <process_set_config+0x1b0>)
10009c9a:	4964      	ldr	r1, [pc, #400]	; (10009e2c <process_set_config+0x1b4>)
10009c9c:	4864      	ldr	r0, [pc, #400]	; (10009e30 <process_set_config+0x1b8>)
10009c9e:	f7ff f84d 	bl	10008d3c <__wrap_printf>
10009ca2:	2000      	movs	r0, #0
10009ca4:	b002      	add	sp, #8
10009ca6:	bce0      	pop	{r5, r6, r7}
10009ca8:	46bb      	mov	fp, r7
10009caa:	46b2      	mov	sl, r6
10009cac:	46a8      	mov	r8, r5
10009cae:	bdf0      	pop	{r4, r5, r6, r7, pc}
10009cb0:	79c5      	ldrb	r5, [r0, #7]
10009cb2:	116a      	asrs	r2, r5, #5
10009cb4:	2301      	movs	r3, #1
10009cb6:	4c5f      	ldr	r4, [pc, #380]	; (10009e34 <process_set_config+0x1bc>)
10009cb8:	401a      	ands	r2, r3
10009cba:	0111      	lsls	r1, r2, #4
10009cbc:	7822      	ldrb	r2, [r4, #0]
10009cbe:	2610      	movs	r6, #16
10009cc0:	43b2      	bics	r2, r6
10009cc2:	430a      	orrs	r2, r1
10009cc4:	7022      	strb	r2, [r4, #0]
10009cc6:	11ad      	asrs	r5, r5, #6
10009cc8:	402b      	ands	r3, r5
10009cca:	015b      	lsls	r3, r3, #5
10009ccc:	b2d2      	uxtb	r2, r2
10009cce:	2120      	movs	r1, #32
10009cd0:	438a      	bics	r2, r1
10009cd2:	4313      	orrs	r3, r2
10009cd4:	7023      	strb	r3, [r4, #0]
10009cd6:	0006      	movs	r6, r0
10009cd8:	3609      	adds	r6, #9
10009cda:	7881      	ldrb	r1, [r0, #2]
10009cdc:	78c3      	ldrb	r3, [r0, #3]
10009cde:	021b      	lsls	r3, r3, #8
10009ce0:	430b      	orrs	r3, r1
10009ce2:	4683      	mov	fp, r0
10009ce4:	449b      	add	fp, r3
10009ce6:	e07c      	b.n	10009de2 <process_set_config+0x16a>
10009ce8:	7833      	ldrb	r3, [r6, #0]
10009cea:	46b2      	mov	sl, r6
10009cec:	18f6      	adds	r6, r6, r3
10009cee:	e080      	b.n	10009df2 <process_set_config+0x17a>
10009cf0:	22ca      	movs	r2, #202	; 0xca
10009cf2:	0092      	lsls	r2, r2, #2
10009cf4:	494d      	ldr	r1, [pc, #308]	; (10009e2c <process_set_config+0x1b4>)
10009cf6:	484e      	ldr	r0, [pc, #312]	; (10009e30 <process_set_config+0x1b8>)
10009cf8:	f7ff f820 	bl	10008d3c <__wrap_printf>
10009cfc:	2000      	movs	r0, #0
10009cfe:	e7d1      	b.n	10009ca4 <process_set_config+0x2c>
10009d00:	00e3      	lsls	r3, r4, #3
10009d02:	1b1b      	subs	r3, r3, r4
10009d04:	009a      	lsls	r2, r3, #2
10009d06:	4b4c      	ldr	r3, [pc, #304]	; (10009e38 <process_set_config+0x1c0>)
10009d08:	681b      	ldr	r3, [r3, #0]
10009d0a:	189b      	adds	r3, r3, r2
10009d0c:	e006      	b.n	10009d1c <process_set_config+0xa4>
10009d0e:	0023      	movs	r3, r4
10009d10:	e01a      	b.n	10009d48 <process_set_config+0xd0>
10009d12:	00da      	lsls	r2, r3, #3
10009d14:	1ad2      	subs	r2, r2, r3
10009d16:	0092      	lsls	r2, r2, #2
10009d18:	4b48      	ldr	r3, [pc, #288]	; (10009e3c <process_set_config+0x1c4>)
10009d1a:	189b      	adds	r3, r3, r2
10009d1c:	689b      	ldr	r3, [r3, #8]
10009d1e:	4642      	mov	r2, r8
10009d20:	0031      	movs	r1, r6
10009d22:	0038      	movs	r0, r7
10009d24:	4798      	blx	r3
10009d26:	1e05      	subs	r5, r0, #0
10009d28:	d112      	bne.n	10009d50 <process_set_config+0xd8>
10009d2a:	3401      	adds	r4, #1
10009d2c:	b2e4      	uxtb	r4, r4
10009d2e:	4b44      	ldr	r3, [pc, #272]	; (10009e40 <process_set_config+0x1c8>)
10009d30:	781b      	ldrb	r3, [r3, #0]
10009d32:	1c5a      	adds	r2, r3, #1
10009d34:	9401      	str	r4, [sp, #4]
10009d36:	42a2      	cmp	r2, r4
10009d38:	db4d      	blt.n	10009dd6 <process_set_config+0x15e>
10009d3a:	4a42      	ldr	r2, [pc, #264]	; (10009e44 <process_set_config+0x1cc>)
10009d3c:	2a00      	cmp	r2, #0
10009d3e:	d0e6      	beq.n	10009d0e <process_set_config+0x96>
10009d40:	42a3      	cmp	r3, r4
10009d42:	d8dd      	bhi.n	10009d00 <process_set_config+0x88>
10009d44:	1ae3      	subs	r3, r4, r3
10009d46:	b2db      	uxtb	r3, r3
10009d48:	2b01      	cmp	r3, #1
10009d4a:	d9e2      	bls.n	10009d12 <process_set_config+0x9a>
10009d4c:	2300      	movs	r3, #0
10009d4e:	e7e5      	b.n	10009d1c <process_set_config+0xa4>
10009d50:	2808      	cmp	r0, #8
10009d52:	d923      	bls.n	10009d9c <process_set_config+0x124>
10009d54:	4580      	cmp	r8, r0
10009d56:	d321      	bcc.n	10009d9c <process_set_config+0x124>
10009d58:	78b2      	ldrb	r2, [r6, #2]
10009d5a:	4b36      	ldr	r3, [pc, #216]	; (10009e34 <process_set_config+0x1bc>)
10009d5c:	189b      	adds	r3, r3, r2
10009d5e:	78db      	ldrb	r3, [r3, #3]
10009d60:	2bff      	cmp	r3, #255	; 0xff
10009d62:	d122      	bne.n	10009daa <process_set_config+0x132>
10009d64:	4b33      	ldr	r3, [pc, #204]	; (10009e34 <process_set_config+0x1bc>)
10009d66:	189b      	adds	r3, r3, r2
10009d68:	70dc      	strb	r4, [r3, #3]
10009d6a:	4653      	mov	r3, sl
10009d6c:	2b00      	cmp	r3, #0
10009d6e:	d02a      	beq.n	10009dc6 <process_set_config+0x14e>
10009d70:	789a      	ldrb	r2, [r3, #2]
10009d72:	78b3      	ldrb	r3, [r6, #2]
10009d74:	429a      	cmp	r2, r3
10009d76:	d11f      	bne.n	10009db8 <process_set_config+0x140>
10009d78:	4653      	mov	r3, sl
10009d7a:	791a      	ldrb	r2, [r3, #4]
10009d7c:	7973      	ldrb	r3, [r6, #5]
10009d7e:	429a      	cmp	r2, r3
10009d80:	d11a      	bne.n	10009db8 <process_set_config+0x140>
10009d82:	2301      	movs	r3, #1
10009d84:	4652      	mov	r2, sl
10009d86:	78d2      	ldrb	r2, [r2, #3]
10009d88:	429a      	cmp	r2, r3
10009d8a:	d91c      	bls.n	10009dc6 <process_set_config+0x14e>
10009d8c:	78b1      	ldrb	r1, [r6, #2]
10009d8e:	1859      	adds	r1, r3, r1
10009d90:	4a28      	ldr	r2, [pc, #160]	; (10009e34 <process_set_config+0x1bc>)
10009d92:	1852      	adds	r2, r2, r1
10009d94:	70d4      	strb	r4, [r2, #3]
10009d96:	3301      	adds	r3, #1
10009d98:	b2db      	uxtb	r3, r3
10009d9a:	e7f3      	b.n	10009d84 <process_set_config+0x10c>
10009d9c:	4a2a      	ldr	r2, [pc, #168]	; (10009e48 <process_set_config+0x1d0>)
10009d9e:	4923      	ldr	r1, [pc, #140]	; (10009e2c <process_set_config+0x1b4>)
10009da0:	4823      	ldr	r0, [pc, #140]	; (10009e30 <process_set_config+0x1b8>)
10009da2:	f7fe ffcb 	bl	10008d3c <__wrap_printf>
10009da6:	2000      	movs	r0, #0
10009da8:	e77c      	b.n	10009ca4 <process_set_config+0x2c>
10009daa:	4a28      	ldr	r2, [pc, #160]	; (10009e4c <process_set_config+0x1d4>)
10009dac:	491f      	ldr	r1, [pc, #124]	; (10009e2c <process_set_config+0x1b4>)
10009dae:	4820      	ldr	r0, [pc, #128]	; (10009e30 <process_set_config+0x1b8>)
10009db0:	f7fe ffc4 	bl	10008d3c <__wrap_printf>
10009db4:	2000      	movs	r0, #0
10009db6:	e775      	b.n	10009ca4 <process_set_config+0x2c>
10009db8:	4a25      	ldr	r2, [pc, #148]	; (10009e50 <process_set_config+0x1d8>)
10009dba:	491c      	ldr	r1, [pc, #112]	; (10009e2c <process_set_config+0x1b4>)
10009dbc:	481c      	ldr	r0, [pc, #112]	; (10009e30 <process_set_config+0x1b8>)
10009dbe:	f7fe ffbd 	bl	10008d3c <__wrap_printf>
10009dc2:	2000      	movs	r0, #0
10009dc4:	e76e      	b.n	10009ca4 <process_set_config+0x2c>
10009dc6:	481b      	ldr	r0, [pc, #108]	; (10009e34 <process_set_config+0x1bc>)
10009dc8:	0023      	movs	r3, r4
10009dca:	002a      	movs	r2, r5
10009dcc:	0031      	movs	r1, r6
10009dce:	3013      	adds	r0, #19
10009dd0:	f7ff feea 	bl	10009ba8 <mark_interface_endpoint>
10009dd4:	1976      	adds	r6, r6, r5
10009dd6:	4b1a      	ldr	r3, [pc, #104]	; (10009e40 <process_set_config+0x1c8>)
10009dd8:	781b      	ldrb	r3, [r3, #0]
10009dda:	3301      	adds	r3, #1
10009ddc:	9a01      	ldr	r2, [sp, #4]
10009dde:	429a      	cmp	r2, r3
10009de0:	dc11      	bgt.n	10009e06 <process_set_config+0x18e>
10009de2:	455e      	cmp	r6, fp
10009de4:	d217      	bcs.n	10009e16 <process_set_config+0x19e>
10009de6:	7873      	ldrb	r3, [r6, #1]
10009de8:	2b0b      	cmp	r3, #11
10009dea:	d100      	bne.n	10009dee <process_set_config+0x176>
10009dec:	e77c      	b.n	10009ce8 <process_set_config+0x70>
10009dee:	2300      	movs	r3, #0
10009df0:	469a      	mov	sl, r3
10009df2:	7873      	ldrb	r3, [r6, #1]
10009df4:	2b04      	cmp	r3, #4
10009df6:	d000      	beq.n	10009dfa <process_set_config+0x182>
10009df8:	e77a      	b.n	10009cf0 <process_set_config+0x78>
10009dfa:	465b      	mov	r3, fp
10009dfc:	1b9b      	subs	r3, r3, r6
10009dfe:	b29b      	uxth	r3, r3
10009e00:	4698      	mov	r8, r3
10009e02:	2400      	movs	r4, #0
10009e04:	e793      	b.n	10009d2e <process_set_config+0xb6>
10009e06:	22d5      	movs	r2, #213	; 0xd5
10009e08:	0092      	lsls	r2, r2, #2
10009e0a:	4908      	ldr	r1, [pc, #32]	; (10009e2c <process_set_config+0x1b4>)
10009e0c:	4808      	ldr	r0, [pc, #32]	; (10009e30 <process_set_config+0x1b8>)
10009e0e:	f7fe ff95 	bl	10008d3c <__wrap_printf>
10009e12:	2000      	movs	r0, #0
10009e14:	e746      	b.n	10009ca4 <process_set_config+0x2c>
10009e16:	4b0f      	ldr	r3, [pc, #60]	; (10009e54 <process_set_config+0x1dc>)
10009e18:	2b00      	cmp	r3, #0
10009e1a:	d003      	beq.n	10009e24 <process_set_config+0x1ac>
10009e1c:	e000      	b.n	10009e20 <process_set_config+0x1a8>
10009e1e:	bf00      	nop
10009e20:	2001      	movs	r0, #1
10009e22:	e73f      	b.n	10009ca4 <process_set_config+0x2c>
10009e24:	2001      	movs	r0, #1
10009e26:	e73d      	b.n	10009ca4 <process_set_config+0x2c>
10009e28:	00000313 	.word	0x00000313
10009e2c:	1000e02c 	.word	0x1000e02c
10009e30:	1000c9cc 	.word	0x1000c9cc
10009e34:	200012e8 	.word	0x200012e8
10009e38:	200010e4 	.word	0x200010e4
10009e3c:	1000e078 	.word	0x1000e078
10009e40:	20002608 	.word	0x20002608
10009e44:	1000076d 	.word	0x1000076d
10009e48:	00000336 	.word	0x00000336
10009e4c:	00000339 	.word	0x00000339
10009e50:	00000342 	.word	0x00000342
10009e54:	00000000 	.word	0x00000000

10009e58 <process_get_descriptor>:
10009e58:	b5f0      	push	{r4, r5, r6, r7, lr}
10009e5a:	b083      	sub	sp, #12
10009e5c:	0005      	movs	r5, r0
10009e5e:	000c      	movs	r4, r1
10009e60:	78cb      	ldrb	r3, [r1, #3]
10009e62:	7888      	ldrb	r0, [r1, #2]
10009e64:	2b0f      	cmp	r3, #15
10009e66:	d85e      	bhi.n	10009f26 <process_get_descriptor+0xce>
10009e68:	009b      	lsls	r3, r3, #2
10009e6a:	4a32      	ldr	r2, [pc, #200]	; (10009f34 <process_get_descriptor+0xdc>)
10009e6c:	58d3      	ldr	r3, [r2, r3]
10009e6e:	469f      	mov	pc, r3
10009e70:	f7f6 fb16 	bl	100004a0 <tud_descriptor_device_cb>
10009e74:	0002      	movs	r2, r0
10009e76:	2312      	movs	r3, #18
10009e78:	0021      	movs	r1, r4
10009e7a:	0028      	movs	r0, r5
10009e7c:	f000 fe6c 	bl	1000ab58 <tud_control_xfer>
10009e80:	e052      	b.n	10009f28 <process_get_descriptor+0xd0>
10009e82:	4b2d      	ldr	r3, [pc, #180]	; (10009f38 <process_get_descriptor+0xe0>)
10009e84:	2b00      	cmp	r3, #0
10009e86:	d010      	beq.n	10009eaa <process_get_descriptor+0x52>
10009e88:	e000      	b.n	10009e8c <process_get_descriptor+0x34>
10009e8a:	bf00      	nop
10009e8c:	0006      	movs	r6, r0
10009e8e:	466b      	mov	r3, sp
10009e90:	1d9f      	adds	r7, r3, #6
10009e92:	1c81      	adds	r1, r0, #2
10009e94:	2202      	movs	r2, #2
10009e96:	0038      	movs	r0, r7
10009e98:	f7fe fe1c 	bl	10008ad4 <__wrap___aeabi_memcpy>
10009e9c:	883b      	ldrh	r3, [r7, #0]
10009e9e:	0032      	movs	r2, r6
10009ea0:	0021      	movs	r1, r4
10009ea2:	0028      	movs	r0, r5
10009ea4:	f000 fe58 	bl	1000ab58 <tud_control_xfer>
10009ea8:	e03e      	b.n	10009f28 <process_get_descriptor+0xd0>
10009eaa:	2000      	movs	r0, #0
10009eac:	e03c      	b.n	10009f28 <process_get_descriptor+0xd0>
10009eae:	f7f6 fb21 	bl	100004f4 <tud_descriptor_configuration_cb>
10009eb2:	1e06      	subs	r6, r0, #0
10009eb4:	d00d      	beq.n	10009ed2 <process_get_descriptor+0x7a>
10009eb6:	466b      	mov	r3, sp
10009eb8:	1d9f      	adds	r7, r3, #6
10009eba:	1c81      	adds	r1, r0, #2
10009ebc:	2202      	movs	r2, #2
10009ebe:	0038      	movs	r0, r7
10009ec0:	f7fe fe08 	bl	10008ad4 <__wrap___aeabi_memcpy>
10009ec4:	883b      	ldrh	r3, [r7, #0]
10009ec6:	0032      	movs	r2, r6
10009ec8:	0021      	movs	r1, r4
10009eca:	0028      	movs	r0, r5
10009ecc:	f000 fe44 	bl	1000ab58 <tud_control_xfer>
10009ed0:	e02a      	b.n	10009f28 <process_get_descriptor+0xd0>
10009ed2:	4a1a      	ldr	r2, [pc, #104]	; (10009f3c <process_get_descriptor+0xe4>)
10009ed4:	491a      	ldr	r1, [pc, #104]	; (10009f40 <process_get_descriptor+0xe8>)
10009ed6:	481b      	ldr	r0, [pc, #108]	; (10009f44 <process_get_descriptor+0xec>)
10009ed8:	f7fe ff30 	bl	10008d3c <__wrap_printf>
10009edc:	2000      	movs	r0, #0
10009ede:	e023      	b.n	10009f28 <process_get_descriptor+0xd0>
10009ee0:	790b      	ldrb	r3, [r1, #4]
10009ee2:	7949      	ldrb	r1, [r1, #5]
10009ee4:	0209      	lsls	r1, r1, #8
10009ee6:	4319      	orrs	r1, r3
10009ee8:	f7f6 fb2a 	bl	10000540 <tud_descriptor_string_cb>
10009eec:	1e02      	subs	r2, r0, #0
10009eee:	d01d      	beq.n	10009f2c <process_get_descriptor+0xd4>
10009ef0:	7803      	ldrb	r3, [r0, #0]
10009ef2:	0021      	movs	r1, r4
10009ef4:	0028      	movs	r0, r5
10009ef6:	f000 fe2f 	bl	1000ab58 <tud_control_xfer>
10009efa:	e015      	b.n	10009f28 <process_get_descriptor+0xd0>
10009efc:	4b12      	ldr	r3, [pc, #72]	; (10009f48 <process_get_descriptor+0xf0>)
10009efe:	2b00      	cmp	r3, #0
10009f00:	d016      	beq.n	10009f30 <process_get_descriptor+0xd8>
10009f02:	e000      	b.n	10009f06 <process_get_descriptor+0xae>
10009f04:	bf00      	nop
10009f06:	1e02      	subs	r2, r0, #0
10009f08:	d005      	beq.n	10009f16 <process_get_descriptor+0xbe>
10009f0a:	7803      	ldrb	r3, [r0, #0]
10009f0c:	0021      	movs	r1, r4
10009f0e:	0028      	movs	r0, r5
10009f10:	f000 fe22 	bl	1000ab58 <tud_control_xfer>
10009f14:	e008      	b.n	10009f28 <process_get_descriptor+0xd0>
10009f16:	32f0      	adds	r2, #240	; 0xf0
10009f18:	0092      	lsls	r2, r2, #2
10009f1a:	4909      	ldr	r1, [pc, #36]	; (10009f40 <process_get_descriptor+0xe8>)
10009f1c:	4809      	ldr	r0, [pc, #36]	; (10009f44 <process_get_descriptor+0xec>)
10009f1e:	f7fe ff0d 	bl	10008d3c <__wrap_printf>
10009f22:	2000      	movs	r0, #0
10009f24:	e000      	b.n	10009f28 <process_get_descriptor+0xd0>
10009f26:	2000      	movs	r0, #0
10009f28:	b003      	add	sp, #12
10009f2a:	bdf0      	pop	{r4, r5, r6, r7, pc}
10009f2c:	2000      	movs	r0, #0
10009f2e:	e7fb      	b.n	10009f28 <process_get_descriptor+0xd0>
10009f30:	2000      	movs	r0, #0
10009f32:	e7f9      	b.n	10009f28 <process_get_descriptor+0xd0>
10009f34:	1000def4 	.word	0x1000def4
10009f38:	00000000 	.word	0x00000000
10009f3c:	000003a2 	.word	0x000003a2
10009f40:	1000e014 	.word	0x1000e014
10009f44:	1000c9cc 	.word	0x1000c9cc
10009f48:	00000000 	.word	0x00000000

10009f4c <tud_mounted>:
10009f4c:	4b02      	ldr	r3, [pc, #8]	; (10009f58 <tud_mounted+0xc>)
10009f4e:	7858      	ldrb	r0, [r3, #1]
10009f50:	1e43      	subs	r3, r0, #1
10009f52:	4198      	sbcs	r0, r3
10009f54:	b2c0      	uxtb	r0, r0
10009f56:	4770      	bx	lr
10009f58:	200012e8 	.word	0x200012e8

10009f5c <tud_suspended>:
10009f5c:	4b02      	ldr	r3, [pc, #8]	; (10009f68 <tud_suspended+0xc>)
10009f5e:	7818      	ldrb	r0, [r3, #0]
10009f60:	0740      	lsls	r0, r0, #29
10009f62:	0fc0      	lsrs	r0, r0, #31
10009f64:	4770      	bx	lr
10009f66:	46c0      	nop			; (mov r8, r8)
10009f68:	200012e8 	.word	0x200012e8

10009f6c <tud_remote_wakeup>:
10009f6c:	b510      	push	{r4, lr}
10009f6e:	4b09      	ldr	r3, [pc, #36]	; (10009f94 <tud_remote_wakeup+0x28>)
10009f70:	781b      	ldrb	r3, [r3, #0]
10009f72:	075b      	lsls	r3, r3, #29
10009f74:	0fdc      	lsrs	r4, r3, #31
10009f76:	2b00      	cmp	r3, #0
10009f78:	da06      	bge.n	10009f88 <tud_remote_wakeup+0x1c>
10009f7a:	4b06      	ldr	r3, [pc, #24]	; (10009f94 <tud_remote_wakeup+0x28>)
10009f7c:	781a      	ldrb	r2, [r3, #0]
10009f7e:	2318      	movs	r3, #24
10009f80:	4013      	ands	r3, r2
10009f82:	2b18      	cmp	r3, #24
10009f84:	d002      	beq.n	10009f8c <tud_remote_wakeup+0x20>
10009f86:	2400      	movs	r4, #0
10009f88:	0020      	movs	r0, r4
10009f8a:	bd10      	pop	{r4, pc}
10009f8c:	2000      	movs	r0, #0
10009f8e:	f7ff fbf3 	bl	10009778 <dcd_remote_wakeup>
10009f92:	e7f9      	b.n	10009f88 <tud_remote_wakeup+0x1c>
10009f94:	200012e8 	.word	0x200012e8

10009f98 <tud_init>:
10009f98:	b510      	push	{r4, lr}
10009f9a:	2237      	movs	r2, #55	; 0x37
10009f9c:	2100      	movs	r1, #0
10009f9e:	4823      	ldr	r0, [pc, #140]	; (1000a02c <tud_init+0x94>)
10009fa0:	f7fe fd92 	bl	10008ac8 <__wrap_memset>
10009fa4:	4c22      	ldr	r4, [pc, #136]	; (1000a030 <tud_init+0x98>)
10009fa6:	0020      	movs	r0, r4
10009fa8:	f7fb fea2 	bl	10005cf0 <mutex_init>
10009fac:	4b21      	ldr	r3, [pc, #132]	; (1000a034 <tud_init+0x9c>)
10009fae:	601c      	str	r4, [r3, #0]
10009fb0:	4c21      	ldr	r4, [pc, #132]	; (1000a038 <tud_init+0xa0>)
10009fb2:	0020      	movs	r0, r4
10009fb4:	3018      	adds	r0, #24
10009fb6:	f7fb feae 	bl	10005d16 <critical_section_init>
10009fba:	0020      	movs	r0, r4
10009fbc:	f001 fc57 	bl	1000b86e <tu_fifo_clear>
10009fc0:	4b1e      	ldr	r3, [pc, #120]	; (1000a03c <tud_init+0xa4>)
10009fc2:	601c      	str	r4, [r3, #0]
10009fc4:	4b1e      	ldr	r3, [pc, #120]	; (1000a040 <tud_init+0xa8>)
10009fc6:	2b00      	cmp	r3, #0
10009fc8:	d004      	beq.n	10009fd4 <tud_init+0x3c>
10009fca:	481e      	ldr	r0, [pc, #120]	; (1000a044 <tud_init+0xac>)
10009fcc:	f7f6 fbce 	bl	1000076c <usbd_app_driver_get_cb>
10009fd0:	4b1d      	ldr	r3, [pc, #116]	; (1000a048 <tud_init+0xb0>)
10009fd2:	6018      	str	r0, [r3, #0]
10009fd4:	2400      	movs	r4, #0
10009fd6:	e011      	b.n	10009ffc <tud_init+0x64>
10009fd8:	00e3      	lsls	r3, r4, #3
10009fda:	1b1b      	subs	r3, r3, r4
10009fdc:	009a      	lsls	r2, r3, #2
10009fde:	4b1a      	ldr	r3, [pc, #104]	; (1000a048 <tud_init+0xb0>)
10009fe0:	681b      	ldr	r3, [r3, #0]
10009fe2:	189b      	adds	r3, r3, r2
10009fe4:	e006      	b.n	10009ff4 <tud_init+0x5c>
10009fe6:	0023      	movs	r3, r4
10009fe8:	e014      	b.n	1000a014 <tud_init+0x7c>
10009fea:	00da      	lsls	r2, r3, #3
10009fec:	1ad2      	subs	r2, r2, r3
10009fee:	0092      	lsls	r2, r2, #2
10009ff0:	4b16      	ldr	r3, [pc, #88]	; (1000a04c <tud_init+0xb4>)
10009ff2:	189b      	adds	r3, r3, r2
10009ff4:	681b      	ldr	r3, [r3, #0]
10009ff6:	4798      	blx	r3
10009ff8:	3401      	adds	r4, #1
10009ffa:	b2e4      	uxtb	r4, r4
10009ffc:	4b11      	ldr	r3, [pc, #68]	; (1000a044 <tud_init+0xac>)
10009ffe:	781b      	ldrb	r3, [r3, #0]
1000a000:	1c5a      	adds	r2, r3, #1
1000a002:	42a2      	cmp	r2, r4
1000a004:	db0a      	blt.n	1000a01c <tud_init+0x84>
1000a006:	4a0e      	ldr	r2, [pc, #56]	; (1000a040 <tud_init+0xa8>)
1000a008:	2a00      	cmp	r2, #0
1000a00a:	d0ec      	beq.n	10009fe6 <tud_init+0x4e>
1000a00c:	42a3      	cmp	r3, r4
1000a00e:	d8e3      	bhi.n	10009fd8 <tud_init+0x40>
1000a010:	1ae3      	subs	r3, r4, r3
1000a012:	b2db      	uxtb	r3, r3
1000a014:	2b01      	cmp	r3, #1
1000a016:	d9e8      	bls.n	10009fea <tud_init+0x52>
1000a018:	2300      	movs	r3, #0
1000a01a:	e7eb      	b.n	10009ff4 <tud_init+0x5c>
1000a01c:	2000      	movs	r0, #0
1000a01e:	f7ff fbcb 	bl	100097b8 <dcd_init>
1000a022:	2000      	movs	r0, #0
1000a024:	f7ff fb7a 	bl	1000971c <dcd_int_enable>
1000a028:	2001      	movs	r0, #1
1000a02a:	bd10      	pop	{r4, pc}
1000a02c:	200012e8 	.word	0x200012e8
1000a030:	200012a0 	.word	0x200012a0
1000a034:	20001320 	.word	0x20001320
1000a038:	20000b6c 	.word	0x20000b6c
1000a03c:	20001324 	.word	0x20001324
1000a040:	1000076d 	.word	0x1000076d
1000a044:	20002608 	.word	0x20002608
1000a048:	200010e4 	.word	0x200010e4
1000a04c:	1000e078 	.word	0x1000e078

1000a050 <dcd_event_handler>:
1000a050:	b510      	push	{r4, lr}
1000a052:	0001      	movs	r1, r0
1000a054:	7843      	ldrb	r3, [r0, #1]
1000a056:	2b04      	cmp	r3, #4
1000a058:	d100      	bne.n	1000a05c <dcd_event_handler+0xc>
1000a05a:	e06c      	b.n	1000a136 <dcd_event_handler+0xe6>
1000a05c:	d805      	bhi.n	1000a06a <dcd_event_handler+0x1a>
1000a05e:	2b02      	cmp	r3, #2
1000a060:	d032      	beq.n	1000a0c8 <dcd_event_handler+0x78>
1000a062:	2b03      	cmp	r3, #3
1000a064:	d000      	beq.n	1000a068 <dcd_event_handler+0x18>
1000a066:	e09f      	b.n	1000a1a8 <dcd_event_handler+0x158>
1000a068:	bd10      	pop	{r4, pc}
1000a06a:	2b05      	cmp	r3, #5
1000a06c:	d000      	beq.n	1000a070 <dcd_event_handler+0x20>
1000a06e:	e09b      	b.n	1000a1a8 <dcd_event_handler+0x158>
1000a070:	4b62      	ldr	r3, [pc, #392]	; (1000a1fc <dcd_event_handler+0x1ac>)
1000a072:	781b      	ldrb	r3, [r3, #0]
1000a074:	07db      	lsls	r3, r3, #31
1000a076:	d5f7      	bpl.n	1000a068 <dcd_event_handler+0x18>
1000a078:	4a60      	ldr	r2, [pc, #384]	; (1000a1fc <dcd_event_handler+0x1ac>)
1000a07a:	7813      	ldrb	r3, [r2, #0]
1000a07c:	2004      	movs	r0, #4
1000a07e:	4383      	bics	r3, r0
1000a080:	7013      	strb	r3, [r2, #0]
1000a082:	4b5f      	ldr	r3, [pc, #380]	; (1000a200 <dcd_event_handler+0x1b0>)
1000a084:	681c      	ldr	r4, [r3, #0]
1000a086:	6963      	ldr	r3, [r4, #20]
1000a088:	2b00      	cmp	r3, #0
1000a08a:	d000      	beq.n	1000a08e <dcd_event_handler+0x3e>
1000a08c:	e086      	b.n	1000a19c <dcd_event_handler+0x14c>
1000a08e:	69a2      	ldr	r2, [r4, #24]
1000a090:	f3ef 8010 	mrs	r0, PRIMASK
1000a094:	b672      	cpsid	i
1000a096:	6813      	ldr	r3, [r2, #0]
1000a098:	2b00      	cmp	r3, #0
1000a09a:	d0fc      	beq.n	1000a096 <dcd_event_handler+0x46>
1000a09c:	f3bf 8f5f 	dmb	sy
1000a0a0:	61e0      	str	r0, [r4, #28]
1000a0a2:	0020      	movs	r0, r4
1000a0a4:	f001 fb77 	bl	1000b796 <tu_fifo_write>
1000a0a8:	69a2      	ldr	r2, [r4, #24]
1000a0aa:	69e3      	ldr	r3, [r4, #28]
1000a0ac:	f3bf 8f5f 	dmb	sy
1000a0b0:	2100      	movs	r1, #0
1000a0b2:	6011      	str	r1, [r2, #0]
1000a0b4:	f383 8810 	msr	PRIMASK, r3
1000a0b8:	2800      	cmp	r0, #0
1000a0ba:	d1d5      	bne.n	1000a068 <dcd_event_handler+0x18>
1000a0bc:	22ad      	movs	r2, #173	; 0xad
1000a0be:	4951      	ldr	r1, [pc, #324]	; (1000a204 <dcd_event_handler+0x1b4>)
1000a0c0:	4851      	ldr	r0, [pc, #324]	; (1000a208 <dcd_event_handler+0x1b8>)
1000a0c2:	f7fe fe3b 	bl	10008d3c <__wrap_printf>
1000a0c6:	e7cf      	b.n	1000a068 <dcd_event_handler+0x18>
1000a0c8:	4b4c      	ldr	r3, [pc, #304]	; (1000a1fc <dcd_event_handler+0x1ac>)
1000a0ca:	781a      	ldrb	r2, [r3, #0]
1000a0cc:	2001      	movs	r0, #1
1000a0ce:	4382      	bics	r2, r0
1000a0d0:	701a      	strb	r2, [r3, #0]
1000a0d2:	781a      	ldrb	r2, [r3, #0]
1000a0d4:	3001      	adds	r0, #1
1000a0d6:	4382      	bics	r2, r0
1000a0d8:	701a      	strb	r2, [r3, #0]
1000a0da:	2200      	movs	r2, #0
1000a0dc:	705a      	strb	r2, [r3, #1]
1000a0de:	781a      	ldrb	r2, [r3, #0]
1000a0e0:	3002      	adds	r0, #2
1000a0e2:	4382      	bics	r2, r0
1000a0e4:	701a      	strb	r2, [r3, #0]
1000a0e6:	4b46      	ldr	r3, [pc, #280]	; (1000a200 <dcd_event_handler+0x1b0>)
1000a0e8:	681c      	ldr	r4, [r3, #0]
1000a0ea:	6963      	ldr	r3, [r4, #20]
1000a0ec:	2b00      	cmp	r3, #0
1000a0ee:	d11c      	bne.n	1000a12a <dcd_event_handler+0xda>
1000a0f0:	69a2      	ldr	r2, [r4, #24]
1000a0f2:	f3ef 8010 	mrs	r0, PRIMASK
1000a0f6:	b672      	cpsid	i
1000a0f8:	6813      	ldr	r3, [r2, #0]
1000a0fa:	2b00      	cmp	r3, #0
1000a0fc:	d0fc      	beq.n	1000a0f8 <dcd_event_handler+0xa8>
1000a0fe:	f3bf 8f5f 	dmb	sy
1000a102:	61e0      	str	r0, [r4, #28]
1000a104:	0020      	movs	r0, r4
1000a106:	f001 fb46 	bl	1000b796 <tu_fifo_write>
1000a10a:	69a2      	ldr	r2, [r4, #24]
1000a10c:	69e3      	ldr	r3, [r4, #28]
1000a10e:	f3bf 8f5f 	dmb	sy
1000a112:	2100      	movs	r1, #0
1000a114:	6011      	str	r1, [r2, #0]
1000a116:	f383 8810 	msr	PRIMASK, r3
1000a11a:	2800      	cmp	r0, #0
1000a11c:	d1a4      	bne.n	1000a068 <dcd_event_handler+0x18>
1000a11e:	22ad      	movs	r2, #173	; 0xad
1000a120:	4938      	ldr	r1, [pc, #224]	; (1000a204 <dcd_event_handler+0x1b4>)
1000a122:	4839      	ldr	r0, [pc, #228]	; (1000a208 <dcd_event_handler+0x1b8>)
1000a124:	f7fe fe0a 	bl	10008d3c <__wrap_printf>
1000a128:	e79e      	b.n	1000a068 <dcd_event_handler+0x18>
1000a12a:	4b38      	ldr	r3, [pc, #224]	; (1000a20c <dcd_event_handler+0x1bc>)
1000a12c:	4a35      	ldr	r2, [pc, #212]	; (1000a204 <dcd_event_handler+0x1b4>)
1000a12e:	21a7      	movs	r1, #167	; 0xa7
1000a130:	4837      	ldr	r0, [pc, #220]	; (1000a210 <dcd_event_handler+0x1c0>)
1000a132:	f7fc f877 	bl	10006224 <__assert_func>
1000a136:	4b31      	ldr	r3, [pc, #196]	; (1000a1fc <dcd_event_handler+0x1ac>)
1000a138:	781b      	ldrb	r3, [r3, #0]
1000a13a:	07db      	lsls	r3, r3, #31
1000a13c:	d400      	bmi.n	1000a140 <dcd_event_handler+0xf0>
1000a13e:	e793      	b.n	1000a068 <dcd_event_handler+0x18>
1000a140:	4a2e      	ldr	r2, [pc, #184]	; (1000a1fc <dcd_event_handler+0x1ac>)
1000a142:	7813      	ldrb	r3, [r2, #0]
1000a144:	2004      	movs	r0, #4
1000a146:	4303      	orrs	r3, r0
1000a148:	7013      	strb	r3, [r2, #0]
1000a14a:	4b2d      	ldr	r3, [pc, #180]	; (1000a200 <dcd_event_handler+0x1b0>)
1000a14c:	681c      	ldr	r4, [r3, #0]
1000a14e:	6963      	ldr	r3, [r4, #20]
1000a150:	2b00      	cmp	r3, #0
1000a152:	d11d      	bne.n	1000a190 <dcd_event_handler+0x140>
1000a154:	69a2      	ldr	r2, [r4, #24]
1000a156:	f3ef 8010 	mrs	r0, PRIMASK
1000a15a:	b672      	cpsid	i
1000a15c:	6813      	ldr	r3, [r2, #0]
1000a15e:	2b00      	cmp	r3, #0
1000a160:	d0fc      	beq.n	1000a15c <dcd_event_handler+0x10c>
1000a162:	f3bf 8f5f 	dmb	sy
1000a166:	61e0      	str	r0, [r4, #28]
1000a168:	0020      	movs	r0, r4
1000a16a:	f001 fb14 	bl	1000b796 <tu_fifo_write>
1000a16e:	69a2      	ldr	r2, [r4, #24]
1000a170:	69e3      	ldr	r3, [r4, #28]
1000a172:	f3bf 8f5f 	dmb	sy
1000a176:	2100      	movs	r1, #0
1000a178:	6011      	str	r1, [r2, #0]
1000a17a:	f383 8810 	msr	PRIMASK, r3
1000a17e:	2800      	cmp	r0, #0
1000a180:	d000      	beq.n	1000a184 <dcd_event_handler+0x134>
1000a182:	e771      	b.n	1000a068 <dcd_event_handler+0x18>
1000a184:	22ad      	movs	r2, #173	; 0xad
1000a186:	491f      	ldr	r1, [pc, #124]	; (1000a204 <dcd_event_handler+0x1b4>)
1000a188:	481f      	ldr	r0, [pc, #124]	; (1000a208 <dcd_event_handler+0x1b8>)
1000a18a:	f7fe fdd7 	bl	10008d3c <__wrap_printf>
1000a18e:	e76b      	b.n	1000a068 <dcd_event_handler+0x18>
1000a190:	4b1e      	ldr	r3, [pc, #120]	; (1000a20c <dcd_event_handler+0x1bc>)
1000a192:	4a1c      	ldr	r2, [pc, #112]	; (1000a204 <dcd_event_handler+0x1b4>)
1000a194:	21a7      	movs	r1, #167	; 0xa7
1000a196:	481e      	ldr	r0, [pc, #120]	; (1000a210 <dcd_event_handler+0x1c0>)
1000a198:	f7fc f844 	bl	10006224 <__assert_func>
1000a19c:	4b1b      	ldr	r3, [pc, #108]	; (1000a20c <dcd_event_handler+0x1bc>)
1000a19e:	4a19      	ldr	r2, [pc, #100]	; (1000a204 <dcd_event_handler+0x1b4>)
1000a1a0:	21a7      	movs	r1, #167	; 0xa7
1000a1a2:	481b      	ldr	r0, [pc, #108]	; (1000a210 <dcd_event_handler+0x1c0>)
1000a1a4:	f7fc f83e 	bl	10006224 <__assert_func>
1000a1a8:	4b15      	ldr	r3, [pc, #84]	; (1000a200 <dcd_event_handler+0x1b0>)
1000a1aa:	681c      	ldr	r4, [r3, #0]
1000a1ac:	6963      	ldr	r3, [r4, #20]
1000a1ae:	2b00      	cmp	r3, #0
1000a1b0:	d11d      	bne.n	1000a1ee <dcd_event_handler+0x19e>
1000a1b2:	69a2      	ldr	r2, [r4, #24]
1000a1b4:	f3ef 8010 	mrs	r0, PRIMASK
1000a1b8:	b672      	cpsid	i
1000a1ba:	6813      	ldr	r3, [r2, #0]
1000a1bc:	2b00      	cmp	r3, #0
1000a1be:	d0fc      	beq.n	1000a1ba <dcd_event_handler+0x16a>
1000a1c0:	f3bf 8f5f 	dmb	sy
1000a1c4:	61e0      	str	r0, [r4, #28]
1000a1c6:	0020      	movs	r0, r4
1000a1c8:	f001 fae5 	bl	1000b796 <tu_fifo_write>
1000a1cc:	69a2      	ldr	r2, [r4, #24]
1000a1ce:	69e3      	ldr	r3, [r4, #28]
1000a1d0:	f3bf 8f5f 	dmb	sy
1000a1d4:	2100      	movs	r1, #0
1000a1d6:	6011      	str	r1, [r2, #0]
1000a1d8:	f383 8810 	msr	PRIMASK, r3
1000a1dc:	2800      	cmp	r0, #0
1000a1de:	d000      	beq.n	1000a1e2 <dcd_event_handler+0x192>
1000a1e0:	e742      	b.n	1000a068 <dcd_event_handler+0x18>
1000a1e2:	22ad      	movs	r2, #173	; 0xad
1000a1e4:	4907      	ldr	r1, [pc, #28]	; (1000a204 <dcd_event_handler+0x1b4>)
1000a1e6:	4808      	ldr	r0, [pc, #32]	; (1000a208 <dcd_event_handler+0x1b8>)
1000a1e8:	f7fe fda8 	bl	10008d3c <__wrap_printf>
1000a1ec:	e73c      	b.n	1000a068 <dcd_event_handler+0x18>
1000a1ee:	4b07      	ldr	r3, [pc, #28]	; (1000a20c <dcd_event_handler+0x1bc>)
1000a1f0:	4a04      	ldr	r2, [pc, #16]	; (1000a204 <dcd_event_handler+0x1b4>)
1000a1f2:	21a7      	movs	r1, #167	; 0xa7
1000a1f4:	4806      	ldr	r0, [pc, #24]	; (1000a210 <dcd_event_handler+0x1c0>)
1000a1f6:	f7fc f815 	bl	10006224 <__assert_func>
1000a1fa:	46c0      	nop			; (mov r8, r8)
1000a1fc:	200012e8 	.word	0x200012e8
1000a200:	20001324 	.word	0x20001324
1000a204:	1000e004 	.word	0x1000e004
1000a208:	1000c9cc 	.word	0x1000c9cc
1000a20c:	1000df34 	.word	0x1000df34
1000a210:	1000df44 	.word	0x1000df44

1000a214 <dcd_event_bus_signal>:
1000a214:	b570      	push	{r4, r5, r6, lr}
1000a216:	b084      	sub	sp, #16
1000a218:	0006      	movs	r6, r0
1000a21a:	000d      	movs	r5, r1
1000a21c:	0014      	movs	r4, r2
1000a21e:	220c      	movs	r2, #12
1000a220:	2100      	movs	r1, #0
1000a222:	a801      	add	r0, sp, #4
1000a224:	f7fe fc50 	bl	10008ac8 <__wrap_memset>
1000a228:	466b      	mov	r3, sp
1000a22a:	711e      	strb	r6, [r3, #4]
1000a22c:	715d      	strb	r5, [r3, #5]
1000a22e:	0021      	movs	r1, r4
1000a230:	a801      	add	r0, sp, #4
1000a232:	f7ff ff0d 	bl	1000a050 <dcd_event_handler>
1000a236:	b004      	add	sp, #16
1000a238:	bd70      	pop	{r4, r5, r6, pc}

1000a23a <dcd_event_setup_received>:
1000a23a:	b570      	push	{r4, r5, r6, lr}
1000a23c:	b084      	sub	sp, #16
1000a23e:	0006      	movs	r6, r0
1000a240:	000d      	movs	r5, r1
1000a242:	0014      	movs	r4, r2
1000a244:	220c      	movs	r2, #12
1000a246:	2100      	movs	r1, #0
1000a248:	a801      	add	r0, sp, #4
1000a24a:	f7fe fc3d 	bl	10008ac8 <__wrap_memset>
1000a24e:	466b      	mov	r3, sp
1000a250:	711e      	strb	r6, [r3, #4]
1000a252:	2306      	movs	r3, #6
1000a254:	466a      	mov	r2, sp
1000a256:	7153      	strb	r3, [r2, #5]
1000a258:	2208      	movs	r2, #8
1000a25a:	0029      	movs	r1, r5
1000a25c:	a802      	add	r0, sp, #8
1000a25e:	f7fe fc39 	bl	10008ad4 <__wrap___aeabi_memcpy>
1000a262:	0021      	movs	r1, r4
1000a264:	a801      	add	r0, sp, #4
1000a266:	f7ff fef3 	bl	1000a050 <dcd_event_handler>
1000a26a:	b004      	add	sp, #16
1000a26c:	bd70      	pop	{r4, r5, r6, pc}

1000a26e <dcd_event_xfer_complete>:
1000a26e:	b5f0      	push	{r4, r5, r6, r7, lr}
1000a270:	46ce      	mov	lr, r9
1000a272:	4647      	mov	r7, r8
1000a274:	b580      	push	{r7, lr}
1000a276:	b085      	sub	sp, #20
1000a278:	4680      	mov	r8, r0
1000a27a:	000f      	movs	r7, r1
1000a27c:	0016      	movs	r6, r2
1000a27e:	001d      	movs	r5, r3
1000a280:	ab0c      	add	r3, sp, #48	; 0x30
1000a282:	781b      	ldrb	r3, [r3, #0]
1000a284:	4699      	mov	r9, r3
1000a286:	ac01      	add	r4, sp, #4
1000a288:	220c      	movs	r2, #12
1000a28a:	2100      	movs	r1, #0
1000a28c:	0020      	movs	r0, r4
1000a28e:	f7fe fc1b 	bl	10008ac8 <__wrap_memset>
1000a292:	4643      	mov	r3, r8
1000a294:	7023      	strb	r3, [r4, #0]
1000a296:	2307      	movs	r3, #7
1000a298:	7063      	strb	r3, [r4, #1]
1000a29a:	7127      	strb	r7, [r4, #4]
1000a29c:	9603      	str	r6, [sp, #12]
1000a29e:	7165      	strb	r5, [r4, #5]
1000a2a0:	4649      	mov	r1, r9
1000a2a2:	0020      	movs	r0, r4
1000a2a4:	f7ff fed4 	bl	1000a050 <dcd_event_handler>
1000a2a8:	b005      	add	sp, #20
1000a2aa:	bcc0      	pop	{r6, r7}
1000a2ac:	46b9      	mov	r9, r7
1000a2ae:	46b0      	mov	r8, r6
1000a2b0:	bdf0      	pop	{r4, r5, r6, r7, pc}

1000a2b2 <usbd_edpt_open>:
1000a2b2:	b510      	push	{r4, lr}
1000a2b4:	f7ff faea 	bl	1000988c <dcd_edpt_open>
1000a2b8:	bd10      	pop	{r4, pc}
	...

1000a2bc <usbd_open_edpt_pair>:
1000a2bc:	b5f0      	push	{r4, r5, r6, r7, lr}
1000a2be:	46d6      	mov	lr, sl
1000a2c0:	464f      	mov	r7, r9
1000a2c2:	4646      	mov	r6, r8
1000a2c4:	b5c0      	push	{r6, r7, lr}
1000a2c6:	4681      	mov	r9, r0
1000a2c8:	000c      	movs	r4, r1
1000a2ca:	0017      	movs	r7, r2
1000a2cc:	4698      	mov	r8, r3
1000a2ce:	9b08      	ldr	r3, [sp, #32]
1000a2d0:	469a      	mov	sl, r3
1000a2d2:	2500      	movs	r5, #0
1000a2d4:	e016      	b.n	1000a304 <usbd_open_edpt_pair+0x48>
1000a2d6:	4a18      	ldr	r2, [pc, #96]	; (1000a338 <usbd_open_edpt_pair+0x7c>)
1000a2d8:	4918      	ldr	r1, [pc, #96]	; (1000a33c <usbd_open_edpt_pair+0x80>)
1000a2da:	4819      	ldr	r0, [pc, #100]	; (1000a340 <usbd_open_edpt_pair+0x84>)
1000a2dc:	f7fe fd2e 	bl	10008d3c <__wrap_printf>
1000a2e0:	2600      	movs	r6, #0
1000a2e2:	0030      	movs	r0, r6
1000a2e4:	bce0      	pop	{r5, r6, r7}
1000a2e6:	46ba      	mov	sl, r7
1000a2e8:	46b1      	mov	r9, r6
1000a2ea:	46a8      	mov	r8, r5
1000a2ec:	bdf0      	pop	{r4, r5, r6, r7, pc}
1000a2ee:	4a15      	ldr	r2, [pc, #84]	; (1000a344 <usbd_open_edpt_pair+0x88>)
1000a2f0:	4912      	ldr	r1, [pc, #72]	; (1000a33c <usbd_open_edpt_pair+0x80>)
1000a2f2:	4813      	ldr	r0, [pc, #76]	; (1000a340 <usbd_open_edpt_pair+0x84>)
1000a2f4:	f7fe fd22 	bl	10008d3c <__wrap_printf>
1000a2f8:	e7f3      	b.n	1000a2e2 <usbd_open_edpt_pair+0x26>
1000a2fa:	9a09      	ldr	r2, [sp, #36]	; 0x24
1000a2fc:	7013      	strb	r3, [r2, #0]
1000a2fe:	7823      	ldrb	r3, [r4, #0]
1000a300:	18e4      	adds	r4, r4, r3
1000a302:	3501      	adds	r5, #1
1000a304:	42af      	cmp	r7, r5
1000a306:	dd14      	ble.n	1000a332 <usbd_open_edpt_pair+0x76>
1000a308:	7863      	ldrb	r3, [r4, #1]
1000a30a:	2b05      	cmp	r3, #5
1000a30c:	d1e3      	bne.n	1000a2d6 <usbd_open_edpt_pair+0x1a>
1000a30e:	78e1      	ldrb	r1, [r4, #3]
1000a310:	0789      	lsls	r1, r1, #30
1000a312:	0f89      	lsrs	r1, r1, #30
1000a314:	4541      	cmp	r1, r8
1000a316:	d1de      	bne.n	1000a2d6 <usbd_open_edpt_pair+0x1a>
1000a318:	0021      	movs	r1, r4
1000a31a:	4648      	mov	r0, r9
1000a31c:	f7ff ffc9 	bl	1000a2b2 <usbd_edpt_open>
1000a320:	1e06      	subs	r6, r0, #0
1000a322:	d0e4      	beq.n	1000a2ee <usbd_open_edpt_pair+0x32>
1000a324:	78a3      	ldrb	r3, [r4, #2]
1000a326:	09da      	lsrs	r2, r3, #7
1000a328:	2a01      	cmp	r2, #1
1000a32a:	d0e6      	beq.n	1000a2fa <usbd_open_edpt_pair+0x3e>
1000a32c:	4652      	mov	r2, sl
1000a32e:	7013      	strb	r3, [r2, #0]
1000a330:	e7e5      	b.n	1000a2fe <usbd_open_edpt_pair+0x42>
1000a332:	2601      	movs	r6, #1
1000a334:	e7d5      	b.n	1000a2e2 <usbd_open_edpt_pair+0x26>
1000a336:	46c0      	nop			; (mov r8, r8)
1000a338:	0000042d 	.word	0x0000042d
1000a33c:	1000dff0 	.word	0x1000dff0
1000a340:	1000c9cc 	.word	0x1000c9cc
1000a344:	0000042e 	.word	0x0000042e

1000a348 <usbd_edpt_claim>:
1000a348:	b570      	push	{r4, r5, r6, lr}
1000a34a:	257f      	movs	r5, #127	; 0x7f
1000a34c:	400d      	ands	r5, r1
1000a34e:	09cc      	lsrs	r4, r1, #7
1000a350:	006a      	lsls	r2, r5, #1
1000a352:	4b1e      	ldr	r3, [pc, #120]	; (1000a3cc <usbd_edpt_claim+0x84>)
1000a354:	189b      	adds	r3, r3, r2
1000a356:	191b      	adds	r3, r3, r4
1000a358:	3320      	adds	r3, #32
1000a35a:	795b      	ldrb	r3, [r3, #5]
1000a35c:	07db      	lsls	r3, r3, #31
1000a35e:	0fde      	lsrs	r6, r3, #31
1000a360:	2b00      	cmp	r3, #0
1000a362:	d130      	bne.n	1000a3c6 <usbd_edpt_claim+0x7e>
1000a364:	4b19      	ldr	r3, [pc, #100]	; (1000a3cc <usbd_edpt_claim+0x84>)
1000a366:	189b      	adds	r3, r3, r2
1000a368:	191b      	adds	r3, r3, r4
1000a36a:	3320      	adds	r3, #32
1000a36c:	795b      	ldrb	r3, [r3, #5]
1000a36e:	075b      	lsls	r3, r3, #29
1000a370:	d42a      	bmi.n	1000a3c8 <usbd_edpt_claim+0x80>
1000a372:	4b17      	ldr	r3, [pc, #92]	; (1000a3d0 <usbd_edpt_claim+0x88>)
1000a374:	6818      	ldr	r0, [r3, #0]
1000a376:	2101      	movs	r1, #1
1000a378:	4249      	negs	r1, r1
1000a37a:	f001 fba1 	bl	1000bac0 <__mutex_enter_timeout_ms_veneer>
1000a37e:	006a      	lsls	r2, r5, #1
1000a380:	4b12      	ldr	r3, [pc, #72]	; (1000a3cc <usbd_edpt_claim+0x84>)
1000a382:	189b      	adds	r3, r3, r2
1000a384:	191b      	adds	r3, r3, r4
1000a386:	3320      	adds	r3, #32
1000a388:	795b      	ldrb	r3, [r3, #5]
1000a38a:	07db      	lsls	r3, r3, #31
1000a38c:	d408      	bmi.n	1000a3a0 <usbd_edpt_claim+0x58>
1000a38e:	4b0f      	ldr	r3, [pc, #60]	; (1000a3cc <usbd_edpt_claim+0x84>)
1000a390:	189b      	adds	r3, r3, r2
1000a392:	191b      	adds	r3, r3, r4
1000a394:	3320      	adds	r3, #32
1000a396:	795b      	ldrb	r3, [r3, #5]
1000a398:	075b      	lsls	r3, r3, #29
1000a39a:	d512      	bpl.n	1000a3c2 <usbd_edpt_claim+0x7a>
1000a39c:	2600      	movs	r6, #0
1000a39e:	e000      	b.n	1000a3a2 <usbd_edpt_claim+0x5a>
1000a3a0:	2600      	movs	r6, #0
1000a3a2:	2e00      	cmp	r6, #0
1000a3a4:	d008      	beq.n	1000a3b8 <usbd_edpt_claim+0x70>
1000a3a6:	006d      	lsls	r5, r5, #1
1000a3a8:	4908      	ldr	r1, [pc, #32]	; (1000a3cc <usbd_edpt_claim+0x84>)
1000a3aa:	194d      	adds	r5, r1, r5
1000a3ac:	192c      	adds	r4, r5, r4
1000a3ae:	3420      	adds	r4, #32
1000a3b0:	7963      	ldrb	r3, [r4, #5]
1000a3b2:	2204      	movs	r2, #4
1000a3b4:	4313      	orrs	r3, r2
1000a3b6:	7163      	strb	r3, [r4, #5]
1000a3b8:	4b05      	ldr	r3, [pc, #20]	; (1000a3d0 <usbd_edpt_claim+0x88>)
1000a3ba:	6818      	ldr	r0, [r3, #0]
1000a3bc:	f001 fb50 	bl	1000ba60 <__mutex_exit_veneer>
1000a3c0:	e002      	b.n	1000a3c8 <usbd_edpt_claim+0x80>
1000a3c2:	2601      	movs	r6, #1
1000a3c4:	e7ed      	b.n	1000a3a2 <usbd_edpt_claim+0x5a>
1000a3c6:	2600      	movs	r6, #0
1000a3c8:	0030      	movs	r0, r6
1000a3ca:	bd70      	pop	{r4, r5, r6, pc}
1000a3cc:	200012e8 	.word	0x200012e8
1000a3d0:	20001320 	.word	0x20001320

1000a3d4 <usbd_edpt_release>:
1000a3d4:	b570      	push	{r4, r5, r6, lr}
1000a3d6:	257f      	movs	r5, #127	; 0x7f
1000a3d8:	400d      	ands	r5, r1
1000a3da:	09cc      	lsrs	r4, r1, #7
1000a3dc:	4b15      	ldr	r3, [pc, #84]	; (1000a434 <usbd_edpt_release+0x60>)
1000a3de:	6818      	ldr	r0, [r3, #0]
1000a3e0:	2101      	movs	r1, #1
1000a3e2:	4249      	negs	r1, r1
1000a3e4:	f001 fb6c 	bl	1000bac0 <__mutex_enter_timeout_ms_veneer>
1000a3e8:	006a      	lsls	r2, r5, #1
1000a3ea:	4b13      	ldr	r3, [pc, #76]	; (1000a438 <usbd_edpt_release+0x64>)
1000a3ec:	189b      	adds	r3, r3, r2
1000a3ee:	191b      	adds	r3, r3, r4
1000a3f0:	3320      	adds	r3, #32
1000a3f2:	795b      	ldrb	r3, [r3, #5]
1000a3f4:	07db      	lsls	r3, r3, #31
1000a3f6:	d408      	bmi.n	1000a40a <usbd_edpt_release+0x36>
1000a3f8:	4b0f      	ldr	r3, [pc, #60]	; (1000a438 <usbd_edpt_release+0x64>)
1000a3fa:	189b      	adds	r3, r3, r2
1000a3fc:	191b      	adds	r3, r3, r4
1000a3fe:	3320      	adds	r3, #32
1000a400:	795b      	ldrb	r3, [r3, #5]
1000a402:	075b      	lsls	r3, r3, #29
1000a404:	d413      	bmi.n	1000a42e <usbd_edpt_release+0x5a>
1000a406:	2600      	movs	r6, #0
1000a408:	e000      	b.n	1000a40c <usbd_edpt_release+0x38>
1000a40a:	2600      	movs	r6, #0
1000a40c:	2e00      	cmp	r6, #0
1000a40e:	d008      	beq.n	1000a422 <usbd_edpt_release+0x4e>
1000a410:	0069      	lsls	r1, r5, #1
1000a412:	4d09      	ldr	r5, [pc, #36]	; (1000a438 <usbd_edpt_release+0x64>)
1000a414:	186d      	adds	r5, r5, r1
1000a416:	192c      	adds	r4, r5, r4
1000a418:	3420      	adds	r4, #32
1000a41a:	7963      	ldrb	r3, [r4, #5]
1000a41c:	2204      	movs	r2, #4
1000a41e:	4393      	bics	r3, r2
1000a420:	7163      	strb	r3, [r4, #5]
1000a422:	4b04      	ldr	r3, [pc, #16]	; (1000a434 <usbd_edpt_release+0x60>)
1000a424:	6818      	ldr	r0, [r3, #0]
1000a426:	f001 fb1b 	bl	1000ba60 <__mutex_exit_veneer>
1000a42a:	0030      	movs	r0, r6
1000a42c:	bd70      	pop	{r4, r5, r6, pc}
1000a42e:	2601      	movs	r6, #1
1000a430:	e7ec      	b.n	1000a40c <usbd_edpt_release+0x38>
1000a432:	46c0      	nop			; (mov r8, r8)
1000a434:	20001320 	.word	0x20001320
1000a438:	200012e8 	.word	0x200012e8

1000a43c <usbd_edpt_xfer>:
1000a43c:	b5f0      	push	{r4, r5, r6, r7, lr}
1000a43e:	46c6      	mov	lr, r8
1000a440:	b500      	push	{lr}
1000a442:	b082      	sub	sp, #8
1000a444:	9301      	str	r3, [sp, #4]
1000a446:	257f      	movs	r5, #127	; 0x7f
1000a448:	400d      	ands	r5, r1
1000a44a:	09ce      	lsrs	r6, r1, #7
1000a44c:	006f      	lsls	r7, r5, #1
1000a44e:	4c17      	ldr	r4, [pc, #92]	; (1000a4ac <usbd_edpt_xfer+0x70>)
1000a450:	19e4      	adds	r4, r4, r7
1000a452:	19a4      	adds	r4, r4, r6
1000a454:	3420      	adds	r4, #32
1000a456:	7964      	ldrb	r4, [r4, #5]
1000a458:	07e4      	lsls	r4, r4, #31
1000a45a:	d41d      	bmi.n	1000a498 <usbd_edpt_xfer+0x5c>
1000a45c:	006f      	lsls	r7, r5, #1
1000a45e:	4c13      	ldr	r4, [pc, #76]	; (1000a4ac <usbd_edpt_xfer+0x70>)
1000a460:	19e4      	adds	r4, r4, r7
1000a462:	19a4      	adds	r4, r4, r6
1000a464:	3420      	adds	r4, #32
1000a466:	7963      	ldrb	r3, [r4, #5]
1000a468:	2701      	movs	r7, #1
1000a46a:	46bc      	mov	ip, r7
1000a46c:	4667      	mov	r7, ip
1000a46e:	433b      	orrs	r3, r7
1000a470:	7163      	strb	r3, [r4, #5]
1000a472:	9b01      	ldr	r3, [sp, #4]
1000a474:	f7ff fa2a 	bl	100098cc <dcd_edpt_xfer>
1000a478:	2800      	cmp	r0, #0
1000a47a:	d113      	bne.n	1000a4a4 <usbd_edpt_xfer+0x68>
1000a47c:	006d      	lsls	r5, r5, #1
1000a47e:	4b0b      	ldr	r3, [pc, #44]	; (1000a4ac <usbd_edpt_xfer+0x70>)
1000a480:	195d      	adds	r5, r3, r5
1000a482:	19ae      	adds	r6, r5, r6
1000a484:	3620      	adds	r6, #32
1000a486:	7973      	ldrb	r3, [r6, #5]
1000a488:	2201      	movs	r2, #1
1000a48a:	4393      	bics	r3, r2
1000a48c:	7173      	strb	r3, [r6, #5]
1000a48e:	7973      	ldrb	r3, [r6, #5]
1000a490:	3203      	adds	r2, #3
1000a492:	4393      	bics	r3, r2
1000a494:	7173      	strb	r3, [r6, #5]
1000a496:	e005      	b.n	1000a4a4 <usbd_edpt_xfer+0x68>
1000a498:	4a05      	ldr	r2, [pc, #20]	; (1000a4b0 <usbd_edpt_xfer+0x74>)
1000a49a:	4906      	ldr	r1, [pc, #24]	; (1000a4b4 <usbd_edpt_xfer+0x78>)
1000a49c:	4806      	ldr	r0, [pc, #24]	; (1000a4b8 <usbd_edpt_xfer+0x7c>)
1000a49e:	f7fe fc4d 	bl	10008d3c <__wrap_printf>
1000a4a2:	2000      	movs	r0, #0
1000a4a4:	b002      	add	sp, #8
1000a4a6:	bc80      	pop	{r7}
1000a4a8:	46b8      	mov	r8, r7
1000a4aa:	bdf0      	pop	{r4, r5, r6, r7, pc}
1000a4ac:	200012e8 	.word	0x200012e8
1000a4b0:	00000495 	.word	0x00000495
1000a4b4:	1000dfe0 	.word	0x1000dfe0
1000a4b8:	1000c9cc 	.word	0x1000c9cc

1000a4bc <usbd_edpt_busy>:
1000a4bc:	227f      	movs	r2, #127	; 0x7f
1000a4be:	400a      	ands	r2, r1
1000a4c0:	09cb      	lsrs	r3, r1, #7
1000a4c2:	0052      	lsls	r2, r2, #1
1000a4c4:	4903      	ldr	r1, [pc, #12]	; (1000a4d4 <usbd_edpt_busy+0x18>)
1000a4c6:	1889      	adds	r1, r1, r2
1000a4c8:	18c9      	adds	r1, r1, r3
1000a4ca:	3120      	adds	r1, #32
1000a4cc:	7948      	ldrb	r0, [r1, #5]
1000a4ce:	07c0      	lsls	r0, r0, #31
1000a4d0:	0fc0      	lsrs	r0, r0, #31
1000a4d2:	4770      	bx	lr
1000a4d4:	200012e8 	.word	0x200012e8

1000a4d8 <usbd_edpt_stall>:
1000a4d8:	b570      	push	{r4, r5, r6, lr}
1000a4da:	247f      	movs	r4, #127	; 0x7f
1000a4dc:	400c      	ands	r4, r1
1000a4de:	09cd      	lsrs	r5, r1, #7
1000a4e0:	f7ff fa0e 	bl	10009900 <dcd_edpt_stall>
1000a4e4:	0064      	lsls	r4, r4, #1
1000a4e6:	4b06      	ldr	r3, [pc, #24]	; (1000a500 <usbd_edpt_stall+0x28>)
1000a4e8:	191b      	adds	r3, r3, r4
1000a4ea:	195b      	adds	r3, r3, r5
1000a4ec:	3320      	adds	r3, #32
1000a4ee:	795a      	ldrb	r2, [r3, #5]
1000a4f0:	2102      	movs	r1, #2
1000a4f2:	430a      	orrs	r2, r1
1000a4f4:	715a      	strb	r2, [r3, #5]
1000a4f6:	795a      	ldrb	r2, [r3, #5]
1000a4f8:	2101      	movs	r1, #1
1000a4fa:	430a      	orrs	r2, r1
1000a4fc:	715a      	strb	r2, [r3, #5]
1000a4fe:	bd70      	pop	{r4, r5, r6, pc}
1000a500:	200012e8 	.word	0x200012e8

1000a504 <usbd_edpt_clear_stall>:
1000a504:	b570      	push	{r4, r5, r6, lr}
1000a506:	247f      	movs	r4, #127	; 0x7f
1000a508:	400c      	ands	r4, r1
1000a50a:	09cd      	lsrs	r5, r1, #7
1000a50c:	f7ff fa0c 	bl	10009928 <dcd_edpt_clear_stall>
1000a510:	0064      	lsls	r4, r4, #1
1000a512:	4b06      	ldr	r3, [pc, #24]	; (1000a52c <usbd_edpt_clear_stall+0x28>)
1000a514:	191b      	adds	r3, r3, r4
1000a516:	195b      	adds	r3, r3, r5
1000a518:	3320      	adds	r3, #32
1000a51a:	795a      	ldrb	r2, [r3, #5]
1000a51c:	2102      	movs	r1, #2
1000a51e:	438a      	bics	r2, r1
1000a520:	715a      	strb	r2, [r3, #5]
1000a522:	795a      	ldrb	r2, [r3, #5]
1000a524:	3901      	subs	r1, #1
1000a526:	438a      	bics	r2, r1
1000a528:	715a      	strb	r2, [r3, #5]
1000a52a:	bd70      	pop	{r4, r5, r6, pc}
1000a52c:	200012e8 	.word	0x200012e8

1000a530 <usbd_edpt_stalled>:
1000a530:	227f      	movs	r2, #127	; 0x7f
1000a532:	400a      	ands	r2, r1
1000a534:	09cb      	lsrs	r3, r1, #7
1000a536:	0052      	lsls	r2, r2, #1
1000a538:	4903      	ldr	r1, [pc, #12]	; (1000a548 <usbd_edpt_stalled+0x18>)
1000a53a:	1889      	adds	r1, r1, r2
1000a53c:	18c9      	adds	r1, r1, r3
1000a53e:	3120      	adds	r1, #32
1000a540:	7948      	ldrb	r0, [r1, #5]
1000a542:	0780      	lsls	r0, r0, #30
1000a544:	0fc0      	lsrs	r0, r0, #31
1000a546:	4770      	bx	lr
1000a548:	200012e8 	.word	0x200012e8

1000a54c <process_control_request>:
1000a54c:	b5f0      	push	{r4, r5, r6, r7, lr}
1000a54e:	46c6      	mov	lr, r8
1000a550:	b500      	push	{lr}
1000a552:	b082      	sub	sp, #8
1000a554:	0005      	movs	r5, r0
1000a556:	000c      	movs	r4, r1
1000a558:	2000      	movs	r0, #0
1000a55a:	f000 fb5b 	bl	1000ac14 <usbd_control_set_complete_callback>
1000a55e:	7822      	ldrb	r2, [r4, #0]
1000a560:	2360      	movs	r3, #96	; 0x60
1000a562:	4013      	ands	r3, r2
1000a564:	2b60      	cmp	r3, #96	; 0x60
1000a566:	d012      	beq.n	1000a58e <process_control_request+0x42>
1000a568:	2b40      	cmp	r3, #64	; 0x40
1000a56a:	d017      	beq.n	1000a59c <process_control_request+0x50>
1000a56c:	7822      	ldrb	r2, [r4, #0]
1000a56e:	06d2      	lsls	r2, r2, #27
1000a570:	0ed2      	lsrs	r2, r2, #27
1000a572:	2a01      	cmp	r2, #1
1000a574:	d100      	bne.n	1000a578 <process_control_request+0x2c>
1000a576:	e0cb      	b.n	1000a710 <process_control_request+0x1c4>
1000a578:	2a02      	cmp	r2, #2
1000a57a:	d100      	bne.n	1000a57e <process_control_request+0x32>
1000a57c:	e106      	b.n	1000a78c <process_control_request+0x240>
1000a57e:	2a00      	cmp	r2, #0
1000a580:	d01c      	beq.n	1000a5bc <process_control_request+0x70>
1000a582:	2600      	movs	r6, #0
1000a584:	0030      	movs	r0, r6
1000a586:	b002      	add	sp, #8
1000a588:	bc80      	pop	{r7}
1000a58a:	46b8      	mov	r8, r7
1000a58c:	bdf0      	pop	{r4, r5, r6, r7, pc}
1000a58e:	4ac0      	ldr	r2, [pc, #768]	; (1000a890 <process_control_request+0x344>)
1000a590:	49c0      	ldr	r1, [pc, #768]	; (1000a894 <process_control_request+0x348>)
1000a592:	48c1      	ldr	r0, [pc, #772]	; (1000a898 <process_control_request+0x34c>)
1000a594:	f7fe fbd2 	bl	10008d3c <__wrap_printf>
1000a598:	2600      	movs	r6, #0
1000a59a:	e7f3      	b.n	1000a584 <process_control_request+0x38>
1000a59c:	4bbf      	ldr	r3, [pc, #764]	; (1000a89c <process_control_request+0x350>)
1000a59e:	2b00      	cmp	r3, #0
1000a5a0:	d100      	bne.n	1000a5a4 <process_control_request+0x58>
1000a5a2:	e167      	b.n	1000a874 <process_control_request+0x328>
1000a5a4:	4bbe      	ldr	r3, [pc, #760]	; (1000a8a0 <process_control_request+0x354>)
1000a5a6:	2b00      	cmp	r3, #0
1000a5a8:	d002      	beq.n	1000a5b0 <process_control_request+0x64>
1000a5aa:	0018      	movs	r0, r3
1000a5ac:	f000 fb32 	bl	1000ac14 <usbd_control_set_complete_callback>
1000a5b0:	0021      	movs	r1, r4
1000a5b2:	0028      	movs	r0, r5
1000a5b4:	f7f5 fe96 	bl	100002e4 <tud_vendor_control_request_cb>
1000a5b8:	0006      	movs	r6, r0
1000a5ba:	e7e3      	b.n	1000a584 <process_control_request+0x38>
1000a5bc:	2b20      	cmp	r3, #32
1000a5be:	d00a      	beq.n	1000a5d6 <process_control_request+0x8a>
1000a5c0:	2b00      	cmp	r3, #0
1000a5c2:	d000      	beq.n	1000a5c6 <process_control_request+0x7a>
1000a5c4:	e15c      	b.n	1000a880 <process_control_request+0x334>
1000a5c6:	7863      	ldrb	r3, [r4, #1]
1000a5c8:	2b09      	cmp	r3, #9
1000a5ca:	d900      	bls.n	1000a5ce <process_control_request+0x82>
1000a5cc:	e15a      	b.n	1000a884 <process_control_request+0x338>
1000a5ce:	009b      	lsls	r3, r3, #2
1000a5d0:	4ab4      	ldr	r2, [pc, #720]	; (1000a8a4 <process_control_request+0x358>)
1000a5d2:	58d3      	ldr	r3, [r2, r3]
1000a5d4:	469f      	mov	pc, r3
1000a5d6:	7923      	ldrb	r3, [r4, #4]
1000a5d8:	2b0f      	cmp	r3, #15
1000a5da:	d900      	bls.n	1000a5de <process_control_request+0x92>
1000a5dc:	e14c      	b.n	1000a878 <process_control_request+0x32c>
1000a5de:	4ab2      	ldr	r2, [pc, #712]	; (1000a8a8 <process_control_request+0x35c>)
1000a5e0:	18d3      	adds	r3, r2, r3
1000a5e2:	78db      	ldrb	r3, [r3, #3]
1000a5e4:	4ab1      	ldr	r2, [pc, #708]	; (1000a8ac <process_control_request+0x360>)
1000a5e6:	2a00      	cmp	r2, #0
1000a5e8:	d005      	beq.n	1000a5f6 <process_control_request+0xaa>
1000a5ea:	4ab1      	ldr	r2, [pc, #708]	; (1000a8b0 <process_control_request+0x364>)
1000a5ec:	7812      	ldrb	r2, [r2, #0]
1000a5ee:	4293      	cmp	r3, r2
1000a5f0:	d305      	bcc.n	1000a5fe <process_control_request+0xb2>
1000a5f2:	1a9b      	subs	r3, r3, r2
1000a5f4:	b2db      	uxtb	r3, r3
1000a5f6:	2b01      	cmp	r3, #1
1000a5f8:	d908      	bls.n	1000a60c <process_control_request+0xc0>
1000a5fa:	2600      	movs	r6, #0
1000a5fc:	e7c2      	b.n	1000a584 <process_control_request+0x38>
1000a5fe:	00d9      	lsls	r1, r3, #3
1000a600:	1acb      	subs	r3, r1, r3
1000a602:	009b      	lsls	r3, r3, #2
1000a604:	4aab      	ldr	r2, [pc, #684]	; (1000a8b4 <process_control_request+0x368>)
1000a606:	6811      	ldr	r1, [r2, #0]
1000a608:	18c9      	adds	r1, r1, r3
1000a60a:	e004      	b.n	1000a616 <process_control_request+0xca>
1000a60c:	00d9      	lsls	r1, r3, #3
1000a60e:	1acb      	subs	r3, r1, r3
1000a610:	009b      	lsls	r3, r3, #2
1000a612:	49a9      	ldr	r1, [pc, #676]	; (1000a8b8 <process_control_request+0x36c>)
1000a614:	18c9      	adds	r1, r1, r3
1000a616:	2900      	cmp	r1, #0
1000a618:	d100      	bne.n	1000a61c <process_control_request+0xd0>
1000a61a:	e12f      	b.n	1000a87c <process_control_request+0x330>
1000a61c:	0022      	movs	r2, r4
1000a61e:	0028      	movs	r0, r5
1000a620:	f7ff fb1e 	bl	10009c60 <invoke_class_control>
1000a624:	0006      	movs	r6, r0
1000a626:	e7ad      	b.n	1000a584 <process_control_request+0x38>
1000a628:	0020      	movs	r0, r4
1000a62a:	f000 faf9 	bl	1000ac20 <usbd_control_set_request>
1000a62e:	78a1      	ldrb	r1, [r4, #2]
1000a630:	0028      	movs	r0, r5
1000a632:	f7ff f889 	bl	10009748 <dcd_set_address>
1000a636:	4a9c      	ldr	r2, [pc, #624]	; (1000a8a8 <process_control_request+0x35c>)
1000a638:	7813      	ldrb	r3, [r2, #0]
1000a63a:	2102      	movs	r1, #2
1000a63c:	430b      	orrs	r3, r1
1000a63e:	7013      	strb	r3, [r2, #0]
1000a640:	2601      	movs	r6, #1
1000a642:	e79f      	b.n	1000a584 <process_control_request+0x38>
1000a644:	4b98      	ldr	r3, [pc, #608]	; (1000a8a8 <process_control_request+0x35c>)
1000a646:	785b      	ldrb	r3, [r3, #1]
1000a648:	466a      	mov	r2, sp
1000a64a:	3206      	adds	r2, #6
1000a64c:	7013      	strb	r3, [r2, #0]
1000a64e:	2301      	movs	r3, #1
1000a650:	0021      	movs	r1, r4
1000a652:	0028      	movs	r0, r5
1000a654:	f000 fa80 	bl	1000ab58 <tud_control_xfer>
1000a658:	2601      	movs	r6, #1
1000a65a:	e793      	b.n	1000a584 <process_control_request+0x38>
1000a65c:	78a7      	ldrb	r7, [r4, #2]
1000a65e:	4b92      	ldr	r3, [pc, #584]	; (1000a8a8 <process_control_request+0x35c>)
1000a660:	785b      	ldrb	r3, [r3, #1]
1000a662:	2b00      	cmp	r3, #0
1000a664:	d101      	bne.n	1000a66a <process_control_request+0x11e>
1000a666:	2f00      	cmp	r7, #0
1000a668:	d107      	bne.n	1000a67a <process_control_request+0x12e>
1000a66a:	4b8f      	ldr	r3, [pc, #572]	; (1000a8a8 <process_control_request+0x35c>)
1000a66c:	705f      	strb	r7, [r3, #1]
1000a66e:	0021      	movs	r1, r4
1000a670:	0028      	movs	r0, r5
1000a672:	f000 fa55 	bl	1000ab20 <tud_control_status>
1000a676:	2601      	movs	r6, #1
1000a678:	e784      	b.n	1000a584 <process_control_request+0x38>
1000a67a:	0039      	movs	r1, r7
1000a67c:	0028      	movs	r0, r5
1000a67e:	f7ff fafb 	bl	10009c78 <process_set_config>
1000a682:	1e06      	subs	r6, r0, #0
1000a684:	d1f1      	bne.n	1000a66a <process_control_request+0x11e>
1000a686:	4a8d      	ldr	r2, [pc, #564]	; (1000a8bc <process_control_request+0x370>)
1000a688:	4982      	ldr	r1, [pc, #520]	; (1000a894 <process_control_request+0x348>)
1000a68a:	4883      	ldr	r0, [pc, #524]	; (1000a898 <process_control_request+0x34c>)
1000a68c:	f7fe fb56 	bl	10008d3c <__wrap_printf>
1000a690:	e778      	b.n	1000a584 <process_control_request+0x38>
1000a692:	0021      	movs	r1, r4
1000a694:	0028      	movs	r0, r5
1000a696:	f7ff fbdf 	bl	10009e58 <process_get_descriptor>
1000a69a:	0006      	movs	r6, r0
1000a69c:	e772      	b.n	1000a584 <process_control_request+0x38>
1000a69e:	78a2      	ldrb	r2, [r4, #2]
1000a6a0:	78e3      	ldrb	r3, [r4, #3]
1000a6a2:	021b      	lsls	r3, r3, #8
1000a6a4:	4313      	orrs	r3, r2
1000a6a6:	2b01      	cmp	r3, #1
1000a6a8:	d001      	beq.n	1000a6ae <process_control_request+0x162>
1000a6aa:	2600      	movs	r6, #0
1000a6ac:	e76a      	b.n	1000a584 <process_control_request+0x38>
1000a6ae:	4a7e      	ldr	r2, [pc, #504]	; (1000a8a8 <process_control_request+0x35c>)
1000a6b0:	7813      	ldrb	r3, [r2, #0]
1000a6b2:	2108      	movs	r1, #8
1000a6b4:	430b      	orrs	r3, r1
1000a6b6:	7013      	strb	r3, [r2, #0]
1000a6b8:	0021      	movs	r1, r4
1000a6ba:	0028      	movs	r0, r5
1000a6bc:	f000 fa30 	bl	1000ab20 <tud_control_status>
1000a6c0:	2601      	movs	r6, #1
1000a6c2:	e75f      	b.n	1000a584 <process_control_request+0x38>
1000a6c4:	78a2      	ldrb	r2, [r4, #2]
1000a6c6:	78e3      	ldrb	r3, [r4, #3]
1000a6c8:	021b      	lsls	r3, r3, #8
1000a6ca:	4313      	orrs	r3, r2
1000a6cc:	2b01      	cmp	r3, #1
1000a6ce:	d001      	beq.n	1000a6d4 <process_control_request+0x188>
1000a6d0:	2600      	movs	r6, #0
1000a6d2:	e757      	b.n	1000a584 <process_control_request+0x38>
1000a6d4:	4a74      	ldr	r2, [pc, #464]	; (1000a8a8 <process_control_request+0x35c>)
1000a6d6:	7813      	ldrb	r3, [r2, #0]
1000a6d8:	2108      	movs	r1, #8
1000a6da:	438b      	bics	r3, r1
1000a6dc:	7013      	strb	r3, [r2, #0]
1000a6de:	0021      	movs	r1, r4
1000a6e0:	0028      	movs	r0, r5
1000a6e2:	f000 fa1d 	bl	1000ab20 <tud_control_status>
1000a6e6:	2601      	movs	r6, #1
1000a6e8:	e74c      	b.n	1000a584 <process_control_request+0x38>
1000a6ea:	4b6f      	ldr	r3, [pc, #444]	; (1000a8a8 <process_control_request+0x35c>)
1000a6ec:	781a      	ldrb	r2, [r3, #0]
1000a6ee:	0951      	lsrs	r1, r2, #5
1000a6f0:	0892      	lsrs	r2, r2, #2
1000a6f2:	2302      	movs	r3, #2
1000a6f4:	4013      	ands	r3, r2
1000a6f6:	2201      	movs	r2, #1
1000a6f8:	400a      	ands	r2, r1
1000a6fa:	4313      	orrs	r3, r2
1000a6fc:	466a      	mov	r2, sp
1000a6fe:	3206      	adds	r2, #6
1000a700:	8013      	strh	r3, [r2, #0]
1000a702:	2302      	movs	r3, #2
1000a704:	0021      	movs	r1, r4
1000a706:	0028      	movs	r0, r5
1000a708:	f000 fa26 	bl	1000ab58 <tud_control_xfer>
1000a70c:	2601      	movs	r6, #1
1000a70e:	e739      	b.n	1000a584 <process_control_request+0x38>
1000a710:	7923      	ldrb	r3, [r4, #4]
1000a712:	2b0f      	cmp	r3, #15
1000a714:	d900      	bls.n	1000a718 <process_control_request+0x1cc>
1000a716:	e0b7      	b.n	1000a888 <process_control_request+0x33c>
1000a718:	4a63      	ldr	r2, [pc, #396]	; (1000a8a8 <process_control_request+0x35c>)
1000a71a:	18d3      	adds	r3, r2, r3
1000a71c:	78db      	ldrb	r3, [r3, #3]
1000a71e:	4a63      	ldr	r2, [pc, #396]	; (1000a8ac <process_control_request+0x360>)
1000a720:	2a00      	cmp	r2, #0
1000a722:	d005      	beq.n	1000a730 <process_control_request+0x1e4>
1000a724:	4a62      	ldr	r2, [pc, #392]	; (1000a8b0 <process_control_request+0x364>)
1000a726:	7812      	ldrb	r2, [r2, #0]
1000a728:	4293      	cmp	r3, r2
1000a72a:	d305      	bcc.n	1000a738 <process_control_request+0x1ec>
1000a72c:	1a9b      	subs	r3, r3, r2
1000a72e:	b2db      	uxtb	r3, r3
1000a730:	2b01      	cmp	r3, #1
1000a732:	d908      	bls.n	1000a746 <process_control_request+0x1fa>
1000a734:	2600      	movs	r6, #0
1000a736:	e725      	b.n	1000a584 <process_control_request+0x38>
1000a738:	00d9      	lsls	r1, r3, #3
1000a73a:	1acb      	subs	r3, r1, r3
1000a73c:	009b      	lsls	r3, r3, #2
1000a73e:	4a5d      	ldr	r2, [pc, #372]	; (1000a8b4 <process_control_request+0x368>)
1000a740:	6811      	ldr	r1, [r2, #0]
1000a742:	18c9      	adds	r1, r1, r3
1000a744:	e004      	b.n	1000a750 <process_control_request+0x204>
1000a746:	00d9      	lsls	r1, r3, #3
1000a748:	1acb      	subs	r3, r1, r3
1000a74a:	009b      	lsls	r3, r3, #2
1000a74c:	495a      	ldr	r1, [pc, #360]	; (1000a8b8 <process_control_request+0x36c>)
1000a74e:	18c9      	adds	r1, r1, r3
1000a750:	2900      	cmp	r1, #0
1000a752:	d100      	bne.n	1000a756 <process_control_request+0x20a>
1000a754:	e09a      	b.n	1000a88c <process_control_request+0x340>
1000a756:	0022      	movs	r2, r4
1000a758:	0028      	movs	r0, r5
1000a75a:	f7ff fa81 	bl	10009c60 <invoke_class_control>
1000a75e:	1e06      	subs	r6, r0, #0
1000a760:	d000      	beq.n	1000a764 <process_control_request+0x218>
1000a762:	e70f      	b.n	1000a584 <process_control_request+0x38>
1000a764:	7823      	ldrb	r3, [r4, #0]
1000a766:	2260      	movs	r2, #96	; 0x60
1000a768:	421a      	tst	r2, r3
1000a76a:	d000      	beq.n	1000a76e <process_control_request+0x222>
1000a76c:	e70a      	b.n	1000a584 <process_control_request+0x38>
1000a76e:	7863      	ldrb	r3, [r4, #1]
1000a770:	2b0a      	cmp	r3, #10
1000a772:	d000      	beq.n	1000a776 <process_control_request+0x22a>
1000a774:	e706      	b.n	1000a584 <process_control_request+0x38>
1000a776:	466b      	mov	r3, sp
1000a778:	1d9a      	adds	r2, r3, #6
1000a77a:	2300      	movs	r3, #0
1000a77c:	7013      	strb	r3, [r2, #0]
1000a77e:	3301      	adds	r3, #1
1000a780:	0021      	movs	r1, r4
1000a782:	0028      	movs	r0, r5
1000a784:	f000 f9e8 	bl	1000ab58 <tud_control_xfer>
1000a788:	3601      	adds	r6, #1
1000a78a:	e6fb      	b.n	1000a584 <process_control_request+0x38>
1000a78c:	7921      	ldrb	r1, [r4, #4]
1000a78e:	277f      	movs	r7, #127	; 0x7f
1000a790:	400f      	ands	r7, r1
1000a792:	09ca      	lsrs	r2, r1, #7
1000a794:	4690      	mov	r8, r2
1000a796:	2f08      	cmp	r7, #8
1000a798:	d80a      	bhi.n	1000a7b0 <process_control_request+0x264>
1000a79a:	2b00      	cmp	r3, #0
1000a79c:	d13a      	bne.n	1000a814 <process_control_request+0x2c8>
1000a79e:	7863      	ldrb	r3, [r4, #1]
1000a7a0:	2b01      	cmp	r3, #1
1000a7a2:	d019      	beq.n	1000a7d8 <process_control_request+0x28c>
1000a7a4:	2b03      	cmp	r3, #3
1000a7a6:	d026      	beq.n	1000a7f6 <process_control_request+0x2aa>
1000a7a8:	2b00      	cmp	r3, #0
1000a7aa:	d008      	beq.n	1000a7be <process_control_request+0x272>
1000a7ac:	2600      	movs	r6, #0
1000a7ae:	e6e9      	b.n	1000a584 <process_control_request+0x38>
1000a7b0:	4a43      	ldr	r2, [pc, #268]	; (1000a8c0 <process_control_request+0x374>)
1000a7b2:	4938      	ldr	r1, [pc, #224]	; (1000a894 <process_control_request+0x348>)
1000a7b4:	4838      	ldr	r0, [pc, #224]	; (1000a898 <process_control_request+0x34c>)
1000a7b6:	f7fe fac1 	bl	10008d3c <__wrap_printf>
1000a7ba:	2600      	movs	r6, #0
1000a7bc:	e6e2      	b.n	1000a584 <process_control_request+0x38>
1000a7be:	0028      	movs	r0, r5
1000a7c0:	f7ff feb6 	bl	1000a530 <usbd_edpt_stalled>
1000a7c4:	466b      	mov	r3, sp
1000a7c6:	1d9a      	adds	r2, r3, #6
1000a7c8:	8010      	strh	r0, [r2, #0]
1000a7ca:	2302      	movs	r3, #2
1000a7cc:	0021      	movs	r1, r4
1000a7ce:	0028      	movs	r0, r5
1000a7d0:	f000 f9c2 	bl	1000ab58 <tud_control_xfer>
1000a7d4:	2601      	movs	r6, #1
1000a7d6:	e01e      	b.n	1000a816 <process_control_request+0x2ca>
1000a7d8:	78a0      	ldrb	r0, [r4, #2]
1000a7da:	78e3      	ldrb	r3, [r4, #3]
1000a7dc:	021b      	lsls	r3, r3, #8
1000a7de:	4303      	orrs	r3, r0
1000a7e0:	d005      	beq.n	1000a7ee <process_control_request+0x2a2>
1000a7e2:	0021      	movs	r1, r4
1000a7e4:	0028      	movs	r0, r5
1000a7e6:	f000 f99b 	bl	1000ab20 <tud_control_status>
1000a7ea:	2601      	movs	r6, #1
1000a7ec:	e013      	b.n	1000a816 <process_control_request+0x2ca>
1000a7ee:	0028      	movs	r0, r5
1000a7f0:	f7ff fe88 	bl	1000a504 <usbd_edpt_clear_stall>
1000a7f4:	e7f5      	b.n	1000a7e2 <process_control_request+0x296>
1000a7f6:	78a0      	ldrb	r0, [r4, #2]
1000a7f8:	78e3      	ldrb	r3, [r4, #3]
1000a7fa:	021b      	lsls	r3, r3, #8
1000a7fc:	4303      	orrs	r3, r0
1000a7fe:	d005      	beq.n	1000a80c <process_control_request+0x2c0>
1000a800:	0021      	movs	r1, r4
1000a802:	0028      	movs	r0, r5
1000a804:	f000 f98c 	bl	1000ab20 <tud_control_status>
1000a808:	2601      	movs	r6, #1
1000a80a:	e004      	b.n	1000a816 <process_control_request+0x2ca>
1000a80c:	0028      	movs	r0, r5
1000a80e:	f7ff fe63 	bl	1000a4d8 <usbd_edpt_stall>
1000a812:	e7f5      	b.n	1000a800 <process_control_request+0x2b4>
1000a814:	2600      	movs	r6, #0
1000a816:	007b      	lsls	r3, r7, #1
1000a818:	4f23      	ldr	r7, [pc, #140]	; (1000a8a8 <process_control_request+0x35c>)
1000a81a:	18ff      	adds	r7, r7, r3
1000a81c:	4447      	add	r7, r8
1000a81e:	7cfb      	ldrb	r3, [r7, #19]
1000a820:	4a22      	ldr	r2, [pc, #136]	; (1000a8ac <process_control_request+0x360>)
1000a822:	2a00      	cmp	r2, #0
1000a824:	d005      	beq.n	1000a832 <process_control_request+0x2e6>
1000a826:	4a22      	ldr	r2, [pc, #136]	; (1000a8b0 <process_control_request+0x364>)
1000a828:	7812      	ldrb	r2, [r2, #0]
1000a82a:	4293      	cmp	r3, r2
1000a82c:	d30c      	bcc.n	1000a848 <process_control_request+0x2fc>
1000a82e:	1a9b      	subs	r3, r3, r2
1000a830:	b2db      	uxtb	r3, r3
1000a832:	2b01      	cmp	r3, #1
1000a834:	d90f      	bls.n	1000a856 <process_control_request+0x30a>
1000a836:	7823      	ldrb	r3, [r4, #0]
1000a838:	2260      	movs	r2, #96	; 0x60
1000a83a:	421a      	tst	r2, r3
1000a83c:	d000      	beq.n	1000a840 <process_control_request+0x2f4>
1000a83e:	e6a1      	b.n	1000a584 <process_control_request+0x38>
1000a840:	2000      	movs	r0, #0
1000a842:	f000 f9e7 	bl	1000ac14 <usbd_control_set_complete_callback>
1000a846:	e69d      	b.n	1000a584 <process_control_request+0x38>
1000a848:	00d9      	lsls	r1, r3, #3
1000a84a:	1acb      	subs	r3, r1, r3
1000a84c:	009b      	lsls	r3, r3, #2
1000a84e:	4a19      	ldr	r2, [pc, #100]	; (1000a8b4 <process_control_request+0x368>)
1000a850:	6811      	ldr	r1, [r2, #0]
1000a852:	18c9      	adds	r1, r1, r3
1000a854:	e004      	b.n	1000a860 <process_control_request+0x314>
1000a856:	00d9      	lsls	r1, r3, #3
1000a858:	1acb      	subs	r3, r1, r3
1000a85a:	009b      	lsls	r3, r3, #2
1000a85c:	4916      	ldr	r1, [pc, #88]	; (1000a8b8 <process_control_request+0x36c>)
1000a85e:	18c9      	adds	r1, r1, r3
1000a860:	2900      	cmp	r1, #0
1000a862:	d0e8      	beq.n	1000a836 <process_control_request+0x2ea>
1000a864:	0022      	movs	r2, r4
1000a866:	0028      	movs	r0, r5
1000a868:	f7ff f9fa 	bl	10009c60 <invoke_class_control>
1000a86c:	2800      	cmp	r0, #0
1000a86e:	d0e2      	beq.n	1000a836 <process_control_request+0x2ea>
1000a870:	0006      	movs	r6, r0
1000a872:	e7e0      	b.n	1000a836 <process_control_request+0x2ea>
1000a874:	2600      	movs	r6, #0
1000a876:	e685      	b.n	1000a584 <process_control_request+0x38>
1000a878:	2600      	movs	r6, #0
1000a87a:	e683      	b.n	1000a584 <process_control_request+0x38>
1000a87c:	2600      	movs	r6, #0
1000a87e:	e681      	b.n	1000a584 <process_control_request+0x38>
1000a880:	2600      	movs	r6, #0
1000a882:	e67f      	b.n	1000a584 <process_control_request+0x38>
1000a884:	2600      	movs	r6, #0
1000a886:	e67d      	b.n	1000a584 <process_control_request+0x38>
1000a888:	2600      	movs	r6, #0
1000a88a:	e67b      	b.n	1000a584 <process_control_request+0x38>
1000a88c:	2600      	movs	r6, #0
1000a88e:	e679      	b.n	1000a584 <process_control_request+0x38>
1000a890:	00000243 	.word	0x00000243
1000a894:	1000e040 	.word	0x1000e040
1000a898:	1000c9cc 	.word	0x1000c9cc
1000a89c:	100002e5 	.word	0x100002e5
1000a8a0:	1000041d 	.word	0x1000041d
1000a8a4:	1000df94 	.word	0x1000df94
1000a8a8:	200012e8 	.word	0x200012e8
1000a8ac:	1000076d 	.word	0x1000076d
1000a8b0:	20002608 	.word	0x20002608
1000a8b4:	200010e4 	.word	0x200010e4
1000a8b8:	1000e078 	.word	0x1000e078
1000a8bc:	00000283 	.word	0x00000283
1000a8c0:	000002ce 	.word	0x000002ce

1000a8c4 <tud_task>:
1000a8c4:	b530      	push	{r4, r5, lr}
1000a8c6:	b085      	sub	sp, #20
1000a8c8:	f000 fe04 	bl	1000b4d4 <tusb_inited>
1000a8cc:	2800      	cmp	r0, #0
1000a8ce:	d10e      	bne.n	1000a8ee <tud_task+0x2a>
1000a8d0:	b005      	add	sp, #20
1000a8d2:	bd30      	pop	{r4, r5, pc}
1000a8d4:	4b6c      	ldr	r3, [pc, #432]	; (1000aa88 <tud_task+0x1c4>)
1000a8d6:	4a6d      	ldr	r2, [pc, #436]	; (1000aa8c <tud_task+0x1c8>)
1000a8d8:	2199      	movs	r1, #153	; 0x99
1000a8da:	486d      	ldr	r0, [pc, #436]	; (1000aa90 <tud_task+0x1cc>)
1000a8dc:	f7fb fca2 	bl	10006224 <__assert_func>
1000a8e0:	ac01      	add	r4, sp, #4
1000a8e2:	7820      	ldrb	r0, [r4, #0]
1000a8e4:	f7ff f976 	bl	10009bd4 <usbd_reset>
1000a8e8:	7922      	ldrb	r2, [r4, #4]
1000a8ea:	4b6a      	ldr	r3, [pc, #424]	; (1000aa94 <tud_task+0x1d0>)
1000a8ec:	709a      	strb	r2, [r3, #2]
1000a8ee:	4b6a      	ldr	r3, [pc, #424]	; (1000aa98 <tud_task+0x1d4>)
1000a8f0:	681c      	ldr	r4, [r3, #0]
1000a8f2:	6965      	ldr	r5, [r4, #20]
1000a8f4:	2d00      	cmp	r5, #0
1000a8f6:	d1ed      	bne.n	1000a8d4 <tud_task+0x10>
1000a8f8:	69a2      	ldr	r2, [r4, #24]
1000a8fa:	f3ef 8110 	mrs	r1, PRIMASK
1000a8fe:	b672      	cpsid	i
1000a900:	6813      	ldr	r3, [r2, #0]
1000a902:	2b00      	cmp	r3, #0
1000a904:	d0fc      	beq.n	1000a900 <tud_task+0x3c>
1000a906:	f3bf 8f5f 	dmb	sy
1000a90a:	61e1      	str	r1, [r4, #28]
1000a90c:	a901      	add	r1, sp, #4
1000a90e:	0020      	movs	r0, r4
1000a910:	f000 ff05 	bl	1000b71e <tu_fifo_read>
1000a914:	69a2      	ldr	r2, [r4, #24]
1000a916:	69e3      	ldr	r3, [r4, #28]
1000a918:	f3bf 8f5f 	dmb	sy
1000a91c:	2100      	movs	r1, #0
1000a91e:	6011      	str	r1, [r2, #0]
1000a920:	f383 8810 	msr	PRIMASK, r3
1000a924:	2800      	cmp	r0, #0
1000a926:	d0d3      	beq.n	1000a8d0 <tud_task+0xc>
1000a928:	ab01      	add	r3, sp, #4
1000a92a:	785b      	ldrb	r3, [r3, #1]
1000a92c:	2b08      	cmp	r3, #8
1000a92e:	d8de      	bhi.n	1000a8ee <tud_task+0x2a>
1000a930:	009b      	lsls	r3, r3, #2
1000a932:	4a5a      	ldr	r2, [pc, #360]	; (1000aa9c <tud_task+0x1d8>)
1000a934:	58d3      	ldr	r3, [r2, r3]
1000a936:	469f      	mov	pc, r3
1000a938:	ab01      	add	r3, sp, #4
1000a93a:	7818      	ldrb	r0, [r3, #0]
1000a93c:	f7ff f94a 	bl	10009bd4 <usbd_reset>
1000a940:	4b57      	ldr	r3, [pc, #348]	; (1000aaa0 <tud_task+0x1dc>)
1000a942:	2b00      	cmp	r3, #0
1000a944:	d0d3      	beq.n	1000a8ee <tud_task+0x2a>
1000a946:	e000      	b.n	1000a94a <tud_task+0x86>
1000a948:	bf00      	nop
1000a94a:	e7d0      	b.n	1000a8ee <tud_task+0x2a>
1000a94c:	4a51      	ldr	r2, [pc, #324]	; (1000aa94 <tud_task+0x1d0>)
1000a94e:	7813      	ldrb	r3, [r2, #0]
1000a950:	2101      	movs	r1, #1
1000a952:	430b      	orrs	r3, r1
1000a954:	7013      	strb	r3, [r2, #0]
1000a956:	ab01      	add	r3, sp, #4
1000a958:	7818      	ldrb	r0, [r3, #0]
1000a95a:	a902      	add	r1, sp, #8
1000a95c:	f7ff fdf6 	bl	1000a54c <process_control_request>
1000a960:	2800      	cmp	r0, #0
1000a962:	d1c4      	bne.n	1000a8ee <tud_task+0x2a>
1000a964:	ac01      	add	r4, sp, #4
1000a966:	7820      	ldrb	r0, [r4, #0]
1000a968:	2100      	movs	r1, #0
1000a96a:	f7fe ffc9 	bl	10009900 <dcd_edpt_stall>
1000a96e:	7820      	ldrb	r0, [r4, #0]
1000a970:	2180      	movs	r1, #128	; 0x80
1000a972:	f7fe ffc5 	bl	10009900 <dcd_edpt_stall>
1000a976:	e7ba      	b.n	1000a8ee <tud_task+0x2a>
1000a978:	ab01      	add	r3, sp, #4
1000a97a:	7919      	ldrb	r1, [r3, #4]
1000a97c:	227f      	movs	r2, #127	; 0x7f
1000a97e:	400a      	ands	r2, r1
1000a980:	09cc      	lsrs	r4, r1, #7
1000a982:	0050      	lsls	r0, r2, #1
1000a984:	4b43      	ldr	r3, [pc, #268]	; (1000aa94 <tud_task+0x1d0>)
1000a986:	181b      	adds	r3, r3, r0
1000a988:	191b      	adds	r3, r3, r4
1000a98a:	3320      	adds	r3, #32
1000a98c:	7958      	ldrb	r0, [r3, #5]
1000a98e:	2501      	movs	r5, #1
1000a990:	43a8      	bics	r0, r5
1000a992:	7158      	strb	r0, [r3, #5]
1000a994:	7958      	ldrb	r0, [r3, #5]
1000a996:	3503      	adds	r5, #3
1000a998:	43a8      	bics	r0, r5
1000a99a:	7158      	strb	r0, [r3, #5]
1000a99c:	2a00      	cmp	r2, #0
1000a99e:	d015      	beq.n	1000a9cc <tud_task+0x108>
1000a9a0:	0052      	lsls	r2, r2, #1
1000a9a2:	4b3c      	ldr	r3, [pc, #240]	; (1000aa94 <tud_task+0x1d0>)
1000a9a4:	189a      	adds	r2, r3, r2
1000a9a6:	1912      	adds	r2, r2, r4
1000a9a8:	7cd3      	ldrb	r3, [r2, #19]
1000a9aa:	4a3e      	ldr	r2, [pc, #248]	; (1000aaa4 <tud_task+0x1e0>)
1000a9ac:	2a00      	cmp	r2, #0
1000a9ae:	d005      	beq.n	1000a9bc <tud_task+0xf8>
1000a9b0:	4a3d      	ldr	r2, [pc, #244]	; (1000aaa8 <tud_task+0x1e4>)
1000a9b2:	7812      	ldrb	r2, [r2, #0]
1000a9b4:	4293      	cmp	r3, r2
1000a9b6:	d310      	bcc.n	1000a9da <tud_task+0x116>
1000a9b8:	1a9b      	subs	r3, r3, r2
1000a9ba:	b2db      	uxtb	r3, r3
1000a9bc:	2b01      	cmp	r3, #1
1000a9be:	d913      	bls.n	1000a9e8 <tud_task+0x124>
1000a9c0:	4a3a      	ldr	r2, [pc, #232]	; (1000aaac <tud_task+0x1e8>)
1000a9c2:	493b      	ldr	r1, [pc, #236]	; (1000aab0 <tud_task+0x1ec>)
1000a9c4:	483b      	ldr	r0, [pc, #236]	; (1000aab4 <tud_task+0x1f0>)
1000a9c6:	f7fe f9b9 	bl	10008d3c <__wrap_printf>
1000a9ca:	e781      	b.n	1000a8d0 <tud_task+0xc>
1000a9cc:	a801      	add	r0, sp, #4
1000a9ce:	7942      	ldrb	r2, [r0, #5]
1000a9d0:	9b03      	ldr	r3, [sp, #12]
1000a9d2:	7800      	ldrb	r0, [r0, #0]
1000a9d4:	f000 f932 	bl	1000ac3c <usbd_control_xfer_cb>
1000a9d8:	e789      	b.n	1000a8ee <tud_task+0x2a>
1000a9da:	00da      	lsls	r2, r3, #3
1000a9dc:	1ad2      	subs	r2, r2, r3
1000a9de:	0092      	lsls	r2, r2, #2
1000a9e0:	4b35      	ldr	r3, [pc, #212]	; (1000aab8 <tud_task+0x1f4>)
1000a9e2:	681b      	ldr	r3, [r3, #0]
1000a9e4:	189b      	adds	r3, r3, r2
1000a9e6:	e004      	b.n	1000a9f2 <tud_task+0x12e>
1000a9e8:	00da      	lsls	r2, r3, #3
1000a9ea:	1ad2      	subs	r2, r2, r3
1000a9ec:	0092      	lsls	r2, r2, #2
1000a9ee:	4b33      	ldr	r3, [pc, #204]	; (1000aabc <tud_task+0x1f8>)
1000a9f0:	189b      	adds	r3, r3, r2
1000a9f2:	2b00      	cmp	r3, #0
1000a9f4:	d0e4      	beq.n	1000a9c0 <tud_task+0xfc>
1000a9f6:	695c      	ldr	r4, [r3, #20]
1000a9f8:	a801      	add	r0, sp, #4
1000a9fa:	7942      	ldrb	r2, [r0, #5]
1000a9fc:	9b03      	ldr	r3, [sp, #12]
1000a9fe:	7800      	ldrb	r0, [r0, #0]
1000aa00:	47a0      	blx	r4
1000aa02:	e774      	b.n	1000a8ee <tud_task+0x2a>
1000aa04:	4b2e      	ldr	r3, [pc, #184]	; (1000aac0 <tud_task+0x1fc>)
1000aa06:	2b00      	cmp	r3, #0
1000aa08:	d100      	bne.n	1000aa0c <tud_task+0x148>
1000aa0a:	e770      	b.n	1000a8ee <tud_task+0x2a>
1000aa0c:	4b21      	ldr	r3, [pc, #132]	; (1000aa94 <tud_task+0x1d0>)
1000aa0e:	7818      	ldrb	r0, [r3, #0]
1000aa10:	0700      	lsls	r0, r0, #28
1000aa12:	0fc0      	lsrs	r0, r0, #31
1000aa14:	e000      	b.n	1000aa18 <tud_task+0x154>
1000aa16:	bf00      	nop
1000aa18:	e769      	b.n	1000a8ee <tud_task+0x2a>
1000aa1a:	4b2a      	ldr	r3, [pc, #168]	; (1000aac4 <tud_task+0x200>)
1000aa1c:	2b00      	cmp	r3, #0
1000aa1e:	d100      	bne.n	1000aa22 <tud_task+0x15e>
1000aa20:	e765      	b.n	1000a8ee <tud_task+0x2a>
1000aa22:	e000      	b.n	1000aa26 <tud_task+0x162>
1000aa24:	bf00      	nop
1000aa26:	e762      	b.n	1000a8ee <tud_task+0x2a>
1000aa28:	00e3      	lsls	r3, r4, #3
1000aa2a:	1b1b      	subs	r3, r3, r4
1000aa2c:	009a      	lsls	r2, r3, #2
1000aa2e:	4b22      	ldr	r3, [pc, #136]	; (1000aab8 <tud_task+0x1f4>)
1000aa30:	681b      	ldr	r3, [r3, #0]
1000aa32:	189b      	adds	r3, r3, r2
1000aa34:	e006      	b.n	1000aa44 <tud_task+0x180>
1000aa36:	0023      	movs	r3, r4
1000aa38:	e019      	b.n	1000aa6e <tud_task+0x1aa>
1000aa3a:	00da      	lsls	r2, r3, #3
1000aa3c:	1ad2      	subs	r2, r2, r3
1000aa3e:	0092      	lsls	r2, r2, #2
1000aa40:	4b1e      	ldr	r3, [pc, #120]	; (1000aabc <tud_task+0x1f8>)
1000aa42:	189b      	adds	r3, r3, r2
1000aa44:	699b      	ldr	r3, [r3, #24]
1000aa46:	2b00      	cmp	r3, #0
1000aa48:	d002      	beq.n	1000aa50 <tud_task+0x18c>
1000aa4a:	aa01      	add	r2, sp, #4
1000aa4c:	7810      	ldrb	r0, [r2, #0]
1000aa4e:	4798      	blx	r3
1000aa50:	3401      	adds	r4, #1
1000aa52:	b2e4      	uxtb	r4, r4
1000aa54:	4b14      	ldr	r3, [pc, #80]	; (1000aaa8 <tud_task+0x1e4>)
1000aa56:	781b      	ldrb	r3, [r3, #0]
1000aa58:	1c5a      	adds	r2, r3, #1
1000aa5a:	42a2      	cmp	r2, r4
1000aa5c:	da00      	bge.n	1000aa60 <tud_task+0x19c>
1000aa5e:	e746      	b.n	1000a8ee <tud_task+0x2a>
1000aa60:	4a10      	ldr	r2, [pc, #64]	; (1000aaa4 <tud_task+0x1e0>)
1000aa62:	2a00      	cmp	r2, #0
1000aa64:	d0e7      	beq.n	1000aa36 <tud_task+0x172>
1000aa66:	42a3      	cmp	r3, r4
1000aa68:	d8de      	bhi.n	1000aa28 <tud_task+0x164>
1000aa6a:	1ae3      	subs	r3, r4, r3
1000aa6c:	b2db      	uxtb	r3, r3
1000aa6e:	2b01      	cmp	r3, #1
1000aa70:	d9e3      	bls.n	1000aa3a <tud_task+0x176>
1000aa72:	002b      	movs	r3, r5
1000aa74:	e7e6      	b.n	1000aa44 <tud_task+0x180>
1000aa76:	2400      	movs	r4, #0
1000aa78:	e7ec      	b.n	1000aa54 <tud_task+0x190>
1000aa7a:	9b02      	ldr	r3, [sp, #8]
1000aa7c:	2b00      	cmp	r3, #0
1000aa7e:	d100      	bne.n	1000aa82 <tud_task+0x1be>
1000aa80:	e735      	b.n	1000a8ee <tud_task+0x2a>
1000aa82:	9803      	ldr	r0, [sp, #12]
1000aa84:	4798      	blx	r3
1000aa86:	e732      	b.n	1000a8ee <tud_task+0x2a>
1000aa88:	1000df34 	.word	0x1000df34
1000aa8c:	1000e058 	.word	0x1000e058
1000aa90:	1000df44 	.word	0x1000df44
1000aa94:	200012e8 	.word	0x200012e8
1000aa98:	20001324 	.word	0x20001324
1000aa9c:	1000dfbc 	.word	0x1000dfbc
1000aaa0:	00000000 	.word	0x00000000
1000aaa4:	1000076d 	.word	0x1000076d
1000aaa8:	20002608 	.word	0x20002608
1000aaac:	0000020a 	.word	0x0000020a
1000aab0:	1000e06c 	.word	0x1000e06c
1000aab4:	1000c9cc 	.word	0x1000c9cc
1000aab8:	200010e4 	.word	0x200010e4
1000aabc:	1000e078 	.word	0x1000e078
	...

1000aac8 <_data_stage_xact>:
1000aac8:	b5f8      	push	{r3, r4, r5, r6, r7, lr}
1000aaca:	0005      	movs	r5, r0
1000aacc:	4b12      	ldr	r3, [pc, #72]	; (1000ab18 <_data_stage_xact+0x50>)
1000aace:	899f      	ldrh	r7, [r3, #12]
1000aad0:	89de      	ldrh	r6, [r3, #14]
1000aad2:	1bb9      	subs	r1, r7, r6
1000aad4:	b289      	uxth	r1, r1
1000aad6:	1c0b      	adds	r3, r1, #0
1000aad8:	2940      	cmp	r1, #64	; 0x40
1000aada:	d900      	bls.n	1000aade <_data_stage_xact+0x16>
1000aadc:	2340      	movs	r3, #64	; 0x40
1000aade:	b29c      	uxth	r4, r3
1000aae0:	4b0d      	ldr	r3, [pc, #52]	; (1000ab18 <_data_stage_xact+0x50>)
1000aae2:	781b      	ldrb	r3, [r3, #0]
1000aae4:	b25b      	sxtb	r3, r3
1000aae6:	2b00      	cmp	r3, #0
1000aae8:	db08      	blt.n	1000aafc <_data_stage_xact+0x34>
1000aaea:	2100      	movs	r1, #0
1000aaec:	42b7      	cmp	r7, r6
1000aaee:	d011      	beq.n	1000ab14 <_data_stage_xact+0x4c>
1000aaf0:	4a0a      	ldr	r2, [pc, #40]	; (1000ab1c <_data_stage_xact+0x54>)
1000aaf2:	0023      	movs	r3, r4
1000aaf4:	0028      	movs	r0, r5
1000aaf6:	f7fe fee9 	bl	100098cc <dcd_edpt_xfer>
1000aafa:	bdf8      	pop	{r3, r4, r5, r6, r7, pc}
1000aafc:	42b7      	cmp	r7, r6
1000aafe:	d101      	bne.n	1000ab04 <_data_stage_xact+0x3c>
1000ab00:	2180      	movs	r1, #128	; 0x80
1000ab02:	e7f3      	b.n	1000aaec <_data_stage_xact+0x24>
1000ab04:	4b04      	ldr	r3, [pc, #16]	; (1000ab18 <_data_stage_xact+0x50>)
1000ab06:	6899      	ldr	r1, [r3, #8]
1000ab08:	0022      	movs	r2, r4
1000ab0a:	4804      	ldr	r0, [pc, #16]	; (1000ab1c <_data_stage_xact+0x54>)
1000ab0c:	f7fd ffe2 	bl	10008ad4 <__wrap___aeabi_memcpy>
1000ab10:	2180      	movs	r1, #128	; 0x80
1000ab12:	e7eb      	b.n	1000aaec <_data_stage_xact+0x24>
1000ab14:	2200      	movs	r2, #0
1000ab16:	e7ec      	b.n	1000aaf2 <_data_stage_xact+0x2a>
1000ab18:	200010f0 	.word	0x200010f0
1000ab1c:	200012a8 	.word	0x200012a8

1000ab20 <tud_control_status>:
1000ab20:	b570      	push	{r4, r5, r6, lr}
1000ab22:	0006      	movs	r6, r0
1000ab24:	000c      	movs	r4, r1
1000ab26:	4d0b      	ldr	r5, [pc, #44]	; (1000ab54 <tud_control_status+0x34>)
1000ab28:	2208      	movs	r2, #8
1000ab2a:	0028      	movs	r0, r5
1000ab2c:	f7fd ffd2 	bl	10008ad4 <__wrap___aeabi_memcpy>
1000ab30:	2300      	movs	r3, #0
1000ab32:	60ab      	str	r3, [r5, #8]
1000ab34:	81eb      	strh	r3, [r5, #14]
1000ab36:	81ab      	strh	r3, [r5, #12]
1000ab38:	2300      	movs	r3, #0
1000ab3a:	56e3      	ldrsb	r3, [r4, r3]
1000ab3c:	2b00      	cmp	r3, #0
1000ab3e:	db06      	blt.n	1000ab4e <tud_control_status+0x2e>
1000ab40:	2180      	movs	r1, #128	; 0x80
1000ab42:	2300      	movs	r3, #0
1000ab44:	2200      	movs	r2, #0
1000ab46:	0030      	movs	r0, r6
1000ab48:	f7fe fec0 	bl	100098cc <dcd_edpt_xfer>
1000ab4c:	bd70      	pop	{r4, r5, r6, pc}
1000ab4e:	2100      	movs	r1, #0
1000ab50:	e7f7      	b.n	1000ab42 <tud_control_status+0x22>
1000ab52:	46c0      	nop			; (mov r8, r8)
1000ab54:	200010f0 	.word	0x200010f0

1000ab58 <tud_control_xfer>:
1000ab58:	b5f0      	push	{r4, r5, r6, r7, lr}
1000ab5a:	46c6      	mov	lr, r8
1000ab5c:	b500      	push	{lr}
1000ab5e:	4680      	mov	r8, r0
1000ab60:	000c      	movs	r4, r1
1000ab62:	0016      	movs	r6, r2
1000ab64:	001d      	movs	r5, r3
1000ab66:	4f23      	ldr	r7, [pc, #140]	; (1000abf4 <tud_control_xfer+0x9c>)
1000ab68:	2208      	movs	r2, #8
1000ab6a:	0038      	movs	r0, r7
1000ab6c:	f7fd ffb2 	bl	10008ad4 <__wrap___aeabi_memcpy>
1000ab70:	60be      	str	r6, [r7, #8]
1000ab72:	2300      	movs	r3, #0
1000ab74:	81fb      	strh	r3, [r7, #14]
1000ab76:	79a3      	ldrb	r3, [r4, #6]
1000ab78:	79e1      	ldrb	r1, [r4, #7]
1000ab7a:	0209      	lsls	r1, r1, #8
1000ab7c:	4319      	orrs	r1, r3
1000ab7e:	1c0b      	adds	r3, r1, #0
1000ab80:	42a9      	cmp	r1, r5
1000ab82:	d900      	bls.n	1000ab86 <tud_control_xfer+0x2e>
1000ab84:	1c2b      	adds	r3, r5, #0
1000ab86:	b299      	uxth	r1, r3
1000ab88:	4a1a      	ldr	r2, [pc, #104]	; (1000abf4 <tud_control_xfer+0x9c>)
1000ab8a:	8193      	strh	r3, [r2, #12]
1000ab8c:	79a2      	ldrb	r2, [r4, #6]
1000ab8e:	79e3      	ldrb	r3, [r4, #7]
1000ab90:	021b      	lsls	r3, r3, #8
1000ab92:	4313      	orrs	r3, r2
1000ab94:	d019      	beq.n	1000abca <tud_control_xfer+0x72>
1000ab96:	2900      	cmp	r1, #0
1000ab98:	d001      	beq.n	1000ab9e <tud_control_xfer+0x46>
1000ab9a:	2e00      	cmp	r6, #0
1000ab9c:	d008      	beq.n	1000abb0 <tud_control_xfer+0x58>
1000ab9e:	4640      	mov	r0, r8
1000aba0:	f7ff ff92 	bl	1000aac8 <_data_stage_xact>
1000aba4:	1e04      	subs	r4, r0, #0
1000aba6:	d00a      	beq.n	1000abbe <tud_control_xfer+0x66>
1000aba8:	0020      	movs	r0, r4
1000abaa:	bc80      	pop	{r7}
1000abac:	46b8      	mov	r8, r7
1000abae:	bdf0      	pop	{r4, r5, r6, r7, pc}
1000abb0:	227a      	movs	r2, #122	; 0x7a
1000abb2:	4911      	ldr	r1, [pc, #68]	; (1000abf8 <tud_control_xfer+0xa0>)
1000abb4:	4811      	ldr	r0, [pc, #68]	; (1000abfc <tud_control_xfer+0xa4>)
1000abb6:	f7fe f8c1 	bl	10008d3c <__wrap_printf>
1000abba:	2400      	movs	r4, #0
1000abbc:	e7f4      	b.n	1000aba8 <tud_control_xfer+0x50>
1000abbe:	2280      	movs	r2, #128	; 0x80
1000abc0:	490d      	ldr	r1, [pc, #52]	; (1000abf8 <tud_control_xfer+0xa0>)
1000abc2:	480e      	ldr	r0, [pc, #56]	; (1000abfc <tud_control_xfer+0xa4>)
1000abc4:	f7fe f8ba 	bl	10008d3c <__wrap_printf>
1000abc8:	e7ee      	b.n	1000aba8 <tud_control_xfer+0x50>
1000abca:	2300      	movs	r3, #0
1000abcc:	56e3      	ldrsb	r3, [r4, r3]
1000abce:	2b00      	cmp	r3, #0
1000abd0:	db0d      	blt.n	1000abee <tud_control_xfer+0x96>
1000abd2:	2180      	movs	r1, #128	; 0x80
1000abd4:	2300      	movs	r3, #0
1000abd6:	2200      	movs	r2, #0
1000abd8:	4640      	mov	r0, r8
1000abda:	f7fe fe77 	bl	100098cc <dcd_edpt_xfer>
1000abde:	1e04      	subs	r4, r0, #0
1000abe0:	d1e2      	bne.n	1000aba8 <tud_control_xfer+0x50>
1000abe2:	2285      	movs	r2, #133	; 0x85
1000abe4:	4904      	ldr	r1, [pc, #16]	; (1000abf8 <tud_control_xfer+0xa0>)
1000abe6:	4805      	ldr	r0, [pc, #20]	; (1000abfc <tud_control_xfer+0xa4>)
1000abe8:	f7fe f8a8 	bl	10008d3c <__wrap_printf>
1000abec:	e7dc      	b.n	1000aba8 <tud_control_xfer+0x50>
1000abee:	2100      	movs	r1, #0
1000abf0:	e7f0      	b.n	1000abd4 <tud_control_xfer+0x7c>
1000abf2:	46c0      	nop			; (mov r8, r8)
1000abf4:	200010f0 	.word	0x200010f0
1000abf8:	1000e0c8 	.word	0x1000e0c8
1000abfc:	1000c9cc 	.word	0x1000c9cc

1000ac00 <usbd_control_reset>:
1000ac00:	b510      	push	{r4, lr}
1000ac02:	2214      	movs	r2, #20
1000ac04:	2100      	movs	r1, #0
1000ac06:	4802      	ldr	r0, [pc, #8]	; (1000ac10 <usbd_control_reset+0x10>)
1000ac08:	f7fd ff5e 	bl	10008ac8 <__wrap_memset>
1000ac0c:	bd10      	pop	{r4, pc}
1000ac0e:	46c0      	nop			; (mov r8, r8)
1000ac10:	200010f0 	.word	0x200010f0

1000ac14 <usbd_control_set_complete_callback>:
1000ac14:	4b01      	ldr	r3, [pc, #4]	; (1000ac1c <usbd_control_set_complete_callback+0x8>)
1000ac16:	6118      	str	r0, [r3, #16]
1000ac18:	4770      	bx	lr
1000ac1a:	46c0      	nop			; (mov r8, r8)
1000ac1c:	200010f0 	.word	0x200010f0

1000ac20 <usbd_control_set_request>:
1000ac20:	b510      	push	{r4, lr}
1000ac22:	0001      	movs	r1, r0
1000ac24:	4c04      	ldr	r4, [pc, #16]	; (1000ac38 <usbd_control_set_request+0x18>)
1000ac26:	2208      	movs	r2, #8
1000ac28:	0020      	movs	r0, r4
1000ac2a:	f7fd ff53 	bl	10008ad4 <__wrap___aeabi_memcpy>
1000ac2e:	2300      	movs	r3, #0
1000ac30:	60a3      	str	r3, [r4, #8]
1000ac32:	81e3      	strh	r3, [r4, #14]
1000ac34:	81a3      	strh	r3, [r4, #12]
1000ac36:	bd10      	pop	{r4, pc}
1000ac38:	200010f0 	.word	0x200010f0

1000ac3c <usbd_control_xfer_cb>:
1000ac3c:	b570      	push	{r4, r5, r6, lr}
1000ac3e:	0005      	movs	r5, r0
1000ac40:	001c      	movs	r4, r3
1000ac42:	09c9      	lsrs	r1, r1, #7
1000ac44:	4b32      	ldr	r3, [pc, #200]	; (1000ad10 <usbd_control_xfer_cb+0xd4>)
1000ac46:	781b      	ldrb	r3, [r3, #0]
1000ac48:	09db      	lsrs	r3, r3, #7
1000ac4a:	428b      	cmp	r3, r1
1000ac4c:	d011      	beq.n	1000ac72 <usbd_control_xfer_cb+0x36>
1000ac4e:	2c00      	cmp	r4, #0
1000ac50:	d108      	bne.n	1000ac64 <usbd_control_xfer_cb+0x28>
1000ac52:	4b30      	ldr	r3, [pc, #192]	; (1000ad14 <usbd_control_xfer_cb+0xd8>)
1000ac54:	2b00      	cmp	r3, #0
1000ac56:	d002      	beq.n	1000ac5e <usbd_control_xfer_cb+0x22>
1000ac58:	492d      	ldr	r1, [pc, #180]	; (1000ad10 <usbd_control_xfer_cb+0xd4>)
1000ac5a:	f7fe fdf5 	bl	10009848 <dcd_edpt0_status_complete>
1000ac5e:	2401      	movs	r4, #1
1000ac60:	0020      	movs	r0, r4
1000ac62:	bd70      	pop	{r4, r5, r6, pc}
1000ac64:	22ad      	movs	r2, #173	; 0xad
1000ac66:	492c      	ldr	r1, [pc, #176]	; (1000ad18 <usbd_control_xfer_cb+0xdc>)
1000ac68:	482c      	ldr	r0, [pc, #176]	; (1000ad1c <usbd_control_xfer_cb+0xe0>)
1000ac6a:	f7fe f867 	bl	10008d3c <__wrap_printf>
1000ac6e:	2400      	movs	r4, #0
1000ac70:	e7f6      	b.n	1000ac60 <usbd_control_xfer_cb+0x24>
1000ac72:	4b27      	ldr	r3, [pc, #156]	; (1000ad10 <usbd_control_xfer_cb+0xd4>)
1000ac74:	781b      	ldrb	r3, [r3, #0]
1000ac76:	b25b      	sxtb	r3, r3
1000ac78:	2b00      	cmp	r3, #0
1000ac7a:	db07      	blt.n	1000ac8c <usbd_control_xfer_cb+0x50>
1000ac7c:	4b24      	ldr	r3, [pc, #144]	; (1000ad10 <usbd_control_xfer_cb+0xd4>)
1000ac7e:	6898      	ldr	r0, [r3, #8]
1000ac80:	2800      	cmp	r0, #0
1000ac82:	d043      	beq.n	1000ad0c <usbd_control_xfer_cb+0xd0>
1000ac84:	0022      	movs	r2, r4
1000ac86:	4926      	ldr	r1, [pc, #152]	; (1000ad20 <usbd_control_xfer_cb+0xe4>)
1000ac88:	f7fd ff24 	bl	10008ad4 <__wrap___aeabi_memcpy>
1000ac8c:	4a20      	ldr	r2, [pc, #128]	; (1000ad10 <usbd_control_xfer_cb+0xd4>)
1000ac8e:	89d3      	ldrh	r3, [r2, #14]
1000ac90:	191b      	adds	r3, r3, r4
1000ac92:	b29b      	uxth	r3, r3
1000ac94:	81d3      	strh	r3, [r2, #14]
1000ac96:	6891      	ldr	r1, [r2, #8]
1000ac98:	1909      	adds	r1, r1, r4
1000ac9a:	6091      	str	r1, [r2, #8]
1000ac9c:	88d2      	ldrh	r2, [r2, #6]
1000ac9e:	4293      	cmp	r3, r2
1000aca0:	d001      	beq.n	1000aca6 <usbd_control_xfer_cb+0x6a>
1000aca2:	2c3f      	cmp	r4, #63	; 0x3f
1000aca4:	d827      	bhi.n	1000acf6 <usbd_control_xfer_cb+0xba>
1000aca6:	4b1a      	ldr	r3, [pc, #104]	; (1000ad10 <usbd_control_xfer_cb+0xd4>)
1000aca8:	691b      	ldr	r3, [r3, #16]
1000acaa:	2b00      	cmp	r3, #0
1000acac:	d004      	beq.n	1000acb8 <usbd_control_xfer_cb+0x7c>
1000acae:	4918      	ldr	r1, [pc, #96]	; (1000ad10 <usbd_control_xfer_cb+0xd4>)
1000acb0:	0028      	movs	r0, r5
1000acb2:	4798      	blx	r3
1000acb4:	2800      	cmp	r0, #0
1000acb6:	d014      	beq.n	1000ace2 <usbd_control_xfer_cb+0xa6>
1000acb8:	4b15      	ldr	r3, [pc, #84]	; (1000ad10 <usbd_control_xfer_cb+0xd4>)
1000acba:	781b      	ldrb	r3, [r3, #0]
1000acbc:	b25b      	sxtb	r3, r3
1000acbe:	2b00      	cmp	r3, #0
1000acc0:	db0d      	blt.n	1000acde <usbd_control_xfer_cb+0xa2>
1000acc2:	2180      	movs	r1, #128	; 0x80
1000acc4:	2300      	movs	r3, #0
1000acc6:	2200      	movs	r2, #0
1000acc8:	0028      	movs	r0, r5
1000acca:	f7fe fdff 	bl	100098cc <dcd_edpt_xfer>
1000acce:	1e04      	subs	r4, r0, #0
1000acd0:	d1c6      	bne.n	1000ac60 <usbd_control_xfer_cb+0x24>
1000acd2:	22d0      	movs	r2, #208	; 0xd0
1000acd4:	4910      	ldr	r1, [pc, #64]	; (1000ad18 <usbd_control_xfer_cb+0xdc>)
1000acd6:	4811      	ldr	r0, [pc, #68]	; (1000ad1c <usbd_control_xfer_cb+0xe0>)
1000acd8:	f7fe f830 	bl	10008d3c <__wrap_printf>
1000acdc:	e7c0      	b.n	1000ac60 <usbd_control_xfer_cb+0x24>
1000acde:	2100      	movs	r1, #0
1000ace0:	e7f0      	b.n	1000acc4 <usbd_control_xfer_cb+0x88>
1000ace2:	2100      	movs	r1, #0
1000ace4:	0028      	movs	r0, r5
1000ace6:	f7fe fe0b 	bl	10009900 <dcd_edpt_stall>
1000acea:	2180      	movs	r1, #128	; 0x80
1000acec:	0028      	movs	r0, r5
1000acee:	f7fe fe07 	bl	10009900 <dcd_edpt_stall>
1000acf2:	2401      	movs	r4, #1
1000acf4:	e7b4      	b.n	1000ac60 <usbd_control_xfer_cb+0x24>
1000acf6:	0028      	movs	r0, r5
1000acf8:	f7ff fee6 	bl	1000aac8 <_data_stage_xact>
1000acfc:	1e04      	subs	r4, r0, #0
1000acfe:	d1af      	bne.n	1000ac60 <usbd_control_xfer_cb+0x24>
1000ad00:	22db      	movs	r2, #219	; 0xdb
1000ad02:	4905      	ldr	r1, [pc, #20]	; (1000ad18 <usbd_control_xfer_cb+0xdc>)
1000ad04:	4805      	ldr	r0, [pc, #20]	; (1000ad1c <usbd_control_xfer_cb+0xe0>)
1000ad06:	f7fe f819 	bl	10008d3c <__wrap_printf>
1000ad0a:	e7a9      	b.n	1000ac60 <usbd_control_xfer_cb+0x24>
1000ad0c:	2400      	movs	r4, #0
1000ad0e:	e7a7      	b.n	1000ac60 <usbd_control_xfer_cb+0x24>
1000ad10:	200010f0 	.word	0x200010f0
1000ad14:	10009849 	.word	0x10009849
1000ad18:	1000e0b0 	.word	0x1000e0b0
1000ad1c:	1000c9cc 	.word	0x1000c9cc
1000ad20:	200012a8 	.word	0x200012a8

1000ad24 <hidd_reset>:
1000ad24:	b510      	push	{r4, lr}
1000ad26:	224c      	movs	r2, #76	; 0x4c
1000ad28:	2100      	movs	r1, #0
1000ad2a:	4802      	ldr	r0, [pc, #8]	; (1000ad34 <hidd_reset+0x10>)
1000ad2c:	f7fd fecc 	bl	10008ac8 <__wrap_memset>
1000ad30:	bd10      	pop	{r4, pc}
1000ad32:	46c0      	nop			; (mov r8, r8)
1000ad34:	20001104 	.word	0x20001104

1000ad38 <hidd_init>:
1000ad38:	b510      	push	{r4, lr}
1000ad3a:	2000      	movs	r0, #0
1000ad3c:	f7ff fff2 	bl	1000ad24 <hidd_reset>
1000ad40:	bd10      	pop	{r4, pc}
	...

1000ad44 <hidd_open>:
1000ad44:	b5f0      	push	{r4, r5, r6, r7, lr}
1000ad46:	b083      	sub	sp, #12
1000ad48:	0005      	movs	r5, r0
1000ad4a:	000e      	movs	r6, r1
1000ad4c:	794b      	ldrb	r3, [r1, #5]
1000ad4e:	2b03      	cmp	r3, #3
1000ad50:	d16a      	bne.n	1000ae28 <hidd_open+0xe4>
1000ad52:	790b      	ldrb	r3, [r1, #4]
1000ad54:	00dc      	lsls	r4, r3, #3
1000ad56:	1ae4      	subs	r4, r4, r3
1000ad58:	b2a4      	uxth	r4, r4
1000ad5a:	3412      	adds	r4, #18
1000ad5c:	b2a4      	uxth	r4, r4
1000ad5e:	4294      	cmp	r4, r2
1000ad60:	d812      	bhi.n	1000ad88 <hidd_open+0x44>
1000ad62:	2300      	movs	r3, #0
1000ad64:	2b00      	cmp	r3, #0
1000ad66:	d016      	beq.n	1000ad96 <hidd_open+0x52>
1000ad68:	2700      	movs	r7, #0
1000ad6a:	2f00      	cmp	r7, #0
1000ad6c:	d020      	beq.n	1000adb0 <hidd_open+0x6c>
1000ad6e:	7831      	ldrb	r1, [r6, #0]
1000ad70:	1871      	adds	r1, r6, r1
1000ad72:	64b9      	str	r1, [r7, #72]	; 0x48
1000ad74:	784b      	ldrb	r3, [r1, #1]
1000ad76:	2b21      	cmp	r3, #33	; 0x21
1000ad78:	d021      	beq.n	1000adbe <hidd_open+0x7a>
1000ad7a:	22bb      	movs	r2, #187	; 0xbb
1000ad7c:	492c      	ldr	r1, [pc, #176]	; (1000ae30 <hidd_open+0xec>)
1000ad7e:	482d      	ldr	r0, [pc, #180]	; (1000ae34 <hidd_open+0xf0>)
1000ad80:	f7fd ffdc 	bl	10008d3c <__wrap_printf>
1000ad84:	2400      	movs	r4, #0
1000ad86:	e050      	b.n	1000ae2a <hidd_open+0xe6>
1000ad88:	22a7      	movs	r2, #167	; 0xa7
1000ad8a:	4929      	ldr	r1, [pc, #164]	; (1000ae30 <hidd_open+0xec>)
1000ad8c:	4829      	ldr	r0, [pc, #164]	; (1000ae34 <hidd_open+0xf0>)
1000ad8e:	f7fd ffd5 	bl	10008d3c <__wrap_printf>
1000ad92:	2400      	movs	r4, #0
1000ad94:	e049      	b.n	1000ae2a <hidd_open+0xe6>
1000ad96:	214c      	movs	r1, #76	; 0x4c
1000ad98:	4359      	muls	r1, r3
1000ad9a:	4a27      	ldr	r2, [pc, #156]	; (1000ae38 <hidd_open+0xf4>)
1000ad9c:	1852      	adds	r2, r2, r1
1000ad9e:	7852      	ldrb	r2, [r2, #1]
1000ada0:	2a00      	cmp	r2, #0
1000ada2:	d002      	beq.n	1000adaa <hidd_open+0x66>
1000ada4:	3301      	adds	r3, #1
1000ada6:	b2db      	uxtb	r3, r3
1000ada8:	e7dc      	b.n	1000ad64 <hidd_open+0x20>
1000adaa:	4f23      	ldr	r7, [pc, #140]	; (1000ae38 <hidd_open+0xf4>)
1000adac:	187f      	adds	r7, r7, r1
1000adae:	e7dc      	b.n	1000ad6a <hidd_open+0x26>
1000adb0:	22b4      	movs	r2, #180	; 0xb4
1000adb2:	491f      	ldr	r1, [pc, #124]	; (1000ae30 <hidd_open+0xec>)
1000adb4:	481f      	ldr	r0, [pc, #124]	; (1000ae34 <hidd_open+0xf0>)
1000adb6:	f7fd ffc1 	bl	10008d3c <__wrap_printf>
1000adba:	2400      	movs	r4, #0
1000adbc:	e035      	b.n	1000ae2a <hidd_open+0xe6>
1000adbe:	780b      	ldrb	r3, [r1, #0]
1000adc0:	18c9      	adds	r1, r1, r3
1000adc2:	7932      	ldrb	r2, [r6, #4]
1000adc4:	1c7b      	adds	r3, r7, #1
1000adc6:	9301      	str	r3, [sp, #4]
1000adc8:	1cbb      	adds	r3, r7, #2
1000adca:	9300      	str	r3, [sp, #0]
1000adcc:	2303      	movs	r3, #3
1000adce:	0028      	movs	r0, r5
1000add0:	f7ff fa74 	bl	1000a2bc <usbd_open_edpt_pair>
1000add4:	2800      	cmp	r0, #0
1000add6:	d01d      	beq.n	1000ae14 <hidd_open+0xd0>
1000add8:	79b3      	ldrb	r3, [r6, #6]
1000adda:	2b01      	cmp	r3, #1
1000addc:	d021      	beq.n	1000ae22 <hidd_open+0xde>
1000adde:	2300      	movs	r3, #0
1000ade0:	713b      	strb	r3, [r7, #4]
1000ade2:	78b3      	ldrb	r3, [r6, #2]
1000ade4:	703b      	strb	r3, [r7, #0]
1000ade6:	1db8      	adds	r0, r7, #6
1000ade8:	6cbb      	ldr	r3, [r7, #72]	; 0x48
1000adea:	1dd9      	adds	r1, r3, #7
1000adec:	2202      	movs	r2, #2
1000adee:	f7fd fe71 	bl	10008ad4 <__wrap___aeabi_memcpy>
1000adf2:	78b9      	ldrb	r1, [r7, #2]
1000adf4:	2900      	cmp	r1, #0
1000adf6:	d018      	beq.n	1000ae2a <hidd_open+0xe6>
1000adf8:	003a      	movs	r2, r7
1000adfa:	3228      	adds	r2, #40	; 0x28
1000adfc:	2320      	movs	r3, #32
1000adfe:	0028      	movs	r0, r5
1000ae00:	f7ff fb1c 	bl	1000a43c <usbd_edpt_xfer>
1000ae04:	2800      	cmp	r0, #0
1000ae06:	d110      	bne.n	1000ae2a <hidd_open+0xe6>
1000ae08:	22ce      	movs	r2, #206	; 0xce
1000ae0a:	490c      	ldr	r1, [pc, #48]	; (1000ae3c <hidd_open+0xf8>)
1000ae0c:	480c      	ldr	r0, [pc, #48]	; (1000ae40 <hidd_open+0xfc>)
1000ae0e:	f7fd ff95 	bl	10008d3c <__wrap_printf>
1000ae12:	e00a      	b.n	1000ae2a <hidd_open+0xe6>
1000ae14:	22bf      	movs	r2, #191	; 0xbf
1000ae16:	4906      	ldr	r1, [pc, #24]	; (1000ae30 <hidd_open+0xec>)
1000ae18:	4806      	ldr	r0, [pc, #24]	; (1000ae34 <hidd_open+0xf0>)
1000ae1a:	f7fd ff8f 	bl	10008d3c <__wrap_printf>
1000ae1e:	2400      	movs	r4, #0
1000ae20:	e003      	b.n	1000ae2a <hidd_open+0xe6>
1000ae22:	79f3      	ldrb	r3, [r6, #7]
1000ae24:	70fb      	strb	r3, [r7, #3]
1000ae26:	e7da      	b.n	1000adde <hidd_open+0x9a>
1000ae28:	2400      	movs	r4, #0
1000ae2a:	0020      	movs	r0, r4
1000ae2c:	b003      	add	sp, #12
1000ae2e:	bdf0      	pop	{r4, r5, r6, r7, pc}
1000ae30:	1000e140 	.word	0x1000e140
1000ae34:	1000c9cc 	.word	0x1000c9cc
1000ae38:	20001104 	.word	0x20001104
1000ae3c:	1000e10c 	.word	0x1000e10c
1000ae40:	1000c9e4 	.word	0x1000c9e4

1000ae44 <hidd_control_request>:
1000ae44:	b5f0      	push	{r4, r5, r6, r7, lr}
1000ae46:	b083      	sub	sp, #12
1000ae48:	0005      	movs	r5, r0
1000ae4a:	000e      	movs	r6, r1
1000ae4c:	780a      	ldrb	r2, [r1, #0]
1000ae4e:	231f      	movs	r3, #31
1000ae50:	4013      	ands	r3, r2
1000ae52:	2b01      	cmp	r3, #1
1000ae54:	d000      	beq.n	1000ae58 <hidd_control_request+0x14>
1000ae56:	e0c4      	b.n	1000afe2 <hidd_control_request+0x19e>
1000ae58:	7908      	ldrb	r0, [r1, #4]
1000ae5a:	2300      	movs	r3, #0
1000ae5c:	2b00      	cmp	r3, #0
1000ae5e:	d014      	beq.n	1000ae8a <hidd_control_request+0x46>
1000ae60:	23ff      	movs	r3, #255	; 0xff
1000ae62:	2b00      	cmp	r3, #0
1000ae64:	d000      	beq.n	1000ae68 <hidd_control_request+0x24>
1000ae66:	e0bf      	b.n	1000afe8 <hidd_control_request+0x1a4>
1000ae68:	001c      	movs	r4, r3
1000ae6a:	3360      	adds	r3, #96	; 0x60
1000ae6c:	0019      	movs	r1, r3
1000ae6e:	4011      	ands	r1, r2
1000ae70:	4213      	tst	r3, r2
1000ae72:	d131      	bne.n	1000aed8 <hidd_control_request+0x94>
1000ae74:	78f2      	ldrb	r2, [r6, #3]
1000ae76:	7873      	ldrb	r3, [r6, #1]
1000ae78:	2b06      	cmp	r3, #6
1000ae7a:	d00f      	beq.n	1000ae9c <hidd_control_request+0x58>
1000ae7c:	2b06      	cmp	r3, #6
1000ae7e:	d000      	beq.n	1000ae82 <hidd_control_request+0x3e>
1000ae80:	e0b6      	b.n	1000aff0 <hidd_control_request+0x1ac>
1000ae82:	2a22      	cmp	r2, #34	; 0x22
1000ae84:	d01a      	beq.n	1000aebc <hidd_control_request+0x78>
1000ae86:	2000      	movs	r0, #0
1000ae88:	e0ac      	b.n	1000afe4 <hidd_control_request+0x1a0>
1000ae8a:	214c      	movs	r1, #76	; 0x4c
1000ae8c:	4359      	muls	r1, r3
1000ae8e:	4c5b      	ldr	r4, [pc, #364]	; (1000affc <hidd_control_request+0x1b8>)
1000ae90:	5d09      	ldrb	r1, [r1, r4]
1000ae92:	4288      	cmp	r0, r1
1000ae94:	d0e5      	beq.n	1000ae62 <hidd_control_request+0x1e>
1000ae96:	3301      	adds	r3, #1
1000ae98:	b2db      	uxtb	r3, r3
1000ae9a:	e7df      	b.n	1000ae5c <hidd_control_request+0x18>
1000ae9c:	2a21      	cmp	r2, #33	; 0x21
1000ae9e:	d1ed      	bne.n	1000ae7c <hidd_control_request+0x38>
1000aea0:	3346      	adds	r3, #70	; 0x46
1000aea2:	435c      	muls	r4, r3
1000aea4:	4b55      	ldr	r3, [pc, #340]	; (1000affc <hidd_control_request+0x1b8>)
1000aea6:	191b      	adds	r3, r3, r4
1000aea8:	6c9a      	ldr	r2, [r3, #72]	; 0x48
1000aeaa:	2a00      	cmp	r2, #0
1000aeac:	d100      	bne.n	1000aeb0 <hidd_control_request+0x6c>
1000aeae:	e09d      	b.n	1000afec <hidd_control_request+0x1a8>
1000aeb0:	7813      	ldrb	r3, [r2, #0]
1000aeb2:	0031      	movs	r1, r6
1000aeb4:	0028      	movs	r0, r5
1000aeb6:	f7ff fe4f 	bl	1000ab58 <tud_control_xfer>
1000aeba:	e093      	b.n	1000afe4 <hidd_control_request+0x1a0>
1000aebc:	f7f5 fb0c 	bl	100004d8 <tud_hid_descriptor_report_cb>
1000aec0:	0002      	movs	r2, r0
1000aec2:	234c      	movs	r3, #76	; 0x4c
1000aec4:	435c      	muls	r4, r3
1000aec6:	4b4d      	ldr	r3, [pc, #308]	; (1000affc <hidd_control_request+0x1b8>)
1000aec8:	191b      	adds	r3, r3, r4
1000aeca:	88db      	ldrh	r3, [r3, #6]
1000aecc:	0031      	movs	r1, r6
1000aece:	0028      	movs	r0, r5
1000aed0:	f7ff fe42 	bl	1000ab58 <tud_control_xfer>
1000aed4:	2001      	movs	r0, #1
1000aed6:	e085      	b.n	1000afe4 <hidd_control_request+0x1a0>
1000aed8:	2920      	cmp	r1, #32
1000aeda:	d000      	beq.n	1000aede <hidd_control_request+0x9a>
1000aedc:	e08a      	b.n	1000aff4 <hidd_control_request+0x1b0>
1000aede:	7873      	ldrb	r3, [r6, #1]
1000aee0:	2b0b      	cmp	r3, #11
1000aee2:	d900      	bls.n	1000aee6 <hidd_control_request+0xa2>
1000aee4:	e088      	b.n	1000aff8 <hidd_control_request+0x1b4>
1000aee6:	009b      	lsls	r3, r3, #2
1000aee8:	4a45      	ldr	r2, [pc, #276]	; (1000b000 <hidd_control_request+0x1bc>)
1000aeea:	58d3      	ldr	r3, [r2, r3]
1000aeec:	469f      	mov	pc, r3
1000aeee:	78f1      	ldrb	r1, [r6, #3]
1000aef0:	78b0      	ldrb	r0, [r6, #2]
1000aef2:	234c      	movs	r3, #76	; 0x4c
1000aef4:	4363      	muls	r3, r4
1000aef6:	3308      	adds	r3, #8
1000aef8:	4f40      	ldr	r7, [pc, #256]	; (1000affc <hidd_control_request+0x1b8>)
1000aefa:	18ff      	adds	r7, r7, r3
1000aefc:	79b2      	ldrb	r2, [r6, #6]
1000aefe:	79f3      	ldrb	r3, [r6, #7]
1000af00:	021b      	lsls	r3, r3, #8
1000af02:	4313      	orrs	r3, r2
1000af04:	003a      	movs	r2, r7
1000af06:	f7f5 fc37 	bl	10000778 <tud_hid_get_report_cb>
1000af0a:	1e03      	subs	r3, r0, #0
1000af0c:	d006      	beq.n	1000af1c <hidd_control_request+0xd8>
1000af0e:	003a      	movs	r2, r7
1000af10:	0031      	movs	r1, r6
1000af12:	0028      	movs	r0, r5
1000af14:	f7ff fe20 	bl	1000ab58 <tud_control_xfer>
1000af18:	2001      	movs	r0, #1
1000af1a:	e063      	b.n	1000afe4 <hidd_control_request+0x1a0>
1000af1c:	2286      	movs	r2, #134	; 0x86
1000af1e:	0052      	lsls	r2, r2, #1
1000af20:	4938      	ldr	r1, [pc, #224]	; (1000b004 <hidd_control_request+0x1c0>)
1000af22:	4839      	ldr	r0, [pc, #228]	; (1000b008 <hidd_control_request+0x1c4>)
1000af24:	f7fd ff0a 	bl	10008d3c <__wrap_printf>
1000af28:	2000      	movs	r0, #0
1000af2a:	e05b      	b.n	1000afe4 <hidd_control_request+0x1a0>
1000af2c:	79b1      	ldrb	r1, [r6, #6]
1000af2e:	79f3      	ldrb	r3, [r6, #7]
1000af30:	021b      	lsls	r3, r3, #8
1000af32:	430b      	orrs	r3, r1
1000af34:	2b20      	cmp	r3, #32
1000af36:	d901      	bls.n	1000af3c <hidd_control_request+0xf8>
1000af38:	2000      	movs	r0, #0
1000af3a:	e053      	b.n	1000afe4 <hidd_control_request+0x1a0>
1000af3c:	224c      	movs	r2, #76	; 0x4c
1000af3e:	4362      	muls	r2, r4
1000af40:	3228      	adds	r2, #40	; 0x28
1000af42:	4c2e      	ldr	r4, [pc, #184]	; (1000affc <hidd_control_request+0x1b8>)
1000af44:	18a2      	adds	r2, r4, r2
1000af46:	0031      	movs	r1, r6
1000af48:	0028      	movs	r0, r5
1000af4a:	f7ff fe05 	bl	1000ab58 <tud_control_xfer>
1000af4e:	2001      	movs	r0, #1
1000af50:	e048      	b.n	1000afe4 <hidd_control_request+0x1a0>
1000af52:	78f0      	ldrb	r0, [r6, #3]
1000af54:	234c      	movs	r3, #76	; 0x4c
1000af56:	435c      	muls	r4, r3
1000af58:	4b28      	ldr	r3, [pc, #160]	; (1000affc <hidd_control_request+0x1b8>)
1000af5a:	191b      	adds	r3, r3, r4
1000af5c:	7158      	strb	r0, [r3, #5]
1000af5e:	4b2b      	ldr	r3, [pc, #172]	; (1000b00c <hidd_control_request+0x1c8>)
1000af60:	2b00      	cmp	r3, #0
1000af62:	d003      	beq.n	1000af6c <hidd_control_request+0x128>
1000af64:	e000      	b.n	1000af68 <hidd_control_request+0x124>
1000af66:	bf00      	nop
1000af68:	2800      	cmp	r0, #0
1000af6a:	d03b      	beq.n	1000afe4 <hidd_control_request+0x1a0>
1000af6c:	0031      	movs	r1, r6
1000af6e:	0028      	movs	r0, r5
1000af70:	f7ff fdd6 	bl	1000ab20 <tud_control_status>
1000af74:	2001      	movs	r0, #1
1000af76:	e035      	b.n	1000afe4 <hidd_control_request+0x1a0>
1000af78:	224c      	movs	r2, #76	; 0x4c
1000af7a:	4354      	muls	r4, r2
1000af7c:	4a1f      	ldr	r2, [pc, #124]	; (1000affc <hidd_control_request+0x1b8>)
1000af7e:	1912      	adds	r2, r2, r4
1000af80:	3205      	adds	r2, #5
1000af82:	2301      	movs	r3, #1
1000af84:	0031      	movs	r1, r6
1000af86:	0028      	movs	r0, r5
1000af88:	f7ff fde6 	bl	1000ab58 <tud_control_xfer>
1000af8c:	2001      	movs	r0, #1
1000af8e:	e029      	b.n	1000afe4 <hidd_control_request+0x1a0>
1000af90:	234c      	movs	r3, #76	; 0x4c
1000af92:	435c      	muls	r4, r3
1000af94:	4b19      	ldr	r3, [pc, #100]	; (1000affc <hidd_control_request+0x1b8>)
1000af96:	191b      	adds	r3, r3, r4
1000af98:	791a      	ldrb	r2, [r3, #4]
1000af9a:	2301      	movs	r3, #1
1000af9c:	1a9b      	subs	r3, r3, r2
1000af9e:	466a      	mov	r2, sp
1000afa0:	3207      	adds	r2, #7
1000afa2:	7013      	strb	r3, [r2, #0]
1000afa4:	2301      	movs	r3, #1
1000afa6:	0031      	movs	r1, r6
1000afa8:	0028      	movs	r0, r5
1000afaa:	f7ff fdd5 	bl	1000ab58 <tud_control_xfer>
1000afae:	2001      	movs	r0, #1
1000afb0:	e018      	b.n	1000afe4 <hidd_control_request+0x1a0>
1000afb2:	78b2      	ldrb	r2, [r6, #2]
1000afb4:	78f0      	ldrb	r0, [r6, #3]
1000afb6:	0200      	lsls	r0, r0, #8
1000afb8:	4310      	orrs	r0, r2
1000afba:	3801      	subs	r0, #1
1000afbc:	1e43      	subs	r3, r0, #1
1000afbe:	4198      	sbcs	r0, r3
1000afc0:	b2c0      	uxtb	r0, r0
1000afc2:	234c      	movs	r3, #76	; 0x4c
1000afc4:	435c      	muls	r4, r3
1000afc6:	4b0d      	ldr	r3, [pc, #52]	; (1000affc <hidd_control_request+0x1b8>)
1000afc8:	191b      	adds	r3, r3, r4
1000afca:	7118      	strb	r0, [r3, #4]
1000afcc:	4b10      	ldr	r3, [pc, #64]	; (1000b010 <hidd_control_request+0x1cc>)
1000afce:	2b00      	cmp	r3, #0
1000afd0:	d001      	beq.n	1000afd6 <hidd_control_request+0x192>
1000afd2:	e000      	b.n	1000afd6 <hidd_control_request+0x192>
1000afd4:	bf00      	nop
1000afd6:	0031      	movs	r1, r6
1000afd8:	0028      	movs	r0, r5
1000afda:	f7ff fda1 	bl	1000ab20 <tud_control_status>
1000afde:	2001      	movs	r0, #1
1000afe0:	e000      	b.n	1000afe4 <hidd_control_request+0x1a0>
1000afe2:	2000      	movs	r0, #0
1000afe4:	b003      	add	sp, #12
1000afe6:	bdf0      	pop	{r4, r5, r6, r7, pc}
1000afe8:	2000      	movs	r0, #0
1000afea:	e7fb      	b.n	1000afe4 <hidd_control_request+0x1a0>
1000afec:	2000      	movs	r0, #0
1000afee:	e7f9      	b.n	1000afe4 <hidd_control_request+0x1a0>
1000aff0:	2000      	movs	r0, #0
1000aff2:	e7f7      	b.n	1000afe4 <hidd_control_request+0x1a0>
1000aff4:	2000      	movs	r0, #0
1000aff6:	e7f5      	b.n	1000afe4 <hidd_control_request+0x1a0>
1000aff8:	2000      	movs	r0, #0
1000affa:	e7f3      	b.n	1000afe4 <hidd_control_request+0x1a0>
1000affc:	20001104 	.word	0x20001104
1000b000:	1000e0dc 	.word	0x1000e0dc
1000b004:	1000e128 	.word	0x1000e128
1000b008:	1000c9cc 	.word	0x1000c9cc
	...

1000b014 <hidd_control_complete>:
1000b014:	b570      	push	{r4, r5, r6, lr}
1000b016:	7908      	ldrb	r0, [r1, #4]
1000b018:	2300      	movs	r3, #0
1000b01a:	2b00      	cmp	r3, #0
1000b01c:	d009      	beq.n	1000b032 <hidd_control_complete+0x1e>
1000b01e:	23ff      	movs	r3, #255	; 0xff
1000b020:	2b00      	cmp	r3, #0
1000b022:	d124      	bne.n	1000b06e <hidd_control_complete+0x5a>
1000b024:	7808      	ldrb	r0, [r1, #0]
1000b026:	2260      	movs	r2, #96	; 0x60
1000b028:	4002      	ands	r2, r0
1000b02a:	2a20      	cmp	r2, #32
1000b02c:	d00a      	beq.n	1000b044 <hidd_control_complete+0x30>
1000b02e:	2001      	movs	r0, #1
1000b030:	bd70      	pop	{r4, r5, r6, pc}
1000b032:	224c      	movs	r2, #76	; 0x4c
1000b034:	435a      	muls	r2, r3
1000b036:	4c0f      	ldr	r4, [pc, #60]	; (1000b074 <hidd_control_complete+0x60>)
1000b038:	5d12      	ldrb	r2, [r2, r4]
1000b03a:	4290      	cmp	r0, r2
1000b03c:	d0f0      	beq.n	1000b020 <hidd_control_complete+0xc>
1000b03e:	3301      	adds	r3, #1
1000b040:	b2db      	uxtb	r3, r3
1000b042:	e7ea      	b.n	1000b01a <hidd_control_complete+0x6>
1000b044:	784a      	ldrb	r2, [r1, #1]
1000b046:	2a09      	cmp	r2, #9
1000b048:	d001      	beq.n	1000b04e <hidd_control_complete+0x3a>
1000b04a:	2001      	movs	r0, #1
1000b04c:	e7f0      	b.n	1000b030 <hidd_control_complete+0x1c>
1000b04e:	78cc      	ldrb	r4, [r1, #3]
1000b050:	7888      	ldrb	r0, [r1, #2]
1000b052:	3243      	adds	r2, #67	; 0x43
1000b054:	435a      	muls	r2, r3
1000b056:	3228      	adds	r2, #40	; 0x28
1000b058:	4b06      	ldr	r3, [pc, #24]	; (1000b074 <hidd_control_complete+0x60>)
1000b05a:	189a      	adds	r2, r3, r2
1000b05c:	798d      	ldrb	r5, [r1, #6]
1000b05e:	79cb      	ldrb	r3, [r1, #7]
1000b060:	021b      	lsls	r3, r3, #8
1000b062:	432b      	orrs	r3, r5
1000b064:	0021      	movs	r1, r4
1000b066:	f7f5 fb9f 	bl	100007a8 <tud_hid_set_report_cb>
1000b06a:	2001      	movs	r0, #1
1000b06c:	e7e0      	b.n	1000b030 <hidd_control_complete+0x1c>
1000b06e:	2000      	movs	r0, #0
1000b070:	e7de      	b.n	1000b030 <hidd_control_complete+0x1c>
1000b072:	46c0      	nop			; (mov r8, r8)
1000b074:	20001104 	.word	0x20001104

1000b078 <hidd_xfer_cb>:
1000b078:	b570      	push	{r4, r5, r6, lr}
1000b07a:	0004      	movs	r4, r0
1000b07c:	4d12      	ldr	r5, [pc, #72]	; (1000b0c8 <hidd_xfer_cb+0x50>)
1000b07e:	2200      	movs	r2, #0
1000b080:	2a00      	cmp	r2, #0
1000b082:	d11d      	bne.n	1000b0c0 <hidd_xfer_cb+0x48>
1000b084:	78a8      	ldrb	r0, [r5, #2]
1000b086:	4288      	cmp	r0, r1
1000b088:	d003      	beq.n	1000b092 <hidd_xfer_cb+0x1a>
1000b08a:	3201      	adds	r2, #1
1000b08c:	b2d2      	uxtb	r2, r2
1000b08e:	354c      	adds	r5, #76	; 0x4c
1000b090:	e7f6      	b.n	1000b080 <hidd_xfer_cb+0x8>
1000b092:	002e      	movs	r6, r5
1000b094:	3628      	adds	r6, #40	; 0x28
1000b096:	b29b      	uxth	r3, r3
1000b098:	0032      	movs	r2, r6
1000b09a:	2100      	movs	r1, #0
1000b09c:	2000      	movs	r0, #0
1000b09e:	f7f5 fb83 	bl	100007a8 <tud_hid_set_report_cb>
1000b0a2:	78a9      	ldrb	r1, [r5, #2]
1000b0a4:	2320      	movs	r3, #32
1000b0a6:	0032      	movs	r2, r6
1000b0a8:	0020      	movs	r0, r4
1000b0aa:	f7ff f9c7 	bl	1000a43c <usbd_edpt_xfer>
1000b0ae:	1e04      	subs	r4, r0, #0
1000b0b0:	d107      	bne.n	1000b0c2 <hidd_xfer_cb+0x4a>
1000b0b2:	22c0      	movs	r2, #192	; 0xc0
1000b0b4:	0052      	lsls	r2, r2, #1
1000b0b6:	4905      	ldr	r1, [pc, #20]	; (1000b0cc <hidd_xfer_cb+0x54>)
1000b0b8:	4805      	ldr	r0, [pc, #20]	; (1000b0d0 <hidd_xfer_cb+0x58>)
1000b0ba:	f7fd fe3f 	bl	10008d3c <__wrap_printf>
1000b0be:	e000      	b.n	1000b0c2 <hidd_xfer_cb+0x4a>
1000b0c0:	2400      	movs	r4, #0
1000b0c2:	0020      	movs	r0, r4
1000b0c4:	bd70      	pop	{r4, r5, r6, pc}
1000b0c6:	46c0      	nop			; (mov r8, r8)
1000b0c8:	20001104 	.word	0x20001104
1000b0cc:	1000e118 	.word	0x1000e118
1000b0d0:	1000c9cc 	.word	0x1000c9cc

1000b0d4 <write_flush>:
1000b0d4:	b570      	push	{r4, r5, r6, lr}
1000b0d6:	0004      	movs	r4, r0
1000b0d8:	0005      	movs	r5, r0
1000b0da:	351c      	adds	r5, #28
1000b0dc:	0028      	movs	r0, r5
1000b0de:	f000 fb10 	bl	1000b702 <tu_fifo_count>
1000b0e2:	2800      	cmp	r0, #0
1000b0e4:	d101      	bne.n	1000b0ea <write_flush+0x16>
1000b0e6:	2000      	movs	r0, #0
1000b0e8:	bd70      	pop	{r4, r5, r6, pc}
1000b0ea:	7861      	ldrb	r1, [r4, #1]
1000b0ec:	2000      	movs	r0, #0
1000b0ee:	f7ff f92b 	bl	1000a348 <usbd_edpt_claim>
1000b0f2:	2800      	cmp	r0, #0
1000b0f4:	d101      	bne.n	1000b0fa <write_flush+0x26>
1000b0f6:	2000      	movs	r0, #0
1000b0f8:	e7f6      	b.n	1000b0e8 <write_flush+0x14>
1000b0fa:	0026      	movs	r6, r4
1000b0fc:	3611      	adds	r6, #17
1000b0fe:	36ff      	adds	r6, #255	; 0xff
1000b100:	2240      	movs	r2, #64	; 0x40
1000b102:	0031      	movs	r1, r6
1000b104:	0028      	movs	r0, r5
1000b106:	f000 fb27 	bl	1000b758 <tu_fifo_read_n>
1000b10a:	1e05      	subs	r5, r0, #0
1000b10c:	d010      	beq.n	1000b130 <write_flush+0x5c>
1000b10e:	7861      	ldrb	r1, [r4, #1]
1000b110:	0003      	movs	r3, r0
1000b112:	0032      	movs	r2, r6
1000b114:	2000      	movs	r0, #0
1000b116:	f7ff f991 	bl	1000a43c <usbd_edpt_xfer>
1000b11a:	2800      	cmp	r0, #0
1000b11c:	d001      	beq.n	1000b122 <write_flush+0x4e>
1000b11e:	0028      	movs	r0, r5
1000b120:	e7e2      	b.n	1000b0e8 <write_flush+0x14>
1000b122:	22a7      	movs	r2, #167	; 0xa7
1000b124:	4905      	ldr	r1, [pc, #20]	; (1000b13c <write_flush+0x68>)
1000b126:	4806      	ldr	r0, [pc, #24]	; (1000b140 <write_flush+0x6c>)
1000b128:	f7fd fe08 	bl	10008d3c <__wrap_printf>
1000b12c:	2000      	movs	r0, #0
1000b12e:	e7db      	b.n	1000b0e8 <write_flush+0x14>
1000b130:	7861      	ldrb	r1, [r4, #1]
1000b132:	2000      	movs	r0, #0
1000b134:	f7ff f94e 	bl	1000a3d4 <usbd_edpt_release>
1000b138:	2000      	movs	r0, #0
1000b13a:	e7d5      	b.n	1000b0e8 <write_flush+0x14>
1000b13c:	1000e174 	.word	0x1000e174
1000b140:	1000c9cc 	.word	0x1000c9cc

1000b144 <midid_init>:
1000b144:	b5f0      	push	{r4, r5, r6, r7, lr}
1000b146:	46ce      	mov	lr, r9
1000b148:	4647      	mov	r7, r8
1000b14a:	b580      	push	{r7, lr}
1000b14c:	b083      	sub	sp, #12
1000b14e:	22a8      	movs	r2, #168	; 0xa8
1000b150:	0052      	lsls	r2, r2, #1
1000b152:	2100      	movs	r1, #0
1000b154:	4824      	ldr	r0, [pc, #144]	; (1000b1e8 <midid_init+0xa4>)
1000b156:	f7fd fcb7 	bl	10008ac8 <__wrap_memset>
1000b15a:	2300      	movs	r3, #0
1000b15c:	4698      	mov	r8, r3
1000b15e:	4643      	mov	r3, r8
1000b160:	2b00      	cmp	r3, #0
1000b162:	d004      	beq.n	1000b16e <midid_init+0x2a>
1000b164:	b003      	add	sp, #12
1000b166:	bcc0      	pop	{r6, r7}
1000b168:	46b9      	mov	r9, r7
1000b16a:	46b0      	mov	r8, r6
1000b16c:	bdf0      	pop	{r4, r5, r6, r7, pc}
1000b16e:	4643      	mov	r3, r8
1000b170:	005d      	lsls	r5, r3, #1
1000b172:	4445      	add	r5, r8
1000b174:	00ec      	lsls	r4, r5, #3
1000b176:	1b63      	subs	r3, r4, r5
1000b178:	0119      	lsls	r1, r3, #4
1000b17a:	3130      	adds	r1, #48	; 0x30
1000b17c:	4e1a      	ldr	r6, [pc, #104]	; (1000b1e8 <midid_init+0xa4>)
1000b17e:	1989      	adds	r1, r1, r6
1000b180:	3104      	adds	r1, #4
1000b182:	011b      	lsls	r3, r3, #4
1000b184:	4699      	mov	r9, r3
1000b186:	44b1      	add	r9, r6
1000b188:	464b      	mov	r3, r9
1000b18a:	1d18      	adds	r0, r3, #4
1000b18c:	2701      	movs	r7, #1
1000b18e:	9700      	str	r7, [sp, #0]
1000b190:	2301      	movs	r3, #1
1000b192:	2240      	movs	r2, #64	; 0x40
1000b194:	f000 fa91 	bl	1000b6ba <tu_fifo_config>
1000b198:	1b63      	subs	r3, r4, r5
1000b19a:	0119      	lsls	r1, r3, #4
1000b19c:	3170      	adds	r1, #112	; 0x70
1000b19e:	1989      	adds	r1, r1, r6
1000b1a0:	3104      	adds	r1, #4
1000b1a2:	0118      	lsls	r0, r3, #4
1000b1a4:	3018      	adds	r0, #24
1000b1a6:	1980      	adds	r0, r0, r6
1000b1a8:	3004      	adds	r0, #4
1000b1aa:	9700      	str	r7, [sp, #0]
1000b1ac:	2301      	movs	r3, #1
1000b1ae:	2240      	movs	r2, #64	; 0x40
1000b1b0:	f000 fa83 	bl	1000b6ba <tu_fifo_config>
1000b1b4:	1b63      	subs	r3, r4, r5
1000b1b6:	011f      	lsls	r7, r3, #4
1000b1b8:	37b0      	adds	r7, #176	; 0xb0
1000b1ba:	19bf      	adds	r7, r7, r6
1000b1bc:	3704      	adds	r7, #4
1000b1be:	0038      	movs	r0, r7
1000b1c0:	f7fa fd96 	bl	10005cf0 <mutex_init>
1000b1c4:	464b      	mov	r3, r9
1000b1c6:	619f      	str	r7, [r3, #24]
1000b1c8:	1b63      	subs	r3, r4, r5
1000b1ca:	011f      	lsls	r7, r3, #4
1000b1cc:	37b8      	adds	r7, #184	; 0xb8
1000b1ce:	19bf      	adds	r7, r7, r6
1000b1d0:	3704      	adds	r7, #4
1000b1d2:	0038      	movs	r0, r7
1000b1d4:	f7fa fd8c 	bl	10005cf0 <mutex_init>
1000b1d8:	464e      	mov	r6, r9
1000b1da:	6337      	str	r7, [r6, #48]	; 0x30
1000b1dc:	4643      	mov	r3, r8
1000b1de:	3301      	adds	r3, #1
1000b1e0:	b2db      	uxtb	r3, r3
1000b1e2:	4698      	mov	r8, r3
1000b1e4:	e7bb      	b.n	1000b15e <midid_init+0x1a>
1000b1e6:	46c0      	nop			; (mov r8, r8)
1000b1e8:	20001150 	.word	0x20001150

1000b1ec <midid_reset>:
1000b1ec:	b5f0      	push	{r4, r5, r6, r7, lr}
1000b1ee:	46c6      	mov	lr, r8
1000b1f0:	b500      	push	{lr}
1000b1f2:	2400      	movs	r4, #0
1000b1f4:	2c00      	cmp	r4, #0
1000b1f6:	d002      	beq.n	1000b1fe <midid_reset+0x12>
1000b1f8:	bc80      	pop	{r7}
1000b1fa:	46b8      	mov	r8, r7
1000b1fc:	bdf0      	pop	{r4, r5, r6, r7, pc}
1000b1fe:	0066      	lsls	r6, r4, #1
1000b200:	46b0      	mov	r8, r6
1000b202:	44a0      	add	r8, r4
1000b204:	4643      	mov	r3, r8
1000b206:	00de      	lsls	r6, r3, #3
1000b208:	1af3      	subs	r3, r6, r3
1000b20a:	011d      	lsls	r5, r3, #4
1000b20c:	4f0a      	ldr	r7, [pc, #40]	; (1000b238 <midid_reset+0x4c>)
1000b20e:	19ed      	adds	r5, r5, r7
1000b210:	2204      	movs	r2, #4
1000b212:	2100      	movs	r1, #0
1000b214:	0028      	movs	r0, r5
1000b216:	f7fd fc57 	bl	10008ac8 <__wrap_memset>
1000b21a:	1d28      	adds	r0, r5, #4
1000b21c:	f000 fb27 	bl	1000b86e <tu_fifo_clear>
1000b220:	4643      	mov	r3, r8
1000b222:	1af6      	subs	r6, r6, r3
1000b224:	0130      	lsls	r0, r6, #4
1000b226:	3018      	adds	r0, #24
1000b228:	19c0      	adds	r0, r0, r7
1000b22a:	3004      	adds	r0, #4
1000b22c:	f000 fb1f 	bl	1000b86e <tu_fifo_clear>
1000b230:	3401      	adds	r4, #1
1000b232:	b2e4      	uxtb	r4, r4
1000b234:	e7de      	b.n	1000b1f4 <midid_reset+0x8>
1000b236:	46c0      	nop			; (mov r8, r8)
1000b238:	20001150 	.word	0x20001150

1000b23c <midid_open>:
1000b23c:	b5f0      	push	{r4, r5, r6, r7, lr}
1000b23e:	46d6      	mov	lr, sl
1000b240:	464f      	mov	r7, r9
1000b242:	b580      	push	{r7, lr}
1000b244:	b083      	sub	sp, #12
1000b246:	9001      	str	r0, [sp, #4]
1000b248:	0016      	movs	r6, r2
1000b24a:	794b      	ldrb	r3, [r1, #5]
1000b24c:	2b01      	cmp	r3, #1
1000b24e:	d000      	beq.n	1000b252 <midid_open+0x16>
1000b250:	e08a      	b.n	1000b368 <midid_open+0x12c>
1000b252:	798b      	ldrb	r3, [r1, #6]
1000b254:	2b01      	cmp	r3, #1
1000b256:	d000      	beq.n	1000b25a <midid_open+0x1e>
1000b258:	e08d      	b.n	1000b376 <midid_open+0x13a>
1000b25a:	79cb      	ldrb	r3, [r1, #7]
1000b25c:	2b00      	cmp	r3, #0
1000b25e:	d000      	beq.n	1000b262 <midid_open+0x26>
1000b260:	e08b      	b.n	1000b37a <midid_open+0x13e>
1000b262:	780c      	ldrb	r4, [r1, #0]
1000b264:	0022      	movs	r2, r4
1000b266:	190c      	adds	r4, r1, r4
1000b268:	7863      	ldrb	r3, [r4, #1]
1000b26a:	2b24      	cmp	r3, #36	; 0x24
1000b26c:	d106      	bne.n	1000b27c <midid_open+0x40>
1000b26e:	42b2      	cmp	r2, r6
1000b270:	d804      	bhi.n	1000b27c <midid_open+0x40>
1000b272:	7821      	ldrb	r1, [r4, #0]
1000b274:	188a      	adds	r2, r1, r2
1000b276:	b292      	uxth	r2, r2
1000b278:	1864      	adds	r4, r4, r1
1000b27a:	e7f5      	b.n	1000b268 <midid_open+0x2c>
1000b27c:	2b04      	cmp	r3, #4
1000b27e:	d000      	beq.n	1000b282 <midid_open+0x46>
1000b280:	e07d      	b.n	1000b37e <midid_open+0x142>
1000b282:	7963      	ldrb	r3, [r4, #5]
1000b284:	2b01      	cmp	r3, #1
1000b286:	d000      	beq.n	1000b28a <midid_open+0x4e>
1000b288:	e07b      	b.n	1000b382 <midid_open+0x146>
1000b28a:	79a3      	ldrb	r3, [r4, #6]
1000b28c:	2b03      	cmp	r3, #3
1000b28e:	d000      	beq.n	1000b292 <midid_open+0x56>
1000b290:	e079      	b.n	1000b386 <midid_open+0x14a>
1000b292:	79e3      	ldrb	r3, [r4, #7]
1000b294:	4699      	mov	r9, r3
1000b296:	2b00      	cmp	r3, #0
1000b298:	d000      	beq.n	1000b29c <midid_open+0x60>
1000b29a:	e076      	b.n	1000b38a <midid_open+0x14e>
1000b29c:	2b00      	cmp	r3, #0
1000b29e:	d009      	beq.n	1000b2b4 <midid_open+0x78>
1000b2a0:	2300      	movs	r3, #0
1000b2a2:	469a      	mov	sl, r3
1000b2a4:	78a3      	ldrb	r3, [r4, #2]
1000b2a6:	4651      	mov	r1, sl
1000b2a8:	700b      	strb	r3, [r1, #0]
1000b2aa:	7825      	ldrb	r5, [r4, #0]
1000b2ac:	18ab      	adds	r3, r5, r2
1000b2ae:	b29f      	uxth	r7, r3
1000b2b0:	1965      	adds	r5, r4, r5
1000b2b2:	e033      	b.n	1000b31c <midid_open+0xe0>
1000b2b4:	0018      	movs	r0, r3
1000b2b6:	005f      	lsls	r7, r3, #1
1000b2b8:	18ff      	adds	r7, r7, r3
1000b2ba:	00f9      	lsls	r1, r7, #3
1000b2bc:	1bc9      	subs	r1, r1, r7
1000b2be:	0109      	lsls	r1, r1, #4
1000b2c0:	4f33      	ldr	r7, [pc, #204]	; (1000b390 <midid_open+0x154>)
1000b2c2:	1879      	adds	r1, r7, r1
1000b2c4:	7849      	ldrb	r1, [r1, #1]
1000b2c6:	2900      	cmp	r1, #0
1000b2c8:	d109      	bne.n	1000b2de <midid_open+0xa2>
1000b2ca:	005f      	lsls	r7, r3, #1
1000b2cc:	18ff      	adds	r7, r7, r3
1000b2ce:	00f9      	lsls	r1, r7, #3
1000b2d0:	1bc9      	subs	r1, r1, r7
1000b2d2:	0109      	lsls	r1, r1, #4
1000b2d4:	4f2e      	ldr	r7, [pc, #184]	; (1000b390 <midid_open+0x154>)
1000b2d6:	1879      	adds	r1, r7, r1
1000b2d8:	7889      	ldrb	r1, [r1, #2]
1000b2da:	2900      	cmp	r1, #0
1000b2dc:	d002      	beq.n	1000b2e4 <midid_open+0xa8>
1000b2de:	3301      	adds	r3, #1
1000b2e0:	b2db      	uxtb	r3, r3
1000b2e2:	e7db      	b.n	1000b29c <midid_open+0x60>
1000b2e4:	23a8      	movs	r3, #168	; 0xa8
1000b2e6:	005b      	lsls	r3, r3, #1
1000b2e8:	4358      	muls	r0, r3
1000b2ea:	4682      	mov	sl, r0
1000b2ec:	44ba      	add	sl, r7
1000b2ee:	e7d9      	b.n	1000b2a4 <midid_open+0x68>
1000b2f0:	22ae      	movs	r2, #174	; 0xae
1000b2f2:	0052      	lsls	r2, r2, #1
1000b2f4:	4927      	ldr	r1, [pc, #156]	; (1000b394 <midid_open+0x158>)
1000b2f6:	4828      	ldr	r0, [pc, #160]	; (1000b398 <midid_open+0x15c>)
1000b2f8:	f7fd fd20 	bl	10008d3c <__wrap_printf>
1000b2fc:	2700      	movs	r7, #0
1000b2fe:	e034      	b.n	1000b36a <midid_open+0x12e>
1000b300:	4652      	mov	r2, sl
1000b302:	7053      	strb	r3, [r2, #1]
1000b304:	782b      	ldrb	r3, [r5, #0]
1000b306:	19df      	adds	r7, r3, r7
1000b308:	b2bf      	uxth	r7, r7
1000b30a:	18ed      	adds	r5, r5, r3
1000b30c:	464b      	mov	r3, r9
1000b30e:	3301      	adds	r3, #1
1000b310:	b2db      	uxtb	r3, r3
1000b312:	4699      	mov	r9, r3
1000b314:	782b      	ldrb	r3, [r5, #0]
1000b316:	19df      	adds	r7, r3, r7
1000b318:	b2bf      	uxth	r7, r7
1000b31a:	18ed      	adds	r5, r5, r3
1000b31c:	7923      	ldrb	r3, [r4, #4]
1000b31e:	454b      	cmp	r3, r9
1000b320:	d911      	bls.n	1000b346 <midid_open+0x10a>
1000b322:	42b7      	cmp	r7, r6
1000b324:	d80f      	bhi.n	1000b346 <midid_open+0x10a>
1000b326:	786b      	ldrb	r3, [r5, #1]
1000b328:	2b05      	cmp	r3, #5
1000b32a:	d1f3      	bne.n	1000b314 <midid_open+0xd8>
1000b32c:	0029      	movs	r1, r5
1000b32e:	9801      	ldr	r0, [sp, #4]
1000b330:	f7fe ffbf 	bl	1000a2b2 <usbd_edpt_open>
1000b334:	2800      	cmp	r0, #0
1000b336:	d0db      	beq.n	1000b2f0 <midid_open+0xb4>
1000b338:	78ab      	ldrb	r3, [r5, #2]
1000b33a:	09da      	lsrs	r2, r3, #7
1000b33c:	2a01      	cmp	r2, #1
1000b33e:	d0df      	beq.n	1000b300 <midid_open+0xc4>
1000b340:	4652      	mov	r2, sl
1000b342:	7093      	strb	r3, [r2, #2]
1000b344:	e7de      	b.n	1000b304 <midid_open+0xc8>
1000b346:	4652      	mov	r2, sl
1000b348:	32d0      	adds	r2, #208	; 0xd0
1000b34a:	4653      	mov	r3, sl
1000b34c:	7899      	ldrb	r1, [r3, #2]
1000b34e:	2340      	movs	r3, #64	; 0x40
1000b350:	9801      	ldr	r0, [sp, #4]
1000b352:	f7ff f873 	bl	1000a43c <usbd_edpt_xfer>
1000b356:	2800      	cmp	r0, #0
1000b358:	d107      	bne.n	1000b36a <midid_open+0x12e>
1000b35a:	2274      	movs	r2, #116	; 0x74
1000b35c:	32ff      	adds	r2, #255	; 0xff
1000b35e:	490f      	ldr	r1, [pc, #60]	; (1000b39c <midid_open+0x160>)
1000b360:	480f      	ldr	r0, [pc, #60]	; (1000b3a0 <midid_open+0x164>)
1000b362:	f7fd fceb 	bl	10008d3c <__wrap_printf>
1000b366:	e000      	b.n	1000b36a <midid_open+0x12e>
1000b368:	2700      	movs	r7, #0
1000b36a:	0038      	movs	r0, r7
1000b36c:	b003      	add	sp, #12
1000b36e:	bcc0      	pop	{r6, r7}
1000b370:	46ba      	mov	sl, r7
1000b372:	46b1      	mov	r9, r6
1000b374:	bdf0      	pop	{r4, r5, r6, r7, pc}
1000b376:	2700      	movs	r7, #0
1000b378:	e7f7      	b.n	1000b36a <midid_open+0x12e>
1000b37a:	2700      	movs	r7, #0
1000b37c:	e7f5      	b.n	1000b36a <midid_open+0x12e>
1000b37e:	2700      	movs	r7, #0
1000b380:	e7f3      	b.n	1000b36a <midid_open+0x12e>
1000b382:	2700      	movs	r7, #0
1000b384:	e7f1      	b.n	1000b36a <midid_open+0x12e>
1000b386:	2700      	movs	r7, #0
1000b388:	e7ef      	b.n	1000b36a <midid_open+0x12e>
1000b38a:	2700      	movs	r7, #0
1000b38c:	e7ed      	b.n	1000b36a <midid_open+0x12e>
1000b38e:	46c0      	nop			; (mov r8, r8)
1000b390:	20001150 	.word	0x20001150
1000b394:	1000e168 	.word	0x1000e168
1000b398:	1000c9cc 	.word	0x1000c9cc
1000b39c:	1000e14c 	.word	0x1000e14c
1000b3a0:	1000c9e4 	.word	0x1000c9e4

1000b3a4 <midid_control_complete>:
1000b3a4:	2001      	movs	r0, #1
1000b3a6:	4770      	bx	lr

1000b3a8 <midid_control_request>:
1000b3a8:	2000      	movs	r0, #0
1000b3aa:	4770      	bx	lr

1000b3ac <midid_xfer_cb>:
1000b3ac:	b5f0      	push	{r4, r5, r6, r7, lr}
1000b3ae:	46c6      	mov	lr, r8
1000b3b0:	b500      	push	{lr}
1000b3b2:	0007      	movs	r7, r0
1000b3b4:	001e      	movs	r6, r3
1000b3b6:	2400      	movs	r4, #0
1000b3b8:	2c00      	cmp	r4, #0
1000b3ba:	d00c      	beq.n	1000b3d6 <midid_xfer_cb+0x2a>
1000b3bc:	2c00      	cmp	r4, #0
1000b3be:	d11a      	bne.n	1000b3f6 <midid_xfer_cb+0x4a>
1000b3c0:	78ab      	ldrb	r3, [r5, #2]
1000b3c2:	428b      	cmp	r3, r1
1000b3c4:	d01f      	beq.n	1000b406 <midid_xfer_cb+0x5a>
1000b3c6:	786b      	ldrb	r3, [r5, #1]
1000b3c8:	428b      	cmp	r3, r1
1000b3ca:	d039      	beq.n	1000b440 <midid_xfer_cb+0x94>
1000b3cc:	2401      	movs	r4, #1
1000b3ce:	0020      	movs	r0, r4
1000b3d0:	bc80      	pop	{r7}
1000b3d2:	46b8      	mov	r8, r7
1000b3d4:	bdf0      	pop	{r4, r5, r6, r7, pc}
1000b3d6:	0063      	lsls	r3, r4, #1
1000b3d8:	191b      	adds	r3, r3, r4
1000b3da:	00dd      	lsls	r5, r3, #3
1000b3dc:	1aed      	subs	r5, r5, r3
1000b3de:	012d      	lsls	r5, r5, #4
1000b3e0:	4b2a      	ldr	r3, [pc, #168]	; (1000b48c <midid_xfer_cb+0xe0>)
1000b3e2:	18ed      	adds	r5, r5, r3
1000b3e4:	78ab      	ldrb	r3, [r5, #2]
1000b3e6:	428b      	cmp	r3, r1
1000b3e8:	d0e8      	beq.n	1000b3bc <midid_xfer_cb+0x10>
1000b3ea:	786b      	ldrb	r3, [r5, #1]
1000b3ec:	428b      	cmp	r3, r1
1000b3ee:	d0e5      	beq.n	1000b3bc <midid_xfer_cb+0x10>
1000b3f0:	3401      	adds	r4, #1
1000b3f2:	b2e4      	uxtb	r4, r4
1000b3f4:	e7e0      	b.n	1000b3b8 <midid_xfer_cb+0xc>
1000b3f6:	2298      	movs	r2, #152	; 0x98
1000b3f8:	32ff      	adds	r2, #255	; 0xff
1000b3fa:	4925      	ldr	r1, [pc, #148]	; (1000b490 <midid_xfer_cb+0xe4>)
1000b3fc:	4825      	ldr	r0, [pc, #148]	; (1000b494 <midid_xfer_cb+0xe8>)
1000b3fe:	f7fd fc9d 	bl	10008d3c <__wrap_printf>
1000b402:	2400      	movs	r4, #0
1000b404:	e7e3      	b.n	1000b3ce <midid_xfer_cb+0x22>
1000b406:	23d0      	movs	r3, #208	; 0xd0
1000b408:	4698      	mov	r8, r3
1000b40a:	44a8      	add	r8, r5
1000b40c:	b2b2      	uxth	r2, r6
1000b40e:	1d28      	adds	r0, r5, #4
1000b410:	4641      	mov	r1, r8
1000b412:	f000 f9ee 	bl	1000b7f2 <tu_fifo_write_n>
1000b416:	4b20      	ldr	r3, [pc, #128]	; (1000b498 <midid_xfer_cb+0xec>)
1000b418:	2b00      	cmp	r3, #0
1000b41a:	d002      	beq.n	1000b422 <midid_xfer_cb+0x76>
1000b41c:	0020      	movs	r0, r4
1000b41e:	e000      	b.n	1000b422 <midid_xfer_cb+0x76>
1000b420:	bf00      	nop
1000b422:	78a9      	ldrb	r1, [r5, #2]
1000b424:	2340      	movs	r3, #64	; 0x40
1000b426:	4642      	mov	r2, r8
1000b428:	0038      	movs	r0, r7
1000b42a:	f7ff f807 	bl	1000a43c <usbd_edpt_xfer>
1000b42e:	1e04      	subs	r4, r0, #0
1000b430:	d1cd      	bne.n	1000b3ce <midid_xfer_cb+0x22>
1000b432:	22d2      	movs	r2, #210	; 0xd2
1000b434:	0052      	lsls	r2, r2, #1
1000b436:	4916      	ldr	r1, [pc, #88]	; (1000b490 <midid_xfer_cb+0xe4>)
1000b438:	4816      	ldr	r0, [pc, #88]	; (1000b494 <midid_xfer_cb+0xe8>)
1000b43a:	f7fd fc7f 	bl	10008d3c <__wrap_printf>
1000b43e:	e7c6      	b.n	1000b3ce <midid_xfer_cb+0x22>
1000b440:	0028      	movs	r0, r5
1000b442:	f7ff fe47 	bl	1000b0d4 <write_flush>
1000b446:	2800      	cmp	r0, #0
1000b448:	d001      	beq.n	1000b44e <midid_xfer_cb+0xa2>
1000b44a:	2401      	movs	r4, #1
1000b44c:	e7bf      	b.n	1000b3ce <midid_xfer_cb+0x22>
1000b44e:	0028      	movs	r0, r5
1000b450:	301c      	adds	r0, #28
1000b452:	f000 f956 	bl	1000b702 <tu_fifo_count>
1000b456:	2800      	cmp	r0, #0
1000b458:	d114      	bne.n	1000b484 <midid_xfer_cb+0xd8>
1000b45a:	2e00      	cmp	r6, #0
1000b45c:	d014      	beq.n	1000b488 <midid_xfer_cb+0xdc>
1000b45e:	06b3      	lsls	r3, r6, #26
1000b460:	d001      	beq.n	1000b466 <midid_xfer_cb+0xba>
1000b462:	2401      	movs	r4, #1
1000b464:	e7b3      	b.n	1000b3ce <midid_xfer_cb+0x22>
1000b466:	7869      	ldrb	r1, [r5, #1]
1000b468:	0038      	movs	r0, r7
1000b46a:	f7fe ff6d 	bl	1000a348 <usbd_edpt_claim>
1000b46e:	1e04      	subs	r4, r0, #0
1000b470:	d101      	bne.n	1000b476 <midid_xfer_cb+0xca>
1000b472:	2401      	movs	r4, #1
1000b474:	e7ab      	b.n	1000b3ce <midid_xfer_cb+0x22>
1000b476:	7869      	ldrb	r1, [r5, #1]
1000b478:	2300      	movs	r3, #0
1000b47a:	2200      	movs	r2, #0
1000b47c:	0038      	movs	r0, r7
1000b47e:	f7fe ffdd 	bl	1000a43c <usbd_edpt_xfer>
1000b482:	e7a4      	b.n	1000b3ce <midid_xfer_cb+0x22>
1000b484:	2401      	movs	r4, #1
1000b486:	e7a2      	b.n	1000b3ce <midid_xfer_cb+0x22>
1000b488:	2401      	movs	r4, #1
1000b48a:	e7a0      	b.n	1000b3ce <midid_xfer_cb+0x22>
1000b48c:	20001150 	.word	0x20001150
1000b490:	1000e158 	.word	0x1000e158
1000b494:	1000c9cc 	.word	0x1000c9cc
1000b498:	00000000 	.word	0x00000000

1000b49c <tusb_init>:
1000b49c:	b570      	push	{r4, r5, r6, lr}
1000b49e:	4b0a      	ldr	r3, [pc, #40]	; (1000b4c8 <tusb_init+0x2c>)
1000b4a0:	781c      	ldrb	r4, [r3, #0]
1000b4a2:	2c00      	cmp	r4, #0
1000b4a4:	d001      	beq.n	1000b4aa <tusb_init+0xe>
1000b4a6:	0020      	movs	r0, r4
1000b4a8:	bd70      	pop	{r4, r5, r6, pc}
1000b4aa:	f7fe fd75 	bl	10009f98 <tud_init>
1000b4ae:	1e05      	subs	r5, r0, #0
1000b4b0:	d003      	beq.n	1000b4ba <tusb_init+0x1e>
1000b4b2:	4b05      	ldr	r3, [pc, #20]	; (1000b4c8 <tusb_init+0x2c>)
1000b4b4:	2201      	movs	r2, #1
1000b4b6:	701a      	strb	r2, [r3, #0]
1000b4b8:	e7f5      	b.n	1000b4a6 <tusb_init+0xa>
1000b4ba:	2232      	movs	r2, #50	; 0x32
1000b4bc:	4903      	ldr	r1, [pc, #12]	; (1000b4cc <tusb_init+0x30>)
1000b4be:	4804      	ldr	r0, [pc, #16]	; (1000b4d0 <tusb_init+0x34>)
1000b4c0:	f7fd fc3c 	bl	10008d3c <__wrap_printf>
1000b4c4:	002c      	movs	r4, r5
1000b4c6:	e7ee      	b.n	1000b4a6 <tusb_init+0xa>
1000b4c8:	20002609 	.word	0x20002609
1000b4cc:	1000e180 	.word	0x1000e180
1000b4d0:	1000c9cc 	.word	0x1000c9cc

1000b4d4 <tusb_inited>:
1000b4d4:	4b01      	ldr	r3, [pc, #4]	; (1000b4dc <tusb_inited+0x8>)
1000b4d6:	7818      	ldrb	r0, [r3, #0]
1000b4d8:	4770      	bx	lr
1000b4da:	46c0      	nop			; (mov r8, r8)
1000b4dc:	20002609 	.word	0x20002609

1000b4e0 <advance_pointer>:
1000b4e0:	b510      	push	{r4, lr}
1000b4e2:	0003      	movs	r3, r0
1000b4e4:	0010      	movs	r0, r2
1000b4e6:	188c      	adds	r4, r1, r2
1000b4e8:	899a      	ldrh	r2, [r3, #12]
1000b4ea:	4294      	cmp	r4, r2
1000b4ec:	dd04      	ble.n	1000b4f8 <advance_pointer+0x18>
1000b4ee:	b2a0      	uxth	r0, r4
1000b4f0:	8959      	ldrh	r1, [r3, #10]
1000b4f2:	1840      	adds	r0, r0, r1
1000b4f4:	b280      	uxth	r0, r0
1000b4f6:	bd10      	pop	{r4, pc}
1000b4f8:	1808      	adds	r0, r1, r0
1000b4fa:	b280      	uxth	r0, r0
1000b4fc:	e7fb      	b.n	1000b4f6 <advance_pointer+0x16>

1000b4fe <backward_pointer>:
1000b4fe:	b510      	push	{r4, lr}
1000b500:	1a8c      	subs	r4, r1, r2
1000b502:	8983      	ldrh	r3, [r0, #12]
1000b504:	429c      	cmp	r4, r3
1000b506:	dd04      	ble.n	1000b512 <backward_pointer+0x14>
1000b508:	b2a1      	uxth	r1, r4
1000b50a:	8940      	ldrh	r0, [r0, #10]
1000b50c:	1a08      	subs	r0, r1, r0
1000b50e:	b280      	uxth	r0, r0
1000b510:	bd10      	pop	{r4, pc}
1000b512:	1a89      	subs	r1, r1, r2
1000b514:	b288      	uxth	r0, r1
1000b516:	e7fb      	b.n	1000b510 <backward_pointer+0x12>

1000b518 <get_relative_pointer>:
1000b518:	b510      	push	{r4, lr}
1000b51a:	0004      	movs	r4, r0
1000b51c:	f7ff ffe0 	bl	1000b4e0 <advance_pointer>
1000b520:	88a3      	ldrh	r3, [r4, #4]
1000b522:	e001      	b.n	1000b528 <get_relative_pointer+0x10>
1000b524:	1ac0      	subs	r0, r0, r3
1000b526:	b280      	uxth	r0, r0
1000b528:	4283      	cmp	r3, r0
1000b52a:	d9fb      	bls.n	1000b524 <get_relative_pointer+0xc>
1000b52c:	bd10      	pop	{r4, pc}

1000b52e <tu_fifo_lock>:
1000b52e:	b510      	push	{r4, lr}
1000b530:	6940      	ldr	r0, [r0, #20]
1000b532:	2800      	cmp	r0, #0
1000b534:	d003      	beq.n	1000b53e <tu_fifo_lock+0x10>
1000b536:	2101      	movs	r1, #1
1000b538:	4249      	negs	r1, r1
1000b53a:	f000 fac1 	bl	1000bac0 <__mutex_enter_timeout_ms_veneer>
1000b53e:	bd10      	pop	{r4, pc}

1000b540 <tu_fifo_unlock>:
1000b540:	b510      	push	{r4, lr}
1000b542:	6940      	ldr	r0, [r0, #20]
1000b544:	2800      	cmp	r0, #0
1000b546:	d001      	beq.n	1000b54c <tu_fifo_unlock+0xc>
1000b548:	f000 fa8a 	bl	1000ba60 <__mutex_exit_veneer>
1000b54c:	bd10      	pop	{r4, pc}

1000b54e <_tu_fifo_peek_at>:
1000b54e:	b5f0      	push	{r4, r5, r6, r7, lr}
1000b550:	46c6      	mov	lr, r8
1000b552:	b500      	push	{lr}
1000b554:	b082      	sub	sp, #8
1000b556:	0006      	movs	r6, r0
1000b558:	4688      	mov	r8, r1
1000b55a:	9201      	str	r2, [sp, #4]
1000b55c:	0019      	movs	r1, r3
1000b55e:	ab08      	add	r3, sp, #32
1000b560:	881d      	ldrh	r5, [r3, #0]
1000b562:	1b4c      	subs	r4, r1, r5
1000b564:	b2a4      	uxth	r4, r4
1000b566:	42a9      	cmp	r1, r5
1000b568:	d202      	bcs.n	1000b570 <_tu_fifo_peek_at+0x22>
1000b56a:	8943      	ldrh	r3, [r0, #10]
1000b56c:	1ae4      	subs	r4, r4, r3
1000b56e:	b2a4      	uxth	r4, r4
1000b570:	88b7      	ldrh	r7, [r6, #4]
1000b572:	42a7      	cmp	r7, r4
1000b574:	d205      	bcs.n	1000b582 <_tu_fifo_peek_at+0x34>
1000b576:	003a      	movs	r2, r7
1000b578:	0030      	movs	r0, r6
1000b57a:	f7ff ffc0 	bl	1000b4fe <backward_pointer>
1000b57e:	8230      	strh	r0, [r6, #16]
1000b580:	003c      	movs	r4, r7
1000b582:	2c00      	cmp	r4, #0
1000b584:	d011      	beq.n	1000b5aa <_tu_fifo_peek_at+0x5c>
1000b586:	4544      	cmp	r4, r8
1000b588:	d801      	bhi.n	1000b58e <_tu_fifo_peek_at+0x40>
1000b58a:	2000      	movs	r0, #0
1000b58c:	e00e      	b.n	1000b5ac <_tu_fifo_peek_at+0x5e>
1000b58e:	4642      	mov	r2, r8
1000b590:	0029      	movs	r1, r5
1000b592:	0030      	movs	r0, r6
1000b594:	f7ff ffc0 	bl	1000b518 <get_relative_pointer>
1000b598:	6831      	ldr	r1, [r6, #0]
1000b59a:	88f2      	ldrh	r2, [r6, #6]
1000b59c:	4350      	muls	r0, r2
1000b59e:	1809      	adds	r1, r1, r0
1000b5a0:	9801      	ldr	r0, [sp, #4]
1000b5a2:	f7fd fa97 	bl	10008ad4 <__wrap___aeabi_memcpy>
1000b5a6:	2001      	movs	r0, #1
1000b5a8:	e000      	b.n	1000b5ac <_tu_fifo_peek_at+0x5e>
1000b5aa:	2000      	movs	r0, #0
1000b5ac:	b002      	add	sp, #8
1000b5ae:	bc80      	pop	{r7}
1000b5b0:	46b8      	mov	r8, r7
1000b5b2:	bdf0      	pop	{r4, r5, r6, r7, pc}

1000b5b4 <_ff_pull_n>:
1000b5b4:	b5f8      	push	{r3, r4, r5, r6, r7, lr}
1000b5b6:	0005      	movs	r5, r0
1000b5b8:	000e      	movs	r6, r1
1000b5ba:	0014      	movs	r4, r2
1000b5bc:	1899      	adds	r1, r3, r2
1000b5be:	8882      	ldrh	r2, [r0, #4]
1000b5c0:	4291      	cmp	r1, r2
1000b5c2:	dc08      	bgt.n	1000b5d6 <_ff_pull_n+0x22>
1000b5c4:	6801      	ldr	r1, [r0, #0]
1000b5c6:	88c2      	ldrh	r2, [r0, #6]
1000b5c8:	4353      	muls	r3, r2
1000b5ca:	18c9      	adds	r1, r1, r3
1000b5cc:	4362      	muls	r2, r4
1000b5ce:	0030      	movs	r0, r6
1000b5d0:	f7fd fa80 	bl	10008ad4 <__wrap___aeabi_memcpy>
1000b5d4:	bdf8      	pop	{r3, r4, r5, r6, r7, pc}
1000b5d6:	1ad2      	subs	r2, r2, r3
1000b5d8:	b297      	uxth	r7, r2
1000b5da:	88c2      	ldrh	r2, [r0, #6]
1000b5dc:	4353      	muls	r3, r2
1000b5de:	6801      	ldr	r1, [r0, #0]
1000b5e0:	18c9      	adds	r1, r1, r3
1000b5e2:	437a      	muls	r2, r7
1000b5e4:	0030      	movs	r0, r6
1000b5e6:	f7fd fa75 	bl	10008ad4 <__wrap___aeabi_memcpy>
1000b5ea:	88eb      	ldrh	r3, [r5, #6]
1000b5ec:	0018      	movs	r0, r3
1000b5ee:	4378      	muls	r0, r7
1000b5f0:	6829      	ldr	r1, [r5, #0]
1000b5f2:	1be2      	subs	r2, r4, r7
1000b5f4:	435a      	muls	r2, r3
1000b5f6:	1830      	adds	r0, r6, r0
1000b5f8:	f7fd fa6c 	bl	10008ad4 <__wrap___aeabi_memcpy>
1000b5fc:	e7ea      	b.n	1000b5d4 <_ff_pull_n+0x20>

1000b5fe <_tu_fifo_peek_at_n>:
1000b5fe:	b5f0      	push	{r4, r5, r6, r7, lr}
1000b600:	b083      	sub	sp, #12
1000b602:	0005      	movs	r5, r0
1000b604:	000f      	movs	r7, r1
1000b606:	9201      	str	r2, [sp, #4]
1000b608:	9300      	str	r3, [sp, #0]
1000b60a:	ab08      	add	r3, sp, #32
1000b60c:	8819      	ldrh	r1, [r3, #0]
1000b60e:	ab09      	add	r3, sp, #36	; 0x24
1000b610:	881b      	ldrh	r3, [r3, #0]
1000b612:	1acc      	subs	r4, r1, r3
1000b614:	b2a4      	uxth	r4, r4
1000b616:	4299      	cmp	r1, r3
1000b618:	d202      	bcs.n	1000b620 <_tu_fifo_peek_at_n+0x22>
1000b61a:	8942      	ldrh	r2, [r0, #10]
1000b61c:	1aa4      	subs	r4, r4, r2
1000b61e:	b2a4      	uxth	r4, r4
1000b620:	88ae      	ldrh	r6, [r5, #4]
1000b622:	42a6      	cmp	r6, r4
1000b624:	d207      	bcs.n	1000b636 <_tu_fifo_peek_at_n+0x38>
1000b626:	0032      	movs	r2, r6
1000b628:	0028      	movs	r0, r5
1000b62a:	f7ff ff68 	bl	1000b4fe <backward_pointer>
1000b62e:	8228      	strh	r0, [r5, #16]
1000b630:	8a2b      	ldrh	r3, [r5, #16]
1000b632:	b29b      	uxth	r3, r3
1000b634:	0034      	movs	r4, r6
1000b636:	2c00      	cmp	r4, #0
1000b638:	d013      	beq.n	1000b662 <_tu_fifo_peek_at_n+0x64>
1000b63a:	42bc      	cmp	r4, r7
1000b63c:	d916      	bls.n	1000b66c <_tu_fifo_peek_at_n+0x6e>
1000b63e:	1be4      	subs	r4, r4, r7
1000b640:	b2a4      	uxth	r4, r4
1000b642:	9a00      	ldr	r2, [sp, #0]
1000b644:	4294      	cmp	r4, r2
1000b646:	d20f      	bcs.n	1000b668 <_tu_fifo_peek_at_n+0x6a>
1000b648:	2c00      	cmp	r4, #0
1000b64a:	d00a      	beq.n	1000b662 <_tu_fifo_peek_at_n+0x64>
1000b64c:	003a      	movs	r2, r7
1000b64e:	0019      	movs	r1, r3
1000b650:	0028      	movs	r0, r5
1000b652:	f7ff ff61 	bl	1000b518 <get_relative_pointer>
1000b656:	0003      	movs	r3, r0
1000b658:	0022      	movs	r2, r4
1000b65a:	9901      	ldr	r1, [sp, #4]
1000b65c:	0028      	movs	r0, r5
1000b65e:	f7ff ffa9 	bl	1000b5b4 <_ff_pull_n>
1000b662:	0020      	movs	r0, r4
1000b664:	b003      	add	sp, #12
1000b666:	bdf0      	pop	{r4, r5, r6, r7, pc}
1000b668:	9c00      	ldr	r4, [sp, #0]
1000b66a:	e7ef      	b.n	1000b64c <_tu_fifo_peek_at_n+0x4e>
1000b66c:	2400      	movs	r4, #0
1000b66e:	e7f8      	b.n	1000b662 <_tu_fifo_peek_at_n+0x64>

1000b670 <_ff_push_n>:
1000b670:	b5f8      	push	{r3, r4, r5, r6, r7, lr}
1000b672:	0005      	movs	r5, r0
1000b674:	000e      	movs	r6, r1
1000b676:	0014      	movs	r4, r2
1000b678:	1899      	adds	r1, r3, r2
1000b67a:	8882      	ldrh	r2, [r0, #4]
1000b67c:	4291      	cmp	r1, r2
1000b67e:	dc08      	bgt.n	1000b692 <_ff_push_n+0x22>
1000b680:	6800      	ldr	r0, [r0, #0]
1000b682:	88ea      	ldrh	r2, [r5, #6]
1000b684:	4353      	muls	r3, r2
1000b686:	18c0      	adds	r0, r0, r3
1000b688:	4362      	muls	r2, r4
1000b68a:	0031      	movs	r1, r6
1000b68c:	f7fd fa22 	bl	10008ad4 <__wrap___aeabi_memcpy>
1000b690:	bdf8      	pop	{r3, r4, r5, r6, r7, pc}
1000b692:	1ad2      	subs	r2, r2, r3
1000b694:	b297      	uxth	r7, r2
1000b696:	88c2      	ldrh	r2, [r0, #6]
1000b698:	4353      	muls	r3, r2
1000b69a:	6801      	ldr	r1, [r0, #0]
1000b69c:	18c8      	adds	r0, r1, r3
1000b69e:	437a      	muls	r2, r7
1000b6a0:	0031      	movs	r1, r6
1000b6a2:	f7fd fa17 	bl	10008ad4 <__wrap___aeabi_memcpy>
1000b6a6:	6828      	ldr	r0, [r5, #0]
1000b6a8:	88eb      	ldrh	r3, [r5, #6]
1000b6aa:	0019      	movs	r1, r3
1000b6ac:	4379      	muls	r1, r7
1000b6ae:	1be2      	subs	r2, r4, r7
1000b6b0:	435a      	muls	r2, r3
1000b6b2:	1871      	adds	r1, r6, r1
1000b6b4:	f7fd fa0e 	bl	10008ad4 <__wrap___aeabi_memcpy>
1000b6b8:	e7ea      	b.n	1000b690 <_ff_push_n+0x20>

1000b6ba <tu_fifo_config>:
1000b6ba:	b5f0      	push	{r4, r5, r6, r7, lr}
1000b6bc:	b083      	sub	sp, #12
1000b6be:	0005      	movs	r5, r0
1000b6c0:	9101      	str	r1, [sp, #4]
1000b6c2:	0014      	movs	r4, r2
1000b6c4:	001f      	movs	r7, r3
1000b6c6:	ab08      	add	r3, sp, #32
1000b6c8:	781e      	ldrb	r6, [r3, #0]
1000b6ca:	2380      	movs	r3, #128	; 0x80
1000b6cc:	021b      	lsls	r3, r3, #8
1000b6ce:	429a      	cmp	r2, r3
1000b6d0:	d902      	bls.n	1000b6d8 <tu_fifo_config+0x1e>
1000b6d2:	2000      	movs	r0, #0
1000b6d4:	b003      	add	sp, #12
1000b6d6:	bdf0      	pop	{r4, r5, r6, r7, pc}
1000b6d8:	f7ff ff29 	bl	1000b52e <tu_fifo_lock>
1000b6dc:	9b01      	ldr	r3, [sp, #4]
1000b6de:	602b      	str	r3, [r5, #0]
1000b6e0:	80ac      	strh	r4, [r5, #4]
1000b6e2:	80ef      	strh	r7, [r5, #6]
1000b6e4:	722e      	strb	r6, [r5, #8]
1000b6e6:	0064      	lsls	r4, r4, #1
1000b6e8:	3c01      	subs	r4, #1
1000b6ea:	b2a4      	uxth	r4, r4
1000b6ec:	81ac      	strh	r4, [r5, #12]
1000b6ee:	43e4      	mvns	r4, r4
1000b6f0:	816c      	strh	r4, [r5, #10]
1000b6f2:	2300      	movs	r3, #0
1000b6f4:	81eb      	strh	r3, [r5, #14]
1000b6f6:	822b      	strh	r3, [r5, #16]
1000b6f8:	0028      	movs	r0, r5
1000b6fa:	f7ff ff21 	bl	1000b540 <tu_fifo_unlock>
1000b6fe:	2001      	movs	r0, #1
1000b700:	e7e8      	b.n	1000b6d4 <tu_fifo_config+0x1a>

1000b702 <tu_fifo_count>:
1000b702:	b510      	push	{r4, lr}
1000b704:	0002      	movs	r2, r0
1000b706:	89c3      	ldrh	r3, [r0, #14]
1000b708:	b29c      	uxth	r4, r3
1000b70a:	8a00      	ldrh	r0, [r0, #16]
1000b70c:	b281      	uxth	r1, r0
1000b70e:	1a18      	subs	r0, r3, r0
1000b710:	b280      	uxth	r0, r0
1000b712:	428c      	cmp	r4, r1
1000b714:	d202      	bcs.n	1000b71c <tu_fifo_count+0x1a>
1000b716:	8953      	ldrh	r3, [r2, #10]
1000b718:	1ac0      	subs	r0, r0, r3
1000b71a:	b280      	uxth	r0, r0
1000b71c:	bd10      	pop	{r4, pc}

1000b71e <tu_fifo_read>:
1000b71e:	b530      	push	{r4, r5, lr}
1000b720:	b083      	sub	sp, #12
1000b722:	0004      	movs	r4, r0
1000b724:	000d      	movs	r5, r1
1000b726:	f7ff ff02 	bl	1000b52e <tu_fifo_lock>
1000b72a:	89e3      	ldrh	r3, [r4, #14]
1000b72c:	b29b      	uxth	r3, r3
1000b72e:	8a22      	ldrh	r2, [r4, #16]
1000b730:	9200      	str	r2, [sp, #0]
1000b732:	002a      	movs	r2, r5
1000b734:	2100      	movs	r1, #0
1000b736:	0020      	movs	r0, r4
1000b738:	f7ff ff09 	bl	1000b54e <_tu_fifo_peek_at>
1000b73c:	0005      	movs	r5, r0
1000b73e:	8a21      	ldrh	r1, [r4, #16]
1000b740:	b289      	uxth	r1, r1
1000b742:	b282      	uxth	r2, r0
1000b744:	0020      	movs	r0, r4
1000b746:	f7ff fecb 	bl	1000b4e0 <advance_pointer>
1000b74a:	8220      	strh	r0, [r4, #16]
1000b74c:	0020      	movs	r0, r4
1000b74e:	f7ff fef7 	bl	1000b540 <tu_fifo_unlock>
1000b752:	0028      	movs	r0, r5
1000b754:	b003      	add	sp, #12
1000b756:	bd30      	pop	{r4, r5, pc}

1000b758 <tu_fifo_read_n>:
1000b758:	b570      	push	{r4, r5, r6, lr}
1000b75a:	b082      	sub	sp, #8
1000b75c:	0004      	movs	r4, r0
1000b75e:	000d      	movs	r5, r1
1000b760:	0016      	movs	r6, r2
1000b762:	f7ff fee4 	bl	1000b52e <tu_fifo_lock>
1000b766:	89e3      	ldrh	r3, [r4, #14]
1000b768:	8a22      	ldrh	r2, [r4, #16]
1000b76a:	9201      	str	r2, [sp, #4]
1000b76c:	9300      	str	r3, [sp, #0]
1000b76e:	0033      	movs	r3, r6
1000b770:	002a      	movs	r2, r5
1000b772:	2100      	movs	r1, #0
1000b774:	0020      	movs	r0, r4
1000b776:	f7ff ff42 	bl	1000b5fe <_tu_fifo_peek_at_n>
1000b77a:	0005      	movs	r5, r0
1000b77c:	8a21      	ldrh	r1, [r4, #16]
1000b77e:	b289      	uxth	r1, r1
1000b780:	0002      	movs	r2, r0
1000b782:	0020      	movs	r0, r4
1000b784:	f7ff feac 	bl	1000b4e0 <advance_pointer>
1000b788:	8220      	strh	r0, [r4, #16]
1000b78a:	0020      	movs	r0, r4
1000b78c:	f7ff fed8 	bl	1000b540 <tu_fifo_unlock>
1000b790:	0028      	movs	r0, r5
1000b792:	b002      	add	sp, #8
1000b794:	bd70      	pop	{r4, r5, r6, pc}

1000b796 <tu_fifo_write>:
1000b796:	b570      	push	{r4, r5, r6, lr}
1000b798:	0004      	movs	r4, r0
1000b79a:	000d      	movs	r5, r1
1000b79c:	f7ff fec7 	bl	1000b52e <tu_fifo_lock>
1000b7a0:	89e3      	ldrh	r3, [r4, #14]
1000b7a2:	b29e      	uxth	r6, r3
1000b7a4:	8a22      	ldrh	r2, [r4, #16]
1000b7a6:	b291      	uxth	r1, r2
1000b7a8:	1a9b      	subs	r3, r3, r2
1000b7aa:	b29b      	uxth	r3, r3
1000b7ac:	42b1      	cmp	r1, r6
1000b7ae:	d902      	bls.n	1000b7b6 <tu_fifo_write+0x20>
1000b7b0:	8962      	ldrh	r2, [r4, #10]
1000b7b2:	1a9b      	subs	r3, r3, r2
1000b7b4:	b29b      	uxth	r3, r3
1000b7b6:	88a2      	ldrh	r2, [r4, #4]
1000b7b8:	429a      	cmp	r2, r3
1000b7ba:	d102      	bne.n	1000b7c2 <tu_fifo_write+0x2c>
1000b7bc:	7a20      	ldrb	r0, [r4, #8]
1000b7be:	2800      	cmp	r0, #0
1000b7c0:	d016      	beq.n	1000b7f0 <tu_fifo_write+0x5a>
1000b7c2:	2200      	movs	r2, #0
1000b7c4:	0031      	movs	r1, r6
1000b7c6:	0020      	movs	r0, r4
1000b7c8:	f7ff fea6 	bl	1000b518 <get_relative_pointer>
1000b7cc:	88e2      	ldrh	r2, [r4, #6]
1000b7ce:	4350      	muls	r0, r2
1000b7d0:	6823      	ldr	r3, [r4, #0]
1000b7d2:	469c      	mov	ip, r3
1000b7d4:	4460      	add	r0, ip
1000b7d6:	0029      	movs	r1, r5
1000b7d8:	f7fd f97c 	bl	10008ad4 <__wrap___aeabi_memcpy>
1000b7dc:	2201      	movs	r2, #1
1000b7de:	0031      	movs	r1, r6
1000b7e0:	0020      	movs	r0, r4
1000b7e2:	f7ff fe7d 	bl	1000b4e0 <advance_pointer>
1000b7e6:	81e0      	strh	r0, [r4, #14]
1000b7e8:	0020      	movs	r0, r4
1000b7ea:	f7ff fea9 	bl	1000b540 <tu_fifo_unlock>
1000b7ee:	2001      	movs	r0, #1
1000b7f0:	bd70      	pop	{r4, r5, r6, pc}

1000b7f2 <tu_fifo_write_n>:
1000b7f2:	b5f8      	push	{r3, r4, r5, r6, r7, lr}
1000b7f4:	0004      	movs	r4, r0
1000b7f6:	000e      	movs	r6, r1
1000b7f8:	1e15      	subs	r5, r2, #0
1000b7fa:	d101      	bne.n	1000b800 <tu_fifo_write_n+0xe>
1000b7fc:	0028      	movs	r0, r5
1000b7fe:	bdf8      	pop	{r3, r4, r5, r6, r7, pc}
1000b800:	f7ff fe95 	bl	1000b52e <tu_fifo_lock>
1000b804:	89e7      	ldrh	r7, [r4, #14]
1000b806:	b2bf      	uxth	r7, r7
1000b808:	8a23      	ldrh	r3, [r4, #16]
1000b80a:	b29b      	uxth	r3, r3
1000b80c:	7a22      	ldrb	r2, [r4, #8]
1000b80e:	2a00      	cmp	r2, #0
1000b810:	d123      	bne.n	1000b85a <tu_fifo_write_n+0x68>
1000b812:	88a2      	ldrh	r2, [r4, #4]
1000b814:	1af9      	subs	r1, r7, r3
1000b816:	b289      	uxth	r1, r1
1000b818:	429f      	cmp	r7, r3
1000b81a:	d202      	bcs.n	1000b822 <tu_fifo_write_n+0x30>
1000b81c:	8963      	ldrh	r3, [r4, #10]
1000b81e:	1ac9      	subs	r1, r1, r3
1000b820:	b289      	uxth	r1, r1
1000b822:	1a53      	subs	r3, r2, r1
1000b824:	b29b      	uxth	r3, r3
1000b826:	1c2a      	adds	r2, r5, #0
1000b828:	429d      	cmp	r5, r3
1000b82a:	d900      	bls.n	1000b82e <tu_fifo_write_n+0x3c>
1000b82c:	1c1a      	adds	r2, r3, #0
1000b82e:	b295      	uxth	r5, r2
1000b830:	2200      	movs	r2, #0
1000b832:	0039      	movs	r1, r7
1000b834:	0020      	movs	r0, r4
1000b836:	f7ff fe6f 	bl	1000b518 <get_relative_pointer>
1000b83a:	0003      	movs	r3, r0
1000b83c:	002a      	movs	r2, r5
1000b83e:	0031      	movs	r1, r6
1000b840:	0020      	movs	r0, r4
1000b842:	f7ff ff15 	bl	1000b670 <_ff_push_n>
1000b846:	002a      	movs	r2, r5
1000b848:	0039      	movs	r1, r7
1000b84a:	0020      	movs	r0, r4
1000b84c:	f7ff fe48 	bl	1000b4e0 <advance_pointer>
1000b850:	81e0      	strh	r0, [r4, #14]
1000b852:	0020      	movs	r0, r4
1000b854:	f7ff fe74 	bl	1000b540 <tu_fifo_unlock>
1000b858:	e7d0      	b.n	1000b7fc <tu_fifo_write_n+0xa>
1000b85a:	88a1      	ldrh	r1, [r4, #4]
1000b85c:	42a9      	cmp	r1, r5
1000b85e:	d2e7      	bcs.n	1000b830 <tu_fifo_write_n+0x3e>
1000b860:	1a6a      	subs	r2, r5, r1
1000b862:	88e5      	ldrh	r5, [r4, #6]
1000b864:	4355      	muls	r5, r2
1000b866:	1976      	adds	r6, r6, r5
1000b868:	81e3      	strh	r3, [r4, #14]
1000b86a:	000d      	movs	r5, r1
1000b86c:	e7e0      	b.n	1000b830 <tu_fifo_write_n+0x3e>

1000b86e <tu_fifo_clear>:
1000b86e:	b510      	push	{r4, lr}
1000b870:	0004      	movs	r4, r0
1000b872:	f7ff fe5c 	bl	1000b52e <tu_fifo_lock>
1000b876:	2300      	movs	r3, #0
1000b878:	81e3      	strh	r3, [r4, #14]
1000b87a:	8223      	strh	r3, [r4, #16]
1000b87c:	0020      	movs	r0, r4
1000b87e:	f7ff fe5f 	bl	1000b540 <tu_fifo_unlock>
1000b882:	2001      	movs	r0, #1
1000b884:	bd10      	pop	{r4, pc}

1000b886 <board_init>:
1000b886:	b510      	push	{r4, lr}
1000b888:	f7f9 f964 	bl	10004b54 <setup_default_uart>
1000b88c:	2019      	movs	r0, #25
1000b88e:	f7f9 fa55 	bl	10004d3c <gpio_init>
1000b892:	23d0      	movs	r3, #208	; 0xd0
1000b894:	061b      	lsls	r3, r3, #24
1000b896:	2280      	movs	r2, #128	; 0x80
1000b898:	0492      	lsls	r2, r2, #18
1000b89a:	625a      	str	r2, [r3, #36]	; 0x24
1000b89c:	bd10      	pop	{r4, pc}
	...

1000b8a0 <atexit>:
1000b8a0:	b510      	push	{r4, lr}
1000b8a2:	0001      	movs	r1, r0
1000b8a4:	2300      	movs	r3, #0
1000b8a6:	2200      	movs	r2, #0
1000b8a8:	2000      	movs	r0, #0
1000b8aa:	f000 f867 	bl	1000b97c <__register_exitproc>
1000b8ae:	bd10      	pop	{r4, pc}

1000b8b0 <__libc_fini_array>:
1000b8b0:	b570      	push	{r4, r5, r6, lr}
1000b8b2:	4d07      	ldr	r5, [pc, #28]	; (1000b8d0 <__libc_fini_array+0x20>)
1000b8b4:	4c07      	ldr	r4, [pc, #28]	; (1000b8d4 <__libc_fini_array+0x24>)
1000b8b6:	1b64      	subs	r4, r4, r5
1000b8b8:	10a4      	asrs	r4, r4, #2
1000b8ba:	d005      	beq.n	1000b8c8 <__libc_fini_array+0x18>
1000b8bc:	3c01      	subs	r4, #1
1000b8be:	00a3      	lsls	r3, r4, #2
1000b8c0:	58eb      	ldr	r3, [r5, r3]
1000b8c2:	4798      	blx	r3
1000b8c4:	2c00      	cmp	r4, #0
1000b8c6:	d1f9      	bne.n	1000b8bc <__libc_fini_array+0xc>
1000b8c8:	f000 f8c0 	bl	1000ba4c <_fini>
1000b8cc:	bd70      	pop	{r4, r5, r6, pc}
1000b8ce:	46c0      	nop			; (mov r8, r8)
1000b8d0:	20000fe0 	.word	0x20000fe0
1000b8d4:	20000fe0 	.word	0x20000fe0

1000b8d8 <memcmp>:
1000b8d8:	b530      	push	{r4, r5, lr}
1000b8da:	2a03      	cmp	r2, #3
1000b8dc:	d90c      	bls.n	1000b8f8 <memcmp+0x20>
1000b8de:	0003      	movs	r3, r0
1000b8e0:	430b      	orrs	r3, r1
1000b8e2:	079b      	lsls	r3, r3, #30
1000b8e4:	d119      	bne.n	1000b91a <memcmp+0x42>
1000b8e6:	6803      	ldr	r3, [r0, #0]
1000b8e8:	680c      	ldr	r4, [r1, #0]
1000b8ea:	42a3      	cmp	r3, r4
1000b8ec:	d115      	bne.n	1000b91a <memcmp+0x42>
1000b8ee:	3a04      	subs	r2, #4
1000b8f0:	3004      	adds	r0, #4
1000b8f2:	3104      	adds	r1, #4
1000b8f4:	2a03      	cmp	r2, #3
1000b8f6:	d8f6      	bhi.n	1000b8e6 <memcmp+0xe>
1000b8f8:	1e55      	subs	r5, r2, #1
1000b8fa:	2a00      	cmp	r2, #0
1000b8fc:	d00b      	beq.n	1000b916 <memcmp+0x3e>
1000b8fe:	2300      	movs	r3, #0
1000b900:	e003      	b.n	1000b90a <memcmp+0x32>
1000b902:	1c5a      	adds	r2, r3, #1
1000b904:	429d      	cmp	r5, r3
1000b906:	d006      	beq.n	1000b916 <memcmp+0x3e>
1000b908:	0013      	movs	r3, r2
1000b90a:	5cc2      	ldrb	r2, [r0, r3]
1000b90c:	5ccc      	ldrb	r4, [r1, r3]
1000b90e:	42a2      	cmp	r2, r4
1000b910:	d0f7      	beq.n	1000b902 <memcmp+0x2a>
1000b912:	1b10      	subs	r0, r2, r4
1000b914:	e000      	b.n	1000b918 <memcmp+0x40>
1000b916:	2000      	movs	r0, #0
1000b918:	bd30      	pop	{r4, r5, pc}
1000b91a:	1e55      	subs	r5, r2, #1
1000b91c:	e7ef      	b.n	1000b8fe <memcmp+0x26>
1000b91e:	46c0      	nop			; (mov r8, r8)

1000b920 <strlen>:
1000b920:	b510      	push	{r4, lr}
1000b922:	0783      	lsls	r3, r0, #30
1000b924:	d00a      	beq.n	1000b93c <strlen+0x1c>
1000b926:	0003      	movs	r3, r0
1000b928:	2103      	movs	r1, #3
1000b92a:	e002      	b.n	1000b932 <strlen+0x12>
1000b92c:	3301      	adds	r3, #1
1000b92e:	420b      	tst	r3, r1
1000b930:	d005      	beq.n	1000b93e <strlen+0x1e>
1000b932:	781a      	ldrb	r2, [r3, #0]
1000b934:	2a00      	cmp	r2, #0
1000b936:	d1f9      	bne.n	1000b92c <strlen+0xc>
1000b938:	1a18      	subs	r0, r3, r0
1000b93a:	bd10      	pop	{r4, pc}
1000b93c:	0003      	movs	r3, r0
1000b93e:	6819      	ldr	r1, [r3, #0]
1000b940:	4a0c      	ldr	r2, [pc, #48]	; (1000b974 <strlen+0x54>)
1000b942:	4c0d      	ldr	r4, [pc, #52]	; (1000b978 <strlen+0x58>)
1000b944:	188a      	adds	r2, r1, r2
1000b946:	438a      	bics	r2, r1
1000b948:	4222      	tst	r2, r4
1000b94a:	d10f      	bne.n	1000b96c <strlen+0x4c>
1000b94c:	6859      	ldr	r1, [r3, #4]
1000b94e:	4a09      	ldr	r2, [pc, #36]	; (1000b974 <strlen+0x54>)
1000b950:	3304      	adds	r3, #4
1000b952:	188a      	adds	r2, r1, r2
1000b954:	438a      	bics	r2, r1
1000b956:	4222      	tst	r2, r4
1000b958:	d108      	bne.n	1000b96c <strlen+0x4c>
1000b95a:	6859      	ldr	r1, [r3, #4]
1000b95c:	4a05      	ldr	r2, [pc, #20]	; (1000b974 <strlen+0x54>)
1000b95e:	3304      	adds	r3, #4
1000b960:	188a      	adds	r2, r1, r2
1000b962:	438a      	bics	r2, r1
1000b964:	4222      	tst	r2, r4
1000b966:	d0f1      	beq.n	1000b94c <strlen+0x2c>
1000b968:	e000      	b.n	1000b96c <strlen+0x4c>
1000b96a:	3301      	adds	r3, #1
1000b96c:	781a      	ldrb	r2, [r3, #0]
1000b96e:	2a00      	cmp	r2, #0
1000b970:	d1fb      	bne.n	1000b96a <strlen+0x4a>
1000b972:	e7e1      	b.n	1000b938 <strlen+0x18>
1000b974:	fefefeff 	.word	0xfefefeff
1000b978:	80808080 	.word	0x80808080

1000b97c <__register_exitproc>:
1000b97c:	b5f0      	push	{r4, r5, r6, r7, lr}
1000b97e:	46d6      	mov	lr, sl
1000b980:	464f      	mov	r7, r9
1000b982:	4646      	mov	r6, r8
1000b984:	b5c0      	push	{r6, r7, lr}
1000b986:	4f27      	ldr	r7, [pc, #156]	; (1000ba24 <__register_exitproc+0xa8>)
1000b988:	b082      	sub	sp, #8
1000b98a:	0006      	movs	r6, r0
1000b98c:	6838      	ldr	r0, [r7, #0]
1000b98e:	4691      	mov	r9, r2
1000b990:	4698      	mov	r8, r3
1000b992:	468a      	mov	sl, r1
1000b994:	f000 f856 	bl	1000ba44 <__retarget_lock_acquire_recursive>
1000b998:	4b23      	ldr	r3, [pc, #140]	; (1000ba28 <__register_exitproc+0xac>)
1000b99a:	681b      	ldr	r3, [r3, #0]
1000b99c:	9301      	str	r3, [sp, #4]
1000b99e:	23a4      	movs	r3, #164	; 0xa4
1000b9a0:	9a01      	ldr	r2, [sp, #4]
1000b9a2:	005b      	lsls	r3, r3, #1
1000b9a4:	58d5      	ldr	r5, [r2, r3]
1000b9a6:	2d00      	cmp	r5, #0
1000b9a8:	d031      	beq.n	1000ba0e <__register_exitproc+0x92>
1000b9aa:	686c      	ldr	r4, [r5, #4]
1000b9ac:	6838      	ldr	r0, [r7, #0]
1000b9ae:	2c1f      	cmp	r4, #31
1000b9b0:	dc32      	bgt.n	1000ba18 <__register_exitproc+0x9c>
1000b9b2:	2e00      	cmp	r6, #0
1000b9b4:	d10e      	bne.n	1000b9d4 <__register_exitproc+0x58>
1000b9b6:	1c63      	adds	r3, r4, #1
1000b9b8:	606b      	str	r3, [r5, #4]
1000b9ba:	4653      	mov	r3, sl
1000b9bc:	3402      	adds	r4, #2
1000b9be:	00a4      	lsls	r4, r4, #2
1000b9c0:	5163      	str	r3, [r4, r5]
1000b9c2:	f000 f841 	bl	1000ba48 <__retarget_lock_release_recursive>
1000b9c6:	2000      	movs	r0, #0
1000b9c8:	b002      	add	sp, #8
1000b9ca:	bce0      	pop	{r5, r6, r7}
1000b9cc:	46ba      	mov	sl, r7
1000b9ce:	46b1      	mov	r9, r6
1000b9d0:	46a8      	mov	r8, r5
1000b9d2:	bdf0      	pop	{r4, r5, r6, r7, pc}
1000b9d4:	2288      	movs	r2, #136	; 0x88
1000b9d6:	4649      	mov	r1, r9
1000b9d8:	00a3      	lsls	r3, r4, #2
1000b9da:	18eb      	adds	r3, r5, r3
1000b9dc:	5099      	str	r1, [r3, r2]
1000b9de:	21c4      	movs	r1, #196	; 0xc4
1000b9e0:	0049      	lsls	r1, r1, #1
1000b9e2:	468c      	mov	ip, r1
1000b9e4:	44ac      	add	ip, r5
1000b9e6:	4661      	mov	r1, ip
1000b9e8:	3a87      	subs	r2, #135	; 0x87
1000b9ea:	40a2      	lsls	r2, r4
1000b9ec:	4667      	mov	r7, ip
1000b9ee:	6809      	ldr	r1, [r1, #0]
1000b9f0:	4311      	orrs	r1, r2
1000b9f2:	6039      	str	r1, [r7, #0]
1000b9f4:	2184      	movs	r1, #132	; 0x84
1000b9f6:	4647      	mov	r7, r8
1000b9f8:	0049      	lsls	r1, r1, #1
1000b9fa:	505f      	str	r7, [r3, r1]
1000b9fc:	2e02      	cmp	r6, #2
1000b9fe:	d1da      	bne.n	1000b9b6 <__register_exitproc+0x3a>
1000ba00:	002b      	movs	r3, r5
1000ba02:	338d      	adds	r3, #141	; 0x8d
1000ba04:	33ff      	adds	r3, #255	; 0xff
1000ba06:	6819      	ldr	r1, [r3, #0]
1000ba08:	430a      	orrs	r2, r1
1000ba0a:	601a      	str	r2, [r3, #0]
1000ba0c:	e7d3      	b.n	1000b9b6 <__register_exitproc+0x3a>
1000ba0e:	0015      	movs	r5, r2
1000ba10:	354d      	adds	r5, #77	; 0x4d
1000ba12:	35ff      	adds	r5, #255	; 0xff
1000ba14:	50d5      	str	r5, [r2, r3]
1000ba16:	e7c8      	b.n	1000b9aa <__register_exitproc+0x2e>
1000ba18:	f000 f816 	bl	1000ba48 <__retarget_lock_release_recursive>
1000ba1c:	2001      	movs	r0, #1
1000ba1e:	4240      	negs	r0, r0
1000ba20:	e7d2      	b.n	1000b9c8 <__register_exitproc+0x4c>
1000ba22:	46c0      	nop			; (mov r8, r8)
1000ba24:	20000fb8 	.word	0x20000fb8
1000ba28:	1000e18c 	.word	0x1000e18c

1000ba2c <register_fini>:
1000ba2c:	4b03      	ldr	r3, [pc, #12]	; (1000ba3c <register_fini+0x10>)
1000ba2e:	b510      	push	{r4, lr}
1000ba30:	2b00      	cmp	r3, #0
1000ba32:	d002      	beq.n	1000ba3a <register_fini+0xe>
1000ba34:	4802      	ldr	r0, [pc, #8]	; (1000ba40 <register_fini+0x14>)
1000ba36:	f7ff ff33 	bl	1000b8a0 <atexit>
1000ba3a:	bd10      	pop	{r4, pc}
1000ba3c:	00000000 	.word	0x00000000
1000ba40:	1000b8b1 	.word	0x1000b8b1

1000ba44 <__retarget_lock_acquire_recursive>:
1000ba44:	4770      	bx	lr
1000ba46:	46c0      	nop			; (mov r8, r8)

1000ba48 <__retarget_lock_release_recursive>:
1000ba48:	4770      	bx	lr
1000ba4a:	46c0      	nop			; (mov r8, r8)

1000ba4c <_fini>:
1000ba4c:	b5f8      	push	{r3, r4, r5, r6, r7, lr}
1000ba4e:	46c0      	nop			; (mov r8, r8)

1000ba50 <__flash_do_cmd_veneer>:
1000ba50:	b401      	push	{r0}
1000ba52:	4802      	ldr	r0, [pc, #8]	; (1000ba5c <__flash_do_cmd_veneer+0xc>)
1000ba54:	4684      	mov	ip, r0
1000ba56:	bc01      	pop	{r0}
1000ba58:	4760      	bx	ip
1000ba5a:	bf00      	nop
1000ba5c:	20000499 	.word	0x20000499

1000ba60 <__mutex_exit_veneer>:
1000ba60:	b401      	push	{r0}
1000ba62:	4802      	ldr	r0, [pc, #8]	; (1000ba6c <__mutex_exit_veneer+0xc>)
1000ba64:	4684      	mov	ip, r0
1000ba66:	bc01      	pop	{r0}
1000ba68:	4760      	bx	ip
1000ba6a:	bf00      	nop
1000ba6c:	2000025d 	.word	0x2000025d

1000ba70 <____aeabi_ldiv0_veneer>:
1000ba70:	b401      	push	{r0}
1000ba72:	4802      	ldr	r0, [pc, #8]	; (1000ba7c <____aeabi_ldiv0_veneer+0xc>)
1000ba74:	4684      	mov	ip, r0
1000ba76:	bc01      	pop	{r0}
1000ba78:	4760      	bx	ip
1000ba7a:	bf00      	nop
1000ba7c:	2000062d 	.word	0x2000062d

1000ba80 <__flash_range_program_veneer>:
1000ba80:	b401      	push	{r0}
1000ba82:	4802      	ldr	r0, [pc, #8]	; (1000ba8c <__flash_range_program_veneer+0xc>)
1000ba84:	4684      	mov	ip, r0
1000ba86:	bc01      	pop	{r0}
1000ba88:	4760      	bx	ip
1000ba8a:	bf00      	nop
1000ba8c:	200003f5 	.word	0x200003f5

1000ba90 <____aeabi_idiv0_veneer>:
1000ba90:	b401      	push	{r0}
1000ba92:	4802      	ldr	r0, [pc, #8]	; (1000ba9c <____aeabi_idiv0_veneer+0xc>)
1000ba94:	4684      	mov	ip, r0
1000ba96:	bc01      	pop	{r0}
1000ba98:	4760      	bx	ip
1000ba9a:	bf00      	nop
1000ba9c:	2000062d 	.word	0x2000062d

1000baa0 <__mutex_try_enter_veneer>:
1000baa0:	b401      	push	{r0}
1000baa2:	4802      	ldr	r0, [pc, #8]	; (1000baac <__mutex_try_enter_veneer+0xc>)
1000baa4:	4684      	mov	ip, r0
1000baa6:	bc01      	pop	{r0}
1000baa8:	4760      	bx	ip
1000baaa:	bf00      	nop
1000baac:	20000125 	.word	0x20000125

1000bab0 <__flash_range_erase_veneer>:
1000bab0:	b401      	push	{r0}
1000bab2:	4802      	ldr	r0, [pc, #8]	; (1000babc <__flash_range_erase_veneer+0xc>)
1000bab4:	4684      	mov	ip, r0
1000bab6:	bc01      	pop	{r0}
1000bab8:	4760      	bx	ip
1000baba:	bf00      	nop
1000babc:	20000351 	.word	0x20000351

1000bac0 <__mutex_enter_timeout_ms_veneer>:
1000bac0:	b401      	push	{r0}
1000bac2:	4802      	ldr	r0, [pc, #8]	; (1000bacc <__mutex_enter_timeout_ms_veneer+0xc>)
1000bac4:	4684      	mov	ip, r0
1000bac6:	bc01      	pop	{r0}
1000bac8:	4760      	bx	ip
1000baca:	bf00      	nop
1000bacc:	200001e9 	.word	0x200001e9

1000bad0 <__spi_write_read_blocking_veneer>:
1000bad0:	b401      	push	{r0}
1000bad2:	4802      	ldr	r0, [pc, #8]	; (1000badc <__spi_write_read_blocking_veneer+0xc>)
1000bad4:	4684      	mov	ip, r0
1000bad6:	bc01      	pop	{r0}
1000bad8:	4760      	bx	ip
1000bada:	bf00      	nop
1000badc:	200002a9 	.word	0x200002a9

1000bae0 <__lrint_veneer>:
1000bae0:	b401      	push	{r0}
1000bae2:	4802      	ldr	r0, [pc, #8]	; (1000baec <__lrint_veneer+0xc>)
1000bae4:	4684      	mov	ip, r0
1000bae6:	bc01      	pop	{r0}
1000bae8:	4760      	bx	ip
1000baea:	bf00      	nop
1000baec:	20000559 	.word	0x20000559

1000baf0 <__mutex_enter_blocking_veneer>:
1000baf0:	b401      	push	{r0}
1000baf2:	4802      	ldr	r0, [pc, #8]	; (1000bafc <__mutex_enter_blocking_veneer+0xc>)
1000baf4:	4684      	mov	ip, r0
1000baf6:	bc01      	pop	{r0}
1000baf8:	4760      	bx	ip
1000bafa:	bf00      	nop
1000bafc:	200000c1 	.word	0x200000c1

Disassembly of section .data:

200000c0 <mutex_enter_blocking>:
200000c0:	b510      	push	{r4, lr}
200000c2:	6803      	ldr	r3, [r0, #0]
200000c4:	2b00      	cmp	r3, #0
200000c6:	d01a      	beq.n	200000fe <mutex_enter_blocking+0x3e>
200000c8:	2301      	movs	r3, #1
200000ca:	6801      	ldr	r1, [r0, #0]
200000cc:	f3ef 8c10 	mrs	ip, PRIMASK
200000d0:	b672      	cpsid	i
200000d2:	680a      	ldr	r2, [r1, #0]
200000d4:	2a00      	cmp	r2, #0
200000d6:	d0fc      	beq.n	200000d2 <mutex_enter_blocking+0x12>
200000d8:	f3bf 8f5f 	dmb	sy
200000dc:	2204      	movs	r2, #4
200000de:	5682      	ldrsb	r2, [r0, r2]
200000e0:	2a00      	cmp	r2, #0
200000e2:	db12      	blt.n	2000010a <mutex_enter_blocking+0x4a>
200000e4:	6802      	ldr	r2, [r0, #0]
200000e6:	f3bf 8f5f 	dmb	sy
200000ea:	2100      	movs	r1, #0
200000ec:	6011      	str	r1, [r2, #0]
200000ee:	f38c 8810 	msr	PRIMASK, ip
200000f2:	2b00      	cmp	r3, #0
200000f4:	d000      	beq.n	200000f8 <mutex_enter_blocking+0x38>
200000f6:	bf20      	wfe
200000f8:	2b00      	cmp	r3, #0
200000fa:	d1e6      	bne.n	200000ca <mutex_enter_blocking+0xa>
200000fc:	bd10      	pop	{r4, pc}
200000fe:	4b06      	ldr	r3, [pc, #24]	; (20000118 <mutex_enter_blocking+0x58>)
20000100:	4a06      	ldr	r2, [pc, #24]	; (2000011c <mutex_enter_blocking+0x5c>)
20000102:	2115      	movs	r1, #21
20000104:	4806      	ldr	r0, [pc, #24]	; (20000120 <mutex_enter_blocking+0x60>)
20000106:	f000 faab 	bl	20000660 <____assert_func_veneer>
2000010a:	23d0      	movs	r3, #208	; 0xd0
2000010c:	061b      	lsls	r3, r3, #24
2000010e:	781b      	ldrb	r3, [r3, #0]
20000110:	b25b      	sxtb	r3, r3
20000112:	7103      	strb	r3, [r0, #4]
20000114:	2300      	movs	r3, #0
20000116:	e7e5      	b.n	200000e4 <mutex_enter_blocking+0x24>
20000118:	1000cedc 	.word	0x1000cedc
2000011c:	1000cf88 	.word	0x1000cf88
20000120:	1000cef0 	.word	0x1000cef0

20000124 <mutex_try_enter>:
20000124:	0003      	movs	r3, r0
20000126:	6800      	ldr	r0, [r0, #0]
20000128:	f3ef 8c10 	mrs	ip, PRIMASK
2000012c:	b672      	cpsid	i
2000012e:	6802      	ldr	r2, [r0, #0]
20000130:	2a00      	cmp	r2, #0
20000132:	d0fc      	beq.n	2000012e <mutex_try_enter+0xa>
20000134:	f3bf 8f5f 	dmb	sy
20000138:	2204      	movs	r2, #4
2000013a:	569a      	ldrsb	r2, [r3, r2]
2000013c:	2a00      	cmp	r2, #0
2000013e:	db0b      	blt.n	20000158 <mutex_try_enter+0x34>
20000140:	2900      	cmp	r1, #0
20000142:	d010      	beq.n	20000166 <mutex_try_enter+0x42>
20000144:	600a      	str	r2, [r1, #0]
20000146:	2000      	movs	r0, #0
20000148:	681b      	ldr	r3, [r3, #0]
2000014a:	f3bf 8f5f 	dmb	sy
2000014e:	2200      	movs	r2, #0
20000150:	601a      	str	r2, [r3, #0]
20000152:	f38c 8810 	msr	PRIMASK, ip
20000156:	4770      	bx	lr
20000158:	22d0      	movs	r2, #208	; 0xd0
2000015a:	0612      	lsls	r2, r2, #24
2000015c:	7812      	ldrb	r2, [r2, #0]
2000015e:	b252      	sxtb	r2, r2
20000160:	711a      	strb	r2, [r3, #4]
20000162:	2001      	movs	r0, #1
20000164:	e7f0      	b.n	20000148 <mutex_try_enter+0x24>
20000166:	2000      	movs	r0, #0
20000168:	e7ee      	b.n	20000148 <mutex_try_enter+0x24>
	...

2000016c <mutex_enter_block_until>:
2000016c:	b5f8      	push	{r3, r4, r5, r6, r7, lr}
2000016e:	0004      	movs	r4, r0
20000170:	0016      	movs	r6, r2
20000172:	001f      	movs	r7, r3
20000174:	6803      	ldr	r3, [r0, #0]
20000176:	2b00      	cmp	r3, #0
20000178:	d01a      	beq.n	200001b0 <mutex_enter_block_until+0x44>
2000017a:	2501      	movs	r5, #1
2000017c:	6822      	ldr	r2, [r4, #0]
2000017e:	f3ef 8110 	mrs	r1, PRIMASK
20000182:	b672      	cpsid	i
20000184:	6813      	ldr	r3, [r2, #0]
20000186:	2b00      	cmp	r3, #0
20000188:	d0fc      	beq.n	20000184 <mutex_enter_block_until+0x18>
2000018a:	f3bf 8f5f 	dmb	sy
2000018e:	2304      	movs	r3, #4
20000190:	56e3      	ldrsb	r3, [r4, r3]
20000192:	2b00      	cmp	r3, #0
20000194:	db12      	blt.n	200001bc <mutex_enter_block_until+0x50>
20000196:	6823      	ldr	r3, [r4, #0]
20000198:	f3bf 8f5f 	dmb	sy
2000019c:	2200      	movs	r2, #0
2000019e:	601a      	str	r2, [r3, #0]
200001a0:	f381 8810 	msr	PRIMASK, r1
200001a4:	2d00      	cmp	r5, #0
200001a6:	d110      	bne.n	200001ca <mutex_enter_block_until+0x5e>
200001a8:	2d00      	cmp	r5, #0
200001aa:	d1e7      	bne.n	2000017c <mutex_enter_block_until+0x10>
200001ac:	2001      	movs	r0, #1
200001ae:	bdf8      	pop	{r3, r4, r5, r6, r7, pc}
200001b0:	4b0a      	ldr	r3, [pc, #40]	; (200001dc <mutex_enter_block_until+0x70>)
200001b2:	4a0b      	ldr	r2, [pc, #44]	; (200001e0 <mutex_enter_block_until+0x74>)
200001b4:	2137      	movs	r1, #55	; 0x37
200001b6:	480b      	ldr	r0, [pc, #44]	; (200001e4 <mutex_enter_block_until+0x78>)
200001b8:	f000 fa52 	bl	20000660 <____assert_func_veneer>
200001bc:	23d0      	movs	r3, #208	; 0xd0
200001be:	061b      	lsls	r3, r3, #24
200001c0:	781b      	ldrb	r3, [r3, #0]
200001c2:	b25b      	sxtb	r3, r3
200001c4:	7123      	strb	r3, [r4, #4]
200001c6:	2500      	movs	r5, #0
200001c8:	e7e5      	b.n	20000196 <mutex_enter_block_until+0x2a>
200001ca:	0030      	movs	r0, r6
200001cc:	0039      	movs	r1, r7
200001ce:	f000 fa4f 	bl	20000670 <__best_effort_wfe_or_timeout_veneer>
200001d2:	2800      	cmp	r0, #0
200001d4:	d0e8      	beq.n	200001a8 <mutex_enter_block_until+0x3c>
200001d6:	2000      	movs	r0, #0
200001d8:	e7e9      	b.n	200001ae <mutex_enter_block_until+0x42>
200001da:	46c0      	nop			; (mov r8, r8)
200001dc:	1000cedc 	.word	0x1000cedc
200001e0:	1000cf58 	.word	0x1000cf58
200001e4:	1000cef0 	.word	0x1000cef0

200001e8 <mutex_enter_timeout_ms>:
200001e8:	b5f0      	push	{r4, r5, r6, r7, lr}
200001ea:	46c6      	mov	lr, r8
200001ec:	b500      	push	{lr}
200001ee:	b082      	sub	sp, #8
200001f0:	0007      	movs	r7, r0
200001f2:	4688      	mov	r8, r1
200001f4:	f000 fa4c 	bl	20000690 <__time_us_64_veneer>
200001f8:	0004      	movs	r4, r0
200001fa:	1e0d      	subs	r5, r1, #0
200001fc:	db1c      	blt.n	20000238 <mutex_enter_timeout_ms+0x50>
200001fe:	9001      	str	r0, [sp, #4]
20000200:	22fa      	movs	r2, #250	; 0xfa
20000202:	0092      	lsls	r2, r2, #2
20000204:	2300      	movs	r3, #0
20000206:	4640      	mov	r0, r8
20000208:	2100      	movs	r1, #0
2000020a:	f000 fa49 	bl	200006a0 <____wrap___aeabi_lmul_veneer>
2000020e:	0022      	movs	r2, r4
20000210:	002b      	movs	r3, r5
20000212:	1812      	adds	r2, r2, r0
20000214:	414b      	adcs	r3, r1
20000216:	429d      	cmp	r5, r3
20000218:	d802      	bhi.n	20000220 <mutex_enter_timeout_ms+0x38>
2000021a:	d104      	bne.n	20000226 <mutex_enter_timeout_ms+0x3e>
2000021c:	4294      	cmp	r4, r2
2000021e:	d902      	bls.n	20000226 <mutex_enter_timeout_ms+0x3e>
20000220:	2201      	movs	r2, #1
20000222:	4252      	negs	r2, r2
20000224:	17d3      	asrs	r3, r2, #31
20000226:	2b00      	cmp	r3, #0
20000228:	db0c      	blt.n	20000244 <mutex_enter_timeout_ms+0x5c>
2000022a:	0038      	movs	r0, r7
2000022c:	f7ff ff9e 	bl	2000016c <mutex_enter_block_until>
20000230:	b002      	add	sp, #8
20000232:	bc80      	pop	{r7}
20000234:	46b8      	mov	r8, r7
20000236:	bdf0      	pop	{r4, r5, r6, r7, pc}
20000238:	4b05      	ldr	r3, [pc, #20]	; (20000250 <mutex_enter_timeout_ms+0x68>)
2000023a:	4a06      	ldr	r2, [pc, #24]	; (20000254 <mutex_enter_timeout_ms+0x6c>)
2000023c:	213d      	movs	r1, #61	; 0x3d
2000023e:	4806      	ldr	r0, [pc, #24]	; (20000258 <mutex_enter_timeout_ms+0x70>)
20000240:	f000 fa0e 	bl	20000660 <____assert_func_veneer>
20000244:	4b02      	ldr	r3, [pc, #8]	; (20000250 <mutex_enter_timeout_ms+0x68>)
20000246:	4a03      	ldr	r2, [pc, #12]	; (20000254 <mutex_enter_timeout_ms+0x6c>)
20000248:	213d      	movs	r1, #61	; 0x3d
2000024a:	4803      	ldr	r0, [pc, #12]	; (20000258 <mutex_enter_timeout_ms+0x70>)
2000024c:	f000 fa08 	bl	20000660 <____assert_func_veneer>
20000250:	1000cbac 	.word	0x1000cbac
20000254:	1000cf70 	.word	0x1000cf70
20000258:	1000cbc8 	.word	0x1000cbc8

2000025c <mutex_exit>:
2000025c:	b510      	push	{r4, lr}
2000025e:	6802      	ldr	r2, [r0, #0]
20000260:	f3ef 8110 	mrs	r1, PRIMASK
20000264:	b672      	cpsid	i
20000266:	6813      	ldr	r3, [r2, #0]
20000268:	2b00      	cmp	r3, #0
2000026a:	d0fc      	beq.n	20000266 <mutex_exit+0xa>
2000026c:	f3bf 8f5f 	dmb	sy
20000270:	2304      	movs	r3, #4
20000272:	56c3      	ldrsb	r3, [r0, r3]
20000274:	2b00      	cmp	r3, #0
20000276:	db0a      	blt.n	2000028e <mutex_exit+0x32>
20000278:	23ff      	movs	r3, #255	; 0xff
2000027a:	7103      	strb	r3, [r0, #4]
2000027c:	bf40      	sev
2000027e:	6803      	ldr	r3, [r0, #0]
20000280:	f3bf 8f5f 	dmb	sy
20000284:	2200      	movs	r2, #0
20000286:	601a      	str	r2, [r3, #0]
20000288:	f381 8810 	msr	PRIMASK, r1
2000028c:	bd10      	pop	{r4, pc}
2000028e:	4b03      	ldr	r3, [pc, #12]	; (2000029c <mutex_exit+0x40>)
20000290:	4a03      	ldr	r2, [pc, #12]	; (200002a0 <mutex_exit+0x44>)
20000292:	214b      	movs	r1, #75	; 0x4b
20000294:	4803      	ldr	r0, [pc, #12]	; (200002a4 <mutex_exit+0x48>)
20000296:	f000 f9e3 	bl	20000660 <____assert_func_veneer>
2000029a:	46c0      	nop			; (mov r8, r8)
2000029c:	1000cf3c 	.word	0x1000cf3c
200002a0:	1000cf4c 	.word	0x1000cf4c
200002a4:	1000cef0 	.word	0x1000cef0

200002a8 <spi_write_read_blocking>:
200002a8:	b5f0      	push	{r4, r5, r6, r7, lr}
200002aa:	0007      	movs	r7, r0
200002ac:	0018      	movs	r0, r3
200002ae:	001d      	movs	r5, r3
200002b0:	001c      	movs	r4, r3
200002b2:	e008      	b.n	200002c6 <spi_write_read_blocking+0x1e>
200002b4:	2c00      	cmp	r4, #0
200002b6:	d006      	beq.n	200002c6 <spi_write_read_blocking+0x1e>
200002b8:	68fe      	ldr	r6, [r7, #12]
200002ba:	0773      	lsls	r3, r6, #29
200002bc:	d503      	bpl.n	200002c6 <spi_write_read_blocking+0x1e>
200002be:	68bb      	ldr	r3, [r7, #8]
200002c0:	7013      	strb	r3, [r2, #0]
200002c2:	3c01      	subs	r4, #1
200002c4:	3201      	adds	r2, #1
200002c6:	0026      	movs	r6, r4
200002c8:	432e      	orrs	r6, r5
200002ca:	d00c      	beq.n	200002e6 <spi_write_read_blocking+0x3e>
200002cc:	2d00      	cmp	r5, #0
200002ce:	d0f1      	beq.n	200002b4 <spi_write_read_blocking+0xc>
200002d0:	68fe      	ldr	r6, [r7, #12]
200002d2:	07b3      	lsls	r3, r6, #30
200002d4:	d5ee      	bpl.n	200002b4 <spi_write_read_blocking+0xc>
200002d6:	1b63      	subs	r3, r4, r5
200002d8:	2b07      	cmp	r3, #7
200002da:	d8eb      	bhi.n	200002b4 <spi_write_read_blocking+0xc>
200002dc:	780b      	ldrb	r3, [r1, #0]
200002de:	60bb      	str	r3, [r7, #8]
200002e0:	3d01      	subs	r5, #1
200002e2:	3101      	adds	r1, #1
200002e4:	e7e6      	b.n	200002b4 <spi_write_read_blocking+0xc>
200002e6:	bdf0      	pop	{r4, r5, r6, r7, pc}

200002e8 <flash_init_boot2_copyout>:
200002e8:	4b09      	ldr	r3, [pc, #36]	; (20000310 <flash_init_boot2_copyout+0x28>)
200002ea:	781b      	ldrb	r3, [r3, #0]
200002ec:	2b00      	cmp	r3, #0
200002ee:	d008      	beq.n	20000302 <flash_init_boot2_copyout+0x1a>
200002f0:	e00c      	b.n	2000030c <flash_init_boot2_copyout+0x24>
200002f2:	009a      	lsls	r2, r3, #2
200002f4:	2180      	movs	r1, #128	; 0x80
200002f6:	0549      	lsls	r1, r1, #21
200002f8:	1851      	adds	r1, r2, r1
200002fa:	6808      	ldr	r0, [r1, #0]
200002fc:	4905      	ldr	r1, [pc, #20]	; (20000314 <flash_init_boot2_copyout+0x2c>)
200002fe:	5050      	str	r0, [r2, r1]
20000300:	3301      	adds	r3, #1
20000302:	2b3f      	cmp	r3, #63	; 0x3f
20000304:	ddf5      	ble.n	200002f2 <flash_init_boot2_copyout+0xa>
20000306:	4b02      	ldr	r3, [pc, #8]	; (20000310 <flash_init_boot2_copyout+0x28>)
20000308:	2201      	movs	r2, #1
2000030a:	701a      	strb	r2, [r3, #0]
2000030c:	4770      	bx	lr
2000030e:	46c0      	nop			; (mov r8, r8)
20000310:	2000260b 	.word	0x2000260b
20000314:	20001524 	.word	0x20001524

20000318 <flash_enable_xip_via_boot2>:
20000318:	b510      	push	{r4, lr}
2000031a:	4b02      	ldr	r3, [pc, #8]	; (20000324 <flash_enable_xip_via_boot2+0xc>)
2000031c:	3301      	adds	r3, #1
2000031e:	4798      	blx	r3
20000320:	bd10      	pop	{r4, pc}
20000322:	46c0      	nop			; (mov r8, r8)
20000324:	20001524 	.word	0x20001524

20000328 <flash_cs_force>:
20000328:	2800      	cmp	r0, #0
2000032a:	d00a      	beq.n	20000342 <flash_cs_force+0x1a>
2000032c:	2303      	movs	r3, #3
2000032e:	021b      	lsls	r3, r3, #8
20000330:	4a05      	ldr	r2, [pc, #20]	; (20000348 <flash_cs_force+0x20>)
20000332:	6812      	ldr	r2, [r2, #0]
20000334:	4053      	eors	r3, r2
20000336:	22c0      	movs	r2, #192	; 0xc0
20000338:	0092      	lsls	r2, r2, #2
2000033a:	4013      	ands	r3, r2
2000033c:	4a03      	ldr	r2, [pc, #12]	; (2000034c <flash_cs_force+0x24>)
2000033e:	6013      	str	r3, [r2, #0]
20000340:	4770      	bx	lr
20000342:	2302      	movs	r3, #2
20000344:	e7f3      	b.n	2000032e <flash_cs_force+0x6>
20000346:	46c0      	nop			; (mov r8, r8)
20000348:	4001800c 	.word	0x4001800c
2000034c:	4001900c 	.word	0x4001900c

20000350 <flash_range_erase>:
20000350:	b5f8      	push	{r3, r4, r5, r6, r7, lr}
20000352:	46ce      	mov	lr, r9
20000354:	4647      	mov	r7, r8
20000356:	b580      	push	{r7, lr}
20000358:	0004      	movs	r4, r0
2000035a:	000d      	movs	r5, r1
2000035c:	180a      	adds	r2, r1, r0
2000035e:	2380      	movs	r3, #128	; 0x80
20000360:	039b      	lsls	r3, r3, #14
20000362:	429a      	cmp	r2, r3
20000364:	d829      	bhi.n	200003ba <flash_range_erase+0x6a>
20000366:	481b      	ldr	r0, [pc, #108]	; (200003d4 <flash_range_erase+0x84>)
20000368:	f000 f972 	bl	20000650 <__rom_func_lookup_veneer>
2000036c:	0007      	movs	r7, r0
2000036e:	481a      	ldr	r0, [pc, #104]	; (200003d8 <flash_range_erase+0x88>)
20000370:	f000 f96e 	bl	20000650 <__rom_func_lookup_veneer>
20000374:	0006      	movs	r6, r0
20000376:	4819      	ldr	r0, [pc, #100]	; (200003dc <flash_range_erase+0x8c>)
20000378:	f000 f96a 	bl	20000650 <__rom_func_lookup_veneer>
2000037c:	4681      	mov	r9, r0
2000037e:	4818      	ldr	r0, [pc, #96]	; (200003e0 <flash_range_erase+0x90>)
20000380:	f000 f966 	bl	20000650 <__rom_func_lookup_veneer>
20000384:	4680      	mov	r8, r0
20000386:	2f00      	cmp	r7, #0
20000388:	d01d      	beq.n	200003c6 <flash_range_erase+0x76>
2000038a:	2e00      	cmp	r6, #0
2000038c:	d01b      	beq.n	200003c6 <flash_range_erase+0x76>
2000038e:	464b      	mov	r3, r9
20000390:	2b00      	cmp	r3, #0
20000392:	d018      	beq.n	200003c6 <flash_range_erase+0x76>
20000394:	2800      	cmp	r0, #0
20000396:	d016      	beq.n	200003c6 <flash_range_erase+0x76>
20000398:	f7ff ffa6 	bl	200002e8 <flash_init_boot2_copyout>
2000039c:	47b8      	blx	r7
2000039e:	47b0      	blx	r6
200003a0:	2280      	movs	r2, #128	; 0x80
200003a2:	23d8      	movs	r3, #216	; 0xd8
200003a4:	0252      	lsls	r2, r2, #9
200003a6:	0029      	movs	r1, r5
200003a8:	0020      	movs	r0, r4
200003aa:	47c8      	blx	r9
200003ac:	47c0      	blx	r8
200003ae:	f7ff ffb3 	bl	20000318 <flash_enable_xip_via_boot2>
200003b2:	bcc0      	pop	{r6, r7}
200003b4:	46b9      	mov	r9, r7
200003b6:	46b0      	mov	r8, r6
200003b8:	bdf8      	pop	{r3, r4, r5, r6, r7, pc}
200003ba:	4b0a      	ldr	r3, [pc, #40]	; (200003e4 <flash_range_erase+0x94>)
200003bc:	4a0a      	ldr	r2, [pc, #40]	; (200003e8 <flash_range_erase+0x98>)
200003be:	2141      	movs	r1, #65	; 0x41
200003c0:	480a      	ldr	r0, [pc, #40]	; (200003ec <flash_range_erase+0x9c>)
200003c2:	f000 f94d 	bl	20000660 <____assert_func_veneer>
200003c6:	4b0a      	ldr	r3, [pc, #40]	; (200003f0 <flash_range_erase+0xa0>)
200003c8:	4a07      	ldr	r2, [pc, #28]	; (200003e8 <flash_range_erase+0x98>)
200003ca:	214a      	movs	r1, #74	; 0x4a
200003cc:	4807      	ldr	r0, [pc, #28]	; (200003ec <flash_range_erase+0x9c>)
200003ce:	f000 f947 	bl	20000660 <____assert_func_veneer>
200003d2:	46c0      	nop			; (mov r8, r8)
200003d4:	00004649 	.word	0x00004649
200003d8:	00005845 	.word	0x00005845
200003dc:	00004552 	.word	0x00004552
200003e0:	00004346 	.word	0x00004346
200003e4:	1000d9d4 	.word	0x1000d9d4
200003e8:	1000db68 	.word	0x1000db68
200003ec:	1000da00 	.word	0x1000da00
200003f0:	1000da58 	.word	0x1000da58

200003f4 <flash_range_program>:
200003f4:	b5f0      	push	{r4, r5, r6, r7, lr}
200003f6:	46d6      	mov	lr, sl
200003f8:	464f      	mov	r7, r9
200003fa:	4646      	mov	r6, r8
200003fc:	b5c0      	push	{r6, r7, lr}
200003fe:	0004      	movs	r4, r0
20000400:	468a      	mov	sl, r1
20000402:	0015      	movs	r5, r2
20000404:	1812      	adds	r2, r2, r0
20000406:	2380      	movs	r3, #128	; 0x80
20000408:	039b      	lsls	r3, r3, #14
2000040a:	429a      	cmp	r2, r3
2000040c:	d828      	bhi.n	20000460 <flash_range_program+0x6c>
2000040e:	481a      	ldr	r0, [pc, #104]	; (20000478 <flash_range_program+0x84>)
20000410:	f000 f91e 	bl	20000650 <__rom_func_lookup_veneer>
20000414:	0007      	movs	r7, r0
20000416:	4819      	ldr	r0, [pc, #100]	; (2000047c <flash_range_program+0x88>)
20000418:	f000 f91a 	bl	20000650 <__rom_func_lookup_veneer>
2000041c:	0006      	movs	r6, r0
2000041e:	4818      	ldr	r0, [pc, #96]	; (20000480 <flash_range_program+0x8c>)
20000420:	f000 f916 	bl	20000650 <__rom_func_lookup_veneer>
20000424:	4681      	mov	r9, r0
20000426:	4817      	ldr	r0, [pc, #92]	; (20000484 <flash_range_program+0x90>)
20000428:	f000 f912 	bl	20000650 <__rom_func_lookup_veneer>
2000042c:	4680      	mov	r8, r0
2000042e:	2f00      	cmp	r7, #0
20000430:	d01c      	beq.n	2000046c <flash_range_program+0x78>
20000432:	2e00      	cmp	r6, #0
20000434:	d01a      	beq.n	2000046c <flash_range_program+0x78>
20000436:	464b      	mov	r3, r9
20000438:	2b00      	cmp	r3, #0
2000043a:	d017      	beq.n	2000046c <flash_range_program+0x78>
2000043c:	2800      	cmp	r0, #0
2000043e:	d015      	beq.n	2000046c <flash_range_program+0x78>
20000440:	f7ff ff52 	bl	200002e8 <flash_init_boot2_copyout>
20000444:	47b8      	blx	r7
20000446:	47b0      	blx	r6
20000448:	002a      	movs	r2, r5
2000044a:	4651      	mov	r1, sl
2000044c:	0020      	movs	r0, r4
2000044e:	47c8      	blx	r9
20000450:	47c0      	blx	r8
20000452:	f7ff ff61 	bl	20000318 <flash_enable_xip_via_boot2>
20000456:	bce0      	pop	{r5, r6, r7}
20000458:	46ba      	mov	sl, r7
2000045a:	46b1      	mov	r9, r6
2000045c:	46a8      	mov	r8, r5
2000045e:	bdf0      	pop	{r4, r5, r6, r7, pc}
20000460:	4b09      	ldr	r3, [pc, #36]	; (20000488 <flash_range_program+0x94>)
20000462:	4a0a      	ldr	r2, [pc, #40]	; (2000048c <flash_range_program+0x98>)
20000464:	2159      	movs	r1, #89	; 0x59
20000466:	480a      	ldr	r0, [pc, #40]	; (20000490 <flash_range_program+0x9c>)
20000468:	f000 f8fa 	bl	20000660 <____assert_func_veneer>
2000046c:	4b09      	ldr	r3, [pc, #36]	; (20000494 <flash_range_program+0xa0>)
2000046e:	4a07      	ldr	r2, [pc, #28]	; (2000048c <flash_range_program+0x98>)
20000470:	2162      	movs	r1, #98	; 0x62
20000472:	4807      	ldr	r0, [pc, #28]	; (20000490 <flash_range_program+0x9c>)
20000474:	f000 f8f4 	bl	20000660 <____assert_func_veneer>
20000478:	00004649 	.word	0x00004649
2000047c:	00005845 	.word	0x00005845
20000480:	00005052 	.word	0x00005052
20000484:	00004346 	.word	0x00004346
20000488:	1000d9d4 	.word	0x1000d9d4
2000048c:	1000db54 	.word	0x1000db54
20000490:	1000da00 	.word	0x1000da00
20000494:	1000daac 	.word	0x1000daac

20000498 <flash_do_cmd>:
20000498:	b5f8      	push	{r3, r4, r5, r6, r7, lr}
2000049a:	46ce      	mov	lr, r9
2000049c:	4647      	mov	r7, r8
2000049e:	b580      	push	{r7, lr}
200004a0:	0007      	movs	r7, r0
200004a2:	000e      	movs	r6, r1
200004a4:	0015      	movs	r5, r2
200004a6:	4826      	ldr	r0, [pc, #152]	; (20000540 <flash_do_cmd+0xa8>)
200004a8:	f000 f8d2 	bl	20000650 <__rom_func_lookup_veneer>
200004ac:	4681      	mov	r9, r0
200004ae:	4825      	ldr	r0, [pc, #148]	; (20000544 <flash_do_cmd+0xac>)
200004b0:	f000 f8ce 	bl	20000650 <__rom_func_lookup_veneer>
200004b4:	0004      	movs	r4, r0
200004b6:	4824      	ldr	r0, [pc, #144]	; (20000548 <flash_do_cmd+0xb0>)
200004b8:	f000 f8ca 	bl	20000650 <__rom_func_lookup_veneer>
200004bc:	4680      	mov	r8, r0
200004be:	464b      	mov	r3, r9
200004c0:	2b00      	cmp	r3, #0
200004c2:	d00c      	beq.n	200004de <flash_do_cmd+0x46>
200004c4:	2c00      	cmp	r4, #0
200004c6:	d00a      	beq.n	200004de <flash_do_cmd+0x46>
200004c8:	2800      	cmp	r0, #0
200004ca:	d008      	beq.n	200004de <flash_do_cmd+0x46>
200004cc:	f7ff ff0c 	bl	200002e8 <flash_init_boot2_copyout>
200004d0:	47c8      	blx	r9
200004d2:	47a0      	blx	r4
200004d4:	2000      	movs	r0, #0
200004d6:	f7ff ff27 	bl	20000328 <flash_cs_force>
200004da:	002a      	movs	r2, r5
200004dc:	e00f      	b.n	200004fe <flash_do_cmd+0x66>
200004de:	4b1b      	ldr	r3, [pc, #108]	; (2000054c <flash_do_cmd+0xb4>)
200004e0:	4a1b      	ldr	r2, [pc, #108]	; (20000550 <flash_do_cmd+0xb8>)
200004e2:	2182      	movs	r1, #130	; 0x82
200004e4:	481b      	ldr	r0, [pc, #108]	; (20000554 <flash_do_cmd+0xbc>)
200004e6:	f000 f8bb 	bl	20000660 <____assert_func_veneer>
200004ea:	2b00      	cmp	r3, #0
200004ec:	d007      	beq.n	200004fe <flash_do_cmd+0x66>
200004ee:	2a00      	cmp	r2, #0
200004f0:	d005      	beq.n	200004fe <flash_do_cmd+0x66>
200004f2:	23c0      	movs	r3, #192	; 0xc0
200004f4:	055b      	lsls	r3, r3, #21
200004f6:	6e1b      	ldr	r3, [r3, #96]	; 0x60
200004f8:	7033      	strb	r3, [r6, #0]
200004fa:	3a01      	subs	r2, #1
200004fc:	3601      	adds	r6, #1
200004fe:	002b      	movs	r3, r5
20000500:	4313      	orrs	r3, r2
20000502:	d012      	beq.n	2000052a <flash_do_cmd+0x92>
20000504:	23c0      	movs	r3, #192	; 0xc0
20000506:	055b      	lsls	r3, r3, #21
20000508:	6a9c      	ldr	r4, [r3, #40]	; 0x28
2000050a:	2308      	movs	r3, #8
2000050c:	4023      	ands	r3, r4
2000050e:	07a1      	lsls	r1, r4, #30
20000510:	d5eb      	bpl.n	200004ea <flash_do_cmd+0x52>
20000512:	2d00      	cmp	r5, #0
20000514:	d0e9      	beq.n	200004ea <flash_do_cmd+0x52>
20000516:	1b51      	subs	r1, r2, r5
20000518:	290d      	cmp	r1, #13
2000051a:	d8e6      	bhi.n	200004ea <flash_do_cmd+0x52>
2000051c:	7838      	ldrb	r0, [r7, #0]
2000051e:	21c0      	movs	r1, #192	; 0xc0
20000520:	0549      	lsls	r1, r1, #21
20000522:	6608      	str	r0, [r1, #96]	; 0x60
20000524:	3d01      	subs	r5, #1
20000526:	3701      	adds	r7, #1
20000528:	e7df      	b.n	200004ea <flash_do_cmd+0x52>
2000052a:	2001      	movs	r0, #1
2000052c:	f7ff fefc 	bl	20000328 <flash_cs_force>
20000530:	47c0      	blx	r8
20000532:	f7ff fef1 	bl	20000318 <flash_enable_xip_via_boot2>
20000536:	bcc0      	pop	{r6, r7}
20000538:	46b9      	mov	r9, r7
2000053a:	46b0      	mov	r8, r6
2000053c:	bdf8      	pop	{r3, r4, r5, r6, r7, pc}
2000053e:	46c0      	nop			; (mov r8, r8)
20000540:	00004649 	.word	0x00004649
20000544:	00005845 	.word	0x00005845
20000548:	00004346 	.word	0x00004346
2000054c:	1000db04 	.word	0x1000db04
20000550:	1000db44 	.word	0x1000db44
20000554:	1000da00 	.word	0x1000da00

20000558 <lrint>:
20000558:	4a31      	ldr	r2, [pc, #196]	; (20000620 <lrint+0xc8>)
2000055a:	b5f0      	push	{r4, r5, r6, r7, lr}
2000055c:	4694      	mov	ip, r2
2000055e:	004b      	lsls	r3, r1, #1
20000560:	0d5b      	lsrs	r3, r3, #21
20000562:	4463      	add	r3, ip
20000564:	b083      	sub	sp, #12
20000566:	0fce      	lsrs	r6, r1, #31
20000568:	2b13      	cmp	r3, #19
2000056a:	dc2a      	bgt.n	200005c2 <lrint+0x6a>
2000056c:	3301      	adds	r3, #1
2000056e:	db26      	blt.n	200005be <lrint+0x66>
20000570:	4b2c      	ldr	r3, [pc, #176]	; (20000624 <lrint+0xcc>)
20000572:	00f2      	lsls	r2, r6, #3
20000574:	189b      	adds	r3, r3, r2
20000576:	681c      	ldr	r4, [r3, #0]
20000578:	685d      	ldr	r5, [r3, #4]
2000057a:	0002      	movs	r2, r0
2000057c:	000b      	movs	r3, r1
2000057e:	0020      	movs	r0, r4
20000580:	0029      	movs	r1, r5
20000582:	f000 f87d 	bl	20000680 <____wrap___aeabi_dadd_veneer>
20000586:	9000      	str	r0, [sp, #0]
20000588:	9101      	str	r1, [sp, #4]
2000058a:	9800      	ldr	r0, [sp, #0]
2000058c:	9901      	ldr	r1, [sp, #4]
2000058e:	0022      	movs	r2, r4
20000590:	002b      	movs	r3, r5
20000592:	f000 f84d 	bl	20000630 <____wrap___aeabi_dsub_veneer>
20000596:	004a      	lsls	r2, r1, #1
20000598:	d011      	beq.n	200005be <lrint+0x66>
2000059a:	2080      	movs	r0, #128	; 0x80
2000059c:	030a      	lsls	r2, r1, #12
2000059e:	0b12      	lsrs	r2, r2, #12
200005a0:	0340      	lsls	r0, r0, #13
200005a2:	4310      	orrs	r0, r2
200005a4:	4a1e      	ldr	r2, [pc, #120]	; (20000620 <lrint+0xc8>)
200005a6:	004b      	lsls	r3, r1, #1
200005a8:	4694      	mov	ip, r2
200005aa:	2214      	movs	r2, #20
200005ac:	0d5b      	lsrs	r3, r3, #21
200005ae:	4463      	add	r3, ip
200005b0:	1ad3      	subs	r3, r2, r3
200005b2:	4118      	asrs	r0, r3
200005b4:	2e00      	cmp	r6, #0
200005b6:	d000      	beq.n	200005ba <lrint+0x62>
200005b8:	4240      	negs	r0, r0
200005ba:	b003      	add	sp, #12
200005bc:	bdf0      	pop	{r4, r5, r6, r7, pc}
200005be:	2000      	movs	r0, #0
200005c0:	e7fb      	b.n	200005ba <lrint+0x62>
200005c2:	2b1e      	cmp	r3, #30
200005c4:	dc29      	bgt.n	2000061a <lrint+0xc2>
200005c6:	4b17      	ldr	r3, [pc, #92]	; (20000624 <lrint+0xcc>)
200005c8:	00f2      	lsls	r2, r6, #3
200005ca:	189b      	adds	r3, r3, r2
200005cc:	681c      	ldr	r4, [r3, #0]
200005ce:	685d      	ldr	r5, [r3, #4]
200005d0:	0002      	movs	r2, r0
200005d2:	000b      	movs	r3, r1
200005d4:	0020      	movs	r0, r4
200005d6:	0029      	movs	r1, r5
200005d8:	f000 f852 	bl	20000680 <____wrap___aeabi_dadd_veneer>
200005dc:	9000      	str	r0, [sp, #0]
200005de:	9101      	str	r1, [sp, #4]
200005e0:	9800      	ldr	r0, [sp, #0]
200005e2:	9901      	ldr	r1, [sp, #4]
200005e4:	0022      	movs	r2, r4
200005e6:	002b      	movs	r3, r5
200005e8:	f000 f822 	bl	20000630 <____wrap___aeabi_dsub_veneer>
200005ec:	000b      	movs	r3, r1
200005ee:	0001      	movs	r1, r0
200005f0:	0018      	movs	r0, r3
200005f2:	0300      	lsls	r0, r0, #12
200005f4:	0b02      	lsrs	r2, r0, #12
200005f6:	2080      	movs	r0, #128	; 0x80
200005f8:	0340      	lsls	r0, r0, #13
200005fa:	4310      	orrs	r0, r2
200005fc:	005b      	lsls	r3, r3, #1
200005fe:	4a0a      	ldr	r2, [pc, #40]	; (20000628 <lrint+0xd0>)
20000600:	0d5b      	lsrs	r3, r3, #21
20000602:	189a      	adds	r2, r3, r2
20000604:	4090      	lsls	r0, r2
20000606:	4a06      	ldr	r2, [pc, #24]	; (20000620 <lrint+0xc8>)
20000608:	4694      	mov	ip, r2
2000060a:	2234      	movs	r2, #52	; 0x34
2000060c:	4463      	add	r3, ip
2000060e:	1ad3      	subs	r3, r2, r3
20000610:	2b1f      	cmp	r3, #31
20000612:	d8cf      	bhi.n	200005b4 <lrint+0x5c>
20000614:	40d9      	lsrs	r1, r3
20000616:	4308      	orrs	r0, r1
20000618:	e7cc      	b.n	200005b4 <lrint+0x5c>
2000061a:	f000 f811 	bl	20000640 <____wrap___aeabi_d2iz_veneer>
2000061e:	e7cc      	b.n	200005ba <lrint+0x62>
20000620:	fffffc01 	.word	0xfffffc01
20000624:	200006b0 	.word	0x200006b0
20000628:	fffffbed 	.word	0xfffffbed

2000062c <__aeabi_idiv0>:
2000062c:	4770      	bx	lr
2000062e:	46c0      	nop			; (mov r8, r8)

20000630 <____wrap___aeabi_dsub_veneer>:
20000630:	b401      	push	{r0}
20000632:	4802      	ldr	r0, [pc, #8]	; (2000063c <____wrap___aeabi_dsub_veneer+0xc>)
20000634:	4684      	mov	ip, r0
20000636:	bc01      	pop	{r0}
20000638:	4760      	bx	ip
2000063a:	bf00      	nop
2000063c:	10008117 	.word	0x10008117

20000640 <____wrap___aeabi_d2iz_veneer>:
20000640:	b401      	push	{r0}
20000642:	4802      	ldr	r0, [pc, #8]	; (2000064c <____wrap___aeabi_d2iz_veneer+0xc>)
20000644:	4684      	mov	ip, r0
20000646:	bc01      	pop	{r0}
20000648:	4760      	bx	ip
2000064a:	bf00      	nop
2000064c:	1000825d 	.word	0x1000825d

20000650 <__rom_func_lookup_veneer>:
20000650:	b401      	push	{r0}
20000652:	4802      	ldr	r0, [pc, #8]	; (2000065c <__rom_func_lookup_veneer+0xc>)
20000654:	4684      	mov	ip, r0
20000656:	bc01      	pop	{r0}
20000658:	4760      	bx	ip
2000065a:	bf00      	nop
2000065c:	10007bdd 	.word	0x10007bdd

20000660 <____assert_func_veneer>:
20000660:	b401      	push	{r0}
20000662:	4802      	ldr	r0, [pc, #8]	; (2000066c <____assert_func_veneer+0xc>)
20000664:	4684      	mov	ip, r0
20000666:	bc01      	pop	{r0}
20000668:	4760      	bx	ip
2000066a:	bf00      	nop
2000066c:	10006225 	.word	0x10006225

20000670 <__best_effort_wfe_or_timeout_veneer>:
20000670:	b401      	push	{r0}
20000672:	4802      	ldr	r0, [pc, #8]	; (2000067c <__best_effort_wfe_or_timeout_veneer+0xc>)
20000674:	4684      	mov	ip, r0
20000676:	bc01      	pop	{r0}
20000678:	4760      	bx	ip
2000067a:	bf00      	nop
2000067c:	100059c5 	.word	0x100059c5

20000680 <____wrap___aeabi_dadd_veneer>:
20000680:	b401      	push	{r0}
20000682:	4802      	ldr	r0, [pc, #8]	; (2000068c <____wrap___aeabi_dadd_veneer+0xc>)
20000684:	4684      	mov	ip, r0
20000686:	bc01      	pop	{r0}
20000688:	4760      	bx	ip
2000068a:	bf00      	nop
2000068c:	10008129 	.word	0x10008129

20000690 <__time_us_64_veneer>:
20000690:	b401      	push	{r0}
20000692:	4802      	ldr	r0, [pc, #8]	; (2000069c <__time_us_64_veneer+0xc>)
20000694:	4684      	mov	ip, r0
20000696:	bc01      	pop	{r0}
20000698:	4760      	bx	ip
2000069a:	bf00      	nop
2000069c:	10005ae9 	.word	0x10005ae9

200006a0 <____wrap___aeabi_lmul_veneer>:
200006a0:	b401      	push	{r0}
200006a2:	4802      	ldr	r0, [pc, #8]	; (200006ac <____wrap___aeabi_lmul_veneer+0xc>)
200006a4:	4684      	mov	ip, r0
200006a6:	bc01      	pop	{r0}
200006a8:	4760      	bx	ip
200006aa:	bf00      	nop
200006ac:	10008955 	.word	0x10008955

200006b0 <TWO52>:
200006b0:	00000000 43300000 00000000 c3300000     ......0C......0.

200006c0 <driver>:
200006c0:	100046f1 100046dd 100046fd 100002e5     .F...F...F......
200006d0:	1000041d 100047f1 00000000              .....G......

200006dc <DevCompatIDs>:
200006dc:	00000070 00040100 00000004 00000000     p...............
200006ec:	55580401 30314253 00000000 00000000     ..XUSB10........
	...
20000704:	55580403 30314253 00000000 00000000     ..XUSB10........
	...
2000071c:	55580404 30314253 00000000 00000000     ..XUSB10........
	...
20000734:	55580405 30314253 00000000 00000000     ..XUSB10........
	...

2000074c <ExtendedIDs>:
2000074c:	0000008e 00050100 00840001 00010000     ................
2000075c:	00280000 00650044 00690076 00650063     ..(.D.e.v.i.c.e.
2000076c:	006e0049 00650074 00660072 00630061     I.n.t.e.r.f.a.c.
2000077c:	00470065 00490055 00000044 0000004e     e.G.U.I.D...N...
2000078c:	0044007b 00350046 00300039 00370033     {.D.F.5.9.0.3.7.
2000079c:	002d0044 00430037 00320039 0034002d     D.-.7.C.9.2.-.4.
200007ac:	00350031 002d0035 00430041 00320031     1.5.5.-.A.C.1.2.
200007bc:	0037002d 00370044 00300030 00330041     -.7.D.7.0.0.A.3.
200007cc:	00330031 00370044 007d0038 00000000     1.3.D.7.8.}.....

200007dc <ID>:
200007dc:	23f88200                                ...#

200007e0 <capabilities1>:
200007e0:	00000800 00000000                       ........

200007e8 <ConfigurationDescriptor>:
200007e8:	00d20209 80000106 00040932 00030000     ........2.......
200007f8:	21090000 01000101 00008922 00000000     ...!....".......
	...
20000810:	01040900 5dff0200 21110001 25000100     .......]...!...%
20000820:	00002082 07130000 07000020 20038205     . ...... ...... 
20000830:	05070100 00200307 03040901 5dff0200     ...... ........]
20000840:	21110001 25000100 00002082 09130000     ...!...%. ......
20000850:	07000020 20038205 05070100 00200309      ...... ...... .
20000860:	04040901 5dff0200 21110001 25000100     .......]...!...%
20000870:	00002083 0a130000 07000020 20038305     . ...... ...... 
20000880:	05070100 0020030a 05040901 5dff0200     ...... ........]
20000890:	21110001 25000100 00002084 0b130000     ...!...%. ......
200008a0:	07000020 20038405 05070100 0020030b      ...... ...... .
200008b0:	02040901 ffff0000 000000ff              ............

200008bc <OSDescriptorString>:
200008bc:	004d0312 00460053 00310054 00300030     ..M.S.F.T.1.0.0.
200008cc:	00000020                                 ...

200008d0 <descriptorStrings>:
200008d0:	2000097c 20000980 200009a4              |.. ... ... 

200008dc <deviceDescriptor>:
200008dc:	02000112 40000000 28821209 02010833     .......@...(3...
200008ec:	                                         ..

200008ee <deviceType>:
200008ee:	                                         .

200008ef <fullDeviceType>:
200008ef:	                                         .

200008f0 <kbd_report_descriptor>:
200008f0:	06090105 068501a1 e0190705 0015e729     ............)...
20000900:	01750125 02810895 08750195 08050181     %.u.......u.....
20000910:	05290119 01750595 01950291 01910375     ..)...u.....u...
20000920:	ff260015 19070500 95ff2900 81087506     ..&......)...u..
20000930:	0105c000 01a10209 01090585 090500a1     ................
20000940:	04290119 01250015 01750495 04750281     ..)...%...u...u.
20000950:	03810195 30090105 38093109 7f258115     .......0.1.8..%.
20000960:	08750395 0c050681 1602380a 7f26ff81     ..u......8....&.
20000970:	75019500 c0068108 000000c0              ...u........

2000097c <languageString>:
2000097c:	04090304                                ....

20000980 <manufacturerString>:
20000980:	00730314 006e0061 0061006a 00390079     ..s.a.n.j.a.y.9.
20000990:	00300030                                0.0.

20000994 <pid>:
20000994:	01000092 02000120 28820210 074b0004     .... ......(..K.

200009a4 <productString>:
200009a4:	00410312 00640072 00690077 006e0069     ..A.r.d.w.i.i.n.
200009b4:	0000006f                                o...

200009b8 <ps3_report_descriptor>:
200009b8:	05090105 001501a1 00350125 01750145     ........%.5.E.u.
200009c8:	09050d95 0d290119 03950281 01050181     ......).........
200009d8:	3b460725 95047501 09146501 65428139     %.F;.u...e..9.Be
200009e8:	81019500 00ff2601 0900ff46 09310930     .....&..F...0.1.
200009f8:	75350932 81049508 ff000602 21092009     2.5u......... .!
20000a08:	23092209 25092409 27092609 29092809     .".#.$.%.&.'.(.)
20000a18:	2b092a09 02810c95 9526210a 0a02b120     .*.+.....!&. ...
20000a28:	02912621 4603ff26 2c0903ff 2e092d09     !&..&..F...,.-..
20000a38:	10752f09 02810495 000000c0              ./u.........

20000a44 <vid>:
20000a44:	12ba0f0d 12ba12ba 120912ba 1bad1bad     ................

20000a54 <ps3ButtonBindings>:
20000a54:	0e0d0c0f 0908ffff 07060405               ..............

20000a62 <bytes>:
20000a62:	                                         .

20000a63 <detectedPin>:
20000a63:	                                         .

20000a64 <ps2CtrlType>:
20000a64:	0000000a                                ....

20000a68 <wiiButtonBindings>:
20000a68:	07090608 ffff0402 ff030a0f 0b0d0e0c     ................

20000a78 <wiiExtensionID>:
20000a78:	0000180b                                ....

20000a7c <flash_target_contents>:
20000a7c:	10080000                                ....

20000a80 <st>:
20000a80:	1000c9ac 1000c9a0 00000000 00000000     ................
	...

20000aac <striped_spin_lock_num>:
20000aac:	00000010                                ....

20000ab0 <default_alarm_pool>:
20000ab0:	20000ac8 00000000 20000fe0 20001758     ... ....... X.. 
	...

20000ac8 <default_alarm_pool_heap>:
20000ac8:	20001768 00000000 00000000 00000010     h.. ............

20000ad8 <irq_handler_chain_slots>:
20000ad8:	00000000 	.word	0x00000000
20000adc:	00010000 	.word	0x00010000
	...
20000ae8:	00020000 	.word	0x00020000
	...
20000af4:	00030000 	.word	0x00030000
	...
20000b00:	00ff0000 	.word	0x00ff0000
20000b04:	00000000 	.word	0x00000000

20000b08 <irq_handler_chain_first_slot>:
20000b08:	b500      	push	{lr}
20000b0a:	6848      	ldr	r0, [r1, #4]
20000b0c:	3101      	adds	r1, #1
20000b0e:	468e      	mov	lr, r1
20000b10:	4700      	bx	r0

20000b12 <irq_handler_chain_remove_tail>:
20000b12:	4670      	mov	r0, lr
20000b14:	3809      	subs	r0, #9
20000b16:	4901      	ldr	r1, [pc, #4]	; (20000b1c <irq_handler_chain_remove_tail+0xa>)
20000b18:	4788      	blx	r1
20000b1a:	bd00      	pop	{pc}
20000b1c:	10006989 	.word	0x10006989

20000b20 <aeabi_bits_funcs>:
20000b20:	00003350 	.word	0x00003350
20000b24:	0000334c 	.word	0x0000334c
20000b28:	00003354 	.word	0x00003354
20000b2c:	00003352 	.word	0x00003352

20000b30 <aeabi_bits_funcs_end>:
20000b30:	0000534d 	.word	0x0000534d
20000b34:	0000434d 	.word	0x0000434d
20000b38:	00003453 	.word	0x00003453
20000b3c:	00003443 	.word	0x00003443

20000b40 <stdio_uart>:
20000b40:	10008d55 00000000 10008dc9 00000000     U...............
20000b50:	00000100                                ....

20000b54 <i2c0_inst>:
20000b54:	40044000 00000000                       .@.@....

20000b5c <i2c1_inst>:
20000b5c:	40048000 00000000                       ...@....

20000b64 <ep_dir_string>:
20000b64:	1000d934 1000d914                       4.......

20000b6c <_usbd_qdef>:
20000b6c:	20001328 000c0010 00000000 00000000     (.. ............
	...

20000b90 <impure_data>:
20000b90:	00000000 20000e7c 20000ee4 20000f4c     ....|.. ... L.. 
	...
20000c38:	00000001 00000000 abcd330e e66d1234     .........3..4.m.
20000c48:	0005deec 0000000b 00000000 00000000     ................
	...

20000fb8 <__atexit_recursive_mutex>:
20000fb8:	200010e0                                ... 

20000fbc <print_mutex>:
	...

20000fc4 <__mutex_array_end>:
20000fc4:	10008ab9 	.word	0x10008ab9
20000fc8:	10007bcd 	.word	0x10007bcd
20000fcc:	100082bd 	.word	0x100082bd
20000fd0:	10008989 	.word	0x10008989

20000fd4 <__init_array_start>:
20000fd4:	1000ba2d 	.word	0x1000ba2d

20000fd8 <__frame_dummy_init_array_entry>:
20000fd8:	100002c5 10009355                       ....U...
